
/home/mike/GitHubRepos/openhwgroup/core-v-verif/master/cv32e40p/tests/programs/custom/interrupt_test/interrupt_test.elf:     file format elf32-littleriscv


Disassembly of section .vectors:

00000000 <__vector_start>:
.section .vectors, "ax"
.option norvc
.global vector_table

vector_table:
	j u_sw_irq_handler
   0:	2330106f          	jal	x0,1a32 <u_sw_irq_handler>
	j __no_irq_handler
   4:	1fb0106f          	jal	x0,19fe <__no_irq_handler>
	j __no_irq_handler
   8:	1f70106f          	jal	x0,19fe <__no_irq_handler>
	j m_software_irq_handler
   c:	5ba0006f          	jal	x0,5c6 <m_software_irq_handler>
	j __no_irq_handler
  10:	1ef0106f          	jal	x0,19fe <__no_irq_handler>
	j __no_irq_handler
  14:	1eb0106f          	jal	x0,19fe <__no_irq_handler>
	j __no_irq_handler
  18:	1e70106f          	jal	x0,19fe <__no_irq_handler>
	j m_timer_irq_handler
  1c:	63c0006f          	jal	x0,658 <m_timer_irq_handler>
	j __no_irq_handler
  20:	1df0106f          	jal	x0,19fe <__no_irq_handler>
	j __no_irq_handler
  24:	1db0106f          	jal	x0,19fe <__no_irq_handler>
	j __no_irq_handler
  28:	1d70106f          	jal	x0,19fe <__no_irq_handler>
	j m_external_irq_handler
  2c:	6be0006f          	jal	x0,6ea <m_external_irq_handler>
	j __no_irq_handler
  30:	1cf0106f          	jal	x0,19fe <__no_irq_handler>
	j __no_irq_handler
  34:	1cb0106f          	jal	x0,19fe <__no_irq_handler>
	j __no_irq_handler
  38:	1c70106f          	jal	x0,19fe <__no_irq_handler>
	j __no_irq_handler
  3c:	1c30106f          	jal	x0,19fe <__no_irq_handler>
	j m_fast0_irq_handler
  40:	73c0006f          	jal	x0,77c <m_fast0_irq_handler>
	j m_fast1_irq_handler
  44:	7ca0006f          	jal	x0,80e <m_fast1_irq_handler>
	j m_fast2_irq_handler
  48:	0590006f          	jal	x0,8a0 <m_fast2_irq_handler>
	j m_fast3_irq_handler
  4c:	0e70006f          	jal	x0,932 <m_fast3_irq_handler>
	j m_fast4_irq_handler
  50:	1750006f          	jal	x0,9c4 <m_fast4_irq_handler>
	j m_fast5_irq_handler
  54:	2030006f          	jal	x0,a56 <m_fast5_irq_handler>
	j m_fast6_irq_handler
  58:	2910006f          	jal	x0,ae8 <m_fast6_irq_handler>
	j m_fast7_irq_handler
  5c:	31f0006f          	jal	x0,b7a <m_fast7_irq_handler>
	j m_fast8_irq_handler
  60:	3ad0006f          	jal	x0,c0c <m_fast8_irq_handler>
	j m_fast9_irq_handler
  64:	43d0006f          	jal	x0,ca0 <m_fast9_irq_handler>
	j m_fast10_irq_handler
  68:	4cd0006f          	jal	x0,d34 <m_fast10_irq_handler>
	j m_fast11_irq_handler
  6c:	55d0006f          	jal	x0,dc8 <m_fast11_irq_handler>
	j m_fast12_irq_handler
  70:	5ed0006f          	jal	x0,e5c <m_fast12_irq_handler>
	j m_fast13_irq_handler
  74:	67d0006f          	jal	x0,ef0 <m_fast13_irq_handler>
	j m_fast14_irq_handler
  78:	70d0006f          	jal	x0,f84 <m_fast14_irq_handler>
	j m_fast15_irq_handler
  7c:	79d0006f          	jal	x0,1018 <m_fast15_irq_handler>

Disassembly of section .init:

00000080 <_start>:

_start:
/* initialize global pointer */
.option push
.option norelax
1:	auipc gp, %pcrel_hi(__global_pointer$)
  80:	00014197          	auipc	x3,0x14
	addi  gp, gp, %pcrel_lo(1b)
  84:	3d018193          	addi	x3,x3,976 # 14450 <__global_pointer$>
.option pop

/* initialize stack pointer */
	la sp, __stack_end
  88:	00400117          	auipc	x2,0x400
  8c:	f7810113          	addi	x2,x2,-136 # 400000 <__heap_end>

/* set vector table address */
	la a0, __vector_start
  90:	00000517          	auipc	x10,0x0
  94:	f7050513          	addi	x10,x10,-144 # 0 <__vector_start>
	ori a0, a0, 1 /*vector mode = vectored */
  98:	00156513          	ori	x10,x10,1
	csrw mtvec, a0
  9c:	30551073          	csrrw	x0,mtvec,x10

/* clear the bss segment */
	la a0, _edata
  a0:	f6018513          	addi	x10,x3,-160 # 143b0 <in_direct_handler>
	la a2, _end
  a4:	2d418613          	addi	x12,x3,724 # 14724 <__bss_end>
	sub a2, a2, a0
  a8:	8e09                	c.sub	x12,x10
	li a1, 0
  aa:	4581                	c.li	x11,0
	call memset
  ac:	604030ef          	jal	x1,36b0 <memset>

/* new-style constructors and destructors */
	la a0, __libc_fini_array
  b0:	00003517          	auipc	x10,0x3
  b4:	01850513          	addi	x10,x10,24 # 30c8 <__libc_fini_array>
	call atexit
  b8:	0ec040ef          	jal	x1,41a4 <atexit>
	call __libc_init_array
  bc:	028040ef          	jal	x1,40e4 <__libc_init_array>
//	lw a0, 0(sp)                    /* a0 = argc */
//	addi a1, sp, __SIZEOF_POINTER__ /* a1 = argv */
//	li a2, 0                        /* a2 = envp = NULL */
// Initialize these variables to 0. Cannot use argc or argv
// since the stack is not initialized
	li a0, 0
  c0:	4501                	c.li	x10,0
	li a1, 0
  c2:	4581                	c.li	x11,0
	li a2, 0
  c4:	4601                	c.li	x12,0

	call main
  c6:	282d                	c.jal	100 <main>
	tail exit
  c8:	0b00406f          	jal	x0,4178 <exit>

000000cc <_fini>:
.type   _fini, @function
_init:
_fini:
 /* These don't have to do anything since we use init_array/fini_array. Prevent
    missing symbol error */
	ret
  cc:	8082                	c.jr	x1

Disassembly of section .text:

00000100 <main>:
        "alt_direct_ecall_table:\n"
        "wfi\n"
	    "j u_sw_irq_handler\n"	
    );

int main(int argc, char *argv[]) {
     100:	ff010113          	addi	x2,x2,-16
     104:	00112623          	sw	x1,12(x2)
    int retval;

    // Test 1
    retval = test1();
     108:	16e010ef          	jal	x1,1276 <test1>
    if (retval != EXIT_SUCCESS)
     10c:	04051463          	bne	x10,x0,154 <main+0x54>
        return retval;

    // Test 2
    retval = test2();
     110:	196010ef          	jal	x1,12a6 <test2>
    if (retval != EXIT_SUCCESS)
     114:	04051063          	bne	x10,x0,154 <main+0x54>
        return retval;

    // Test 3
    retval = test3();
     118:	23c010ef          	jal	x1,1354 <test3>
    if (retval != EXIT_SUCCESS)
     11c:	02051c63          	bne	x10,x0,154 <main+0x54>
        return retval;

    // Test 4
    retval = test4();
     120:	390010ef          	jal	x1,14b0 <test4>
    if (retval != EXIT_SUCCESS)
     124:	02051863          	bne	x10,x0,154 <main+0x54>
        return retval;

    // Test 5
    retval = test5();
     128:	51a010ef          	jal	x1,1642 <test5>
    if (retval != EXIT_SUCCESS)
     12c:	02051463          	bne	x10,x0,154 <main+0x54>
        return retval;

    // Test 6
    retval = test6();
     130:	56a010ef          	jal	x1,169a <test6>
    if (retval != EXIT_SUCCESS)
     134:	02051063          	bne	x10,x0,154 <main+0x54>
        return retval;

    // Repeat test1 (restore vector mode)
    retval = test7();
     138:	5ae010ef          	jal	x1,16e6 <test7>
    if (retval != EXIT_SUCCESS)
     13c:	00051c63          	bne	x10,x0,154 <main+0x54>
        return retval;

    // Try to write mcause (for coverage)
    retval = test8();
     140:	5da010ef          	jal	x1,171a <test8>
    if (retval != EXIT_SUCCESS)
     144:	00051863          	bne	x10,x0,154 <main+0x54>
    retval = test9();
    if (retval != EXIT_SUCCESS)
        return retval;

    return EXIT_SUCCESS;
}
     148:	00c12083          	lw	x1,12(x2)
     14c:	01010113          	addi	x2,x2,16
    retval = test9();
     150:	66c0106f          	jal	x0,17bc <test9>
}
     154:	00c12083          	lw	x1,12(x2)
     158:	01010113          	addi	x2,x2,16
     15c:	00008067          	jalr	x0,0(x1)

00000160 <register_fini>:
     160:	00000793          	addi	x15,x0,0
     164:	00078863          	beq	x15,x0,174 <register_fini+0x14>
     168:	00003517          	auipc	x10,0x3
     16c:	f6050513          	addi	x10,x10,-160 # 30c8 <__libc_fini_array>
     170:	0340406f          	jal	x0,41a4 <atexit>
     174:	00008067          	jalr	x0,0(x1)
	...

00000200 <alt_vector_table>:
     200:	0330106f          	jal	x0,1a32 <u_sw_irq_handler>
     204:	7fa0106f          	jal	x0,19fe <__no_irq_handler>
     208:	7f60106f          	jal	x0,19fe <__no_irq_handler>
     20c:	3ba0006f          	jal	x0,5c6 <m_software_irq_handler>
     210:	7ee0106f          	jal	x0,19fe <__no_irq_handler>
     214:	7ea0106f          	jal	x0,19fe <__no_irq_handler>
     218:	7e60106f          	jal	x0,19fe <__no_irq_handler>
     21c:	43c0006f          	jal	x0,658 <m_timer_irq_handler>
     220:	7de0106f          	jal	x0,19fe <__no_irq_handler>
     224:	7da0106f          	jal	x0,19fe <__no_irq_handler>
     228:	7d60106f          	jal	x0,19fe <__no_irq_handler>
     22c:	4be0006f          	jal	x0,6ea <m_external_irq_handler>
     230:	7ce0106f          	jal	x0,19fe <__no_irq_handler>
     234:	7ca0106f          	jal	x0,19fe <__no_irq_handler>
     238:	7c60106f          	jal	x0,19fe <__no_irq_handler>
     23c:	7c20106f          	jal	x0,19fe <__no_irq_handler>
     240:	53c0006f          	jal	x0,77c <m_fast0_irq_handler>
     244:	5ca0006f          	jal	x0,80e <m_fast1_irq_handler>
     248:	6580006f          	jal	x0,8a0 <m_fast2_irq_handler>
     24c:	6e60006f          	jal	x0,932 <m_fast3_irq_handler>
     250:	7740006f          	jal	x0,9c4 <m_fast4_irq_handler>
     254:	0030006f          	jal	x0,a56 <m_fast5_irq_handler>
     258:	0910006f          	jal	x0,ae8 <m_fast6_irq_handler>
     25c:	11f0006f          	jal	x0,b7a <m_fast7_irq_handler>
     260:	1ad0006f          	jal	x0,c0c <m_fast8_irq_handler>
     264:	23d0006f          	jal	x0,ca0 <m_fast9_irq_handler>
     268:	2cd0006f          	jal	x0,d34 <m_fast10_irq_handler>
     26c:	35d0006f          	jal	x0,dc8 <m_fast11_irq_handler>
     270:	3ed0006f          	jal	x0,e5c <m_fast12_irq_handler>
     274:	47d0006f          	jal	x0,ef0 <m_fast13_irq_handler>
     278:	50d0006f          	jal	x0,f84 <m_fast14_irq_handler>
     27c:	59d0006f          	jal	x0,1018 <m_fast15_irq_handler>
     280:	00000013          	addi	x0,x0,0
     284:	00000013          	addi	x0,x0,0
     288:	00000013          	addi	x0,x0,0
     28c:	00000013          	addi	x0,x0,0
     290:	00000013          	addi	x0,x0,0
     294:	00000013          	addi	x0,x0,0
     298:	00000013          	addi	x0,x0,0
     29c:	00000013          	addi	x0,x0,0
     2a0:	00000013          	addi	x0,x0,0
     2a4:	00000013          	addi	x0,x0,0
     2a8:	00000013          	addi	x0,x0,0
     2ac:	00000013          	addi	x0,x0,0
     2b0:	00000013          	addi	x0,x0,0
     2b4:	00000013          	addi	x0,x0,0
     2b8:	00000013          	addi	x0,x0,0
     2bc:	00000013          	addi	x0,x0,0
     2c0:	00000013          	addi	x0,x0,0
     2c4:	00000013          	addi	x0,x0,0
     2c8:	00000013          	addi	x0,x0,0
     2cc:	00000013          	addi	x0,x0,0
     2d0:	00000013          	addi	x0,x0,0
     2d4:	00000013          	addi	x0,x0,0
     2d8:	00000013          	addi	x0,x0,0
     2dc:	00000013          	addi	x0,x0,0
     2e0:	00000013          	addi	x0,x0,0
     2e4:	00000013          	addi	x0,x0,0
     2e8:	00000013          	addi	x0,x0,0
     2ec:	00000013          	addi	x0,x0,0
     2f0:	00000013          	addi	x0,x0,0
     2f4:	00000013          	addi	x0,x0,0
     2f8:	00000013          	addi	x0,x0,0
     2fc:	00000013          	addi	x0,x0,0

00000300 <alt_direct_vector_table>:
     300:	5ad0006f          	jal	x0,10ac <u_sw_direct_irq_handler>
     304:	00000013          	addi	x0,x0,0
     308:	00000013          	addi	x0,x0,0
     30c:	00000013          	addi	x0,x0,0
     310:	00000013          	addi	x0,x0,0
     314:	00000013          	addi	x0,x0,0
     318:	00000013          	addi	x0,x0,0
     31c:	00000013          	addi	x0,x0,0
     320:	00000013          	addi	x0,x0,0
     324:	00000013          	addi	x0,x0,0
     328:	00000013          	addi	x0,x0,0
     32c:	00000013          	addi	x0,x0,0
     330:	00000013          	addi	x0,x0,0
     334:	00000013          	addi	x0,x0,0
     338:	00000013          	addi	x0,x0,0
     33c:	00000013          	addi	x0,x0,0
     340:	00000013          	addi	x0,x0,0
     344:	00000013          	addi	x0,x0,0
     348:	00000013          	addi	x0,x0,0
     34c:	00000013          	addi	x0,x0,0
     350:	00000013          	addi	x0,x0,0
     354:	00000013          	addi	x0,x0,0
     358:	00000013          	addi	x0,x0,0
     35c:	00000013          	addi	x0,x0,0
     360:	00000013          	addi	x0,x0,0
     364:	00000013          	addi	x0,x0,0
     368:	00000013          	addi	x0,x0,0
     36c:	00000013          	addi	x0,x0,0
     370:	00000013          	addi	x0,x0,0
     374:	00000013          	addi	x0,x0,0
     378:	00000013          	addi	x0,x0,0
     37c:	00000013          	addi	x0,x0,0
     380:	00000013          	addi	x0,x0,0
     384:	00000013          	addi	x0,x0,0
     388:	00000013          	addi	x0,x0,0
     38c:	00000013          	addi	x0,x0,0
     390:	00000013          	addi	x0,x0,0
     394:	00000013          	addi	x0,x0,0
     398:	00000013          	addi	x0,x0,0
     39c:	00000013          	addi	x0,x0,0
     3a0:	00000013          	addi	x0,x0,0
     3a4:	00000013          	addi	x0,x0,0
     3a8:	00000013          	addi	x0,x0,0
     3ac:	00000013          	addi	x0,x0,0
     3b0:	00000013          	addi	x0,x0,0
     3b4:	00000013          	addi	x0,x0,0
     3b8:	00000013          	addi	x0,x0,0
     3bc:	00000013          	addi	x0,x0,0
     3c0:	00000013          	addi	x0,x0,0
     3c4:	00000013          	addi	x0,x0,0
     3c8:	00000013          	addi	x0,x0,0
     3cc:	00000013          	addi	x0,x0,0
     3d0:	00000013          	addi	x0,x0,0
     3d4:	00000013          	addi	x0,x0,0
     3d8:	00000013          	addi	x0,x0,0
     3dc:	00000013          	addi	x0,x0,0
     3e0:	00000013          	addi	x0,x0,0
     3e4:	00000013          	addi	x0,x0,0
     3e8:	00000013          	addi	x0,x0,0
     3ec:	00000013          	addi	x0,x0,0
     3f0:	00000013          	addi	x0,x0,0
     3f4:	00000013          	addi	x0,x0,0
     3f8:	00000013          	addi	x0,x0,0
     3fc:	00000013          	addi	x0,x0,0

00000400 <alt_direct_ecall_table>:
     400:	10500073          	wfi
     404:	62e0106f          	jal	x0,1a32 <u_sw_irq_handler>

00000408 <delay>:
void delay(int count) {
     408:	ff010113          	addi	x2,x2,-16
    for (volatile int d = 0; d < count; d++);
     40c:	00012623          	sw	x0,12(x2)
     410:	00c12783          	lw	x15,12(x2)
     414:	00a7c663          	blt	x15,x10,420 <delay+0x18>
}
     418:	01010113          	addi	x2,x2,16
     41c:	00008067          	jalr	x0,0(x1)
    for (volatile int d = 0; d < count; d++);
     420:	00c12783          	lw	x15,12(x2)
     424:	00178793          	addi	x15,x15,1
     428:	00f12623          	sw	x15,12(x2)
     42c:	fe5ff06f          	jal	x0,410 <delay+0x8>

00000430 <mstatus_mie_enable>:
    asm volatile("csrrs x0, mstatus, %0" : : "r" (mie_bit));
     430:	00800793          	addi	x15,x0,8
     434:	3007a073          	csrrs	x0,mstatus,x15
}
     438:	00008067          	jalr	x0,0(x1)

0000043c <mstatus_mie_disable>:
    asm volatile("csrrc x0, mstatus, %0" : : "r" (mie_bit));
     43c:	00800793          	addi	x15,x0,8
     440:	3007b073          	csrrc	x0,mstatus,x15
}
     444:	00008067          	jalr	x0,0(x1)

00000448 <mie_enable_all>:
    asm volatile("csrrs x0, mie, %0" : : "r" (mie_mask));
     448:	fff00793          	addi	x15,x0,-1
     44c:	3047a073          	csrrs	x0,mie,x15
}
     450:	00008067          	jalr	x0,0(x1)

00000454 <mie_disable_all>:
    asm volatile("csrrc x0, mie, %0" : : "r" (mie_mask));
     454:	fff00793          	addi	x15,x0,-1
     458:	3047b073          	csrrc	x0,mie,x15
}
     45c:	00008067          	jalr	x0,0(x1)

00000460 <mie_enable>:
    uint32_t mie_bit = 0x1 << irq;
     460:	00100793          	addi	x15,x0,1
     464:	00a797b3          	sll	x15,x15,x10
    asm volatile("csrrs x0, mie, %0" : : "r" (mie_bit));
     468:	3047a073          	csrrs	x0,mie,x15
}
     46c:	00008067          	jalr	x0,0(x1)

00000470 <mie_disable>:
    uint32_t mie_bit = 0x1 << irq;
     470:	00100793          	addi	x15,x0,1
     474:	00a797b3          	sll	x15,x15,x10
    asm volatile("csrrc x0, mie, %0" : : "r" (mie_bit));
     478:	3047b073          	csrrc	x0,mie,x15
}
     47c:	00008067          	jalr	x0,0(x1)

00000480 <mm_ram_assert_irq>:
    *TIMER_REG_ADDR = mask;
     480:	150007b7          	lui	x15,0x15000
     484:	00a7a023          	sw	x10,0(x15) # 15000000 <__heap_end+0x14c00000>
    *TIMER_VAL_ADDR = 1 + cycle_delay;
     488:	00158593          	addi	x11,x11,1
     48c:	00b7a223          	sw	x11,4(x15)
}
     490:	00008067          	jalr	x0,0(x1)

00000494 <random_num>:
    uint32_t random_num = *((volatile int *)0x15001000);
     494:	150017b7          	lui	x15,0x15001
     498:	0007a703          	lw	x14,0(x15) # 15001000 <__heap_end+0x14c01000>
    uint32_t num = (random_num  % (upper_bound - lower_bound + 1)) + lower_bound;
     49c:	40b507b3          	sub	x15,x10,x11
     4a0:	00178793          	addi	x15,x15,1
     4a4:	02f77533          	remu	x10,x14,x15
}
     4a8:	00b50533          	add	x10,x10,x11
     4ac:	00008067          	jalr	x0,0(x1)

000004b0 <random_num32>:
    uint32_t num = *((volatile int *)0x15001000);
     4b0:	150017b7          	lui	x15,0x15001
     4b4:	0007a503          	lw	x10,0(x15) # 15001000 <__heap_end+0x14c01000>
}
     4b8:	00008067          	jalr	x0,0(x1)

000004bc <nested_irq_handler>:
void nested_irq_handler(uint32_t id) {
     4bc:	ff010113          	addi	x2,x2,-16
    asm volatile("csrr %0, mie" : "=r" (mie));
     4c0:	304027f3          	csrrs	x15,mie,x0
     4c4:	00f12023          	sw	x15,0(x2)
    asm volatile("csrr %0, mepc" :"=r" (mepc));
     4c8:	341027f3          	csrrs	x15,mepc,x0
     4cc:	00f12223          	sw	x15,4(x2)
    asm volatile("csrr %0, mstatus" : "=r" (mstatus));
     4d0:	300027f3          	csrrs	x15,mstatus,x0
     4d4:	00f12423          	sw	x15,8(x2)
    asm volatile("csrrs x0, mstatus, %0" : : "r" (mie_bit));
     4d8:	00800793          	addi	x15,x0,8
     4dc:	3007a073          	csrrs	x0,mstatus,x15
    for (volatile int i = 0; i < 20; i++);
     4e0:	01300713          	addi	x14,x0,19
     4e4:	00012623          	sw	x0,12(x2)
     4e8:	00c12783          	lw	x15,12(x2)
     4ec:	02f75663          	bge	x14,x15,518 <nested_irq_handler+0x5c>
    asm volatile("csrrc x0, mstatus, %0" : : "r" (mie_bit));
     4f0:	00800793          	addi	x15,x0,8
     4f4:	3007b073          	csrrc	x0,mstatus,x15
    asm volatile("csrw mie, %0" : : "r" (mie));
     4f8:	00012783          	lw	x15,0(x2)
     4fc:	30479073          	csrrw	x0,mie,x15
    asm volatile("csrw mepc, %0" : : "r" (mepc));
     500:	00412783          	lw	x15,4(x2)
     504:	34179073          	csrrw	x0,mepc,x15
    asm volatile("csrw mstatus, %0" : : "r" (mstatus));
     508:	00812783          	lw	x15,8(x2)
     50c:	30079073          	csrrw	x0,mstatus,x15
}
     510:	01010113          	addi	x2,x2,16
     514:	00008067          	jalr	x0,0(x1)
    for (volatile int i = 0; i < 20; i++);
     518:	00c12783          	lw	x15,12(x2)
     51c:	00178793          	addi	x15,x15,1
     520:	00f12623          	sw	x15,12(x2)
     524:	fc5ff06f          	jal	x0,4e8 <nested_irq_handler+0x2c>

00000528 <generic_irq_handler>:
    asm volatile("csrr %0, mcause": "=r" (mmcause));
     528:	34202773          	csrrs	x14,mcause,x0
     52c:	f6e1a823          	sw	x14,-144(x3) # 143c0 <mmcause>
    irq_id = id;
     530:	f6a1ac23          	sw	x10,-136(x3) # 143c8 <irq_id>
    if (active_test == 2 || active_test == 3 || active_test == 4) {
     534:	f6c1a683          	lw	x13,-148(x3) # 143bc <active_test>
     538:	00200793          	addi	x15,x0,2
     53c:	00f68e63          	beq	x13,x15,558 <generic_irq_handler+0x30>
     540:	f6c1a683          	lw	x13,-148(x3) # 143bc <active_test>
     544:	00300793          	addi	x15,x0,3
     548:	00f68863          	beq	x13,x15,558 <generic_irq_handler+0x30>
     54c:	f6c1a683          	lw	x13,-148(x3) # 143bc <active_test>
     550:	00400793          	addi	x15,x0,4
     554:	02f69063          	bne	x13,x15,574 <generic_irq_handler+0x4c>
        irq_id_q[irq_id_q_ptr++] = id;
     558:	f741a783          	lw	x15,-140(x3) # 143c4 <irq_id_q_ptr>
     55c:	00178613          	addi	x12,x15,1
     560:	f6c1aa23          	sw	x12,-140(x3) # 143c4 <irq_id_q_ptr>
     564:	00279693          	slli	x13,x15,0x2
     568:	f9818793          	addi	x15,x3,-104 # 143e8 <irq_id_q>
     56c:	00d787b3          	add	x15,x15,x13
     570:	00a7a023          	sw	x10,0(x15)
    if (active_test == 3) {
     574:	f6c1a703          	lw	x14,-148(x3) # 143bc <active_test>
     578:	00300793          	addi	x15,x0,3
     57c:	04f71363          	bne	x14,x15,5c2 <generic_irq_handler+0x9a>
        if (nested_irq_valid) {
     580:	f641a703          	lw	x14,-156(x3) # 143b4 <nested_irq_valid>
     584:	02070e63          	beq	x14,x0,5c0 <generic_irq_handler+0x98>
            nested_irq_valid = 0;
     588:	f601a223          	sw	x0,-156(x3) # 143b4 <nested_irq_valid>
            mm_ram_assert_irq(0x1 << nested_irq, random_num(10,0));
     58c:	f681a783          	lw	x15,-152(x3) # 143b8 <nested_irq>
     590:	00100713          	addi	x14,x0,1
    *TIMER_REG_ADDR = mask;
     594:	150006b7          	lui	x13,0x15000
            mm_ram_assert_irq(0x1 << nested_irq, random_num(10,0));
     598:	00f71733          	sll	x14,x14,x15
    uint32_t random_num = *((volatile int *)0x15001000);
     59c:	150017b7          	lui	x15,0x15001
     5a0:	0007a783          	lw	x15,0(x15) # 15001000 <__heap_end+0x14c01000>
    *TIMER_REG_ADDR = mask;
     5a4:	00e6a023          	sw	x14,0(x13) # 15000000 <__heap_end+0x14c00000>
    uint32_t num = (random_num  % (upper_bound - lower_bound + 1)) + lower_bound;
     5a8:	00b00713          	addi	x14,x0,11
     5ac:	02e7f7b3          	remu	x15,x15,x14
    *TIMER_VAL_ADDR = 1 + cycle_delay;
     5b0:	15000737          	lui	x14,0x15000
     5b4:	00470713          	addi	x14,x14,4 # 15000004 <__heap_end+0x14c00004>
     5b8:	00178793          	addi	x15,x15,1
     5bc:	00f72023          	sw	x15,0(x14)
        nested_irq_handler(id);
     5c0:	bdf5                	.insn	2, 0xbdf5
}
     5c2:	00008067          	jalr	x0,0(x1)

000005c6 <m_software_irq_handler>:
void m_software_irq_handler(void) { generic_irq_handler(SOFTWARE_IRQ_ID); }
     5c6:	fc010113          	addi	x2,x2,-64
     5ca:	02a12623          	sw	x10,44(x2)
     5ce:	00300513          	addi	x10,x0,3
     5d2:	02112e23          	sw	x1,60(x2)
     5d6:	02512c23          	sw	x5,56(x2)
     5da:	02612a23          	sw	x6,52(x2)
     5de:	02712823          	sw	x7,48(x2)
     5e2:	02b12423          	sw	x11,40(x2)
     5e6:	02c12223          	sw	x12,36(x2)
     5ea:	02d12023          	sw	x13,32(x2)
     5ee:	00e12e23          	sw	x14,28(x2)
     5f2:	00f12c23          	sw	x15,24(x2)
     5f6:	01012a23          	sw	x16,20(x2)
     5fa:	01112823          	sw	x17,16(x2)
     5fe:	01c12623          	sw	x28,12(x2)
     602:	01d12423          	sw	x29,8(x2)
     606:	01e12223          	sw	x30,4(x2)
     60a:	01f12023          	sw	x31,0(x2)
     60e:	3f29                	.insn	2, 0x3f29
     610:	03c12083          	lw	x1,60(x2)
     614:	03812283          	lw	x5,56(x2)
     618:	03412303          	lw	x6,52(x2)
     61c:	03012383          	lw	x7,48(x2)
     620:	02c12503          	lw	x10,44(x2)
     624:	02812583          	lw	x11,40(x2)
     628:	02412603          	lw	x12,36(x2)
     62c:	02012683          	lw	x13,32(x2)
     630:	01c12703          	lw	x14,28(x2)
     634:	01812783          	lw	x15,24(x2)
     638:	01412803          	lw	x16,20(x2)
     63c:	01012883          	lw	x17,16(x2)
     640:	00c12e03          	lw	x28,12(x2)
     644:	00812e83          	lw	x29,8(x2)
     648:	00412f03          	lw	x30,4(x2)
     64c:	00012f83          	lw	x31,0(x2)
     650:	04010113          	addi	x2,x2,64
     654:	30200073          	mret

00000658 <m_timer_irq_handler>:
void m_timer_irq_handler(void) { generic_irq_handler(TIMER_IRQ_ID); }
     658:	fc010113          	addi	x2,x2,-64
     65c:	02a12623          	sw	x10,44(x2)
     660:	00700513          	addi	x10,x0,7
     664:	02112e23          	sw	x1,60(x2)
     668:	02512c23          	sw	x5,56(x2)
     66c:	02612a23          	sw	x6,52(x2)
     670:	02712823          	sw	x7,48(x2)
     674:	02b12423          	sw	x11,40(x2)
     678:	02c12223          	sw	x12,36(x2)
     67c:	02d12023          	sw	x13,32(x2)
     680:	00e12e23          	sw	x14,28(x2)
     684:	00f12c23          	sw	x15,24(x2)
     688:	01012a23          	sw	x16,20(x2)
     68c:	01112823          	sw	x17,16(x2)
     690:	01c12623          	sw	x28,12(x2)
     694:	01d12423          	sw	x29,8(x2)
     698:	01e12223          	sw	x30,4(x2)
     69c:	01f12023          	sw	x31,0(x2)
     6a0:	3561                	.insn	2, 0x3561
     6a2:	03c12083          	lw	x1,60(x2)
     6a6:	03812283          	lw	x5,56(x2)
     6aa:	03412303          	lw	x6,52(x2)
     6ae:	03012383          	lw	x7,48(x2)
     6b2:	02c12503          	lw	x10,44(x2)
     6b6:	02812583          	lw	x11,40(x2)
     6ba:	02412603          	lw	x12,36(x2)
     6be:	02012683          	lw	x13,32(x2)
     6c2:	01c12703          	lw	x14,28(x2)
     6c6:	01812783          	lw	x15,24(x2)
     6ca:	01412803          	lw	x16,20(x2)
     6ce:	01012883          	lw	x17,16(x2)
     6d2:	00c12e03          	lw	x28,12(x2)
     6d6:	00812e83          	lw	x29,8(x2)
     6da:	00412f03          	lw	x30,4(x2)
     6de:	00012f83          	lw	x31,0(x2)
     6e2:	04010113          	addi	x2,x2,64
     6e6:	30200073          	mret

000006ea <m_external_irq_handler>:
void m_external_irq_handler(void) { generic_irq_handler(EXTERNAL_IRQ_ID); }
     6ea:	fc010113          	addi	x2,x2,-64
     6ee:	02a12623          	sw	x10,44(x2)
     6f2:	00b00513          	addi	x10,x0,11
     6f6:	02112e23          	sw	x1,60(x2)
     6fa:	02512c23          	sw	x5,56(x2)
     6fe:	02612a23          	sw	x6,52(x2)
     702:	02712823          	sw	x7,48(x2)
     706:	02b12423          	sw	x11,40(x2)
     70a:	02c12223          	sw	x12,36(x2)
     70e:	02d12023          	sw	x13,32(x2)
     712:	00e12e23          	sw	x14,28(x2)
     716:	00f12c23          	sw	x15,24(x2)
     71a:	01012a23          	sw	x16,20(x2)
     71e:	01112823          	sw	x17,16(x2)
     722:	01c12623          	sw	x28,12(x2)
     726:	01d12423          	sw	x29,8(x2)
     72a:	01e12223          	sw	x30,4(x2)
     72e:	01f12023          	sw	x31,0(x2)
     732:	3bdd                	.insn	2, 0x3bdd
     734:	03c12083          	lw	x1,60(x2)
     738:	03812283          	lw	x5,56(x2)
     73c:	03412303          	lw	x6,52(x2)
     740:	03012383          	lw	x7,48(x2)
     744:	02c12503          	lw	x10,44(x2)
     748:	02812583          	lw	x11,40(x2)
     74c:	02412603          	lw	x12,36(x2)
     750:	02012683          	lw	x13,32(x2)
     754:	01c12703          	lw	x14,28(x2)
     758:	01812783          	lw	x15,24(x2)
     75c:	01412803          	lw	x16,20(x2)
     760:	01012883          	lw	x17,16(x2)
     764:	00c12e03          	lw	x28,12(x2)
     768:	00812e83          	lw	x29,8(x2)
     76c:	00412f03          	lw	x30,4(x2)
     770:	00012f83          	lw	x31,0(x2)
     774:	04010113          	addi	x2,x2,64
     778:	30200073          	mret

0000077c <m_fast0_irq_handler>:
void m_fast0_irq_handler(void) { generic_irq_handler(FAST0_IRQ_ID); }
     77c:	fc010113          	addi	x2,x2,-64
     780:	02a12623          	sw	x10,44(x2)
     784:	01000513          	addi	x10,x0,16
     788:	02112e23          	sw	x1,60(x2)
     78c:	02512c23          	sw	x5,56(x2)
     790:	02612a23          	sw	x6,52(x2)
     794:	02712823          	sw	x7,48(x2)
     798:	02b12423          	sw	x11,40(x2)
     79c:	02c12223          	sw	x12,36(x2)
     7a0:	02d12023          	sw	x13,32(x2)
     7a4:	00e12e23          	sw	x14,28(x2)
     7a8:	00f12c23          	sw	x15,24(x2)
     7ac:	01012a23          	sw	x16,20(x2)
     7b0:	01112823          	sw	x17,16(x2)
     7b4:	01c12623          	sw	x28,12(x2)
     7b8:	01d12423          	sw	x29,8(x2)
     7bc:	01e12223          	sw	x30,4(x2)
     7c0:	01f12023          	sw	x31,0(x2)
     7c4:	3395                	.insn	2, 0x3395
     7c6:	03c12083          	lw	x1,60(x2)
     7ca:	03812283          	lw	x5,56(x2)
     7ce:	03412303          	lw	x6,52(x2)
     7d2:	03012383          	lw	x7,48(x2)
     7d6:	02c12503          	lw	x10,44(x2)
     7da:	02812583          	lw	x11,40(x2)
     7de:	02412603          	lw	x12,36(x2)
     7e2:	02012683          	lw	x13,32(x2)
     7e6:	01c12703          	lw	x14,28(x2)
     7ea:	01812783          	lw	x15,24(x2)
     7ee:	01412803          	lw	x16,20(x2)
     7f2:	01012883          	lw	x17,16(x2)
     7f6:	00c12e03          	lw	x28,12(x2)
     7fa:	00812e83          	lw	x29,8(x2)
     7fe:	00412f03          	lw	x30,4(x2)
     802:	00012f83          	lw	x31,0(x2)
     806:	04010113          	addi	x2,x2,64
     80a:	30200073          	mret

0000080e <m_fast1_irq_handler>:
void m_fast1_irq_handler(void) { generic_irq_handler(FAST1_IRQ_ID); }
     80e:	fc010113          	addi	x2,x2,-64
     812:	02a12623          	sw	x10,44(x2)
     816:	01100513          	addi	x10,x0,17
     81a:	02112e23          	sw	x1,60(x2)
     81e:	02512c23          	sw	x5,56(x2)
     822:	02612a23          	sw	x6,52(x2)
     826:	02712823          	sw	x7,48(x2)
     82a:	02b12423          	sw	x11,40(x2)
     82e:	02c12223          	sw	x12,36(x2)
     832:	02d12023          	sw	x13,32(x2)
     836:	00e12e23          	sw	x14,28(x2)
     83a:	00f12c23          	sw	x15,24(x2)
     83e:	01012a23          	sw	x16,20(x2)
     842:	01112823          	sw	x17,16(x2)
     846:	01c12623          	sw	x28,12(x2)
     84a:	01d12423          	sw	x29,8(x2)
     84e:	01e12223          	sw	x30,4(x2)
     852:	01f12023          	sw	x31,0(x2)
     856:	39c9                	.insn	2, 0x39c9
     858:	03c12083          	lw	x1,60(x2)
     85c:	03812283          	lw	x5,56(x2)
     860:	03412303          	lw	x6,52(x2)
     864:	03012383          	lw	x7,48(x2)
     868:	02c12503          	lw	x10,44(x2)
     86c:	02812583          	lw	x11,40(x2)
     870:	02412603          	lw	x12,36(x2)
     874:	02012683          	lw	x13,32(x2)
     878:	01c12703          	lw	x14,28(x2)
     87c:	01812783          	lw	x15,24(x2)
     880:	01412803          	lw	x16,20(x2)
     884:	01012883          	lw	x17,16(x2)
     888:	00c12e03          	lw	x28,12(x2)
     88c:	00812e83          	lw	x29,8(x2)
     890:	00412f03          	lw	x30,4(x2)
     894:	00012f83          	lw	x31,0(x2)
     898:	04010113          	addi	x2,x2,64
     89c:	30200073          	mret

000008a0 <m_fast2_irq_handler>:
void m_fast2_irq_handler(void) { generic_irq_handler(FAST2_IRQ_ID); }
     8a0:	fc010113          	addi	x2,x2,-64
     8a4:	02a12623          	sw	x10,44(x2)
     8a8:	01200513          	addi	x10,x0,18
     8ac:	02112e23          	sw	x1,60(x2)
     8b0:	02512c23          	sw	x5,56(x2)
     8b4:	02612a23          	sw	x6,52(x2)
     8b8:	02712823          	sw	x7,48(x2)
     8bc:	02b12423          	sw	x11,40(x2)
     8c0:	02c12223          	sw	x12,36(x2)
     8c4:	02d12023          	sw	x13,32(x2)
     8c8:	00e12e23          	sw	x14,28(x2)
     8cc:	00f12c23          	sw	x15,24(x2)
     8d0:	01012a23          	sw	x16,20(x2)
     8d4:	01112823          	sw	x17,16(x2)
     8d8:	01c12623          	sw	x28,12(x2)
     8dc:	01d12423          	sw	x29,8(x2)
     8e0:	01e12223          	sw	x30,4(x2)
     8e4:	01f12023          	sw	x31,0(x2)
     8e8:	3181                	.insn	2, 0x3181
     8ea:	03c12083          	lw	x1,60(x2)
     8ee:	03812283          	lw	x5,56(x2)
     8f2:	03412303          	lw	x6,52(x2)
     8f6:	03012383          	lw	x7,48(x2)
     8fa:	02c12503          	lw	x10,44(x2)
     8fe:	02812583          	lw	x11,40(x2)
     902:	02412603          	lw	x12,36(x2)
     906:	02012683          	lw	x13,32(x2)
     90a:	01c12703          	lw	x14,28(x2)
     90e:	01812783          	lw	x15,24(x2)
     912:	01412803          	lw	x16,20(x2)
     916:	01012883          	lw	x17,16(x2)
     91a:	00c12e03          	lw	x28,12(x2)
     91e:	00812e83          	lw	x29,8(x2)
     922:	00412f03          	lw	x30,4(x2)
     926:	00012f83          	lw	x31,0(x2)
     92a:	04010113          	addi	x2,x2,64
     92e:	30200073          	mret

00000932 <m_fast3_irq_handler>:
void m_fast3_irq_handler(void) { generic_irq_handler(FAST3_IRQ_ID); }
     932:	fc010113          	addi	x2,x2,-64
     936:	02a12623          	sw	x10,44(x2)
     93a:	01300513          	addi	x10,x0,19
     93e:	02112e23          	sw	x1,60(x2)
     942:	02512c23          	sw	x5,56(x2)
     946:	02612a23          	sw	x6,52(x2)
     94a:	02712823          	sw	x7,48(x2)
     94e:	02b12423          	sw	x11,40(x2)
     952:	02c12223          	sw	x12,36(x2)
     956:	02d12023          	sw	x13,32(x2)
     95a:	00e12e23          	sw	x14,28(x2)
     95e:	00f12c23          	sw	x15,24(x2)
     962:	01012a23          	sw	x16,20(x2)
     966:	01112823          	sw	x17,16(x2)
     96a:	01c12623          	sw	x28,12(x2)
     96e:	01d12423          	sw	x29,8(x2)
     972:	01e12223          	sw	x30,4(x2)
     976:	01f12023          	sw	x31,0(x2)
     97a:	367d                	.insn	2, 0x367d
     97c:	03c12083          	lw	x1,60(x2)
     980:	03812283          	lw	x5,56(x2)
     984:	03412303          	lw	x6,52(x2)
     988:	03012383          	lw	x7,48(x2)
     98c:	02c12503          	lw	x10,44(x2)
     990:	02812583          	lw	x11,40(x2)
     994:	02412603          	lw	x12,36(x2)
     998:	02012683          	lw	x13,32(x2)
     99c:	01c12703          	lw	x14,28(x2)
     9a0:	01812783          	lw	x15,24(x2)
     9a4:	01412803          	lw	x16,20(x2)
     9a8:	01012883          	lw	x17,16(x2)
     9ac:	00c12e03          	lw	x28,12(x2)
     9b0:	00812e83          	lw	x29,8(x2)
     9b4:	00412f03          	lw	x30,4(x2)
     9b8:	00012f83          	lw	x31,0(x2)
     9bc:	04010113          	addi	x2,x2,64
     9c0:	30200073          	mret

000009c4 <m_fast4_irq_handler>:
void m_fast4_irq_handler(void) { generic_irq_handler(FAST4_IRQ_ID); }
     9c4:	fc010113          	addi	x2,x2,-64
     9c8:	02a12623          	sw	x10,44(x2)
     9cc:	01400513          	addi	x10,x0,20
     9d0:	02112e23          	sw	x1,60(x2)
     9d4:	02512c23          	sw	x5,56(x2)
     9d8:	02612a23          	sw	x6,52(x2)
     9dc:	02712823          	sw	x7,48(x2)
     9e0:	02b12423          	sw	x11,40(x2)
     9e4:	02c12223          	sw	x12,36(x2)
     9e8:	02d12023          	sw	x13,32(x2)
     9ec:	00e12e23          	sw	x14,28(x2)
     9f0:	00f12c23          	sw	x15,24(x2)
     9f4:	01012a23          	sw	x16,20(x2)
     9f8:	01112823          	sw	x17,16(x2)
     9fc:	01c12623          	sw	x28,12(x2)
     a00:	01d12423          	sw	x29,8(x2)
     a04:	01e12223          	sw	x30,4(x2)
     a08:	01f12023          	sw	x31,0(x2)
     a0c:	3e31                	.insn	2, 0x3e31
     a0e:	03c12083          	lw	x1,60(x2)
     a12:	03812283          	lw	x5,56(x2)
     a16:	03412303          	lw	x6,52(x2)
     a1a:	03012383          	lw	x7,48(x2)
     a1e:	02c12503          	lw	x10,44(x2)
     a22:	02812583          	lw	x11,40(x2)
     a26:	02412603          	lw	x12,36(x2)
     a2a:	02012683          	lw	x13,32(x2)
     a2e:	01c12703          	lw	x14,28(x2)
     a32:	01812783          	lw	x15,24(x2)
     a36:	01412803          	lw	x16,20(x2)
     a3a:	01012883          	lw	x17,16(x2)
     a3e:	00c12e03          	lw	x28,12(x2)
     a42:	00812e83          	lw	x29,8(x2)
     a46:	00412f03          	lw	x30,4(x2)
     a4a:	00012f83          	lw	x31,0(x2)
     a4e:	04010113          	addi	x2,x2,64
     a52:	30200073          	mret

00000a56 <m_fast5_irq_handler>:
void m_fast5_irq_handler(void) { generic_irq_handler(FAST5_IRQ_ID); }
     a56:	fc010113          	addi	x2,x2,-64
     a5a:	02a12623          	sw	x10,44(x2)
     a5e:	01500513          	addi	x10,x0,21
     a62:	02112e23          	sw	x1,60(x2)
     a66:	02512c23          	sw	x5,56(x2)
     a6a:	02612a23          	sw	x6,52(x2)
     a6e:	02712823          	sw	x7,48(x2)
     a72:	02b12423          	sw	x11,40(x2)
     a76:	02c12223          	sw	x12,36(x2)
     a7a:	02d12023          	sw	x13,32(x2)
     a7e:	00e12e23          	sw	x14,28(x2)
     a82:	00f12c23          	sw	x15,24(x2)
     a86:	01012a23          	sw	x16,20(x2)
     a8a:	01112823          	sw	x17,16(x2)
     a8e:	01c12623          	sw	x28,12(x2)
     a92:	01d12423          	sw	x29,8(x2)
     a96:	01e12223          	sw	x30,4(x2)
     a9a:	01f12023          	sw	x31,0(x2)
     a9e:	3469                	.insn	2, 0x3469
     aa0:	03c12083          	lw	x1,60(x2)
     aa4:	03812283          	lw	x5,56(x2)
     aa8:	03412303          	lw	x6,52(x2)
     aac:	03012383          	lw	x7,48(x2)
     ab0:	02c12503          	lw	x10,44(x2)
     ab4:	02812583          	lw	x11,40(x2)
     ab8:	02412603          	lw	x12,36(x2)
     abc:	02012683          	lw	x13,32(x2)
     ac0:	01c12703          	lw	x14,28(x2)
     ac4:	01812783          	lw	x15,24(x2)
     ac8:	01412803          	lw	x16,20(x2)
     acc:	01012883          	lw	x17,16(x2)
     ad0:	00c12e03          	lw	x28,12(x2)
     ad4:	00812e83          	lw	x29,8(x2)
     ad8:	00412f03          	lw	x30,4(x2)
     adc:	00012f83          	lw	x31,0(x2)
     ae0:	04010113          	addi	x2,x2,64
     ae4:	30200073          	mret

00000ae8 <m_fast6_irq_handler>:
void m_fast6_irq_handler(void) { generic_irq_handler(FAST6_IRQ_ID); }
     ae8:	fc010113          	addi	x2,x2,-64
     aec:	02a12623          	sw	x10,44(x2)
     af0:	01600513          	addi	x10,x0,22
     af4:	02112e23          	sw	x1,60(x2)
     af8:	02512c23          	sw	x5,56(x2)
     afc:	02612a23          	sw	x6,52(x2)
     b00:	02712823          	sw	x7,48(x2)
     b04:	02b12423          	sw	x11,40(x2)
     b08:	02c12223          	sw	x12,36(x2)
     b0c:	02d12023          	sw	x13,32(x2)
     b10:	00e12e23          	sw	x14,28(x2)
     b14:	00f12c23          	sw	x15,24(x2)
     b18:	01012a23          	sw	x16,20(x2)
     b1c:	01112823          	sw	x17,16(x2)
     b20:	01c12623          	sw	x28,12(x2)
     b24:	01d12423          	sw	x29,8(x2)
     b28:	01e12223          	sw	x30,4(x2)
     b2c:	01f12023          	sw	x31,0(x2)
     b30:	3ae5                	.insn	2, 0x3ae5
     b32:	03c12083          	lw	x1,60(x2)
     b36:	03812283          	lw	x5,56(x2)
     b3a:	03412303          	lw	x6,52(x2)
     b3e:	03012383          	lw	x7,48(x2)
     b42:	02c12503          	lw	x10,44(x2)
     b46:	02812583          	lw	x11,40(x2)
     b4a:	02412603          	lw	x12,36(x2)
     b4e:	02012683          	lw	x13,32(x2)
     b52:	01c12703          	lw	x14,28(x2)
     b56:	01812783          	lw	x15,24(x2)
     b5a:	01412803          	lw	x16,20(x2)
     b5e:	01012883          	lw	x17,16(x2)
     b62:	00c12e03          	lw	x28,12(x2)
     b66:	00812e83          	lw	x29,8(x2)
     b6a:	00412f03          	lw	x30,4(x2)
     b6e:	00012f83          	lw	x31,0(x2)
     b72:	04010113          	addi	x2,x2,64
     b76:	30200073          	mret

00000b7a <m_fast7_irq_handler>:
void m_fast7_irq_handler(void) { generic_irq_handler(FAST7_IRQ_ID); }
     b7a:	fc010113          	addi	x2,x2,-64
     b7e:	02a12623          	sw	x10,44(x2)
     b82:	01700513          	addi	x10,x0,23
     b86:	02112e23          	sw	x1,60(x2)
     b8a:	02512c23          	sw	x5,56(x2)
     b8e:	02612a23          	sw	x6,52(x2)
     b92:	02712823          	sw	x7,48(x2)
     b96:	02b12423          	sw	x11,40(x2)
     b9a:	02c12223          	sw	x12,36(x2)
     b9e:	02d12023          	sw	x13,32(x2)
     ba2:	00e12e23          	sw	x14,28(x2)
     ba6:	00f12c23          	sw	x15,24(x2)
     baa:	01012a23          	sw	x16,20(x2)
     bae:	01112823          	sw	x17,16(x2)
     bb2:	01c12623          	sw	x28,12(x2)
     bb6:	01d12423          	sw	x29,8(x2)
     bba:	01e12223          	sw	x30,4(x2)
     bbe:	01f12023          	sw	x31,0(x2)
     bc2:	329d                	.insn	2, 0x329d
     bc4:	03c12083          	lw	x1,60(x2)
     bc8:	03812283          	lw	x5,56(x2)
     bcc:	03412303          	lw	x6,52(x2)
     bd0:	03012383          	lw	x7,48(x2)
     bd4:	02c12503          	lw	x10,44(x2)
     bd8:	02812583          	lw	x11,40(x2)
     bdc:	02412603          	lw	x12,36(x2)
     be0:	02012683          	lw	x13,32(x2)
     be4:	01c12703          	lw	x14,28(x2)
     be8:	01812783          	lw	x15,24(x2)
     bec:	01412803          	lw	x16,20(x2)
     bf0:	01012883          	lw	x17,16(x2)
     bf4:	00c12e03          	lw	x28,12(x2)
     bf8:	00812e83          	lw	x29,8(x2)
     bfc:	00412f03          	lw	x30,4(x2)
     c00:	00012f83          	lw	x31,0(x2)
     c04:	04010113          	addi	x2,x2,64
     c08:	30200073          	mret

00000c0c <m_fast8_irq_handler>:
void m_fast8_irq_handler(void) { generic_irq_handler(FAST8_IRQ_ID); }
     c0c:	fc010113          	addi	x2,x2,-64
     c10:	02a12623          	sw	x10,44(x2)
     c14:	01800513          	addi	x10,x0,24
     c18:	02112e23          	sw	x1,60(x2)
     c1c:	02512c23          	sw	x5,56(x2)
     c20:	02612a23          	sw	x6,52(x2)
     c24:	02712823          	sw	x7,48(x2)
     c28:	02b12423          	sw	x11,40(x2)
     c2c:	02c12223          	sw	x12,36(x2)
     c30:	02d12023          	sw	x13,32(x2)
     c34:	00e12e23          	sw	x14,28(x2)
     c38:	00f12c23          	sw	x15,24(x2)
     c3c:	01012a23          	sw	x16,20(x2)
     c40:	01112823          	sw	x17,16(x2)
     c44:	01c12623          	sw	x28,12(x2)
     c48:	01d12423          	sw	x29,8(x2)
     c4c:	01e12223          	sw	x30,4(x2)
     c50:	01f12023          	sw	x31,0(x2)
     c54:	8d5ff0ef          	jal	x1,528 <generic_irq_handler>
     c58:	03c12083          	lw	x1,60(x2)
     c5c:	03812283          	lw	x5,56(x2)
     c60:	03412303          	lw	x6,52(x2)
     c64:	03012383          	lw	x7,48(x2)
     c68:	02c12503          	lw	x10,44(x2)
     c6c:	02812583          	lw	x11,40(x2)
     c70:	02412603          	lw	x12,36(x2)
     c74:	02012683          	lw	x13,32(x2)
     c78:	01c12703          	lw	x14,28(x2)
     c7c:	01812783          	lw	x15,24(x2)
     c80:	01412803          	lw	x16,20(x2)
     c84:	01012883          	lw	x17,16(x2)
     c88:	00c12e03          	lw	x28,12(x2)
     c8c:	00812e83          	lw	x29,8(x2)
     c90:	00412f03          	lw	x30,4(x2)
     c94:	00012f83          	lw	x31,0(x2)
     c98:	04010113          	addi	x2,x2,64
     c9c:	30200073          	mret

00000ca0 <m_fast9_irq_handler>:
void m_fast9_irq_handler(void) { generic_irq_handler(FAST9_IRQ_ID); }
     ca0:	fc010113          	addi	x2,x2,-64
     ca4:	02a12623          	sw	x10,44(x2)
     ca8:	01900513          	addi	x10,x0,25
     cac:	02112e23          	sw	x1,60(x2)
     cb0:	02512c23          	sw	x5,56(x2)
     cb4:	02612a23          	sw	x6,52(x2)
     cb8:	02712823          	sw	x7,48(x2)
     cbc:	02b12423          	sw	x11,40(x2)
     cc0:	02c12223          	sw	x12,36(x2)
     cc4:	02d12023          	sw	x13,32(x2)
     cc8:	00e12e23          	sw	x14,28(x2)
     ccc:	00f12c23          	sw	x15,24(x2)
     cd0:	01012a23          	sw	x16,20(x2)
     cd4:	01112823          	sw	x17,16(x2)
     cd8:	01c12623          	sw	x28,12(x2)
     cdc:	01d12423          	sw	x29,8(x2)
     ce0:	01e12223          	sw	x30,4(x2)
     ce4:	01f12023          	sw	x31,0(x2)
     ce8:	841ff0ef          	jal	x1,528 <generic_irq_handler>
     cec:	03c12083          	lw	x1,60(x2)
     cf0:	03812283          	lw	x5,56(x2)
     cf4:	03412303          	lw	x6,52(x2)
     cf8:	03012383          	lw	x7,48(x2)
     cfc:	02c12503          	lw	x10,44(x2)
     d00:	02812583          	lw	x11,40(x2)
     d04:	02412603          	lw	x12,36(x2)
     d08:	02012683          	lw	x13,32(x2)
     d0c:	01c12703          	lw	x14,28(x2)
     d10:	01812783          	lw	x15,24(x2)
     d14:	01412803          	lw	x16,20(x2)
     d18:	01012883          	lw	x17,16(x2)
     d1c:	00c12e03          	lw	x28,12(x2)
     d20:	00812e83          	lw	x29,8(x2)
     d24:	00412f03          	lw	x30,4(x2)
     d28:	00012f83          	lw	x31,0(x2)
     d2c:	04010113          	addi	x2,x2,64
     d30:	30200073          	mret

00000d34 <m_fast10_irq_handler>:
void m_fast10_irq_handler(void) { generic_irq_handler(FAST10_IRQ_ID); }
     d34:	fc010113          	addi	x2,x2,-64
     d38:	02a12623          	sw	x10,44(x2)
     d3c:	01a00513          	addi	x10,x0,26
     d40:	02112e23          	sw	x1,60(x2)
     d44:	02512c23          	sw	x5,56(x2)
     d48:	02612a23          	sw	x6,52(x2)
     d4c:	02712823          	sw	x7,48(x2)
     d50:	02b12423          	sw	x11,40(x2)
     d54:	02c12223          	sw	x12,36(x2)
     d58:	02d12023          	sw	x13,32(x2)
     d5c:	00e12e23          	sw	x14,28(x2)
     d60:	00f12c23          	sw	x15,24(x2)
     d64:	01012a23          	sw	x16,20(x2)
     d68:	01112823          	sw	x17,16(x2)
     d6c:	01c12623          	sw	x28,12(x2)
     d70:	01d12423          	sw	x29,8(x2)
     d74:	01e12223          	sw	x30,4(x2)
     d78:	01f12023          	sw	x31,0(x2)
     d7c:	facff0ef          	jal	x1,528 <generic_irq_handler>
     d80:	03c12083          	lw	x1,60(x2)
     d84:	03812283          	lw	x5,56(x2)
     d88:	03412303          	lw	x6,52(x2)
     d8c:	03012383          	lw	x7,48(x2)
     d90:	02c12503          	lw	x10,44(x2)
     d94:	02812583          	lw	x11,40(x2)
     d98:	02412603          	lw	x12,36(x2)
     d9c:	02012683          	lw	x13,32(x2)
     da0:	01c12703          	lw	x14,28(x2)
     da4:	01812783          	lw	x15,24(x2)
     da8:	01412803          	lw	x16,20(x2)
     dac:	01012883          	lw	x17,16(x2)
     db0:	00c12e03          	lw	x28,12(x2)
     db4:	00812e83          	lw	x29,8(x2)
     db8:	00412f03          	lw	x30,4(x2)
     dbc:	00012f83          	lw	x31,0(x2)
     dc0:	04010113          	addi	x2,x2,64
     dc4:	30200073          	mret

00000dc8 <m_fast11_irq_handler>:
void m_fast11_irq_handler(void) { generic_irq_handler(FAST11_IRQ_ID); }
     dc8:	fc010113          	addi	x2,x2,-64
     dcc:	02a12623          	sw	x10,44(x2)
     dd0:	01b00513          	addi	x10,x0,27
     dd4:	02112e23          	sw	x1,60(x2)
     dd8:	02512c23          	sw	x5,56(x2)
     ddc:	02612a23          	sw	x6,52(x2)
     de0:	02712823          	sw	x7,48(x2)
     de4:	02b12423          	sw	x11,40(x2)
     de8:	02c12223          	sw	x12,36(x2)
     dec:	02d12023          	sw	x13,32(x2)
     df0:	00e12e23          	sw	x14,28(x2)
     df4:	00f12c23          	sw	x15,24(x2)
     df8:	01012a23          	sw	x16,20(x2)
     dfc:	01112823          	sw	x17,16(x2)
     e00:	01c12623          	sw	x28,12(x2)
     e04:	01d12423          	sw	x29,8(x2)
     e08:	01e12223          	sw	x30,4(x2)
     e0c:	01f12023          	sw	x31,0(x2)
     e10:	f18ff0ef          	jal	x1,528 <generic_irq_handler>
     e14:	03c12083          	lw	x1,60(x2)
     e18:	03812283          	lw	x5,56(x2)
     e1c:	03412303          	lw	x6,52(x2)
     e20:	03012383          	lw	x7,48(x2)
     e24:	02c12503          	lw	x10,44(x2)
     e28:	02812583          	lw	x11,40(x2)
     e2c:	02412603          	lw	x12,36(x2)
     e30:	02012683          	lw	x13,32(x2)
     e34:	01c12703          	lw	x14,28(x2)
     e38:	01812783          	lw	x15,24(x2)
     e3c:	01412803          	lw	x16,20(x2)
     e40:	01012883          	lw	x17,16(x2)
     e44:	00c12e03          	lw	x28,12(x2)
     e48:	00812e83          	lw	x29,8(x2)
     e4c:	00412f03          	lw	x30,4(x2)
     e50:	00012f83          	lw	x31,0(x2)
     e54:	04010113          	addi	x2,x2,64
     e58:	30200073          	mret

00000e5c <m_fast12_irq_handler>:
void m_fast12_irq_handler(void) { generic_irq_handler(FAST12_IRQ_ID); }
     e5c:	fc010113          	addi	x2,x2,-64
     e60:	02a12623          	sw	x10,44(x2)
     e64:	01c00513          	addi	x10,x0,28
     e68:	02112e23          	sw	x1,60(x2)
     e6c:	02512c23          	sw	x5,56(x2)
     e70:	02612a23          	sw	x6,52(x2)
     e74:	02712823          	sw	x7,48(x2)
     e78:	02b12423          	sw	x11,40(x2)
     e7c:	02c12223          	sw	x12,36(x2)
     e80:	02d12023          	sw	x13,32(x2)
     e84:	00e12e23          	sw	x14,28(x2)
     e88:	00f12c23          	sw	x15,24(x2)
     e8c:	01012a23          	sw	x16,20(x2)
     e90:	01112823          	sw	x17,16(x2)
     e94:	01c12623          	sw	x28,12(x2)
     e98:	01d12423          	sw	x29,8(x2)
     e9c:	01e12223          	sw	x30,4(x2)
     ea0:	01f12023          	sw	x31,0(x2)
     ea4:	e84ff0ef          	jal	x1,528 <generic_irq_handler>
     ea8:	03c12083          	lw	x1,60(x2)
     eac:	03812283          	lw	x5,56(x2)
     eb0:	03412303          	lw	x6,52(x2)
     eb4:	03012383          	lw	x7,48(x2)
     eb8:	02c12503          	lw	x10,44(x2)
     ebc:	02812583          	lw	x11,40(x2)
     ec0:	02412603          	lw	x12,36(x2)
     ec4:	02012683          	lw	x13,32(x2)
     ec8:	01c12703          	lw	x14,28(x2)
     ecc:	01812783          	lw	x15,24(x2)
     ed0:	01412803          	lw	x16,20(x2)
     ed4:	01012883          	lw	x17,16(x2)
     ed8:	00c12e03          	lw	x28,12(x2)
     edc:	00812e83          	lw	x29,8(x2)
     ee0:	00412f03          	lw	x30,4(x2)
     ee4:	00012f83          	lw	x31,0(x2)
     ee8:	04010113          	addi	x2,x2,64
     eec:	30200073          	mret

00000ef0 <m_fast13_irq_handler>:
void m_fast13_irq_handler(void) { generic_irq_handler(FAST13_IRQ_ID); }
     ef0:	fc010113          	addi	x2,x2,-64
     ef4:	02a12623          	sw	x10,44(x2)
     ef8:	01d00513          	addi	x10,x0,29
     efc:	02112e23          	sw	x1,60(x2)
     f00:	02512c23          	sw	x5,56(x2)
     f04:	02612a23          	sw	x6,52(x2)
     f08:	02712823          	sw	x7,48(x2)
     f0c:	02b12423          	sw	x11,40(x2)
     f10:	02c12223          	sw	x12,36(x2)
     f14:	02d12023          	sw	x13,32(x2)
     f18:	00e12e23          	sw	x14,28(x2)
     f1c:	00f12c23          	sw	x15,24(x2)
     f20:	01012a23          	sw	x16,20(x2)
     f24:	01112823          	sw	x17,16(x2)
     f28:	01c12623          	sw	x28,12(x2)
     f2c:	01d12423          	sw	x29,8(x2)
     f30:	01e12223          	sw	x30,4(x2)
     f34:	01f12023          	sw	x31,0(x2)
     f38:	df0ff0ef          	jal	x1,528 <generic_irq_handler>
     f3c:	03c12083          	lw	x1,60(x2)
     f40:	03812283          	lw	x5,56(x2)
     f44:	03412303          	lw	x6,52(x2)
     f48:	03012383          	lw	x7,48(x2)
     f4c:	02c12503          	lw	x10,44(x2)
     f50:	02812583          	lw	x11,40(x2)
     f54:	02412603          	lw	x12,36(x2)
     f58:	02012683          	lw	x13,32(x2)
     f5c:	01c12703          	lw	x14,28(x2)
     f60:	01812783          	lw	x15,24(x2)
     f64:	01412803          	lw	x16,20(x2)
     f68:	01012883          	lw	x17,16(x2)
     f6c:	00c12e03          	lw	x28,12(x2)
     f70:	00812e83          	lw	x29,8(x2)
     f74:	00412f03          	lw	x30,4(x2)
     f78:	00012f83          	lw	x31,0(x2)
     f7c:	04010113          	addi	x2,x2,64
     f80:	30200073          	mret

00000f84 <m_fast14_irq_handler>:
void m_fast14_irq_handler(void) { generic_irq_handler(FAST14_IRQ_ID); }
     f84:	fc010113          	addi	x2,x2,-64
     f88:	02a12623          	sw	x10,44(x2)
     f8c:	01e00513          	addi	x10,x0,30
     f90:	02112e23          	sw	x1,60(x2)
     f94:	02512c23          	sw	x5,56(x2)
     f98:	02612a23          	sw	x6,52(x2)
     f9c:	02712823          	sw	x7,48(x2)
     fa0:	02b12423          	sw	x11,40(x2)
     fa4:	02c12223          	sw	x12,36(x2)
     fa8:	02d12023          	sw	x13,32(x2)
     fac:	00e12e23          	sw	x14,28(x2)
     fb0:	00f12c23          	sw	x15,24(x2)
     fb4:	01012a23          	sw	x16,20(x2)
     fb8:	01112823          	sw	x17,16(x2)
     fbc:	01c12623          	sw	x28,12(x2)
     fc0:	01d12423          	sw	x29,8(x2)
     fc4:	01e12223          	sw	x30,4(x2)
     fc8:	01f12023          	sw	x31,0(x2)
     fcc:	d5cff0ef          	jal	x1,528 <generic_irq_handler>
     fd0:	03c12083          	lw	x1,60(x2)
     fd4:	03812283          	lw	x5,56(x2)
     fd8:	03412303          	lw	x6,52(x2)
     fdc:	03012383          	lw	x7,48(x2)
     fe0:	02c12503          	lw	x10,44(x2)
     fe4:	02812583          	lw	x11,40(x2)
     fe8:	02412603          	lw	x12,36(x2)
     fec:	02012683          	lw	x13,32(x2)
     ff0:	01c12703          	lw	x14,28(x2)
     ff4:	01812783          	lw	x15,24(x2)
     ff8:	01412803          	lw	x16,20(x2)
     ffc:	01012883          	lw	x17,16(x2)
    1000:	00c12e03          	lw	x28,12(x2)
    1004:	00812e83          	lw	x29,8(x2)
    1008:	00412f03          	lw	x30,4(x2)
    100c:	00012f83          	lw	x31,0(x2)
    1010:	04010113          	addi	x2,x2,64
    1014:	30200073          	mret

00001018 <m_fast15_irq_handler>:
void m_fast15_irq_handler(void) { generic_irq_handler(FAST15_IRQ_ID); }
    1018:	fc010113          	addi	x2,x2,-64
    101c:	02a12623          	sw	x10,44(x2)
    1020:	01f00513          	addi	x10,x0,31
    1024:	02112e23          	sw	x1,60(x2)
    1028:	02512c23          	sw	x5,56(x2)
    102c:	02612a23          	sw	x6,52(x2)
    1030:	02712823          	sw	x7,48(x2)
    1034:	02b12423          	sw	x11,40(x2)
    1038:	02c12223          	sw	x12,36(x2)
    103c:	02d12023          	sw	x13,32(x2)
    1040:	00e12e23          	sw	x14,28(x2)
    1044:	00f12c23          	sw	x15,24(x2)
    1048:	01012a23          	sw	x16,20(x2)
    104c:	01112823          	sw	x17,16(x2)
    1050:	01c12623          	sw	x28,12(x2)
    1054:	01d12423          	sw	x29,8(x2)
    1058:	01e12223          	sw	x30,4(x2)
    105c:	01f12023          	sw	x31,0(x2)
    1060:	cc8ff0ef          	jal	x1,528 <generic_irq_handler>
    1064:	03c12083          	lw	x1,60(x2)
    1068:	03812283          	lw	x5,56(x2)
    106c:	03412303          	lw	x6,52(x2)
    1070:	03012383          	lw	x7,48(x2)
    1074:	02c12503          	lw	x10,44(x2)
    1078:	02812583          	lw	x11,40(x2)
    107c:	02412603          	lw	x12,36(x2)
    1080:	02012683          	lw	x13,32(x2)
    1084:	01c12703          	lw	x14,28(x2)
    1088:	01812783          	lw	x15,24(x2)
    108c:	01412803          	lw	x16,20(x2)
    1090:	01012883          	lw	x17,16(x2)
    1094:	00c12e03          	lw	x28,12(x2)
    1098:	00812e83          	lw	x29,8(x2)
    109c:	00412f03          	lw	x30,4(x2)
    10a0:	00012f83          	lw	x31,0(x2)
    10a4:	04010113          	addi	x2,x2,64
    10a8:	30200073          	mret

000010ac <u_sw_direct_irq_handler>:
__attribute__((interrupt ("machine"))) void u_sw_direct_irq_handler(void)  {
    10ac:	ff010113          	addi	x2,x2,-16
    10b0:	00e12623          	sw	x14,12(x2)
    10b4:	00f12423          	sw	x15,8(x2)
    in_direct_handler = 1;
    10b8:	00100713          	addi	x14,x0,1
    10bc:	f6e1a023          	sw	x14,-160(x3) # 143b0 <in_direct_handler>
    asm volatile("csrr %0, mcause" : "=r" (mmcause));
    10c0:	34202773          	csrrs	x14,mcause,x0
    10c4:	f6e1a823          	sw	x14,-144(x3) # 143c0 <mmcause>
}
    10c8:	00c12703          	lw	x14,12(x2)
    10cc:	00812783          	lw	x15,8(x2)
    10d0:	01010113          	addi	x2,x2,16
    10d4:	30200073          	mret

000010d8 <test1_impl>:
    return EXIT_SUCCESS;
}

// To share implementation of basic interrupt test with vector relocation tests,
// break out the test 1 implementation here
int test1_impl(int direct_mode) {
    10d8:	ff010113          	addi	x2,x2,-16
    10dc:	ffff1e37          	lui	x28,0xffff1
    *TIMER_VAL_ADDR = 1 + cycle_delay;
    10e0:	150008b7          	lui	x17,0x15000
int test1_impl(int direct_mode) {
    10e4:	00812423          	sw	x8,8(x2)
    10e8:	00112623          	sw	x1,12(x2)
    10ec:	00912223          	sw	x9,4(x2)
    for (uint32_t i = 0; i < 32; i++) {
    10f0:	00000593          	addi	x11,x0,0
                if (mie) mie_enable(i);
                else mie_disable(i);

                in_direct_handler = 0;
                mmcause = 0;
                mm_ram_assert_irq(0x1 << i, 1);    
    10f4:	00100f13          	addi	x30,x0,1
    10f8:	888e0e13          	addi	x28,x28,-1912 # ffff0888 <__heap_end+0xffbf0888>
    *TIMER_REG_ADDR = mask;
    10fc:	15000fb7          	lui	x31,0x15000
    *TIMER_VAL_ADDR = 1 + cycle_delay;
    1100:	00488893          	addi	x17,x17,4 # 15000004 <__heap_end+0x14c00004>
    1104:	00200293          	addi	x5,x0,2
    asm volatile("csrrs x0, mstatus, %0" : : "r" (mie_bit));
    1108:	00800393          	addi	x7,x0,8
    for (uint32_t i = 0; i < 32; i++) {
    110c:	02000413          	addi	x8,x0,32
                mm_ram_assert_irq(0x1 << i, 1);    
    1110:	00bf1833          	sll	x16,x30,x11
    1114:	01c87333          	and	x6,x16,x28
        for (uint32_t gmie = 0; gmie <= 1; gmie++) {
    1118:	00000613          	addi	x12,x0,0
    111c:	1420006f          	jal	x0,125e <test1_impl+0x186>
    1120:	00100713          	addi	x14,x0,1
                if (gmie) mstatus_mie_enable();
    1124:	04060763          	beq	x12,x0,1172 <test1_impl+0x9a>
    asm volatile("csrrs x0, mstatus, %0" : : "r" (mie_bit));
    1128:	3003a073          	csrrs	x0,mstatus,x7
                if (mie) mie_enable(i);
    112c:	04070963          	beq	x14,x0,117e <test1_impl+0xa6>
    asm volatile("csrrs x0, mie, %0" : : "r" (mie_bit));
    1130:	30482073          	csrrs	x0,mie,x16
                in_direct_handler = 0;
    1134:	f601a023          	sw	x0,-160(x3) # 143b0 <in_direct_handler>
                mmcause = 0;
    1138:	f601a823          	sw	x0,-144(x3) # 143c0 <mmcause>
    *TIMER_REG_ADDR = mask;
    113c:	010fa023          	sw	x16,0(x31) # 15000000 <__heap_end+0x14c00000>
    *TIMER_VAL_ADDR = 1 + cycle_delay;
    1140:	0058a023          	sw	x5,0(x17)

                if (((0x1 << i) & IRQ_MASK) && mie && gmie) {
    1144:	08030563          	beq	x6,x0,11ce <test1_impl+0xf6>
    1148:	08070363          	beq	x14,x0,11ce <test1_impl+0xf6>
    114c:	08060163          	beq	x12,x0,11ce <test1_impl+0xf6>
                    // Interrupt is valid and enabled 
                    // wait for the irq to be served
                    while (!mmcause);
    1150:	f701a683          	lw	x13,-144(x3) # 143c0 <mmcause>
    1154:	fe068ee3          	beq	x13,x0,1150 <test1_impl+0x78>
                
                    if ((mmcause & (0x1 << 31)) == 0) {
    1158:	f701a683          	lw	x13,-144(x3) # 143c0 <mmcause>
    115c:	0206c563          	blt	x13,x0,1186 <test1_impl+0xae>
                        printf("MCAUSE[31] was not set: mmcause = 0x%08lx\n", (uint32_t) mmcause);
    1160:	f701a583          	lw	x11,-144(x3) # 143c0 <mmcause>
    1164:	654d                	.insn	2, 0x654d
    1166:	df050513          	addi	x10,x10,-528
                }

                // Check flag at direct mode handler
                if (((0x1 << i) & IRQ_MASK) && mie && gmie) {
                    if (direct_mode && !in_direct_handler) {
                        printf("In direct mode, the direct sw handler was not entered, irq: %lu\n", i);
    116a:	4e7000ef          	jal	x1,1e50 <printf>
                        return ERR_CODE_TEST_1;
    116e:	0480006f          	jal	x0,11b6 <test1_impl+0xde>
    asm volatile("csrrc x0, mstatus, %0" : : "r" (mie_bit));
    1172:	00800693          	addi	x13,x0,8
    1176:	3006b073          	csrrc	x0,mstatus,x13
}
    117a:	fb3ff06f          	jal	x0,112c <test1_impl+0x54>
    asm volatile("csrrc x0, mie, %0" : : "r" (mie_bit));
    117e:	30483073          	csrrc	x0,mie,x16
}
    1182:	fb3ff06f          	jal	x0,1134 <test1_impl+0x5c>
                    if ((mmcause & MCAUSE_IRQ_MASK) != i) {
    1186:	f701a683          	lw	x13,-144(x3) # 143c0 <mmcause>
    118a:	01f6f693          	andi	x13,x13,31
    118e:	00b69d63          	bne	x13,x11,11a8 <test1_impl+0xd0>
                __asm__ volatile ("csrr %0,mip" : "=r" (mip));
    1192:	344026f3          	csrrs	x13,mip,x0
                    if (mip & (0x1 << i)) {
    1196:	00d876b3          	and	x13,x16,x13
    119a:	08068063          	beq	x13,x0,121a <test1_impl+0x142>
                        printf("MIP for unimplemented IRQ[%lu] set\n", i);
    119e:	654d                	.insn	2, 0x654d
    11a0:	ea450513          	addi	x10,x10,-348
    11a4:	fc7ff06f          	jal	x0,116a <test1_impl+0x92>
                        printf("MCAUSE reported wrong irq, exp = %lu, act = 0x%08lx", i, mmcause);
    11a8:	f701a603          	lw	x12,-144(x3) # 143c0 <mmcause>
    11ac:	654d                	.insn	2, 0x654d
    11ae:	e1c50513          	addi	x10,x10,-484
    11b2:	49f000ef          	jal	x1,1e50 <printf>
                        return ERR_CODE_TEST_1;
    11b6:	00100513          	addi	x10,x0,1
            }
        }
    }

    return EXIT_SUCCESS;
}
    11ba:	00c12083          	lw	x1,12(x2)
    11be:	00812403          	lw	x8,8(x2)
    11c2:	00412483          	lw	x9,4(x2)
    11c6:	01010113          	addi	x2,x2,16
    11ca:	00008067          	jalr	x0,0(x1)
    11ce:	01400693          	addi	x13,x0,20
                        if (mmcause != 0) {
    11d2:	f701a483          	lw	x9,-144(x3) # 143c0 <mmcause>
    11d6:	00048d63          	beq	x9,x0,11f0 <test1_impl+0x118>
                            printf("MMCAUSE = 0x%08lx when unimplmented interrupt %lu first", mmcause, i);
    11da:	f701a783          	lw	x15,-144(x3) # 143c0 <mmcause>
    11de:	654d                	.insn	2, 0x654d
    11e0:	00058613          	addi	x12,x11,0
    11e4:	e5050513          	addi	x10,x10,-432
    11e8:	00078593          	addi	x11,x15,0
    11ec:	fc7ff06f          	jal	x0,11b2 <test1_impl+0xda>
                    for (int j = 0; j < 20; j++) {
    11f0:	fff68693          	addi	x13,x13,-1
    11f4:	fc069fe3          	bne	x13,x0,11d2 <test1_impl+0xfa>
                __asm__ volatile ("csrr %0,mip" : "=r" (mip));
    11f8:	344026f3          	csrrs	x13,mip,x0
                if (((0x1 << i) & IRQ_MASK) && (!mie || !gmie)) {
    11fc:	f8030de3          	beq	x6,x0,1196 <test1_impl+0xbe>
    1200:	00070463          	beq	x14,x0,1208 <test1_impl+0x130>
    1204:	f80619e3          	bne	x12,x0,1196 <test1_impl+0xbe>
                    if (!(mip & (0x1 << i))) {
    1208:	00d876b3          	and	x13,x16,x13
    120c:	00069963          	bne	x13,x0,121e <test1_impl+0x146>
                        printf("MIP for IRQ[%lu] not set\n", i);
    1210:	654d                	.insn	2, 0x654d
    1212:	e8850513          	addi	x10,x10,-376
    1216:	f55ff06f          	jal	x0,116a <test1_impl+0x92>
                if (((0x1 << i) & IRQ_MASK) && mie && gmie) {
    121a:	02030863          	beq	x6,x0,124a <test1_impl+0x172>
    121e:	02070663          	beq	x14,x0,124a <test1_impl+0x172>
    1222:	02060463          	beq	x12,x0,124a <test1_impl+0x172>
                    if (direct_mode && !in_direct_handler) {
    1226:	f601a683          	lw	x13,-160(x3) # 143b0 <in_direct_handler>
    122a:	00050963          	beq	x10,x0,123c <test1_impl+0x164>
    122e:	00069e63          	bne	x13,x0,124a <test1_impl+0x172>
                        printf("In direct mode, the direct sw handler was not entered, irq: %lu\n", i);
    1232:	654d                	.insn	2, 0x654d
    1234:	ec850513          	addi	x10,x10,-312
    1238:	f33ff06f          	jal	x0,116a <test1_impl+0x92>
                    if (!direct_mode && in_direct_handler) {
    123c:	00068763          	beq	x13,x0,124a <test1_impl+0x172>
                        printf("In vector mode, the direct sw handler was entered, irq: %lu\n", i);
    1240:	654d                	.insn	2, 0x654d
    1242:	f0c50513          	addi	x10,x10,-244
    1246:	f25ff06f          	jal	x0,116a <test1_impl+0x92>
    *TIMER_REG_ADDR = mask;
    124a:	000fa023          	sw	x0,0(x31)
    *TIMER_VAL_ADDR = 1 + cycle_delay;
    124e:	01e8a023          	sw	x30,0(x17)
            for (uint32_t mie = 0; mie <= 1; mie++) {
    1252:	ec0707e3          	beq	x14,x0,1120 <test1_impl+0x48>
        for (uint32_t gmie = 0; gmie <= 1; gmie++) {
    1256:	00061863          	bne	x12,x0,1266 <test1_impl+0x18e>
    125a:	00070613          	addi	x12,x14,0
            for (uint32_t mie = 0; mie <= 1; mie++) {
    125e:	00000713          	addi	x14,x0,0
    1262:	ec3ff06f          	jal	x0,1124 <test1_impl+0x4c>
    for (uint32_t i = 0; i < 32; i++) {
    1266:	00158593          	addi	x11,x11,1
    126a:	ea8593e3          	bne	x11,x8,1110 <test1_impl+0x38>
    return EXIT_SUCCESS;
    126e:	00000513          	addi	x10,x0,0
    1272:	f49ff06f          	jal	x0,11ba <test1_impl+0xe2>

00001276 <test1>:
    printf("TEST 1 - TRIGGER ALL IRQS IN SEQUENCE:\n");
    1276:	654d                	.insn	2, 0x654d
int test1() {
    1278:	ff010113          	addi	x2,x2,-16
    printf("TEST 1 - TRIGGER ALL IRQS IN SEQUENCE:\n");
    127c:	f4c50513          	addi	x10,x10,-180
int test1() {
    1280:	00112623          	sw	x1,12(x2)
    printf("TEST 1 - TRIGGER ALL IRQS IN SEQUENCE:\n");
    1284:	4e9000ef          	jal	x1,1f6c <puts>
    active_test = 1;
    1288:	00100713          	addi	x14,x0,1
    if (test1_impl(0) != EXIT_SUCCESS)
    128c:	00000513          	addi	x10,x0,0
    active_test = 1;
    1290:	f6e1a623          	sw	x14,-148(x3) # 143bc <active_test>
    if (test1_impl(0) != EXIT_SUCCESS)
    1294:	3591                	.insn	2, 0x3591
}
    1296:	00c12083          	lw	x1,12(x2)
    129a:	00a03533          	sltu	x10,x0,x10
    129e:	01010113          	addi	x2,x2,16
    12a2:	00008067          	jalr	x0,0(x1)

000012a6 <test2>:
    //-------------------------------------------------------------------------------------------------------------------------------------------
    //-------------------------------------------------------------------------------------------------------------------------------------------

// Test 2 will issue all interrupts at once and check that all interrupt are serviced in priority order
int test2() {
    printf("TEST 2 - TRIGGER ALL IRQS AT ONCE:\n");
    12a6:	654d                	.insn	2, 0x654d
int test2() {
    12a8:	ff010113          	addi	x2,x2,-16
    printf("TEST 2 - TRIGGER ALL IRQS AT ONCE:\n");
    12ac:	f7450513          	addi	x10,x10,-140
int test2() {
    12b0:	00112623          	sw	x1,12(x2)
    printf("TEST 2 - TRIGGER ALL IRQS AT ONCE:\n");
    12b4:	4b9000ef          	jal	x1,1f6c <puts>
    active_test = 2;
    12b8:	00200713          	addi	x14,x0,2
    12bc:	f6e1a623          	sw	x14,-148(x3) # 143bc <active_test>
    *TIMER_REG_ADDR = mask;
    12c0:	150006b7          	lui	x13,0x15000
    *TIMER_VAL_ADDR = 1 + cycle_delay;
    12c4:	150007b7          	lui	x15,0x15000
    *TIMER_REG_ADDR = mask;
    12c8:	0006a023          	sw	x0,0(x13) # 15000000 <__heap_end+0x14c00000>
    *TIMER_VAL_ADDR = 1 + cycle_delay;
    12cc:	00478793          	addi	x15,x15,4 # 15000004 <__heap_end+0x14c00004>
    12d0:	00100713          	addi	x14,x0,1
    12d4:	00e7a023          	sw	x14,0(x15)
    // Clear VP irq
    mm_ram_assert_irq(0, 0); 
    
    // Enable all interrupts (MIE and MSTATUS.MIE)
    uint32_t mie = (uint32_t) -1;
    asm volatile("csrw mie, %0" : : "r" (mie));            
    12d8:	fff00613          	addi	x12,x0,-1
    12dc:	30461073          	csrrw	x0,mie,x12
    asm volatile("csrrs x0, mstatus, %0" : : "r" (mie_bit));
    12e0:	00800593          	addi	x11,x0,8
    12e4:	3005a073          	csrrs	x0,mstatus,x11
    mstatus_mie_enable();
    irq_id_q_ptr = 0;
    12e8:	f601aa23          	sw	x0,-140(x3) # 143c4 <irq_id_q_ptr>
    *TIMER_REG_ADDR = mask;
    12ec:	00c6a023          	sw	x12,0(x13)
    *TIMER_VAL_ADDR = 1 + cycle_delay;
    12f0:	00e7a023          	sw	x14,0(x15)

    // Fire all IRQs and give time for them to be handled
    mm_ram_assert_irq((uint32_t) -1, 0);

    delay(100);
    12f4:	06400513          	addi	x10,x0,100
    12f8:	910ff0ef          	jal	x1,408 <delay>

    for (int i = 0; i < IRQ_NUM; i++) {
    12fc:	67d1                	.insn	2, 0x67d1
        // The irq_id_q should now contain interrupt IDs in the same order as IRQ_ID_PRIORITY
        if (IRQ_ID_PRIORITY[i] != irq_id_q[i]) {
    12fe:	c5078793          	addi	x15,x15,-944
    for (int i = 0; i < IRQ_NUM; i++) {
    1302:	00000593          	addi	x11,x0,0
        if (IRQ_ID_PRIORITY[i] != irq_id_q[i]) {
    1306:	f9818693          	addi	x13,x3,-104 # 143e8 <irq_id_q>
    for (int i = 0; i < IRQ_NUM; i++) {
    130a:	01300513          	addi	x10,x0,19
        if (IRQ_ID_PRIORITY[i] != irq_id_q[i]) {
    130e:	00259713          	slli	x14,x11,0x2
    1312:	00e68733          	add	x14,x13,x14
    1316:	0007a603          	lw	x12,0(x15)
    131a:	00072803          	lw	x16,0(x14)
    131e:	03060163          	beq	x12,x16,1340 <test2+0x9a>
            printf("priority mismatch, index %d, exp %lu, act %lu\n",
                    i, IRQ_ID_PRIORITY[i], irq_id_q[i]);
    1322:	00072683          	lw	x13,0(x14)
            printf("priority mismatch, index %d, exp %lu, act %lu\n",
    1326:	654d                	.insn	2, 0x654d
    1328:	f9850513          	addi	x10,x10,-104
    132c:	325000ef          	jal	x1,1e50 <printf>
            return ERR_CODE_TEST_2;
    1330:	00200513          	addi	x10,x0,2
        }
    }

    return EXIT_SUCCESS;
}
    1334:	00c12083          	lw	x1,12(x2)
    1338:	01010113          	addi	x2,x2,16
    133c:	00008067          	jalr	x0,0(x1)
    for (int i = 0; i < IRQ_NUM; i++) {
    1340:	00158593          	addi	x11,x11,1
    1344:	00478793          	addi	x15,x15,4
    1348:	fca593e3          	bne	x11,x10,130e <test2+0x68>
    return EXIT_SUCCESS;
    134c:	00000513          	addi	x10,x0,0
    1350:	fe5ff06f          	jal	x0,1334 <test2+0x8e>

00001354 <test3>:
    //-------------------------------------------------------------------------------------------------------------------------------------------
    //-------------------------------------------------------------------------------------------------------------------------------------------

// Test 3 will create nested interrupts
int test3() {
    printf("TEST 3 - NESTED INTERRUPTS:\n"); 
    1354:	654d                	.insn	2, 0x654d
int test3() {
    1356:	fc010113          	addi	x2,x2,-64
    printf("TEST 3 - NESTED INTERRUPTS:\n"); 
    135a:	fc850513          	addi	x10,x10,-56
int test3() {
    135e:	02912a23          	sw	x9,52(x2)
    1362:	02112e23          	sw	x1,60(x2)
    1366:	02812c23          	sw	x8,56(x2)
    136a:	03212823          	sw	x18,48(x2)
    136e:	03312623          	sw	x19,44(x2)
    1372:	03412423          	sw	x20,40(x2)
    1376:	03512223          	sw	x21,36(x2)
    137a:	03612023          	sw	x22,32(x2)
    137e:	01712e23          	sw	x23,28(x2)
    1382:	01812c23          	sw	x24,24(x2)
    1386:	01912a23          	sw	x25,20(x2)
    138a:	01a12823          	sw	x26,16(x2)
    printf("TEST 3 - NESTED INTERRUPTS:\n"); 
    138e:	3df000ef          	jal	x1,1f6c <puts>
    
    // Test 3 is a nested interrupt test
    active_test = 3;
    1392:	00300713          	addi	x14,x0,3
    1396:	f6e1a623          	sw	x14,-148(x3) # 143bc <active_test>
    *TIMER_VAL_ADDR = 1 + cycle_delay;
    139a:	150004b7          	lui	x9,0x15000
    *TIMER_REG_ADDR = mask;
    139e:	150007b7          	lui	x15,0x15000
    13a2:	0007a023          	sw	x0,0(x15) # 15000000 <__heap_end+0x14c00000>
    *TIMER_VAL_ADDR = 1 + cycle_delay;
    13a6:	00448493          	addi	x9,x9,4 # 15000004 <__heap_end+0x14c00004>
    13aa:	00100793          	addi	x15,x0,1
    13ae:	00f4a023          	sw	x15,0(x9)
    asm volatile("csrrs x0, mie, %0" : : "r" (mie_mask));
    13b2:	fff00793          	addi	x15,x0,-1
    13b6:	3047a073          	csrrs	x0,mie,x15
    asm volatile("csrrs x0, mstatus, %0" : : "r" (mie_bit));
    13ba:	00800793          	addi	x15,x0,8
    13be:	3007a073          	csrrs	x0,mstatus,x15
    // Set 2 interrupts
    for (uint32_t loop = 0; loop < 50; loop++) {
        uint32_t irq[2];

        // Pick 2 random interrupts
        irq[0] = IRQ_ID_PRIORITY[random_num(IRQ_NUM-1, 0)];
    13c2:	6951                	.insn	2, 0x6951
    asm volatile("csrrs x0, mstatus, %0" : : "r" (mie_bit));
    13c4:	03200993          	addi	x19,x0,50
    uint32_t random_num = *((volatile int *)0x15001000);
    13c8:	15001ab7          	lui	x21,0x15001
        irq[0] = IRQ_ID_PRIORITY[random_num(IRQ_NUM-1, 0)];
    13cc:	c5090913          	addi	x18,x18,-944
        irq[1] = IRQ_ID_PRIORITY[random_num(IRQ_NUM-1, 0)];

        irq_id_q_ptr = 0;
        nested_irq = irq[1];
        nested_irq_valid = 1;    
    13d0:	00100d13          	addi	x26,x0,1
    13d4:	00100b13          	addi	x22,x0,1

        mm_ram_assert_irq(0x1 << irq[0], 0);

        delay(50);

        if (irq_id_q[0] != irq[0]) {
    13d8:	f9818413          	addi	x8,x3,-104 # 143e8 <irq_id_q>
    uint32_t random_num = *((volatile int *)0x15001000);
    13dc:	000aa783          	lw	x15,0(x21) # 15001000 <__heap_end+0x14c01000>
    uint32_t num = (random_num  % (upper_bound - lower_bound + 1)) + lower_bound;
    13e0:	01300713          	addi	x14,x0,19
        delay(50);
    13e4:	03200513          	addi	x10,x0,50
    uint32_t num = (random_num  % (upper_bound - lower_bound + 1)) + lower_bound;
    13e8:	02e7f7b3          	remu	x15,x15,x14
        irq[0] = IRQ_ID_PRIORITY[random_num(IRQ_NUM-1, 0)];
    13ec:	00279793          	slli	x15,x15,0x2
    13f0:	00f907b3          	add	x15,x18,x15
    13f4:	0007a583          	lw	x11,0(x15)
    uint32_t random_num = *((volatile int *)0x15001000);
    13f8:	000aa783          	lw	x15,0(x21)
        irq_id_q_ptr = 0;
    13fc:	f601aa23          	sw	x0,-140(x3) # 143c4 <irq_id_q_ptr>
        mm_ram_assert_irq(0x1 << irq[0], 0);
    1400:	00b12623          	sw	x11,12(x2)
    uint32_t num = (random_num  % (upper_bound - lower_bound + 1)) + lower_bound;
    1404:	02e7f7b3          	remu	x15,x15,x14
        mm_ram_assert_irq(0x1 << irq[0], 0);
    1408:	00bd1733          	sll	x14,x26,x11
        irq[1] = IRQ_ID_PRIORITY[random_num(IRQ_NUM-1, 0)];
    140c:	00279793          	slli	x15,x15,0x2
    1410:	00f907b3          	add	x15,x18,x15
    1414:	0007aa03          	lw	x20,0(x15)
    *TIMER_REG_ADDR = mask;
    1418:	150007b7          	lui	x15,0x15000
        nested_irq = irq[1];
    141c:	f741a423          	sw	x20,-152(x3) # 143b8 <nested_irq>
        nested_irq_valid = 1;    
    1420:	f761a223          	sw	x22,-156(x3) # 143b4 <nested_irq_valid>
    *TIMER_REG_ADDR = mask;
    1424:	00e7a023          	sw	x14,0(x15) # 15000000 <__heap_end+0x14c00000>
    *TIMER_VAL_ADDR = 1 + cycle_delay;
    1428:	0164a023          	sw	x22,0(x9)
        delay(50);
    142c:	fddfe0ef          	jal	x1,408 <delay>
        if (irq_id_q[0] != irq[0]) {
    1430:	00042783          	lw	x15,0(x8)
    1434:	00c12583          	lw	x11,12(x2)
    1438:	04f58763          	beq	x11,x15,1486 <test3+0x132>
            printf("TEST3, first interrupt exp %lu act %lu\n", irq[0], irq_id_q[0]);
    143c:	00042603          	lw	x12,0(x8)
    1440:	654d                	.insn	2, 0x654d
    1442:	fe450513          	addi	x10,x10,-28
            return ERR_CODE_TEST_3;
        }
        if (irq_id_q[1] != irq[1]) {
            printf("TEST3, second interrupt exp %lu act %lu\n", irq[1], irq_id_q[1]);
    1446:	20b000ef          	jal	x1,1e50 <printf>
    asm volatile("csrrs x0, mstatus, %0" : : "r" (mie_bit));
    144a:	00300513          	addi	x10,x0,3
            return ERR_CODE_TEST_3;
        }
    }

    return EXIT_SUCCESS;
}
    144e:	03c12083          	lw	x1,60(x2)
    1452:	03812403          	lw	x8,56(x2)
    1456:	03412483          	lw	x9,52(x2)
    145a:	03012903          	lw	x18,48(x2)
    145e:	02c12983          	lw	x19,44(x2)
    1462:	02812a03          	lw	x20,40(x2)
    1466:	02412a83          	lw	x21,36(x2)
    146a:	02012b03          	lw	x22,32(x2)
    146e:	01c12b83          	lw	x23,28(x2)
    1472:	01812c03          	lw	x24,24(x2)
    1476:	01412c83          	lw	x25,20(x2)
    147a:	01012d03          	lw	x26,16(x2)
    147e:	04010113          	addi	x2,x2,64
    1482:	00008067          	jalr	x0,0(x1)
        if (irq_id_q[1] != irq[1]) {
    1486:	00442783          	lw	x15,4(x8)
    148a:	00fa0b63          	beq	x20,x15,14a0 <test3+0x14c>
            printf("TEST3, second interrupt exp %lu act %lu\n", irq[1], irq_id_q[1]);
    148e:	654d                	.insn	2, 0x654d
    1490:	00442603          	lw	x12,4(x8)
    1494:	000a0593          	addi	x11,x20,0
    1498:	00c50513          	addi	x10,x10,12
    149c:	fabff06f          	jal	x0,1446 <test3+0xf2>
    for (uint32_t loop = 0; loop < 50; loop++) {
    14a0:	fff98993          	addi	x19,x19,-1
    14a4:	f2099ce3          	bne	x19,x0,13dc <test3+0x88>
    return EXIT_SUCCESS;
    14a8:	00000513          	addi	x10,x0,0
    14ac:	fa3ff06f          	jal	x0,144e <test3+0xfa>

000014b0 <test4>:
// Test 4 will test WFI mode
// Ensures that only MIE-enabled interrupts wake WFI
// Tests that WFI works regardless of MSTATUS.MIE
// Tests that IRQ handler is not entered after WFI unless MSTATUS.MIE is set
int test4() {
    printf("TEST 4 - WFI\n");
    14b0:	654d                	.insn	2, 0x654d
int test4() {
    14b2:	fb010113          	addi	x2,x2,-80
    printf("TEST 4 - WFI\n");
    14b6:	03850513          	addi	x10,x10,56
int test4() {
    14ba:	04812423          	sw	x8,72(x2)
    14be:	04912223          	sw	x9,68(x2)
    14c2:	05212023          	sw	x18,64(x2)
    14c6:	03512a23          	sw	x21,52(x2)
    14ca:	03812423          	sw	x24,40(x2)
    14ce:	03a12023          	sw	x26,32(x2)
    14d2:	01b12e23          	sw	x27,28(x2)
    14d6:	04112623          	sw	x1,76(x2)
    14da:	03312e23          	sw	x19,60(x2)
    14de:	03412c23          	sw	x20,56(x2)
    14e2:	03612823          	sw	x22,48(x2)
    14e6:	03712623          	sw	x23,44(x2)
    14ea:	03912223          	sw	x25,36(x2)
    printf("TEST 4 - WFI\n");
    14ee:	27f000ef          	jal	x1,1f6c <puts>
    
    // Test 4 is a WFI test
    active_test = 4;
    14f2:	00400713          	addi	x14,x0,4

    // Iterate through multiple loops
    for (int irq = 0; irq < 32; irq++) {
        if (!(((0x1 << irq) & IRQ_MASK))) 
    14f6:	ffff1ab7          	lui	x21,0xffff1
    *TIMER_VAL_ADDR = 1 + cycle_delay;
    14fa:	15000937          	lui	x18,0x15000
    active_test = 4;
    14fe:	f6e1a623          	sw	x14,-148(x3) # 143bc <active_test>
    for (int irq = 0; irq < 32; irq++) {
    1502:	00000493          	addi	x9,x0,0
        if (!(((0x1 << irq) & IRQ_MASK))) 
    1506:	00100d13          	addi	x26,x0,1
    150a:	888a8a93          	addi	x21,x21,-1912 # ffff0888 <__heap_end+0xffbf0888>
    *TIMER_VAL_ADDR = 1 + cycle_delay;
    150e:	00490913          	addi	x18,x18,4 # 15000004 <__heap_end+0x14c00004>
    1512:	00100c13          	addi	x24,x0,1

            // Select a wakeup interrupt and enable only it            
            mie_enable(irq);

            // Prep the IRQ ID Q to be empty, we need to detect if any interrupts (or none) taken
            irq_id_q[0] = -1;
    1516:	f9818413          	addi	x8,x3,-104 # 143e8 <irq_id_q>
        if (!(((0x1 << irq) & IRQ_MASK))) 
    151a:	009d19b3          	sll	x19,x26,x9
    151e:	0159f7b3          	and	x15,x19,x21
    1522:	0c078a63          	beq	x15,x0,15f6 <test4+0x146>
        for (uint32_t gmie = 0; gmie <= 1; gmie++) {
    1526:	00000b13          	addi	x22,x0,0
    asm volatile("csrrc x0, mie, %0" : : "r" (mie_mask));
    152a:	fff00693          	addi	x13,x0,-1
    *TIMER_REG_ADDR = mask;
    152e:	15000bb7          	lui	x23,0x15000
            irq_id_q[0] = -1;
    1532:	fff00593          	addi	x11,x0,-1
    asm volatile("csrrs x0, mstatus, %0" : : "r" (mie_bit));
    1536:	00800813          	addi	x16,x0,8
                mstatus_mie_enable();
            else
                mstatus_mie_disable();

            // Assert random batch of irqs (w/o selected irq)
            rand_irq = random_num32() & ~(0x1 << irq);
    153a:	fff9c613          	xori	x12,x19,-1
    asm volatile("csrrc x0, mie, %0" : : "r" (mie_mask));
    153e:	3046b073          	csrrc	x0,mie,x13
    *TIMER_REG_ADDR = mask;
    1542:	000ba023          	sw	x0,0(x23) # 15000000 <__heap_end+0x14c00000>
    *TIMER_VAL_ADDR = 1 + cycle_delay;
    1546:	01892023          	sw	x24,0(x18)
    asm volatile("csrrs x0, mie, %0" : : "r" (mie_bit));
    154a:	3049a073          	csrrs	x0,mie,x19
            irq_id_q[0] = -1;
    154e:	00b42023          	sw	x11,0(x8)
            irq_id_q_ptr = 0;
    1552:	f601aa23          	sw	x0,-140(x3) # 143c4 <irq_id_q_ptr>
            if (gmie)
    1556:	060b0963          	beq	x22,x0,15c8 <test4+0x118>
    asm volatile("csrrs x0, mstatus, %0" : : "r" (mie_bit));
    155a:	30082073          	csrrs	x0,mstatus,x16
    uint32_t num = *((volatile int *)0x15001000);
    155e:	15001cb7          	lui	x25,0x15001
    1562:	000caa03          	lw	x20,0(x25) # 15001000 <__heap_end+0x14c01000>
            rand_irq = random_num32() & ~(0x1 << irq);
    1566:	00c12623          	sw	x12,12(x2)
            mm_ram_assert_irq(rand_irq, 0);

            delay(2);
    156a:	00200513          	addi	x10,x0,2
            rand_irq = random_num32() & ~(0x1 << irq);
    156e:	014677b3          	and	x15,x12,x20
    *TIMER_REG_ADDR = mask;
    1572:	00fba023          	sw	x15,0(x23)
    *TIMER_VAL_ADDR = 1 + cycle_delay;
    1576:	01892023          	sw	x24,0(x18)
            delay(2);
    157a:	e8ffe0ef          	jal	x1,408 <delay>
    uint32_t num = *((volatile int *)0x15001000);
    157e:	000ca783          	lw	x15,0(x25)

            // Random assert "enabled" irq
            mm_ram_assert_irq(rand_irq | (0x1 << irq), (random_num32() & 0x3f) + 32);
    1582:	0149ea33          	or	x20,x19,x20
    *TIMER_REG_ADDR = mask;
    1586:	014ba023          	sw	x20,0(x23)
            mm_ram_assert_irq(rand_irq | (0x1 << irq), (random_num32() & 0x3f) + 32);
    158a:	03f7f793          	andi	x15,x15,63
    *TIMER_VAL_ADDR = 1 + cycle_delay;
    158e:	02178793          	addi	x15,x15,33
    1592:	00f92023          	sw	x15,0(x18)
            asm volatile("wfi");            
    1596:	10500073          	wfi
            
        
            if (gmie) {
    159a:	fff00693          	addi	x13,x0,-1
    159e:	00c12603          	lw	x12,12(x2)
    15a2:	fff00593          	addi	x11,x0,-1
    15a6:	00800813          	addi	x16,x0,8
    15aa:	020b0563          	beq	x22,x0,15d4 <test4+0x124>
                // Expected an interrupt taken
                if (irq_id_q[0] != irq) {
    15ae:	00042783          	lw	x15,0(x8)
    15b2:	04978263          	beq	x15,x9,15f6 <test4+0x146>
                    printf("After WFI, expected to hit an interrupt, but irq_id_q is empty\n");
    15b6:	654d                	.insn	2, 0x654d
    15b8:	04850513          	addi	x10,x10,72
    15bc:	1b1000ef          	jal	x1,1f6c <puts>
                    return ERR_CODE_TEST_4;
    15c0:	00400513          	addi	x10,x0,4
    15c4:	0420006f          	jal	x0,1606 <test4+0x156>
    asm volatile("csrrc x0, mstatus, %0" : : "r" (mie_bit));
    15c8:	00800793          	addi	x15,x0,8
    15cc:	3007b073          	csrrc	x0,mstatus,x15
}
    15d0:	f8fff06f          	jal	x0,155e <test4+0xae>
                }
            } else {
                // Expected no interrupt taken
                if (irq_id_q[0] != -1) {
    15d4:	00042703          	lw	x14,0(x8)
    15d8:	fff00793          	addi	x15,x0,-1
        for (uint32_t gmie = 0; gmie <= 1; gmie++) {
    15dc:	00100b13          	addi	x22,x0,1
                if (irq_id_q[0] != -1) {
    15e0:	f4f70fe3          	beq	x14,x15,153e <test4+0x8e>
                    printf("After WFI with MSTATUS.MIE == 0, interrupt was taken: %lu\n", irq_id_q[0]);
    15e4:	00042583          	lw	x11,0(x8)
    15e8:	654d                	.insn	2, 0x654d
    15ea:	08850513          	addi	x10,x10,136
    15ee:	063000ef          	jal	x1,1e50 <printf>
                    return ERR_CODE_TEST_4;
    15f2:	fcfff06f          	jal	x0,15c0 <test4+0x110>
    for (int irq = 0; irq < 32; irq++) {
    15f6:	00148493          	addi	x9,x9,1
    15fa:	02000793          	addi	x15,x0,32
    15fe:	f0f49ee3          	bne	x9,x15,151a <test4+0x6a>
                }
            }
        }
    }
    return EXIT_SUCCESS;
    1602:	00000513          	addi	x10,x0,0
}
    1606:	04c12083          	lw	x1,76(x2)
    160a:	04812403          	lw	x8,72(x2)
    160e:	04412483          	lw	x9,68(x2)
    1612:	04012903          	lw	x18,64(x2)
    1616:	03c12983          	lw	x19,60(x2)
    161a:	03812a03          	lw	x20,56(x2)
    161e:	03412a83          	lw	x21,52(x2)
    1622:	03012b03          	lw	x22,48(x2)
    1626:	02c12b83          	lw	x23,44(x2)
    162a:	02812c03          	lw	x24,40(x2)
    162e:	02412c83          	lw	x25,36(x2)
    1632:	02012d03          	lw	x26,32(x2)
    1636:	01c12d83          	lw	x27,28(x2)
    163a:	05010113          	addi	x2,x2,80
    163e:	00008067          	jalr	x0,0(x1)

00001642 <test5>:
// But with a relocated vector table via mtvec CSR
int test5() {
    volatile uint32_t save_mtvec;
    int retval;

    printf("TEST 5 - TRIGGER ALL IRQS IN SEQUENCE (RELOCATED MTVEC):\n");
    1642:	654d                	.insn	2, 0x654d
int test5() {
    1644:	fe010113          	addi	x2,x2,-32
    printf("TEST 5 - TRIGGER ALL IRQS IN SEQUENCE (RELOCATED MTVEC):\n");
    1648:	0c450513          	addi	x10,x10,196
int test5() {
    164c:	00112e23          	sw	x1,28(x2)
    printf("TEST 5 - TRIGGER ALL IRQS IN SEQUENCE (RELOCATED MTVEC):\n");
    1650:	11d000ef          	jal	x1,1f6c <puts>

    active_test = 5;
    1654:	00500713          	addi	x14,x0,5
    1658:	f6e1a623          	sw	x14,-148(x3) # 143bc <active_test>

    asm volatile("csrr %0, mtvec" : "=r" (save_mtvec));
    165c:	305027f3          	csrrs	x15,mtvec,x0
    1660:	00f12623          	sw	x15,12(x2)
    asm volatile("csrw mtvec, %0" : : "r" ((uint32_t) alt_vector_table | (save_mtvec & 0x3)));
    1664:	00c12783          	lw	x15,12(x2)
    1668:	20000713          	addi	x14,x0,512
    166c:	0037f793          	andi	x15,x15,3
    1670:	00e7e7b3          	or	x15,x15,x14
    1674:	30579073          	csrrw	x0,mtvec,x15

    retval = test1_impl(0);
    1678:	00000513          	addi	x10,x0,0
    167c:	3cb1                	.insn	2, 0x3cb1
    asm volatile("csrw mtvec, %0" : : "r" (save_mtvec)); 
    167e:	00c12783          	lw	x15,12(x2)
    1682:	30579073          	csrrw	x0,mtvec,x15
    if (retval != EXIT_SUCCESS) {
    1686:	00050463          	beq	x10,x0,168e <test5+0x4c>
        return ERR_CODE_TEST_5;
    168a:	00500513          	addi	x10,x0,5
    }

    return EXIT_SUCCESS;
}
    168e:	01c12083          	lw	x1,28(x2)
    1692:	02010113          	addi	x2,x2,32
    1696:	00008067          	jalr	x0,0(x1)

0000169a <test6>:
// But with a relocated vector table via mtvec CSR and DIRECT vector mode
int test6() {
    volatile uint32_t save_mtvec;
    int retval;

    printf("TEST 6 - TRIGGER ALL IRQS IN SEQUENCE (DIRECT-MODE MTVEC):\n");
    169a:	654d                	.insn	2, 0x654d
int test6() {
    169c:	fe010113          	addi	x2,x2,-32
    printf("TEST 6 - TRIGGER ALL IRQS IN SEQUENCE (DIRECT-MODE MTVEC):\n");
    16a0:	10050513          	addi	x10,x10,256
int test6() {
    16a4:	00112e23          	sw	x1,28(x2)
    printf("TEST 6 - TRIGGER ALL IRQS IN SEQUENCE (DIRECT-MODE MTVEC):\n");
    16a8:	0c5000ef          	jal	x1,1f6c <puts>

    active_test = 6;
    16ac:	00600713          	addi	x14,x0,6
    16b0:	f6e1a623          	sw	x14,-148(x3) # 143bc <active_test>

    asm volatile("csrr %0, mtvec" : "=r" (save_mtvec));
    16b4:	305027f3          	csrrs	x15,mtvec,x0
    16b8:	00f12623          	sw	x15,12(x2)
    asm volatile("csrw mtvec, %0" : : "r" ((uint32_t) alt_direct_vector_table)); // Leave mode at 0
    16bc:	30000793          	addi	x15,x0,768
    16c0:	30579073          	csrrw	x0,mtvec,x15

    retval = test1_impl(1);
    16c4:	00100513          	addi	x10,x0,1
    16c8:	3c01                	.insn	2, 0x3c01
    asm volatile("csrw mtvec, %0" : : "r" (save_mtvec)); 
    16ca:	00c12783          	lw	x15,12(x2)
    16ce:	30579073          	csrrw	x0,mtvec,x15
    if (retval != EXIT_SUCCESS) {
    16d2:	00050463          	beq	x10,x0,16da <test6+0x40>
        return ERR_CODE_TEST_6;
    16d6:	00600513          	addi	x10,x0,6
    }

    return EXIT_SUCCESS;
}
    16da:	01c12083          	lw	x1,28(x2)
    16de:	02010113          	addi	x2,x2,32
    16e2:	00008067          	jalr	x0,0(x1)

000016e6 <test7>:

// Test 7 is a direct repeat of test 1 in vectored mode
int test7() {
    printf("TEST 7 - TRIGGER ALL IRQS IN SEQUENCE: (REPEAT VECTOR MODE)\n");
    16e6:	654d                	.insn	2, 0x654d
int test7() {
    16e8:	ff010113          	addi	x2,x2,-16
    printf("TEST 7 - TRIGGER ALL IRQS IN SEQUENCE: (REPEAT VECTOR MODE)\n");
    16ec:	13c50513          	addi	x10,x10,316
int test7() {
    16f0:	00112623          	sw	x1,12(x2)
    printf("TEST 7 - TRIGGER ALL IRQS IN SEQUENCE: (REPEAT VECTOR MODE)\n");
    16f4:	079000ef          	jal	x1,1f6c <puts>

    active_test = 7;
    16f8:	00700713          	addi	x14,x0,7

    if (test1_impl(0) != EXIT_SUCCESS)
    16fc:	00000513          	addi	x10,x0,0
    active_test = 7;
    1700:	f6e1a623          	sw	x14,-148(x3) # 143bc <active_test>
    if (test1_impl(0) != EXIT_SUCCESS)
    1704:	3ad1                	.insn	2, 0x3ad1
    1706:	00050463          	beq	x10,x0,170e <test7+0x28>
        return ERR_CODE_TEST_7;
    170a:	00700513          	addi	x10,x0,7

    return EXIT_SUCCESS;
}
    170e:	00c12083          	lw	x1,12(x2)
    1712:	01010113          	addi	x2,x2,16
    1716:	00008067          	jalr	x0,0(x1)

0000171a <test8>:
int test8() {
    volatile uint32_t mcausew;
    volatile uint32_t mcauser;

    // MCAUSE is writable, this simple check tests this and also fufills code coverage
    printf("TEST 8 - READ/WRITE TO MCAUSE\n");
    171a:	654d                	.insn	2, 0x654d
int test8() {
    171c:	fe010113          	addi	x2,x2,-32
    printf("TEST 8 - READ/WRITE TO MCAUSE\n");
    1720:	17850513          	addi	x10,x10,376
int test8() {
    1724:	00112e23          	sw	x1,28(x2)
    printf("TEST 8 - READ/WRITE TO MCAUSE\n");
    1728:	045000ef          	jal	x1,1f6c <puts>

    mcausew = 0x0;
    172c:	00012423          	sw	x0,8(x2)
    __asm__ volatile("csrw mcause, %0" : : "r"(mcausew));
    1730:	00812783          	lw	x15,8(x2)
    1734:	34279073          	csrrw	x0,mcause,x15
    __asm__ volatile("csrr %0, mcause" : "=r"(mcauser));
    1738:	342027f3          	csrrs	x15,mcause,x0
    173c:	00f12623          	sw	x15,12(x2)
    if (mcauser != 0) {
    1740:	00c12783          	lw	x15,12(x2)
    1744:	00078963          	beq	x15,x0,1756 <test8+0x3c>

    mcausew = 0x0;
    __asm__ volatile("csrw mcause, %0" : : "r"(mcausew));
    __asm__ volatile("csrr %0, mcause" : "=r"(mcauser));
    if (mcauser != 0) {
        printf("MCAUSE write-read error, exp: 0x0, act: 0x%lx\n", mcauser);
    1748:	654d                	.insn	2, 0x654d
    174a:	00c12583          	lw	x11,12(x2)
    174e:	19850513          	addi	x10,x10,408
    1752:	0320006f          	jal	x0,1784 <test8+0x6a>
    mcausew = 0x1f;
    1756:	01f00793          	addi	x15,x0,31
    175a:	00f12423          	sw	x15,8(x2)
    __asm__ volatile("csrw mcause, %0" : : "r"(mcausew));
    175e:	00812783          	lw	x15,8(x2)
    1762:	34279073          	csrrw	x0,mcause,x15
    __asm__ volatile("csrr %0, mcause" : "=r"(mcauser));
    1766:	342027f3          	csrrs	x15,mcause,x0
    176a:	00f12623          	sw	x15,12(x2)
    if (mcauser != mcausew) {
    176e:	00c12703          	lw	x14,12(x2)
    1772:	00812783          	lw	x15,8(x2)
    1776:	02f70163          	beq	x14,x15,1798 <test8+0x7e>
        printf("MCAUSE write-read error, exp: 0x1f, act: 0x%lx\n", mcauser);
    177a:	00c12583          	lw	x11,12(x2)
    177e:	654d                	.insn	2, 0x654d
    1780:	1c850513          	addi	x10,x10,456
    1784:	6cc000ef          	jal	x1,1e50 <printf>
        return EXIT_FAILURE;
    1788:	00100513          	addi	x10,x0,1
        return EXIT_FAILURE;
    }

    return EXIT_SUCCESS;
}
    178c:	01c12083          	lw	x1,28(x2)
    1790:	02010113          	addi	x2,x2,32
    1794:	00008067          	jalr	x0,0(x1)
    mcausew = 0x0;
    1798:	00012423          	sw	x0,8(x2)
    __asm__ volatile("csrw mcause, %0" : : "r"(mcausew));
    179c:	00812783          	lw	x15,8(x2)
    17a0:	34279073          	csrrw	x0,mcause,x15
    __asm__ volatile("csrr %0, mcause" : "=r"(mcauser));
    17a4:	342027f3          	csrrs	x15,mcause,x0
    17a8:	00f12623          	sw	x15,12(x2)
    if (mcauser != 0) {
    17ac:	00c12783          	lw	x15,12(x2)
    return EXIT_SUCCESS;
    17b0:	00000513          	addi	x10,x0,0
    if (mcauser != 0) {
    17b4:	fc078ce3          	beq	x15,x0,178c <test8+0x72>
    17b8:	f91ff06f          	jal	x0,1748 <test8+0x2e>

000017bc <test9>:

int test9() {
    volatile uint32_t save_mtvec;
    printf("TEST 9 - ECALL-WFI Coverage Test\n");
    17bc:	654d                	.insn	2, 0x654d
int test9() {
    17be:	fb010113          	addi	x2,x2,-80
    printf("TEST 9 - ECALL-WFI Coverage Test\n");
    17c2:	1f850513          	addi	x10,x10,504
int test9() {
    17c6:	04112623          	sw	x1,76(x2)
    17ca:	04812423          	sw	x8,72(x2)
    17ce:	04912223          	sw	x9,68(x2)
    17d2:	05212023          	sw	x18,64(x2)
    17d6:	03312e23          	sw	x19,60(x2)
    17da:	03412c23          	sw	x20,56(x2)
    17de:	03512a23          	sw	x21,52(x2)
    17e2:	03612823          	sw	x22,48(x2)
    17e6:	03712623          	sw	x23,44(x2)
    17ea:	03812423          	sw	x24,40(x2)
    17ee:	03912223          	sw	x25,36(x2)
    17f2:	03a12023          	sw	x26,32(x2)
    17f6:	01b12e23          	sw	x27,28(x2)
    printf("TEST 9 - ECALL-WFI Coverage Test\n");
    17fa:	772000ef          	jal	x1,1f6c <puts>

    active_test = 9;
    17fe:	00900713          	addi	x14,x0,9
    1802:	f6e1a623          	sw	x14,-148(x3) # 143bc <active_test>

    asm volatile("csrr %0, mtvec" : "=r" (save_mtvec));
    1806:	305027f3          	csrrs	x15,mtvec,x0
    180a:	00f12623          	sw	x15,12(x2)
    asm volatile("csrw mtvec, %0" : : "r" ((uint32_t) alt_direct_ecall_table)); // Leave mode at 0
    180e:	40000793          	addi	x15,x0,1024
    1812:	30579073          	csrrw	x0,mtvec,x15
    *TIMER_REG_ADDR = mask;
    1816:	150007b7          	lui	x15,0x15000
    *TIMER_VAL_ADDR = 1 + cycle_delay;
    181a:	150004b7          	lui	x9,0x15000
    *TIMER_REG_ADDR = mask;
    181e:	0007a023          	sw	x0,0(x15) # 15000000 <__heap_end+0x14c00000>
    *TIMER_VAL_ADDR = 1 + cycle_delay;
    1822:	00448493          	addi	x9,x9,4 # 15000004 <__heap_end+0x14c00004>
    1826:	00100793          	addi	x15,x0,1

    mm_ram_assert_irq(0, 0);

    // Iterate through multiple loops
    for (int irq = 0; irq < 32; irq++) {
        if (!(((0x1 << irq) & IRQ_MASK))) 
    182a:	ffff1a37          	lui	x20,0xffff1
    *TIMER_VAL_ADDR = 1 + cycle_delay;
    182e:	00f4a023          	sw	x15,0(x9)
    for (int irq = 0; irq < 32; irq++) {
    1832:	00000993          	addi	x19,x0,0
        if (!(((0x1 << irq) & IRQ_MASK))) 
    1836:	00100b13          	addi	x22,x0,1
    183a:	888a0a13          	addi	x20,x20,-1912 # ffff0888 <__heap_end+0xffbf0888>
    asm volatile("csrrc x0, mie, %0" : : "r" (mie_mask));
    183e:	fff00a93          	addi	x21,x0,-1

            // Select a wakeup interrupt and enable only it            
            mie_enable(irq);

            // Prep the IRQ ID Q to be empty, we need to detect if any interrupts (or none) taken
            irq_id_q[0] = -1;
    1842:	f9818913          	addi	x18,x3,-104 # 143e8 <irq_id_q>
    asm volatile("csrrc x0, mstatus, %0" : : "r" (mie_bit));
    1846:	00800d93          	addi	x27,x0,8
        if (!(((0x1 << irq) & IRQ_MASK))) 
    184a:	013b1433          	sll	x8,x22,x19
    184e:	014477b3          	and	x15,x8,x20
    1852:	02079063          	bne	x15,x0,1872 <test9+0xb6>
    for (int irq = 0; irq < 32; irq++) {
    1856:	00198993          	addi	x19,x19,1
    185a:	02000793          	addi	x15,x0,32
    185e:	fef996e3          	bne	x19,x15,184a <test9+0x8e>
                }
            }
        }
    }

    asm volatile("csrw mtvec, %0" : : "r" (save_mtvec)); 
    1862:	00c12783          	lw	x15,12(x2)
    1866:	30579073          	csrrw	x0,mtvec,x15

    return EXIT_SUCCESS;
    186a:	00000513          	addi	x10,x0,0
    186e:	0700006f          	jal	x0,18de <test9+0x122>
    asm volatile("csrrc x0, mie, %0" : : "r" (mie_mask));
    1872:	304ab073          	csrrc	x0,mie,x21
    asm volatile("csrrs x0, mie, %0" : : "r" (mie_bit));
    1876:	30442073          	csrrs	x0,mie,x8
            irq_id_q[0] = -1;
    187a:	01592023          	sw	x21,0(x18)
            irq_id_q_ptr = 0;
    187e:	f601aa23          	sw	x0,-140(x3) # 143c4 <irq_id_q_ptr>
    asm volatile("csrrc x0, mstatus, %0" : : "r" (mie_bit));
    1882:	300db073          	csrrc	x0,mstatus,x27
    uint32_t num = *((volatile int *)0x15001000);
    1886:	15001c37          	lui	x24,0x15001
    188a:	000c2c83          	lw	x25,0(x24) # 15001000 <__heap_end+0x14c01000>
            rand_irq = random_num32() & ~(0x1 << irq);
    188e:	fff44793          	xori	x15,x8,-1
    *TIMER_REG_ADDR = mask;
    1892:	15000bb7          	lui	x23,0x15000
            rand_irq = random_num32() & ~(0x1 << irq);
    1896:	0197f7b3          	and	x15,x15,x25
    *TIMER_REG_ADDR = mask;
    189a:	00fba023          	sw	x15,0(x23) # 15000000 <__heap_end+0x14c00000>
    *TIMER_VAL_ADDR = 1 + cycle_delay;
    189e:	0164a023          	sw	x22,0(x9)
            delay(2);
    18a2:	00200513          	addi	x10,x0,2
    18a6:	b63fe0ef          	jal	x1,408 <delay>
    uint32_t num = *((volatile int *)0x15001000);
    18aa:	000c2783          	lw	x15,0(x24)
            mm_ram_assert_irq(rand_irq | (0x1 << irq), (random_num32() & 0x3f) + 64);
    18ae:	01946433          	or	x8,x8,x25
    *TIMER_REG_ADDR = mask;
    18b2:	008ba023          	sw	x8,0(x23)
            mm_ram_assert_irq(rand_irq | (0x1 << irq), (random_num32() & 0x3f) + 64);
    18b6:	03f7f793          	andi	x15,x15,63
    *TIMER_VAL_ADDR = 1 + cycle_delay;
    18ba:	04178793          	addi	x15,x15,65
    18be:	00f4a023          	sw	x15,0(x9)
            asm volatile("ecall");
    18c2:	00000073          	ecall
                if (irq_id_q[0] != -1) {
    18c6:	00092783          	lw	x15,0(x18)
    18ca:	f95786e3          	beq	x15,x21,1856 <test9+0x9a>
                    printf("After WFI with MSTATUS.MIE == 0, interrupt was taken: %lu\n", irq_id_q[0]);
    18ce:	00092583          	lw	x11,0(x18)
    18d2:	654d                	.insn	2, 0x654d
    18d4:	08850513          	addi	x10,x10,136
    18d8:	2ba5                	.insn	2, 0x2ba5
                    return ERR_CODE_TEST_4;
    18da:	00400513          	addi	x10,x0,4
}
    18de:	04c12083          	lw	x1,76(x2)
    18e2:	04812403          	lw	x8,72(x2)
    18e6:	04412483          	lw	x9,68(x2)
    18ea:	04012903          	lw	x18,64(x2)
    18ee:	03c12983          	lw	x19,60(x2)
    18f2:	03812a03          	lw	x20,56(x2)
    18f6:	03412a83          	lw	x21,52(x2)
    18fa:	03012b03          	lw	x22,48(x2)
    18fe:	02c12b83          	lw	x23,44(x2)
    1902:	02812c03          	lw	x24,40(x2)
    1906:	02412c83          	lw	x25,36(x2)
    190a:	02012d03          	lw	x26,32(x2)
    190e:	01c12d83          	lw	x27,28(x2)
    1912:	05010113          	addi	x2,x2,80
    1916:	00008067          	jalr	x0,0(x1)
	...

000019fe <__no_irq_handler>:
.weak m_fast15_irq_handler


/* exception handling */
__no_irq_handler:
	la a0, no_exception_handler_msg
    19fe:	00012517          	auipc	x10,0x12
    1a02:	9fe50513          	addi	x10,x10,-1538 # 133fc <no_exception_handler_msg>
	jal ra, puts
    1a06:	566000ef          	jal	x1,1f6c <puts>
	j __no_irq_handler
    1a0a:	bfd5                	c.j	19fe <__no_irq_handler>

m_software_irq_handler:
	j __no_irq_handler
    1a0c:	bfcd                	c.j	19fe <__no_irq_handler>

m_timer_irq_handler:
	j __no_irq_handler
    1a0e:	bfc5                	c.j	19fe <__no_irq_handler>

m_external_irq_handler:
	j __no_irq_handler
    1a10:	b7fd                	c.j	19fe <__no_irq_handler>

m_fast0_irq_handler:
	j __no_irq_handler
    1a12:	b7f5                	c.j	19fe <__no_irq_handler>

m_fast1_irq_handler:
	j __no_irq_handler
    1a14:	b7ed                	c.j	19fe <__no_irq_handler>

m_fast2_irq_handler:
	j __no_irq_handler
    1a16:	b7e5                	c.j	19fe <__no_irq_handler>

m_fast3_irq_handler:
	j __no_irq_handler
    1a18:	b7dd                	c.j	19fe <__no_irq_handler>

m_fast4_irq_handler:
	j __no_irq_handler
    1a1a:	b7d5                	c.j	19fe <__no_irq_handler>

m_fast5_irq_handler:
	j __no_irq_handler
    1a1c:	b7cd                	c.j	19fe <__no_irq_handler>

m_fast6_irq_handler:
	j __no_irq_handler
    1a1e:	b7c5                	c.j	19fe <__no_irq_handler>

m_fast7_irq_handler:
	j __no_irq_handler
    1a20:	bff9                	c.j	19fe <__no_irq_handler>

m_fast8_irq_handler:
	j __no_irq_handler
    1a22:	bff1                	c.j	19fe <__no_irq_handler>

m_fast9_irq_handler:
	j __no_irq_handler
    1a24:	bfe9                	c.j	19fe <__no_irq_handler>

m_fast10_irq_handler:
	j __no_irq_handler
    1a26:	bfe1                	c.j	19fe <__no_irq_handler>

m_fast11_irq_handler:
	j __no_irq_handler
    1a28:	bfd9                	c.j	19fe <__no_irq_handler>

m_fast12_irq_handler:
	j __no_irq_handler
    1a2a:	bfd1                	c.j	19fe <__no_irq_handler>

m_fast13_irq_handler:
	j __no_irq_handler
    1a2c:	bfc9                	c.j	19fe <__no_irq_handler>

m_fast14_irq_handler:
	j __no_irq_handler
    1a2e:	bfc1                	c.j	19fe <__no_irq_handler>

m_fast15_irq_handler:
	j __no_irq_handler
    1a30:	b7f9                	c.j	19fe <__no_irq_handler>

00001a32 <u_sw_irq_handler>:

u_sw_irq_handler:
	/* While we are still using puts in handlers, save all caller saved
	   regs.  Eventually, some of these saves could be deferred.  */
	addi sp,sp,-64
    1a32:	7139                	c.addi16sp	x2,-64
	sw ra, 0(sp)
    1a34:	c006                	c.swsp	x1,0(x2)
	sw a0, 4(sp)
    1a36:	c22a                	c.swsp	x10,4(x2)
	sw a1, 8(sp)
    1a38:	c42e                	c.swsp	x11,8(x2)
	sw a2, 12(sp)
    1a3a:	c632                	c.swsp	x12,12(x2)
	sw a3, 16(sp)
    1a3c:	c836                	c.swsp	x13,16(x2)
	sw a4, 20(sp)
    1a3e:	ca3a                	c.swsp	x14,20(x2)
	sw a5, 24(sp)
    1a40:	cc3e                	c.swsp	x15,24(x2)
	sw a6, 28(sp)
    1a42:	ce42                	c.swsp	x16,28(x2)
	sw a7, 32(sp)
    1a44:	d046                	c.swsp	x17,32(x2)
	sw t0, 36(sp)
    1a46:	d216                	c.swsp	x5,36(x2)
	sw t1, 40(sp)
    1a48:	d41a                	c.swsp	x6,40(x2)
	sw t2, 44(sp)
    1a4a:	d61e                	c.swsp	x7,44(x2)
	sw t3, 48(sp)
    1a4c:	d872                	c.swsp	x28,48(x2)
	sw t4, 52(sp)
    1a4e:	da76                	c.swsp	x29,52(x2)
	sw t5, 56(sp)
    1a50:	dc7a                	c.swsp	x30,56(x2)
	sw t6, 60(sp)
    1a52:	de7e                	c.swsp	x31,60(x2)
	csrr t0, mcause
    1a54:	342022f3          	csrrs	x5,mcause,x0
	li t1, EXCEPTION_ILLEGAL_INSN
    1a58:	4309                	c.li	x6,2
	beq t0, t1, handle_illegal_insn
    1a5a:	02628363          	beq	x5,x6,1a80 <handle_illegal_insn>
	li t1, EXCEPTION_ECALL_M
    1a5e:	432d                	c.li	x6,11
	beq t0, t1, handle_ecall
    1a60:	00628663          	beq	x5,x6,1a6c <handle_ecall>
	li t1, EXCEPTION_BREAKPOINT
    1a64:	430d                	c.li	x6,3
	beq t0, t1, handle_ebreak
    1a66:	00628663          	beq	x5,x6,1a72 <handle_ebreak>
	j handle_unknown
    1a6a:	a015                	c.j	1a8e <handle_unknown>

00001a6c <handle_ecall>:

handle_ecall:
	jal ra, handle_syscall
    1a6c:	204000ef          	jal	x1,1c70 <handle_syscall>
	j end_handler_incr_mepc
    1a70:	a035                	c.j	1a9c <end_handler_incr_mepc>

00001a72 <handle_ebreak>:

handle_ebreak:
	/* TODO support debug handling requirements.  */
	la a0, ebreak_msg
    1a72:	00012517          	auipc	x10,0x12
    1a76:	92950513          	addi	x10,x10,-1751 # 1339b <ebreak_msg>
	jal ra, puts
    1a7a:	4f2000ef          	jal	x1,1f6c <puts>
	j end_handler_incr_mepc
    1a7e:	a839                	c.j	1a9c <end_handler_incr_mepc>

00001a80 <handle_illegal_insn>:

handle_illegal_insn:
	la a0, illegal_insn_msg
    1a80:	00012517          	auipc	x10,0x12
    1a84:	8af50513          	addi	x10,x10,-1873 # 1332f <illegal_insn_msg>
	jal ra, puts
    1a88:	4e4000ef          	jal	x1,1f6c <puts>
	j end_handler_incr_mepc
    1a8c:	a801                	c.j	1a9c <end_handler_incr_mepc>

00001a8e <handle_unknown>:

handle_unknown:
	la a0, unknown_msg
    1a8e:	00012517          	auipc	x10,0x12
    1a92:	93d50513          	addi	x10,x10,-1731 # 133cb <unknown_msg>
	jal ra, puts
    1a96:	4d6000ef          	jal	x1,1f6c <puts>
	/* We don't know what interrupt/exception is being handled, so don't
	   increment mepc.  */
	j end_handler_ret
    1a9a:	a831                	c.j	1ab6 <end_handler_ret>

00001a9c <end_handler_incr_mepc>:

end_handler_incr_mepc:
	csrr t0, mepc
    1a9c:	341022f3          	csrrs	x5,mepc,x0
	lb t1, 0(t0)
    1aa0:	00028303          	lb	x6,0(x5)
	li a0, 0x3
    1aa4:	450d                	c.li	x10,3
	and t1, t1, a0
    1aa6:	00a37333          	and	x6,x6,x10
	/* Increment mepc by 2 or 4 depending on whether the instruction at mepc
	   is compressed or not.  */
	bne t1, a0, end_handler_incr_mepc2
    1aaa:	00a31363          	bne	x6,x10,1ab0 <end_handler_incr_mepc2>
	addi t0, t0, 2
    1aae:	0289                	c.addi	x5,2

00001ab0 <end_handler_incr_mepc2>:
end_handler_incr_mepc2:
	addi t0, t0, 2
    1ab0:	0289                	c.addi	x5,2
	csrw mepc, t0
    1ab2:	34129073          	csrrw	x0,mepc,x5

00001ab6 <end_handler_ret>:
end_handler_ret:
	lw ra, 0(sp)
    1ab6:	4082                	c.lwsp	x1,0(x2)
	lw a0, 4(sp)
    1ab8:	4512                	c.lwsp	x10,4(x2)
	lw a1, 8(sp)
    1aba:	45a2                	c.lwsp	x11,8(x2)
	lw a2, 12(sp)
    1abc:	4632                	c.lwsp	x12,12(x2)
	lw a3, 16(sp)
    1abe:	46c2                	c.lwsp	x13,16(x2)
	lw a4, 20(sp)
    1ac0:	4752                	c.lwsp	x14,20(x2)
	lw a5, 24(sp)
    1ac2:	47e2                	c.lwsp	x15,24(x2)
	lw a6, 28(sp)
    1ac4:	4872                	c.lwsp	x16,28(x2)
	lw a7, 32(sp)
    1ac6:	5882                	c.lwsp	x17,32(x2)
	lw t0, 36(sp)
    1ac8:	5292                	c.lwsp	x5,36(x2)
	lw t1, 40(sp)
    1aca:	5322                	c.lwsp	x6,40(x2)
	lw t2, 44(sp)
    1acc:	53b2                	c.lwsp	x7,44(x2)
	lw t3, 48(sp)
    1ace:	5e42                	c.lwsp	x28,48(x2)
	lw t4, 52(sp)
    1ad0:	5ed2                	c.lwsp	x29,52(x2)
	lw t5, 56(sp)
    1ad2:	5f62                	c.lwsp	x30,56(x2)
	lw t6, 60(sp)
    1ad4:	5ff2                	c.lwsp	x31,60(x2)
	addi sp,sp,64
    1ad6:	6121                	c.addi16sp	x2,64
	mret
    1ad8:	30200073          	mret

00001adc <__syscall_error>:
#endif
/* Upstream newlib now defines this in libgloss/riscv/internal_syscall.h.  */
long
__syscall_error(long a0)
{
  errno = -a0;
    1adc:	40a00533          	sub	x10,x0,x10
    1ae0:	f6a1ae23          	sw	x10,-132(x3) # 143cc <errno>
  return -1;
}
    1ae4:	557d                	c.li	x10,-1
    1ae6:	8082                	c.jr	x1

00001ae8 <unimplemented_syscall>:

void unimplemented_syscall()
{
  const char *p = "BSP: Unimplemented system call called!\n";
    1ae8:	67cd                	c.lui	x15,0x13
    1aea:	21c78793          	addi	x15,x15,540 # 1321c <__clzsi2+0x4b4>
  while (*p)
    *(volatile int *)STDOUT_REG = *(p++);
    1aee:	100006b7          	lui	x13,0x10000
  while (*p)
    1af2:	0007c703          	lbu	x14,0(x15)
    1af6:	e311                	c.bnez	x14,1afa <unimplemented_syscall+0x12>
}
    1af8:	8082                	c.jr	x1
    *(volatile int *)STDOUT_REG = *(p++);
    1afa:	0785                	c.addi	x15,1
    1afc:	c298                	c.sw	x14,0(x13)
    1afe:	bfd5                	c.j	1af2 <unimplemented_syscall+0xa>

00001b00 <nanosleep>:

int nanosleep(const struct timespec *rqtp, struct timespec *rmtp)
{
  errno = ENOSYS;
    1b00:	05800713          	addi	x14,x0,88
    1b04:	f6e1ae23          	sw	x14,-132(x3) # 143cc <errno>
  return -1;
}
    1b08:	557d                	c.li	x10,-1
    1b0a:	8082                	c.jr	x1

00001b0c <_access>:

int _access(const char *file, int mode)
{
  errno = ENOSYS;
    1b0c:	05800713          	addi	x14,x0,88
    1b10:	f6e1ae23          	sw	x14,-132(x3) # 143cc <errno>
  return -1;
}
    1b14:	557d                	c.li	x10,-1
    1b16:	8082                	c.jr	x1

00001b18 <_chdir>:

int _chdir(const char *path)
{
  errno = ENOSYS;
    1b18:	05800713          	addi	x14,x0,88
    1b1c:	f6e1ae23          	sw	x14,-132(x3) # 143cc <errno>
  return -1;
}
    1b20:	557d                	c.li	x10,-1
    1b22:	8082                	c.jr	x1

00001b24 <_chmod>:

int _chmod(const char *path, mode_t mode)
{
  errno = ENOSYS;
    1b24:	05800713          	addi	x14,x0,88
    1b28:	f6e1ae23          	sw	x14,-132(x3) # 143cc <errno>
  return -1;
}
    1b2c:	557d                	c.li	x10,-1
    1b2e:	8082                	c.jr	x1

00001b30 <_chown>:

int _chown(const char *path, uid_t owner, gid_t group)
{
  errno = ENOSYS;
    1b30:	05800713          	addi	x14,x0,88
    1b34:	f6e1ae23          	sw	x14,-132(x3) # 143cc <errno>
  return -1;
}
    1b38:	557d                	c.li	x10,-1
    1b3a:	8082                	c.jr	x1

00001b3c <_close>:

int _close(int file)
{
  return -1;
}
    1b3c:	557d                	c.li	x10,-1
    1b3e:	8082                	c.jr	x1

00001b40 <_execve>:

int _execve(const char *name, char *const argv[], char *const env[])
{
  errno = ENOMEM;
    1b40:	4731                	c.li	x14,12
    1b42:	f6e1ae23          	sw	x14,-132(x3) # 143cc <errno>
  return -1;
}
    1b46:	557d                	c.li	x10,-1
    1b48:	8082                	c.jr	x1

00001b4a <_exit>:

void _exit(int exit_status)
{
  *(volatile int *)EXIT_REG = exit_status;
    1b4a:	200007b7          	lui	x15,0x20000
    1b4e:	c3c8                	c.sw	x10,4(x15)
  asm volatile("wfi");
    1b50:	10500073          	wfi
  /* _exit should not return */
  while (1) {};
    1b54:	a001                	c.j	1b54 <_exit+0xa>

00001b56 <_faccessat>:
}

int _faccessat(int dirfd, const char *file, int mode, int flags)
{
  errno = ENOSYS;
    1b56:	05800713          	addi	x14,x0,88
    1b5a:	f6e1ae23          	sw	x14,-132(x3) # 143cc <errno>
  return -1;
}
    1b5e:	557d                	c.li	x10,-1
    1b60:	8082                	c.jr	x1

00001b62 <_fork>:

int _fork(void)
{
  errno = EAGAIN;
    1b62:	472d                	c.li	x14,11
    1b64:	f6e1ae23          	sw	x14,-132(x3) # 143cc <errno>
  return -1;
}
    1b68:	557d                	c.li	x10,-1
    1b6a:	8082                	c.jr	x1

00001b6c <_fstat>:

int _fstat(int file, struct stat *st)
{
  st->st_mode = S_IFCHR;
    1b6c:	6789                	c.lui	x15,0x2
    1b6e:	c1dc                	c.sw	x15,4(x11)
  return 0;
  // errno = -ENOSYS;
  // return -1;
}
    1b70:	4501                	c.li	x10,0
    1b72:	8082                	c.jr	x1

00001b74 <_fstatat>:

int _fstatat(int dirfd, const char *file, struct stat *st, int flags)
{
  errno = ENOSYS;
    1b74:	05800713          	addi	x14,x0,88
    1b78:	f6e1ae23          	sw	x14,-132(x3) # 143cc <errno>
  return -1;
}
    1b7c:	557d                	c.li	x10,-1
    1b7e:	8082                	c.jr	x1

00001b80 <_ftime>:

int _ftime(struct timeb *tp)
    1b80:	05800713          	addi	x14,x0,88
    1b84:	f6e1ae23          	sw	x14,-132(x3) # 143cc <errno>
    1b88:	557d                	c.li	x10,-1
    1b8a:	8082                	c.jr	x1

00001b8c <_getcwd>:
  return -1;
}

char *_getcwd(char *buf, size_t size)
{
  errno = -ENOSYS;
    1b8c:	fa800713          	addi	x14,x0,-88
    1b90:	f6e1ae23          	sw	x14,-132(x3) # 143cc <errno>
  return NULL;
}
    1b94:	4501                	c.li	x10,0
    1b96:	8082                	c.jr	x1

00001b98 <_getpid>:

int _getpid()
{
  return 1;
}
    1b98:	4505                	c.li	x10,1
    1b9a:	8082                	c.jr	x1

00001b9c <_gettimeofday>:

int _gettimeofday(struct timeval *tp, void *tzp)
{
  errno = -ENOSYS;
    1b9c:	fa800713          	addi	x14,x0,-88
    1ba0:	f6e1ae23          	sw	x14,-132(x3) # 143cc <errno>
  return -1;
}
    1ba4:	557d                	c.li	x10,-1
    1ba6:	8082                	c.jr	x1

00001ba8 <_isatty>:

int _isatty(int file)
{
  return (file == STDOUT_FILENO);
    1ba8:	157d                	c.addi	x10,-1
}
    1baa:	00153513          	sltiu	x10,x10,1
    1bae:	8082                	c.jr	x1

00001bb0 <_kill>:

int _kill(int pid, int sig)
{
  errno = EINVAL;
    1bb0:	4759                	c.li	x14,22
    1bb2:	f6e1ae23          	sw	x14,-132(x3) # 143cc <errno>
  return -1;
}
    1bb6:	557d                	c.li	x10,-1
    1bb8:	8082                	c.jr	x1

00001bba <_link>:

int _link(const char *old_name, const char *new_name)
{
  errno = EMLINK;
    1bba:	477d                	c.li	x14,31
    1bbc:	f6e1ae23          	sw	x14,-132(x3) # 143cc <errno>
  return -1;
}
    1bc0:	557d                	c.li	x10,-1
    1bc2:	8082                	c.jr	x1

00001bc4 <_lseek>:

off_t _lseek(int file, off_t ptr, int dir)
{
  return 0;
}
    1bc4:	4501                	c.li	x10,0
    1bc6:	8082                	c.jr	x1

00001bc8 <_lstat>:

int _lstat(const char *file, struct stat *st)
    1bc8:	05800713          	addi	x14,x0,88
    1bcc:	f6e1ae23          	sw	x14,-132(x3) # 143cc <errno>
    1bd0:	557d                	c.li	x10,-1
    1bd2:	8082                	c.jr	x1

00001bd4 <_open>:
}

int _open(const char *name, int flags, int mode)
{
  return -1;
}
    1bd4:	557d                	c.li	x10,-1
    1bd6:	8082                	c.jr	x1

00001bd8 <_openat>:

int _openat(int dirfd, const char *name, int flags, int mode)
    1bd8:	05800713          	addi	x14,x0,88
    1bdc:	f6e1ae23          	sw	x14,-132(x3) # 143cc <errno>
    1be0:	557d                	c.li	x10,-1
    1be2:	8082                	c.jr	x1

00001be4 <_read>:
}

ssize_t _read(int file, void *ptr, size_t len)
{
  return 0;
}
    1be4:	4501                	c.li	x10,0
    1be6:	8082                	c.jr	x1

00001be8 <_stat>:

int _stat(const char *file, struct stat *st)
{
  st->st_mode = S_IFCHR;
    1be8:	6789                	c.lui	x15,0x2
    1bea:	c1dc                	c.sw	x15,4(x11)
  return 0;
  // errno = ENOSYS;
  // return -1;
}
    1bec:	4501                	c.li	x10,0
    1bee:	8082                	c.jr	x1

00001bf0 <_sysconf>:

long _sysconf(int name)
    1bf0:	557d                	c.li	x10,-1
    1bf2:	8082                	c.jr	x1

00001bf4 <_times>:
}

clock_t _times(struct tms *buf)
{
  return -1;
}
    1bf4:	557d                	c.li	x10,-1
    1bf6:	8082                	c.jr	x1

00001bf8 <_unlink>:

int _unlink(const char *name)
{
  errno = ENOENT;
    1bf8:	4709                	c.li	x14,2
    1bfa:	f6e1ae23          	sw	x14,-132(x3) # 143cc <errno>
  return -1;
}
    1bfe:	557d                	c.li	x10,-1
    1c00:	8082                	c.jr	x1

00001c02 <_utime>:

int _utime(const char *path, const struct utimbuf *times)
    1c02:	05800713          	addi	x14,x0,88
    1c06:	f6e1ae23          	sw	x14,-132(x3) # 143cc <errno>
    1c0a:	557d                	c.li	x10,-1
    1c0c:	8082                	c.jr	x1

00001c0e <_wait>:
  return -1;
}

int _wait(int *status)
{
  errno = ECHILD;
    1c0e:	4729                	c.li	x14,10
    1c10:	f6e1ae23          	sw	x14,-132(x3) # 143cc <errno>
  return -1;
}
    1c14:	557d                	c.li	x10,-1
    1c16:	8082                	c.jr	x1

00001c18 <_write>:

ssize_t _write(int file, const void *ptr, size_t len)
{
  const char *cptr = (char *)ptr;
  if (file != STDOUT_FILENO)
    1c18:	4685                	c.li	x13,1
    {
      errno = ENOSYS;
      return -1;
    }

  const void *eptr = cptr + len;
    1c1a:	00c587b3          	add	x15,x11,x12
  while (cptr != eptr)
    *(volatile int *)STDOUT_REG = *cptr++;
    1c1e:	10000737          	lui	x14,0x10000
  if (file != STDOUT_FILENO)
    1c22:	00d50c63          	beq	x10,x13,1c3a <_write+0x22>
      errno = ENOSYS;
    1c26:	05800713          	addi	x14,x0,88
    1c2a:	f6e1ae23          	sw	x14,-132(x3) # 143cc <errno>
      return -1;
    1c2e:	557d                	c.li	x10,-1
    1c30:	8082                	c.jr	x1
    *(volatile int *)STDOUT_REG = *cptr++;
    1c32:	0005c683          	lbu	x13,0(x11)
    1c36:	0585                	c.addi	x11,1
    1c38:	c314                	c.sw	x13,0(x14)
  while (cptr != eptr)
    1c3a:	fef59ce3          	bne	x11,x15,1c32 <_write+0x1a>
  return len;
    1c3e:	8532                	c.mv	x10,x12
}
    1c40:	8082                	c.jr	x1

00001c42 <_brk>:
extern char __heap_end[];
static char *brk = __heap_start;

int _brk(void *addr)
{
  brk = addr;
    1c42:	f4a1a823          	sw	x10,-176(x3) # 143a0 <brk>
  return 0;
}
    1c46:	4501                	c.li	x10,0
    1c48:	8082                	c.jr	x1

00001c4a <_sbrk>:

void *_sbrk(ptrdiff_t incr)
{
    1c4a:	87aa                	c.mv	x15,x10
  char *old_brk = brk;
    1c4c:	f501a503          	lw	x10,-176(x3) # 143a0 <brk>
  register long sp asm("sp");

  char *new_brk = brk += incr;
    1c50:	97aa                	c.add	x15,x10
    1c52:	f4f1a823          	sw	x15,-176(x3) # 143a0 <brk>
  if (new_brk < (char *) sp && new_brk < __heap_end)
    1c56:	0027f863          	bgeu	x15,x2,1c66 <_sbrk+0x1c>
    1c5a:	00400737          	lui	x14,0x400
    1c5e:	00070713          	addi	x14,x14,0 # 400000 <__heap_end>
    1c62:	00e7e663          	bltu	x15,x14,1c6e <_sbrk+0x24>

      return old_brk;
    }
  else
    {
      errno = ENOMEM;
    1c66:	4731                	c.li	x14,12
    1c68:	f6e1ae23          	sw	x14,-132(x3) # 143cc <errno>
      return (void *) -1;
    1c6c:	557d                	c.li	x10,-1
    }
}
    1c6e:	8082                	c.jr	x1

00001c70 <handle_syscall>:
    register long syscall_id asm("t0");
  #else
    long syscall_id = a7;
  #endif

  switch (syscall_id) {
    1c70:	08100793          	addi	x15,x0,129
    1c74:	0af88c63          	beq	x17,x15,1d2c <handle_syscall+0xbc>
    1c78:	0717c763          	blt	x15,x17,1ce6 <handle_syscall+0x76>
    1c7c:	04000793          	addi	x15,x0,64
    1c80:	0517c663          	blt	x15,x17,1ccc <handle_syscall+0x5c>
    1c84:	02f00793          	addi	x15,x0,47
    1c88:	0317c563          	blt	x15,x17,1cb2 <handle_syscall+0x42>
    1c8c:	47c5                	c.li	x15,17
    1c8e:	04f89b63          	bne	x17,x15,1ce4 <handle_syscall+0x74>
  errno = -ENOSYS;
    1c92:	fa800713          	addi	x14,x0,-88
    1c96:	a861                	c.j	1d2e <handle_syscall+0xbe>
  switch (syscall_id) {
    1c98:	c0088893          	addi	x17,x17,-1024
    1c9c:	47bd                	c.li	x15,15
    1c9e:	0517e363          	bltu	x15,x17,1ce4 <handle_syscall+0x74>
    1ca2:	67cd                	c.lui	x15,0x13
    1ca4:	42c78793          	addi	x15,x15,1068 # 1342c <no_exception_handler_msg+0x30>
    1ca8:	088a                	c.slli	x17,0x2
    1caa:	98be                	c.add	x17,x15
    1cac:	0008a783          	lw	x15,0(x17)
    1cb0:	8782                	c.jr	x15
    1cb2:	fd088893          	addi	x17,x17,-48
    1cb6:	47c1                	c.li	x15,16
    1cb8:	0317e663          	bltu	x15,x17,1ce4 <handle_syscall+0x74>
    1cbc:	67cd                	c.lui	x15,0x13
    1cbe:	46c78793          	addi	x15,x15,1132 # 1346c <no_exception_handler_msg+0x70>
    1cc2:	088a                	c.slli	x17,0x2
    1cc4:	98be                	c.add	x17,x15
    1cc6:	0008a783          	lw	x15,0(x17)
    1cca:	8782                	c.jr	x15
    1ccc:	05000793          	addi	x15,x0,80
    1cd0:	06f88963          	beq	x17,x15,1d42 <handle_syscall+0xd2>
    1cd4:	05d00793          	addi	x15,x0,93
    1cd8:	04f88363          	beq	x17,x15,1d1e <handle_syscall+0xae>
    1cdc:	04f00793          	addi	x15,x0,79
    1ce0:	04f88a63          	beq	x17,x15,1d34 <handle_syscall+0xc4>
      break;
    case SYS_times:
      _times ((struct tms *) a0);
      break;
    default:
      unimplemented_syscall ();
    1ce4:	b511                	c.j	1ae8 <unimplemented_syscall>
  switch (syscall_id) {
    1ce6:	40f00793          	addi	x15,x0,1039
    1cea:	ff17cde3          	blt	x15,x17,1ce4 <handle_syscall+0x74>
    1cee:	3ff00793          	addi	x15,x0,1023
    1cf2:	fb17c3e3          	blt	x15,x17,1c98 <handle_syscall+0x28>
    1cf6:	0ac00793          	addi	x15,x0,172
    1cfa:	04f88763          	beq	x17,x15,1d48 <handle_syscall+0xd8>
    1cfe:	0117c963          	blt	x15,x17,1d10 <handle_syscall+0xa0>
    1d02:	09900793          	addi	x15,x0,153
    1d06:	04f88163          	beq	x17,x15,1d48 <handle_syscall+0xd8>
    1d0a:	0a900793          	addi	x15,x0,169
    1d0e:	b741                	c.j	1c8e <handle_syscall+0x1e>
    1d10:	0d600793          	addi	x15,x0,214
    1d14:	fcf898e3          	bne	x17,x15,1ce4 <handle_syscall+0x74>
  brk = addr;
    1d18:	f4a1a823          	sw	x10,-176(x3) # 143a0 <brk>
  return 0;
    1d1c:	8082                	c.jr	x1
  *(volatile int *)EXIT_REG = exit_status;
    1d1e:	200007b7          	lui	x15,0x20000
    1d22:	c3c8                	c.sw	x10,4(x15)
  asm volatile("wfi");
    1d24:	10500073          	wfi
  while (1) {};
    1d28:	a001                	c.j	1d28 <handle_syscall+0xb8>
      _write (a0, (const void *) a1, a2);
    1d2a:	b5fd                	c.j	1c18 <_write>
  errno = EINVAL;
    1d2c:	4759                	c.li	x14,22
  errno = ENOSYS;
    1d2e:	f6e1ae23          	sw	x14,-132(x3) # 143cc <errno>
  return -1;
    1d32:	8082                	c.jr	x1
  errno = ENOSYS;
    1d34:	05800713          	addi	x14,x0,88
    1d38:	bfdd                	c.j	1d2e <handle_syscall+0xbe>
  errno = EMLINK;
    1d3a:	477d                	c.li	x14,31
    1d3c:	bfcd                	c.j	1d2e <handle_syscall+0xbe>
  errno = ENOENT;
    1d3e:	4709                	c.li	x14,2
    1d40:	b7fd                	c.j	1d2e <handle_syscall+0xbe>
  st->st_mode = S_IFCHR;
    1d42:	6789                	c.lui	x15,0x2
    1d44:	c1dc                	c.sw	x15,4(x11)
  return 0;
    1d46:	8082                	c.jr	x1
      break;
  }
}
    1d48:	8082                	c.jr	x1
	...

00001d4c <_reclaim_reent>:
    1d4c:	f5c1a783          	lw	x15,-164(x3) # 143ac <_impure_ptr>
    1d50:	0aa78e63          	beq	x15,x10,1e0c <_reclaim_reent+0xc0>
    1d54:	04452583          	lw	x11,68(x10)
    1d58:	fe010113          	addi	x2,x2,-32
    1d5c:	00912a23          	sw	x9,20(x2)
    1d60:	00112e23          	sw	x1,28(x2)
    1d64:	00050493          	addi	x9,x10,0
    1d68:	04058c63          	beq	x11,x0,1dc0 <_reclaim_reent+0x74>
    1d6c:	01212823          	sw	x18,16(x2)
    1d70:	01312623          	sw	x19,12(x2)
    1d74:	00812c23          	sw	x8,24(x2)
    1d78:	00000913          	addi	x18,x0,0
    1d7c:	08000993          	addi	x19,x0,128
    1d80:	012587b3          	add	x15,x11,x18
    1d84:	0007a403          	lw	x8,0(x15) # 2000 <__fp_unlock+0x4>
    1d88:	00040e63          	beq	x8,x0,1da4 <_reclaim_reent+0x58>
    1d8c:	00040593          	addi	x11,x8,0
    1d90:	00042403          	lw	x8,0(x8)
    1d94:	00048513          	addi	x10,x9,0
    1d98:	4c4010ef          	jal	x1,325c <_free_r>
    1d9c:	fe0418e3          	bne	x8,x0,1d8c <_reclaim_reent+0x40>
    1da0:	0444a583          	lw	x11,68(x9)
    1da4:	00490913          	addi	x18,x18,4
    1da8:	fd391ce3          	bne	x18,x19,1d80 <_reclaim_reent+0x34>
    1dac:	00048513          	addi	x10,x9,0
    1db0:	4ac010ef          	jal	x1,325c <_free_r>
    1db4:	01812403          	lw	x8,24(x2)
    1db8:	01012903          	lw	x18,16(x2)
    1dbc:	00c12983          	lw	x19,12(x2)
    1dc0:	0384a583          	lw	x11,56(x9)
    1dc4:	00058663          	beq	x11,x0,1dd0 <_reclaim_reent+0x84>
    1dc8:	00048513          	addi	x10,x9,0
    1dcc:	490010ef          	jal	x1,325c <_free_r>
    1dd0:	04c4a583          	lw	x11,76(x9)
    1dd4:	00058663          	beq	x11,x0,1de0 <_reclaim_reent+0x94>
    1dd8:	00048513          	addi	x10,x9,0
    1ddc:	480010ef          	jal	x1,325c <_free_r>
    1de0:	0344a783          	lw	x15,52(x9)
    1de4:	00078c63          	beq	x15,x0,1dfc <_reclaim_reent+0xb0>
    1de8:	01c12083          	lw	x1,28(x2)
    1dec:	00048513          	addi	x10,x9,0
    1df0:	01412483          	lw	x9,20(x2)
    1df4:	02010113          	addi	x2,x2,32
    1df8:	00078067          	jalr	x0,0(x15)
    1dfc:	01c12083          	lw	x1,28(x2)
    1e00:	01412483          	lw	x9,20(x2)
    1e04:	02010113          	addi	x2,x2,32
    1e08:	00008067          	jalr	x0,0(x1)
    1e0c:	00008067          	jalr	x0,0(x1)

00001e10 <_printf_r>:
    1e10:	fc010113          	addi	x2,x2,-64
    1e14:	02c12423          	sw	x12,40(x2)
    1e18:	02d12623          	sw	x13,44(x2)
    1e1c:	02e12823          	sw	x14,48(x2)
    1e20:	02f12a23          	sw	x15,52(x2)
    1e24:	03012c23          	sw	x16,56(x2)
    1e28:	03112e23          	sw	x17,60(x2)
    1e2c:	00058613          	addi	x12,x11,0
    1e30:	00852583          	lw	x11,8(x10)
    1e34:	02810693          	addi	x13,x2,40
    1e38:	00112e23          	sw	x1,28(x2)
    1e3c:	00d12623          	sw	x13,12(x2)
    1e40:	624020ef          	jal	x1,4464 <_vfprintf_r>
    1e44:	01c12083          	lw	x1,28(x2)
    1e48:	04010113          	addi	x2,x2,64
    1e4c:	00008067          	jalr	x0,0(x1)

00001e50 <printf>:
    1e50:	fc010113          	addi	x2,x2,-64
    1e54:	02c12423          	sw	x12,40(x2)
    1e58:	02d12623          	sw	x13,44(x2)
    1e5c:	f5c1a303          	lw	x6,-164(x3) # 143ac <_impure_ptr>
    1e60:	02b12223          	sw	x11,36(x2)
    1e64:	02e12823          	sw	x14,48(x2)
    1e68:	02f12a23          	sw	x15,52(x2)
    1e6c:	03012c23          	sw	x16,56(x2)
    1e70:	03112e23          	sw	x17,60(x2)
    1e74:	00832583          	lw	x11,8(x6)
    1e78:	02410693          	addi	x13,x2,36
    1e7c:	00050613          	addi	x12,x10,0
    1e80:	00030513          	addi	x10,x6,0
    1e84:	00112e23          	sw	x1,28(x2)
    1e88:	00d12623          	sw	x13,12(x2)
    1e8c:	5d8020ef          	jal	x1,4464 <_vfprintf_r>
    1e90:	01c12083          	lw	x1,28(x2)
    1e94:	04010113          	addi	x2,x2,64
    1e98:	00008067          	jalr	x0,0(x1)

00001e9c <_puts_r>:
    1e9c:	fc010113          	addi	x2,x2,-64
    1ea0:	02812c23          	sw	x8,56(x2)
    1ea4:	00050413          	addi	x8,x10,0
    1ea8:	00058513          	addi	x10,x11,0
    1eac:	02912a23          	sw	x9,52(x2)
    1eb0:	02112e23          	sw	x1,60(x2)
    1eb4:	00058493          	addi	x9,x11,0
    1eb8:	6a8010ef          	jal	x1,3560 <strlen>
    1ebc:	00150713          	addi	x14,x10,1
    1ec0:	00011697          	auipc	x13,0x11
    1ec4:	fe068693          	addi	x13,x13,-32 # 12ea0 <__clzsi2+0x138>
    1ec8:	00e12e23          	sw	x14,28(x2)
    1ecc:	03442783          	lw	x15,52(x8)
    1ed0:	02010713          	addi	x14,x2,32
    1ed4:	02d12423          	sw	x13,40(x2)
    1ed8:	00e12a23          	sw	x14,20(x2)
    1edc:	00100693          	addi	x13,x0,1
    1ee0:	00200713          	addi	x14,x0,2
    1ee4:	02912023          	sw	x9,32(x2)
    1ee8:	02a12223          	sw	x10,36(x2)
    1eec:	02d12623          	sw	x13,44(x2)
    1ef0:	00e12c23          	sw	x14,24(x2)
    1ef4:	00842583          	lw	x11,8(x8)
    1ef8:	06078063          	beq	x15,x0,1f58 <_puts_r+0xbc>
    1efc:	00c59783          	lh	x15,12(x11)
    1f00:	01279713          	slli	x14,x15,0x12
    1f04:	02074263          	blt	x14,x0,1f28 <_puts_r+0x8c>
    1f08:	0645a703          	lw	x14,100(x11)
    1f0c:	ffffe6b7          	lui	x13,0xffffe
    1f10:	fff68693          	addi	x13,x13,-1 # ffffdfff <__heap_end+0xffbfdfff>
    1f14:	00002637          	lui	x12,0x2
    1f18:	00c7e7b3          	or	x15,x15,x12
    1f1c:	00d77733          	and	x14,x14,x13
    1f20:	00f59623          	sh	x15,12(x11)
    1f24:	06e5a223          	sw	x14,100(x11)
    1f28:	01410613          	addi	x12,x2,20
    1f2c:	00040513          	addi	x10,x8,0
    1f30:	3ac000ef          	jal	x1,22dc <__sfvwrite_r>
    1f34:	03c12083          	lw	x1,60(x2)
    1f38:	03812403          	lw	x8,56(x2)
    1f3c:	00153513          	sltiu	x10,x10,1
    1f40:	40a00533          	sub	x10,x0,x10
    1f44:	00b57513          	andi	x10,x10,11
    1f48:	03412483          	lw	x9,52(x2)
    1f4c:	fff50513          	addi	x10,x10,-1
    1f50:	04010113          	addi	x2,x2,64
    1f54:	00008067          	jalr	x0,0(x1)
    1f58:	00040513          	addi	x10,x8,0
    1f5c:	00b12623          	sw	x11,12(x2)
    1f60:	320000ef          	jal	x1,2280 <__sinit>
    1f64:	00c12583          	lw	x11,12(x2)
    1f68:	f95ff06f          	jal	x0,1efc <_puts_r+0x60>

00001f6c <puts>:
    1f6c:	00050593          	addi	x11,x10,0
    1f70:	f5c1a503          	lw	x10,-164(x3) # 143ac <_impure_ptr>
    1f74:	f29ff06f          	jal	x0,1e9c <_puts_r>

00001f78 <__fp_lock>:
    1f78:	00000513          	addi	x10,x0,0
    1f7c:	00008067          	jalr	x0,0(x1)

00001f80 <stdio_exit_handler>:
    1f80:	00012617          	auipc	x12,0x12
    1f84:	d1c60613          	addi	x12,x12,-740 # 13c9c <__sglue>
    1f88:	00001597          	auipc	x11,0x1
    1f8c:	86458593          	addi	x11,x11,-1948 # 27ec <_fclose_r>
    1f90:	c6018513          	addi	x10,x3,-928 # 140b0 <_impure_data>
    1f94:	7f80106f          	jal	x0,378c <_fwalk_sglue>

00001f98 <cleanup_stdio>:
    1f98:	00452583          	lw	x11,4(x10)
    1f9c:	ff010113          	addi	x2,x2,-16
    1fa0:	00812423          	sw	x8,8(x2)
    1fa4:	00112623          	sw	x1,12(x2)
    1fa8:	fe418793          	addi	x15,x3,-28 # 14434 <__sf>
    1fac:	00050413          	addi	x8,x10,0
    1fb0:	00f58463          	beq	x11,x15,1fb8 <cleanup_stdio+0x20>
    1fb4:	039000ef          	jal	x1,27ec <_fclose_r>
    1fb8:	00842583          	lw	x11,8(x8)
    1fbc:	04c18793          	addi	x15,x3,76 # 1449c <__global_pointer$+0x4c>
    1fc0:	00f58663          	beq	x11,x15,1fcc <cleanup_stdio+0x34>
    1fc4:	00040513          	addi	x10,x8,0
    1fc8:	025000ef          	jal	x1,27ec <_fclose_r>
    1fcc:	00c42583          	lw	x11,12(x8)
    1fd0:	0b418793          	addi	x15,x3,180 # 14504 <__global_pointer$+0xb4>
    1fd4:	00f58c63          	beq	x11,x15,1fec <cleanup_stdio+0x54>
    1fd8:	00040513          	addi	x10,x8,0
    1fdc:	00812403          	lw	x8,8(x2)
    1fe0:	00c12083          	lw	x1,12(x2)
    1fe4:	01010113          	addi	x2,x2,16
    1fe8:	0050006f          	jal	x0,27ec <_fclose_r>
    1fec:	00c12083          	lw	x1,12(x2)
    1ff0:	00812403          	lw	x8,8(x2)
    1ff4:	01010113          	addi	x2,x2,16
    1ff8:	00008067          	jalr	x0,0(x1)

00001ffc <__fp_unlock>:
    1ffc:	00000513          	addi	x10,x0,0
    2000:	00008067          	jalr	x0,0(x1)

00002004 <global_stdio_init.part.0>:
    2004:	fe010113          	addi	x2,x2,-32
    2008:	00000797          	auipc	x15,0x0
    200c:	f7878793          	addi	x15,x15,-136 # 1f80 <stdio_exit_handler>
    2010:	00112e23          	sw	x1,28(x2)
    2014:	00812c23          	sw	x8,24(x2)
    2018:	00912a23          	sw	x9,20(x2)
    201c:	fe418413          	addi	x8,x3,-28 # 14434 <__sf>
    2020:	01212823          	sw	x18,16(x2)
    2024:	01312623          	sw	x19,12(x2)
    2028:	01412423          	sw	x20,8(x2)
    202c:	f8f1a023          	sw	x15,-128(x3) # 143d0 <__stdio_exit_handler>
    2030:	00800613          	addi	x12,x0,8
    2034:	00400793          	addi	x15,x0,4
    2038:	00000593          	addi	x11,x0,0
    203c:	04018513          	addi	x10,x3,64 # 14490 <__global_pointer$+0x40>
    2040:	00f42623          	sw	x15,12(x8)
    2044:	00042023          	sw	x0,0(x8)
    2048:	00042223          	sw	x0,4(x8)
    204c:	00042423          	sw	x0,8(x8)
    2050:	06042223          	sw	x0,100(x8)
    2054:	00042823          	sw	x0,16(x8)
    2058:	00042a23          	sw	x0,20(x8)
    205c:	00042c23          	sw	x0,24(x8)
    2060:	650010ef          	jal	x1,36b0 <memset>
    2064:	000107b7          	lui	x15,0x10
    2068:	00002a17          	auipc	x20,0x2
    206c:	290a0a13          	addi	x20,x20,656 # 42f8 <__sread>
    2070:	00002997          	auipc	x19,0x2
    2074:	2ec98993          	addi	x19,x19,748 # 435c <__swrite>
    2078:	00002917          	auipc	x18,0x2
    207c:	36c90913          	addi	x18,x18,876 # 43e4 <__sseek>
    2080:	00002497          	auipc	x9,0x2
    2084:	3dc48493          	addi	x9,x9,988 # 445c <__sclose>
    2088:	00978793          	addi	x15,x15,9 # 10009 <__multf3+0x16d>
    208c:	00800613          	addi	x12,x0,8
    2090:	00000593          	addi	x11,x0,0
    2094:	0a818513          	addi	x10,x3,168 # 144f8 <__global_pointer$+0xa8>
    2098:	03442023          	sw	x20,32(x8)
    209c:	03342223          	sw	x19,36(x8)
    20a0:	03242423          	sw	x18,40(x8)
    20a4:	02942623          	sw	x9,44(x8)
    20a8:	06f42a23          	sw	x15,116(x8)
    20ac:	00842e23          	sw	x8,28(x8)
    20b0:	06042423          	sw	x0,104(x8)
    20b4:	06042623          	sw	x0,108(x8)
    20b8:	06042823          	sw	x0,112(x8)
    20bc:	0c042623          	sw	x0,204(x8)
    20c0:	06042c23          	sw	x0,120(x8)
    20c4:	06042e23          	sw	x0,124(x8)
    20c8:	08042023          	sw	x0,128(x8)
    20cc:	5e4010ef          	jal	x1,36b0 <memset>
    20d0:	000207b7          	lui	x15,0x20
    20d4:	01278793          	addi	x15,x15,18 # 20012 <__heap_start+0xb8e2>
    20d8:	04c18713          	addi	x14,x3,76 # 1449c <__global_pointer$+0x4c>
    20dc:	00800613          	addi	x12,x0,8
    20e0:	00000593          	addi	x11,x0,0
    20e4:	11018513          	addi	x10,x3,272 # 14560 <__global_pointer$+0x110>
    20e8:	09442423          	sw	x20,136(x8)
    20ec:	09342623          	sw	x19,140(x8)
    20f0:	09242823          	sw	x18,144(x8)
    20f4:	08942a23          	sw	x9,148(x8)
    20f8:	0cf42e23          	sw	x15,220(x8)
    20fc:	08e42223          	sw	x14,132(x8)
    2100:	0c042823          	sw	x0,208(x8)
    2104:	0c042a23          	sw	x0,212(x8)
    2108:	0c042c23          	sw	x0,216(x8)
    210c:	12042a23          	sw	x0,308(x8)
    2110:	0e042023          	sw	x0,224(x8)
    2114:	0e042223          	sw	x0,228(x8)
    2118:	0e042423          	sw	x0,232(x8)
    211c:	594010ef          	jal	x1,36b0 <memset>
    2120:	0b418793          	addi	x15,x3,180 # 14504 <__global_pointer$+0xb4>
    2124:	0f442823          	sw	x20,240(x8)
    2128:	0f342a23          	sw	x19,244(x8)
    212c:	0f242c23          	sw	x18,248(x8)
    2130:	0e942e23          	sw	x9,252(x8)
    2134:	01c12083          	lw	x1,28(x2)
    2138:	0ef42623          	sw	x15,236(x8)
    213c:	01812403          	lw	x8,24(x2)
    2140:	01412483          	lw	x9,20(x2)
    2144:	01012903          	lw	x18,16(x2)
    2148:	00c12983          	lw	x19,12(x2)
    214c:	00812a03          	lw	x20,8(x2)
    2150:	02010113          	addi	x2,x2,32
    2154:	00008067          	jalr	x0,0(x1)

00002158 <__sfp>:
    2158:	fe010113          	addi	x2,x2,-32
    215c:	01312623          	sw	x19,12(x2)
    2160:	00112e23          	sw	x1,28(x2)
    2164:	00812c23          	sw	x8,24(x2)
    2168:	00912a23          	sw	x9,20(x2)
    216c:	01212823          	sw	x18,16(x2)
    2170:	f801a783          	lw	x15,-128(x3) # 143d0 <__stdio_exit_handler>
    2174:	00050993          	addi	x19,x10,0
    2178:	0e078863          	beq	x15,x0,2268 <__sfp+0x110>
    217c:	00012917          	auipc	x18,0x12
    2180:	b2090913          	addi	x18,x18,-1248 # 13c9c <__sglue>
    2184:	fff00493          	addi	x9,x0,-1
    2188:	00492783          	lw	x15,4(x18)
    218c:	00892403          	lw	x8,8(x18)
    2190:	fff78793          	addi	x15,x15,-1
    2194:	0007d863          	bge	x15,x0,21a4 <__sfp+0x4c>
    2198:	0800006f          	jal	x0,2218 <__sfp+0xc0>
    219c:	06840413          	addi	x8,x8,104
    21a0:	06978c63          	beq	x15,x9,2218 <__sfp+0xc0>
    21a4:	00c41703          	lh	x14,12(x8)
    21a8:	fff78793          	addi	x15,x15,-1
    21ac:	fe0718e3          	bne	x14,x0,219c <__sfp+0x44>
    21b0:	ffff07b7          	lui	x15,0xffff0
    21b4:	00178793          	addi	x15,x15,1 # ffff0001 <__heap_end+0xffbf0001>
    21b8:	00f42623          	sw	x15,12(x8)
    21bc:	06042223          	sw	x0,100(x8)
    21c0:	00042023          	sw	x0,0(x8)
    21c4:	00042423          	sw	x0,8(x8)
    21c8:	00042223          	sw	x0,4(x8)
    21cc:	00042823          	sw	x0,16(x8)
    21d0:	00042a23          	sw	x0,20(x8)
    21d4:	00042c23          	sw	x0,24(x8)
    21d8:	00800613          	addi	x12,x0,8
    21dc:	00000593          	addi	x11,x0,0
    21e0:	05c40513          	addi	x10,x8,92
    21e4:	4cc010ef          	jal	x1,36b0 <memset>
    21e8:	02042823          	sw	x0,48(x8)
    21ec:	02042a23          	sw	x0,52(x8)
    21f0:	04042223          	sw	x0,68(x8)
    21f4:	04042423          	sw	x0,72(x8)
    21f8:	01c12083          	lw	x1,28(x2)
    21fc:	00040513          	addi	x10,x8,0
    2200:	01812403          	lw	x8,24(x2)
    2204:	01412483          	lw	x9,20(x2)
    2208:	01012903          	lw	x18,16(x2)
    220c:	00c12983          	lw	x19,12(x2)
    2210:	02010113          	addi	x2,x2,32
    2214:	00008067          	jalr	x0,0(x1)
    2218:	00092403          	lw	x8,0(x18)
    221c:	00040663          	beq	x8,x0,2228 <__sfp+0xd0>
    2220:	00040913          	addi	x18,x8,0
    2224:	f65ff06f          	jal	x0,2188 <__sfp+0x30>
    2228:	1ac00593          	addi	x11,x0,428
    222c:	00098513          	addi	x10,x19,0
    2230:	6d0000ef          	jal	x1,2900 <_malloc_r>
    2234:	00050413          	addi	x8,x10,0
    2238:	02050c63          	beq	x10,x0,2270 <__sfp+0x118>
    223c:	00c50513          	addi	x10,x10,12
    2240:	00400793          	addi	x15,x0,4
    2244:	00042023          	sw	x0,0(x8)
    2248:	00f42223          	sw	x15,4(x8)
    224c:	00a42423          	sw	x10,8(x8)
    2250:	1a000613          	addi	x12,x0,416
    2254:	00000593          	addi	x11,x0,0
    2258:	458010ef          	jal	x1,36b0 <memset>
    225c:	00892023          	sw	x8,0(x18)
    2260:	00040913          	addi	x18,x8,0
    2264:	f25ff06f          	jal	x0,2188 <__sfp+0x30>
    2268:	d9dff0ef          	jal	x1,2004 <global_stdio_init.part.0>
    226c:	f11ff06f          	jal	x0,217c <__sfp+0x24>
    2270:	00092023          	sw	x0,0(x18)
    2274:	00c00793          	addi	x15,x0,12
    2278:	00f9a023          	sw	x15,0(x19)
    227c:	f7dff06f          	jal	x0,21f8 <__sfp+0xa0>

00002280 <__sinit>:
    2280:	03452783          	lw	x15,52(x10)
    2284:	00078463          	beq	x15,x0,228c <__sinit+0xc>
    2288:	00008067          	jalr	x0,0(x1)
    228c:	00000797          	auipc	x15,0x0
    2290:	d0c78793          	addi	x15,x15,-756 # 1f98 <cleanup_stdio>
    2294:	02f52a23          	sw	x15,52(x10)
    2298:	f801a783          	lw	x15,-128(x3) # 143d0 <__stdio_exit_handler>
    229c:	fe0796e3          	bne	x15,x0,2288 <__sinit+0x8>
    22a0:	d65ff06f          	jal	x0,2004 <global_stdio_init.part.0>

000022a4 <__sfp_lock_acquire>:
    22a4:	00008067          	jalr	x0,0(x1)

000022a8 <__sfp_lock_release>:
    22a8:	00008067          	jalr	x0,0(x1)

000022ac <__fp_lock_all>:
    22ac:	00012617          	auipc	x12,0x12
    22b0:	9f060613          	addi	x12,x12,-1552 # 13c9c <__sglue>
    22b4:	00000597          	auipc	x11,0x0
    22b8:	cc458593          	addi	x11,x11,-828 # 1f78 <__fp_lock>
    22bc:	00000513          	addi	x10,x0,0
    22c0:	4cc0106f          	jal	x0,378c <_fwalk_sglue>

000022c4 <__fp_unlock_all>:
    22c4:	00012617          	auipc	x12,0x12
    22c8:	9d860613          	addi	x12,x12,-1576 # 13c9c <__sglue>
    22cc:	00000597          	auipc	x11,0x0
    22d0:	d3058593          	addi	x11,x11,-720 # 1ffc <__fp_unlock>
    22d4:	00000513          	addi	x10,x0,0
    22d8:	4b40106f          	jal	x0,378c <_fwalk_sglue>

000022dc <__sfvwrite_r>:
    22dc:	00862783          	lw	x15,8(x12)
    22e0:	2c078463          	beq	x15,x0,25a8 <__sfvwrite_r+0x2cc>
    22e4:	00c59683          	lh	x13,12(x11)
    22e8:	fd010113          	addi	x2,x2,-48
    22ec:	02812423          	sw	x8,40(x2)
    22f0:	01412c23          	sw	x20,24(x2)
    22f4:	01612823          	sw	x22,16(x2)
    22f8:	02112623          	sw	x1,44(x2)
    22fc:	0086f793          	andi	x15,x13,8
    2300:	00060b13          	addi	x22,x12,0
    2304:	00050a13          	addi	x20,x10,0
    2308:	00058413          	addi	x8,x11,0
    230c:	08078e63          	beq	x15,x0,23a8 <__sfvwrite_r+0xcc>
    2310:	0105a783          	lw	x15,16(x11)
    2314:	08078a63          	beq	x15,x0,23a8 <__sfvwrite_r+0xcc>
    2318:	02912223          	sw	x9,36(x2)
    231c:	03212023          	sw	x18,32(x2)
    2320:	01312e23          	sw	x19,28(x2)
    2324:	01512a23          	sw	x21,20(x2)
    2328:	0026f793          	andi	x15,x13,2
    232c:	000b2483          	lw	x9,0(x22)
    2330:	0a078463          	beq	x15,x0,23d8 <__sfvwrite_r+0xfc>
    2334:	02442783          	lw	x15,36(x8)
    2338:	01c42583          	lw	x11,28(x8)
    233c:	80000ab7          	lui	x21,0x80000
    2340:	00000993          	addi	x19,x0,0
    2344:	00000913          	addi	x18,x0,0
    2348:	c00a8a93          	addi	x21,x21,-1024 # 7ffffc00 <__heap_end+0x7fbffc00>
    234c:	00098613          	addi	x12,x19,0
    2350:	000a0513          	addi	x10,x20,0
    2354:	04090263          	beq	x18,x0,2398 <__sfvwrite_r+0xbc>
    2358:	00090693          	addi	x13,x18,0
    235c:	012af463          	bgeu	x21,x18,2364 <__sfvwrite_r+0x88>
    2360:	000a8693          	addi	x13,x21,0
    2364:	000780e7          	jalr	x1,0(x15)
    2368:	46a05063          	bge	x0,x10,27c8 <__sfvwrite_r+0x4ec>
    236c:	008b2783          	lw	x15,8(x22)
    2370:	00a989b3          	add	x19,x19,x10
    2374:	40a90933          	sub	x18,x18,x10
    2378:	40a787b3          	sub	x15,x15,x10
    237c:	00fb2423          	sw	x15,8(x22)
    2380:	1a078663          	beq	x15,x0,252c <__sfvwrite_r+0x250>
    2384:	02442783          	lw	x15,36(x8)
    2388:	01c42583          	lw	x11,28(x8)
    238c:	00098613          	addi	x12,x19,0
    2390:	000a0513          	addi	x10,x20,0
    2394:	fc0912e3          	bne	x18,x0,2358 <__sfvwrite_r+0x7c>
    2398:	0004a983          	lw	x19,0(x9)
    239c:	0044a903          	lw	x18,4(x9)
    23a0:	00848493          	addi	x9,x9,8
    23a4:	fa9ff06f          	jal	x0,234c <__sfvwrite_r+0x70>
    23a8:	00040593          	addi	x11,x8,0
    23ac:	000a0513          	addi	x10,x20,0
    23b0:	609010ef          	jal	x1,41b8 <__swsetup_r>
    23b4:	1c051c63          	bne	x10,x0,258c <__sfvwrite_r+0x2b0>
    23b8:	00c41683          	lh	x13,12(x8)
    23bc:	02912223          	sw	x9,36(x2)
    23c0:	03212023          	sw	x18,32(x2)
    23c4:	01312e23          	sw	x19,28(x2)
    23c8:	01512a23          	sw	x21,20(x2)
    23cc:	0026f793          	andi	x15,x13,2
    23d0:	000b2483          	lw	x9,0(x22)
    23d4:	f60790e3          	bne	x15,x0,2334 <__sfvwrite_r+0x58>
    23d8:	01712623          	sw	x23,12(x2)
    23dc:	01812423          	sw	x24,8(x2)
    23e0:	0016f793          	andi	x15,x13,1
    23e4:	1c079663          	bne	x15,x0,25b0 <__sfvwrite_r+0x2d4>
    23e8:	00042783          	lw	x15,0(x8)
    23ec:	00842703          	lw	x14,8(x8)
    23f0:	80000ab7          	lui	x21,0x80000
    23f4:	01912223          	sw	x25,4(x2)
    23f8:	00000b93          	addi	x23,x0,0
    23fc:	00000993          	addi	x19,x0,0
    2400:	fffa8a93          	addi	x21,x21,-1 # 7fffffff <__heap_end+0x7fbfffff>
    2404:	00078513          	addi	x10,x15,0
    2408:	00070c13          	addi	x24,x14,0
    240c:	10098263          	beq	x19,x0,2510 <__sfvwrite_r+0x234>
    2410:	2006f613          	andi	x12,x13,512
    2414:	28060863          	beq	x12,x0,26a4 <__sfvwrite_r+0x3c8>
    2418:	00070c93          	addi	x25,x14,0
    241c:	32e9e663          	bltu	x19,x14,2748 <__sfvwrite_r+0x46c>
    2420:	4806f713          	andi	x14,x13,1152
    2424:	08070a63          	beq	x14,x0,24b8 <__sfvwrite_r+0x1dc>
    2428:	01442603          	lw	x12,20(x8)
    242c:	01042583          	lw	x11,16(x8)
    2430:	00161713          	slli	x14,x12,0x1
    2434:	00c70733          	add	x14,x14,x12
    2438:	40b78933          	sub	x18,x15,x11
    243c:	01f75c13          	srli	x24,x14,0x1f
    2440:	00ec0c33          	add	x24,x24,x14
    2444:	00190793          	addi	x15,x18,1
    2448:	401c5c13          	srai	x24,x24,0x1
    244c:	013787b3          	add	x15,x15,x19
    2450:	000c0613          	addi	x12,x24,0
    2454:	00fc7663          	bgeu	x24,x15,2460 <__sfvwrite_r+0x184>
    2458:	00078c13          	addi	x24,x15,0
    245c:	00078613          	addi	x12,x15,0
    2460:	4006f693          	andi	x13,x13,1024
    2464:	30068e63          	beq	x13,x0,2780 <__sfvwrite_r+0x4a4>
    2468:	00060593          	addi	x11,x12,0
    246c:	000a0513          	addi	x10,x20,0
    2470:	490000ef          	jal	x1,2900 <_malloc_r>
    2474:	00050c93          	addi	x25,x10,0
    2478:	34050c63          	beq	x10,x0,27d0 <__sfvwrite_r+0x4f4>
    247c:	01042583          	lw	x11,16(x8)
    2480:	00090613          	addi	x12,x18,0
    2484:	779040ef          	jal	x1,73fc <memcpy>
    2488:	00c45783          	lhu	x15,12(x8)
    248c:	b7f7f793          	andi	x15,x15,-1153
    2490:	0807e793          	ori	x15,x15,128
    2494:	00f41623          	sh	x15,12(x8)
    2498:	012c8533          	add	x10,x25,x18
    249c:	412c07b3          	sub	x15,x24,x18
    24a0:	01942823          	sw	x25,16(x8)
    24a4:	01842a23          	sw	x24,20(x8)
    24a8:	00a42023          	sw	x10,0(x8)
    24ac:	00098c13          	addi	x24,x19,0
    24b0:	00f42423          	sw	x15,8(x8)
    24b4:	00098c93          	addi	x25,x19,0
    24b8:	000c8613          	addi	x12,x25,0
    24bc:	000b8593          	addi	x11,x23,0
    24c0:	0e0050ef          	jal	x1,75a0 <memmove>
    24c4:	00842703          	lw	x14,8(x8)
    24c8:	00042783          	lw	x15,0(x8)
    24cc:	00098913          	addi	x18,x19,0
    24d0:	41870733          	sub	x14,x14,x24
    24d4:	019787b3          	add	x15,x15,x25
    24d8:	00e42423          	sw	x14,8(x8)
    24dc:	00f42023          	sw	x15,0(x8)
    24e0:	00000993          	addi	x19,x0,0
    24e4:	008b2783          	lw	x15,8(x22)
    24e8:	012b8bb3          	add	x23,x23,x18
    24ec:	412787b3          	sub	x15,x15,x18
    24f0:	00fb2423          	sw	x15,8(x22)
    24f4:	02078663          	beq	x15,x0,2520 <__sfvwrite_r+0x244>
    24f8:	00042783          	lw	x15,0(x8)
    24fc:	00842703          	lw	x14,8(x8)
    2500:	00c41683          	lh	x13,12(x8)
    2504:	00078513          	addi	x10,x15,0
    2508:	00070c13          	addi	x24,x14,0
    250c:	f00992e3          	bne	x19,x0,2410 <__sfvwrite_r+0x134>
    2510:	0004ab83          	lw	x23,0(x9)
    2514:	0044a983          	lw	x19,4(x9)
    2518:	00848493          	addi	x9,x9,8
    251c:	ee9ff06f          	jal	x0,2404 <__sfvwrite_r+0x128>
    2520:	00c12b83          	lw	x23,12(x2)
    2524:	00812c03          	lw	x24,8(x2)
    2528:	00412c83          	lw	x25,4(x2)
    252c:	02c12083          	lw	x1,44(x2)
    2530:	02812403          	lw	x8,40(x2)
    2534:	02412483          	lw	x9,36(x2)
    2538:	02012903          	lw	x18,32(x2)
    253c:	01c12983          	lw	x19,28(x2)
    2540:	01412a83          	lw	x21,20(x2)
    2544:	01812a03          	lw	x20,24(x2)
    2548:	01012b03          	lw	x22,16(x2)
    254c:	00000513          	addi	x10,x0,0
    2550:	03010113          	addi	x2,x2,48
    2554:	00008067          	jalr	x0,0(x1)
    2558:	00040593          	addi	x11,x8,0
    255c:	000a0513          	addi	x10,x20,0
    2560:	29d010ef          	jal	x1,3ffc <_fflush_r>
    2564:	0a050e63          	beq	x10,x0,2620 <__sfvwrite_r+0x344>
    2568:	00c41783          	lh	x15,12(x8)
    256c:	00c12b83          	lw	x23,12(x2)
    2570:	00812c03          	lw	x24,8(x2)
    2574:	02412483          	lw	x9,36(x2)
    2578:	02012903          	lw	x18,32(x2)
    257c:	01c12983          	lw	x19,28(x2)
    2580:	01412a83          	lw	x21,20(x2)
    2584:	0407e793          	ori	x15,x15,64
    2588:	00f41623          	sh	x15,12(x8)
    258c:	02c12083          	lw	x1,44(x2)
    2590:	02812403          	lw	x8,40(x2)
    2594:	01812a03          	lw	x20,24(x2)
    2598:	01012b03          	lw	x22,16(x2)
    259c:	fff00513          	addi	x10,x0,-1
    25a0:	03010113          	addi	x2,x2,48
    25a4:	00008067          	jalr	x0,0(x1)
    25a8:	00000513          	addi	x10,x0,0
    25ac:	00008067          	jalr	x0,0(x1)
    25b0:	00000a93          	addi	x21,x0,0
    25b4:	00000513          	addi	x10,x0,0
    25b8:	00000c13          	addi	x24,x0,0
    25bc:	00000993          	addi	x19,x0,0
    25c0:	08098263          	beq	x19,x0,2644 <__sfvwrite_r+0x368>
    25c4:	08050a63          	beq	x10,x0,2658 <__sfvwrite_r+0x37c>
    25c8:	000a8793          	addi	x15,x21,0
    25cc:	00098b93          	addi	x23,x19,0
    25d0:	0137f463          	bgeu	x15,x19,25d8 <__sfvwrite_r+0x2fc>
    25d4:	00078b93          	addi	x23,x15,0
    25d8:	00042503          	lw	x10,0(x8)
    25dc:	01042783          	lw	x15,16(x8)
    25e0:	00842903          	lw	x18,8(x8)
    25e4:	01442683          	lw	x13,20(x8)
    25e8:	00a7f663          	bgeu	x15,x10,25f4 <__sfvwrite_r+0x318>
    25ec:	00d90933          	add	x18,x18,x13
    25f0:	09794463          	blt	x18,x23,2678 <__sfvwrite_r+0x39c>
    25f4:	16dbc063          	blt	x23,x13,2754 <__sfvwrite_r+0x478>
    25f8:	02442783          	lw	x15,36(x8)
    25fc:	01c42583          	lw	x11,28(x8)
    2600:	000c0613          	addi	x12,x24,0
    2604:	000a0513          	addi	x10,x20,0
    2608:	000780e7          	jalr	x1,0(x15)
    260c:	00050913          	addi	x18,x10,0
    2610:	f4a05ce3          	bge	x0,x10,2568 <__sfvwrite_r+0x28c>
    2614:	412a8ab3          	sub	x21,x21,x18
    2618:	00100513          	addi	x10,x0,1
    261c:	f20a8ee3          	beq	x21,x0,2558 <__sfvwrite_r+0x27c>
    2620:	008b2783          	lw	x15,8(x22)
    2624:	012c0c33          	add	x24,x24,x18
    2628:	412989b3          	sub	x19,x19,x18
    262c:	412787b3          	sub	x15,x15,x18
    2630:	00fb2423          	sw	x15,8(x22)
    2634:	f80796e3          	bne	x15,x0,25c0 <__sfvwrite_r+0x2e4>
    2638:	00c12b83          	lw	x23,12(x2)
    263c:	00812c03          	lw	x24,8(x2)
    2640:	eedff06f          	jal	x0,252c <__sfvwrite_r+0x250>
    2644:	0044a983          	lw	x19,4(x9)
    2648:	00048793          	addi	x15,x9,0
    264c:	00848493          	addi	x9,x9,8
    2650:	fe098ae3          	beq	x19,x0,2644 <__sfvwrite_r+0x368>
    2654:	0007ac03          	lw	x24,0(x15)
    2658:	00098613          	addi	x12,x19,0
    265c:	00a00593          	addi	x11,x0,10
    2660:	000c0513          	addi	x10,x24,0
    2664:	789000ef          	jal	x1,35ec <memchr>
    2668:	14050a63          	beq	x10,x0,27bc <__sfvwrite_r+0x4e0>
    266c:	00150513          	addi	x10,x10,1
    2670:	41850ab3          	sub	x21,x10,x24
    2674:	f55ff06f          	jal	x0,25c8 <__sfvwrite_r+0x2ec>
    2678:	000c0593          	addi	x11,x24,0
    267c:	00090613          	addi	x12,x18,0
    2680:	721040ef          	jal	x1,75a0 <memmove>
    2684:	00042783          	lw	x15,0(x8)
    2688:	00040593          	addi	x11,x8,0
    268c:	000a0513          	addi	x10,x20,0
    2690:	012787b3          	add	x15,x15,x18
    2694:	00f42023          	sw	x15,0(x8)
    2698:	165010ef          	jal	x1,3ffc <_fflush_r>
    269c:	f6050ce3          	beq	x10,x0,2614 <__sfvwrite_r+0x338>
    26a0:	ec9ff06f          	jal	x0,2568 <__sfvwrite_r+0x28c>
    26a4:	01042683          	lw	x13,16(x8)
    26a8:	04f6e263          	bltu	x13,x15,26ec <__sfvwrite_r+0x410>
    26ac:	01442603          	lw	x12,20(x8)
    26b0:	02c9ee63          	bltu	x19,x12,26ec <__sfvwrite_r+0x410>
    26b4:	00098793          	addi	x15,x19,0
    26b8:	013af463          	bgeu	x21,x19,26c0 <__sfvwrite_r+0x3e4>
    26bc:	000a8793          	addi	x15,x21,0
    26c0:	02c7e6b3          	rem	x13,x15,x12
    26c4:	02442703          	lw	x14,36(x8)
    26c8:	01c42583          	lw	x11,28(x8)
    26cc:	000b8613          	addi	x12,x23,0
    26d0:	000a0513          	addi	x10,x20,0
    26d4:	40d786b3          	sub	x13,x15,x13
    26d8:	000700e7          	jalr	x1,0(x14)
    26dc:	00050913          	addi	x18,x10,0
    26e0:	04a05a63          	bge	x0,x10,2734 <__sfvwrite_r+0x458>
    26e4:	412989b3          	sub	x19,x19,x18
    26e8:	dfdff06f          	jal	x0,24e4 <__sfvwrite_r+0x208>
    26ec:	00070913          	addi	x18,x14,0
    26f0:	00e9f463          	bgeu	x19,x14,26f8 <__sfvwrite_r+0x41c>
    26f4:	00098913          	addi	x18,x19,0
    26f8:	00078513          	addi	x10,x15,0
    26fc:	00090613          	addi	x12,x18,0
    2700:	000b8593          	addi	x11,x23,0
    2704:	69d040ef          	jal	x1,75a0 <memmove>
    2708:	00842703          	lw	x14,8(x8)
    270c:	00042783          	lw	x15,0(x8)
    2710:	41270733          	sub	x14,x14,x18
    2714:	012787b3          	add	x15,x15,x18
    2718:	00e42423          	sw	x14,8(x8)
    271c:	00f42023          	sw	x15,0(x8)
    2720:	fc0712e3          	bne	x14,x0,26e4 <__sfvwrite_r+0x408>
    2724:	00040593          	addi	x11,x8,0
    2728:	000a0513          	addi	x10,x20,0
    272c:	0d1010ef          	jal	x1,3ffc <_fflush_r>
    2730:	fa050ae3          	beq	x10,x0,26e4 <__sfvwrite_r+0x408>
    2734:	00c41783          	lh	x15,12(x8)
    2738:	00c12b83          	lw	x23,12(x2)
    273c:	00812c03          	lw	x24,8(x2)
    2740:	00412c83          	lw	x25,4(x2)
    2744:	e31ff06f          	jal	x0,2574 <__sfvwrite_r+0x298>
    2748:	00098c13          	addi	x24,x19,0
    274c:	00098c93          	addi	x25,x19,0
    2750:	d69ff06f          	jal	x0,24b8 <__sfvwrite_r+0x1dc>
    2754:	000b8613          	addi	x12,x23,0
    2758:	000c0593          	addi	x11,x24,0
    275c:	645040ef          	jal	x1,75a0 <memmove>
    2760:	00842703          	lw	x14,8(x8)
    2764:	00042783          	lw	x15,0(x8)
    2768:	000b8913          	addi	x18,x23,0
    276c:	41770733          	sub	x14,x14,x23
    2770:	017787b3          	add	x15,x15,x23
    2774:	00e42423          	sw	x14,8(x8)
    2778:	00f42023          	sw	x15,0(x8)
    277c:	e99ff06f          	jal	x0,2614 <__sfvwrite_r+0x338>
    2780:	000a0513          	addi	x10,x20,0
    2784:	0bc010ef          	jal	x1,3840 <_realloc_r>
    2788:	00050c93          	addi	x25,x10,0
    278c:	d00516e3          	bne	x10,x0,2498 <__sfvwrite_r+0x1bc>
    2790:	01042583          	lw	x11,16(x8)
    2794:	000a0513          	addi	x10,x20,0
    2798:	2c5000ef          	jal	x1,325c <_free_r>
    279c:	00c41783          	lh	x15,12(x8)
    27a0:	00c00713          	addi	x14,x0,12
    27a4:	00c12b83          	lw	x23,12(x2)
    27a8:	00812c03          	lw	x24,8(x2)
    27ac:	00412c83          	lw	x25,4(x2)
    27b0:	00ea2023          	sw	x14,0(x20)
    27b4:	f7f7f793          	andi	x15,x15,-129
    27b8:	dbdff06f          	jal	x0,2574 <__sfvwrite_r+0x298>
    27bc:	00198793          	addi	x15,x19,1
    27c0:	00078a93          	addi	x21,x15,0
    27c4:	e09ff06f          	jal	x0,25cc <__sfvwrite_r+0x2f0>
    27c8:	00c41783          	lh	x15,12(x8)
    27cc:	da9ff06f          	jal	x0,2574 <__sfvwrite_r+0x298>
    27d0:	00c00713          	addi	x14,x0,12
    27d4:	00c41783          	lh	x15,12(x8)
    27d8:	00c12b83          	lw	x23,12(x2)
    27dc:	00812c03          	lw	x24,8(x2)
    27e0:	00412c83          	lw	x25,4(x2)
    27e4:	00ea2023          	sw	x14,0(x20)
    27e8:	d8dff06f          	jal	x0,2574 <__sfvwrite_r+0x298>

000027ec <_fclose_r>:
    27ec:	ff010113          	addi	x2,x2,-16
    27f0:	00112623          	sw	x1,12(x2)
    27f4:	01212023          	sw	x18,0(x2)
    27f8:	02058863          	beq	x11,x0,2828 <_fclose_r+0x3c>
    27fc:	00812423          	sw	x8,8(x2)
    2800:	00912223          	sw	x9,4(x2)
    2804:	00058413          	addi	x8,x11,0
    2808:	00050493          	addi	x9,x10,0
    280c:	00050663          	beq	x10,x0,2818 <_fclose_r+0x2c>
    2810:	03452783          	lw	x15,52(x10)
    2814:	0c078c63          	beq	x15,x0,28ec <_fclose_r+0x100>
    2818:	00c41783          	lh	x15,12(x8)
    281c:	02079263          	bne	x15,x0,2840 <_fclose_r+0x54>
    2820:	00812403          	lw	x8,8(x2)
    2824:	00412483          	lw	x9,4(x2)
    2828:	00c12083          	lw	x1,12(x2)
    282c:	00000913          	addi	x18,x0,0
    2830:	00090513          	addi	x10,x18,0
    2834:	00012903          	lw	x18,0(x2)
    2838:	01010113          	addi	x2,x2,16
    283c:	00008067          	jalr	x0,0(x1)
    2840:	00040593          	addi	x11,x8,0
    2844:	00048513          	addi	x10,x9,0
    2848:	568010ef          	jal	x1,3db0 <__sflush_r>
    284c:	02c42783          	lw	x15,44(x8)
    2850:	00050913          	addi	x18,x10,0
    2854:	00078a63          	beq	x15,x0,2868 <_fclose_r+0x7c>
    2858:	01c42583          	lw	x11,28(x8)
    285c:	00048513          	addi	x10,x9,0
    2860:	000780e7          	jalr	x1,0(x15)
    2864:	06054463          	blt	x10,x0,28cc <_fclose_r+0xe0>
    2868:	00c45783          	lhu	x15,12(x8)
    286c:	0807f793          	andi	x15,x15,128
    2870:	06079663          	bne	x15,x0,28dc <_fclose_r+0xf0>
    2874:	03042583          	lw	x11,48(x8)
    2878:	00058c63          	beq	x11,x0,2890 <_fclose_r+0xa4>
    287c:	04040793          	addi	x15,x8,64
    2880:	00f58663          	beq	x11,x15,288c <_fclose_r+0xa0>
    2884:	00048513          	addi	x10,x9,0
    2888:	1d5000ef          	jal	x1,325c <_free_r>
    288c:	02042823          	sw	x0,48(x8)
    2890:	04442583          	lw	x11,68(x8)
    2894:	00058863          	beq	x11,x0,28a4 <_fclose_r+0xb8>
    2898:	00048513          	addi	x10,x9,0
    289c:	1c1000ef          	jal	x1,325c <_free_r>
    28a0:	04042223          	sw	x0,68(x8)
    28a4:	a01ff0ef          	jal	x1,22a4 <__sfp_lock_acquire>
    28a8:	00041623          	sh	x0,12(x8)
    28ac:	9fdff0ef          	jal	x1,22a8 <__sfp_lock_release>
    28b0:	00c12083          	lw	x1,12(x2)
    28b4:	00812403          	lw	x8,8(x2)
    28b8:	00412483          	lw	x9,4(x2)
    28bc:	00090513          	addi	x10,x18,0
    28c0:	00012903          	lw	x18,0(x2)
    28c4:	01010113          	addi	x2,x2,16
    28c8:	00008067          	jalr	x0,0(x1)
    28cc:	00c45783          	lhu	x15,12(x8)
    28d0:	fff00913          	addi	x18,x0,-1
    28d4:	0807f793          	andi	x15,x15,128
    28d8:	f8078ee3          	beq	x15,x0,2874 <_fclose_r+0x88>
    28dc:	01042583          	lw	x11,16(x8)
    28e0:	00048513          	addi	x10,x9,0
    28e4:	179000ef          	jal	x1,325c <_free_r>
    28e8:	f8dff06f          	jal	x0,2874 <_fclose_r+0x88>
    28ec:	995ff0ef          	jal	x1,2280 <__sinit>
    28f0:	f29ff06f          	jal	x0,2818 <_fclose_r+0x2c>

000028f4 <fclose>:
    28f4:	00050593          	addi	x11,x10,0
    28f8:	f5c1a503          	lw	x10,-164(x3) # 143ac <_impure_ptr>
    28fc:	ef1ff06f          	jal	x0,27ec <_fclose_r>

00002900 <_malloc_r>:
    2900:	fd010113          	addi	x2,x2,-48
    2904:	03212023          	sw	x18,32(x2)
    2908:	02112623          	sw	x1,44(x2)
    290c:	02812423          	sw	x8,40(x2)
    2910:	02912223          	sw	x9,36(x2)
    2914:	01312e23          	sw	x19,28(x2)
    2918:	00b58793          	addi	x15,x11,11
    291c:	01600713          	addi	x14,x0,22
    2920:	00050913          	addi	x18,x10,0
    2924:	08f76263          	bltu	x14,x15,29a8 <_malloc_r+0xa8>
    2928:	01000793          	addi	x15,x0,16
    292c:	20b7e663          	bltu	x15,x11,2b38 <_malloc_r+0x238>
    2930:	7ac010ef          	jal	x1,40dc <__malloc_lock>
    2934:	01800793          	addi	x15,x0,24
    2938:	00200593          	addi	x11,x0,2
    293c:	01000493          	addi	x9,x0,16
    2940:	00011997          	auipc	x19,0x11
    2944:	36898993          	addi	x19,x19,872 # 13ca8 <__malloc_av_>
    2948:	00f987b3          	add	x15,x19,x15
    294c:	0047a403          	lw	x8,4(x15)
    2950:	ff878713          	addi	x14,x15,-8
    2954:	34e40a63          	beq	x8,x14,2ca8 <_malloc_r+0x3a8>
    2958:	00442783          	lw	x15,4(x8)
    295c:	00c42683          	lw	x13,12(x8)
    2960:	00842603          	lw	x12,8(x8)
    2964:	ffc7f793          	andi	x15,x15,-4
    2968:	00f407b3          	add	x15,x8,x15
    296c:	0047a703          	lw	x14,4(x15)
    2970:	00d62623          	sw	x13,12(x12)
    2974:	00c6a423          	sw	x12,8(x13)
    2978:	00176713          	ori	x14,x14,1
    297c:	00090513          	addi	x10,x18,0
    2980:	00e7a223          	sw	x14,4(x15)
    2984:	75c010ef          	jal	x1,40e0 <__malloc_unlock>
    2988:	00840513          	addi	x10,x8,8
    298c:	02c12083          	lw	x1,44(x2)
    2990:	02812403          	lw	x8,40(x2)
    2994:	02412483          	lw	x9,36(x2)
    2998:	02012903          	lw	x18,32(x2)
    299c:	01c12983          	lw	x19,28(x2)
    29a0:	03010113          	addi	x2,x2,48
    29a4:	00008067          	jalr	x0,0(x1)
    29a8:	ff87f493          	andi	x9,x15,-8
    29ac:	1807c663          	blt	x15,x0,2b38 <_malloc_r+0x238>
    29b0:	18b4e463          	bltu	x9,x11,2b38 <_malloc_r+0x238>
    29b4:	728010ef          	jal	x1,40dc <__malloc_lock>
    29b8:	1f700793          	addi	x15,x0,503
    29bc:	4097f063          	bgeu	x15,x9,2dbc <_malloc_r+0x4bc>
    29c0:	0094d793          	srli	x15,x9,0x9
    29c4:	18078263          	beq	x15,x0,2b48 <_malloc_r+0x248>
    29c8:	00400713          	addi	x14,x0,4
    29cc:	34f76663          	bltu	x14,x15,2d18 <_malloc_r+0x418>
    29d0:	0064d793          	srli	x15,x9,0x6
    29d4:	03978593          	addi	x11,x15,57
    29d8:	03878813          	addi	x16,x15,56
    29dc:	00359613          	slli	x12,x11,0x3
    29e0:	00011997          	auipc	x19,0x11
    29e4:	2c898993          	addi	x19,x19,712 # 13ca8 <__malloc_av_>
    29e8:	00c98633          	add	x12,x19,x12
    29ec:	00462403          	lw	x8,4(x12)
    29f0:	ff860613          	addi	x12,x12,-8
    29f4:	02860863          	beq	x12,x8,2a24 <_malloc_r+0x124>
    29f8:	00f00513          	addi	x10,x0,15
    29fc:	0140006f          	jal	x0,2a10 <_malloc_r+0x110>
    2a00:	00c42683          	lw	x13,12(x8)
    2a04:	28075e63          	bge	x14,x0,2ca0 <_malloc_r+0x3a0>
    2a08:	00d60e63          	beq	x12,x13,2a24 <_malloc_r+0x124>
    2a0c:	00068413          	addi	x8,x13,0
    2a10:	00442783          	lw	x15,4(x8)
    2a14:	ffc7f793          	andi	x15,x15,-4
    2a18:	40978733          	sub	x14,x15,x9
    2a1c:	fee552e3          	bge	x10,x14,2a00 <_malloc_r+0x100>
    2a20:	00080593          	addi	x11,x16,0
    2a24:	0109a403          	lw	x8,16(x19)
    2a28:	00011897          	auipc	x17,0x11
    2a2c:	28888893          	addi	x17,x17,648 # 13cb0 <__malloc_av_+0x8>
    2a30:	27140463          	beq	x8,x17,2c98 <_malloc_r+0x398>
    2a34:	00442783          	lw	x15,4(x8)
    2a38:	00f00693          	addi	x13,x0,15
    2a3c:	ffc7f793          	andi	x15,x15,-4
    2a40:	40978733          	sub	x14,x15,x9
    2a44:	38e6c263          	blt	x13,x14,2dc8 <_malloc_r+0x4c8>
    2a48:	0119aa23          	sw	x17,20(x19)
    2a4c:	0119a823          	sw	x17,16(x19)
    2a50:	34075663          	bge	x14,x0,2d9c <_malloc_r+0x49c>
    2a54:	1ff00713          	addi	x14,x0,511
    2a58:	0049a503          	lw	x10,4(x19)
    2a5c:	24f76e63          	bltu	x14,x15,2cb8 <_malloc_r+0x3b8>
    2a60:	ff87f713          	andi	x14,x15,-8
    2a64:	00870713          	addi	x14,x14,8
    2a68:	00e98733          	add	x14,x19,x14
    2a6c:	00072683          	lw	x13,0(x14)
    2a70:	0057d613          	srli	x12,x15,0x5
    2a74:	00100793          	addi	x15,x0,1
    2a78:	00c797b3          	sll	x15,x15,x12
    2a7c:	00f56533          	or	x10,x10,x15
    2a80:	ff870793          	addi	x15,x14,-8
    2a84:	00f42623          	sw	x15,12(x8)
    2a88:	00d42423          	sw	x13,8(x8)
    2a8c:	00a9a223          	sw	x10,4(x19)
    2a90:	00872023          	sw	x8,0(x14)
    2a94:	0086a623          	sw	x8,12(x13)
    2a98:	4025d793          	srai	x15,x11,0x2
    2a9c:	00100613          	addi	x12,x0,1
    2aa0:	00f61633          	sll	x12,x12,x15
    2aa4:	0ac56a63          	bltu	x10,x12,2b58 <_malloc_r+0x258>
    2aa8:	00a677b3          	and	x15,x12,x10
    2aac:	02079463          	bne	x15,x0,2ad4 <_malloc_r+0x1d4>
    2ab0:	00161613          	slli	x12,x12,0x1
    2ab4:	ffc5f593          	andi	x11,x11,-4
    2ab8:	00a677b3          	and	x15,x12,x10
    2abc:	00458593          	addi	x11,x11,4
    2ac0:	00079a63          	bne	x15,x0,2ad4 <_malloc_r+0x1d4>
    2ac4:	00161613          	slli	x12,x12,0x1
    2ac8:	00a677b3          	and	x15,x12,x10
    2acc:	00458593          	addi	x11,x11,4
    2ad0:	fe078ae3          	beq	x15,x0,2ac4 <_malloc_r+0x1c4>
    2ad4:	00f00813          	addi	x16,x0,15
    2ad8:	00359313          	slli	x6,x11,0x3
    2adc:	00698333          	add	x6,x19,x6
    2ae0:	00030513          	addi	x10,x6,0
    2ae4:	00c52783          	lw	x15,12(x10)
    2ae8:	00058e13          	addi	x28,x11,0
    2aec:	24f50863          	beq	x10,x15,2d3c <_malloc_r+0x43c>
    2af0:	0047a703          	lw	x14,4(x15)
    2af4:	00078413          	addi	x8,x15,0
    2af8:	00c7a783          	lw	x15,12(x15)
    2afc:	ffc77713          	andi	x14,x14,-4
    2b00:	409706b3          	sub	x13,x14,x9
    2b04:	24d84863          	blt	x16,x13,2d54 <_malloc_r+0x454>
    2b08:	fe06c2e3          	blt	x13,x0,2aec <_malloc_r+0x1ec>
    2b0c:	00e40733          	add	x14,x8,x14
    2b10:	00472683          	lw	x13,4(x14)
    2b14:	00842603          	lw	x12,8(x8)
    2b18:	00090513          	addi	x10,x18,0
    2b1c:	0016e693          	ori	x13,x13,1
    2b20:	00d72223          	sw	x13,4(x14)
    2b24:	00f62623          	sw	x15,12(x12)
    2b28:	00c7a423          	sw	x12,8(x15)
    2b2c:	5b4010ef          	jal	x1,40e0 <__malloc_unlock>
    2b30:	00840513          	addi	x10,x8,8
    2b34:	e59ff06f          	jal	x0,298c <_malloc_r+0x8c>
    2b38:	00c00793          	addi	x15,x0,12
    2b3c:	00f92023          	sw	x15,0(x18)
    2b40:	00000513          	addi	x10,x0,0
    2b44:	e49ff06f          	jal	x0,298c <_malloc_r+0x8c>
    2b48:	20000613          	addi	x12,x0,512
    2b4c:	04000593          	addi	x11,x0,64
    2b50:	03f00813          	addi	x16,x0,63
    2b54:	e8dff06f          	jal	x0,29e0 <_malloc_r+0xe0>
    2b58:	0089a403          	lw	x8,8(x19)
    2b5c:	01612823          	sw	x22,16(x2)
    2b60:	00442783          	lw	x15,4(x8)
    2b64:	ffc7fb13          	andi	x22,x15,-4
    2b68:	009b6863          	bltu	x22,x9,2b78 <_malloc_r+0x278>
    2b6c:	409b0733          	sub	x14,x22,x9
    2b70:	00f00793          	addi	x15,x0,15
    2b74:	0ee7c063          	blt	x15,x14,2c54 <_malloc_r+0x354>
    2b78:	01912223          	sw	x25,4(x2)
    2b7c:	f5418c93          	addi	x25,x3,-172 # 143a4 <__malloc_sbrk_base>
    2b80:	000ca703          	lw	x14,0(x25)
    2b84:	01412c23          	sw	x20,24(x2)
    2b88:	01512a23          	sw	x21,20(x2)
    2b8c:	01712623          	sw	x23,12(x2)
    2b90:	f8c1aa83          	lw	x21,-116(x3) # 143dc <__malloc_top_pad>
    2b94:	fff00793          	addi	x15,x0,-1
    2b98:	01640a33          	add	x20,x8,x22
    2b9c:	01548ab3          	add	x21,x9,x21
    2ba0:	3cf70a63          	beq	x14,x15,2f74 <_malloc_r+0x674>
    2ba4:	000017b7          	lui	x15,0x1
    2ba8:	00f78793          	addi	x15,x15,15 # 100f <m_fast14_irq_handler+0x8b>
    2bac:	00fa8ab3          	add	x21,x21,x15
    2bb0:	fffff7b7          	lui	x15,0xfffff
    2bb4:	00fafab3          	and	x21,x21,x15
    2bb8:	000a8593          	addi	x11,x21,0
    2bbc:	00090513          	addi	x10,x18,0
    2bc0:	068060ef          	jal	x1,8c28 <_sbrk_r>
    2bc4:	fff00793          	addi	x15,x0,-1
    2bc8:	00050b93          	addi	x23,x10,0
    2bcc:	44f50e63          	beq	x10,x15,3028 <_malloc_r+0x728>
    2bd0:	01812423          	sw	x24,8(x2)
    2bd4:	25456263          	bltu	x10,x20,2e18 <_malloc_r+0x518>
    2bd8:	11c18c13          	addi	x24,x3,284 # 1456c <__malloc_current_mallinfo>
    2bdc:	000c2583          	lw	x11,0(x24)
    2be0:	00ba85b3          	add	x11,x21,x11
    2be4:	00bc2023          	sw	x11,0(x24)
    2be8:	00058713          	addi	x14,x11,0
    2bec:	2aaa1a63          	bne	x20,x10,2ea0 <_malloc_r+0x5a0>
    2bf0:	01451793          	slli	x15,x10,0x14
    2bf4:	2a079663          	bne	x15,x0,2ea0 <_malloc_r+0x5a0>
    2bf8:	0089ab83          	lw	x23,8(x19)
    2bfc:	015b07b3          	add	x15,x22,x21
    2c00:	0017e793          	ori	x15,x15,1
    2c04:	00fba223          	sw	x15,4(x23)
    2c08:	f8818713          	addi	x14,x3,-120 # 143d8 <__malloc_max_sbrked_mem>
    2c0c:	00072683          	lw	x13,0(x14)
    2c10:	00b6f463          	bgeu	x13,x11,2c18 <_malloc_r+0x318>
    2c14:	00b72023          	sw	x11,0(x14)
    2c18:	f8418713          	addi	x14,x3,-124 # 143d4 <__malloc_max_total_mem>
    2c1c:	00072683          	lw	x13,0(x14)
    2c20:	00b6f463          	bgeu	x13,x11,2c28 <_malloc_r+0x328>
    2c24:	00b72023          	sw	x11,0(x14)
    2c28:	00812c03          	lw	x24,8(x2)
    2c2c:	000b8413          	addi	x8,x23,0
    2c30:	ffc7f793          	andi	x15,x15,-4
    2c34:	40978733          	sub	x14,x15,x9
    2c38:	3897ea63          	bltu	x15,x9,2fcc <_malloc_r+0x6cc>
    2c3c:	00f00793          	addi	x15,x0,15
    2c40:	38e7d663          	bge	x15,x14,2fcc <_malloc_r+0x6cc>
    2c44:	01812a03          	lw	x20,24(x2)
    2c48:	01412a83          	lw	x21,20(x2)
    2c4c:	00c12b83          	lw	x23,12(x2)
    2c50:	00412c83          	lw	x25,4(x2)
    2c54:	0014e793          	ori	x15,x9,1
    2c58:	00f42223          	sw	x15,4(x8)
    2c5c:	009404b3          	add	x9,x8,x9
    2c60:	0099a423          	sw	x9,8(x19)
    2c64:	00176713          	ori	x14,x14,1
    2c68:	00090513          	addi	x10,x18,0
    2c6c:	00e4a223          	sw	x14,4(x9)
    2c70:	470010ef          	jal	x1,40e0 <__malloc_unlock>
    2c74:	02c12083          	lw	x1,44(x2)
    2c78:	00840513          	addi	x10,x8,8
    2c7c:	02812403          	lw	x8,40(x2)
    2c80:	01012b03          	lw	x22,16(x2)
    2c84:	02412483          	lw	x9,36(x2)
    2c88:	02012903          	lw	x18,32(x2)
    2c8c:	01c12983          	lw	x19,28(x2)
    2c90:	03010113          	addi	x2,x2,48
    2c94:	00008067          	jalr	x0,0(x1)
    2c98:	0049a503          	lw	x10,4(x19)
    2c9c:	dfdff06f          	jal	x0,2a98 <_malloc_r+0x198>
    2ca0:	00842603          	lw	x12,8(x8)
    2ca4:	cc5ff06f          	jal	x0,2968 <_malloc_r+0x68>
    2ca8:	00c7a403          	lw	x8,12(x15) # fffff00c <__heap_end+0xffbff00c>
    2cac:	00258593          	addi	x11,x11,2
    2cb0:	d6878ae3          	beq	x15,x8,2a24 <_malloc_r+0x124>
    2cb4:	ca5ff06f          	jal	x0,2958 <_malloc_r+0x58>
    2cb8:	0097d713          	srli	x14,x15,0x9
    2cbc:	00400693          	addi	x13,x0,4
    2cc0:	14e6f263          	bgeu	x13,x14,2e04 <_malloc_r+0x504>
    2cc4:	01400693          	addi	x13,x0,20
    2cc8:	32e6e463          	bltu	x13,x14,2ff0 <_malloc_r+0x6f0>
    2ccc:	05c70613          	addi	x12,x14,92
    2cd0:	05b70693          	addi	x13,x14,91
    2cd4:	00361613          	slli	x12,x12,0x3
    2cd8:	00c98633          	add	x12,x19,x12
    2cdc:	00062703          	lw	x14,0(x12)
    2ce0:	ff860613          	addi	x12,x12,-8
    2ce4:	00e61863          	bne	x12,x14,2cf4 <_malloc_r+0x3f4>
    2ce8:	2940006f          	jal	x0,2f7c <_malloc_r+0x67c>
    2cec:	00872703          	lw	x14,8(x14)
    2cf0:	00e60863          	beq	x12,x14,2d00 <_malloc_r+0x400>
    2cf4:	00472683          	lw	x13,4(x14)
    2cf8:	ffc6f693          	andi	x13,x13,-4
    2cfc:	fed7e8e3          	bltu	x15,x13,2cec <_malloc_r+0x3ec>
    2d00:	00c72603          	lw	x12,12(x14)
    2d04:	00c42623          	sw	x12,12(x8)
    2d08:	00e42423          	sw	x14,8(x8)
    2d0c:	00862423          	sw	x8,8(x12)
    2d10:	00872623          	sw	x8,12(x14)
    2d14:	d85ff06f          	jal	x0,2a98 <_malloc_r+0x198>
    2d18:	01400713          	addi	x14,x0,20
    2d1c:	10f77863          	bgeu	x14,x15,2e2c <_malloc_r+0x52c>
    2d20:	05400713          	addi	x14,x0,84
    2d24:	2ef76463          	bltu	x14,x15,300c <_malloc_r+0x70c>
    2d28:	00c4d793          	srli	x15,x9,0xc
    2d2c:	06f78593          	addi	x11,x15,111
    2d30:	06e78813          	addi	x16,x15,110
    2d34:	00359613          	slli	x12,x11,0x3
    2d38:	ca9ff06f          	jal	x0,29e0 <_malloc_r+0xe0>
    2d3c:	001e0e13          	addi	x28,x28,1
    2d40:	003e7793          	andi	x15,x28,3
    2d44:	00850513          	addi	x10,x10,8
    2d48:	10078063          	beq	x15,x0,2e48 <_malloc_r+0x548>
    2d4c:	00c52783          	lw	x15,12(x10)
    2d50:	d9dff06f          	jal	x0,2aec <_malloc_r+0x1ec>
    2d54:	00842603          	lw	x12,8(x8)
    2d58:	0014e593          	ori	x11,x9,1
    2d5c:	00b42223          	sw	x11,4(x8)
    2d60:	00f62623          	sw	x15,12(x12)
    2d64:	00c7a423          	sw	x12,8(x15)
    2d68:	009404b3          	add	x9,x8,x9
    2d6c:	0099aa23          	sw	x9,20(x19)
    2d70:	0099a823          	sw	x9,16(x19)
    2d74:	0016e793          	ori	x15,x13,1
    2d78:	0114a623          	sw	x17,12(x9)
    2d7c:	0114a423          	sw	x17,8(x9)
    2d80:	00f4a223          	sw	x15,4(x9)
    2d84:	00e40733          	add	x14,x8,x14
    2d88:	00090513          	addi	x10,x18,0
    2d8c:	00d72023          	sw	x13,0(x14)
    2d90:	350010ef          	jal	x1,40e0 <__malloc_unlock>
    2d94:	00840513          	addi	x10,x8,8
    2d98:	bf5ff06f          	jal	x0,298c <_malloc_r+0x8c>
    2d9c:	00f407b3          	add	x15,x8,x15
    2da0:	0047a703          	lw	x14,4(x15)
    2da4:	00090513          	addi	x10,x18,0
    2da8:	00176713          	ori	x14,x14,1
    2dac:	00e7a223          	sw	x14,4(x15)
    2db0:	330010ef          	jal	x1,40e0 <__malloc_unlock>
    2db4:	00840513          	addi	x10,x8,8
    2db8:	bd5ff06f          	jal	x0,298c <_malloc_r+0x8c>
    2dbc:	0034d593          	srli	x11,x9,0x3
    2dc0:	00848793          	addi	x15,x9,8
    2dc4:	b7dff06f          	jal	x0,2940 <_malloc_r+0x40>
    2dc8:	0014e693          	ori	x13,x9,1
    2dcc:	00d42223          	sw	x13,4(x8)
    2dd0:	009404b3          	add	x9,x8,x9
    2dd4:	0099aa23          	sw	x9,20(x19)
    2dd8:	0099a823          	sw	x9,16(x19)
    2ddc:	00176693          	ori	x13,x14,1
    2de0:	0114a623          	sw	x17,12(x9)
    2de4:	0114a423          	sw	x17,8(x9)
    2de8:	00d4a223          	sw	x13,4(x9)
    2dec:	00f407b3          	add	x15,x8,x15
    2df0:	00090513          	addi	x10,x18,0
    2df4:	00e7a023          	sw	x14,0(x15)
    2df8:	2e8010ef          	jal	x1,40e0 <__malloc_unlock>
    2dfc:	00840513          	addi	x10,x8,8
    2e00:	b8dff06f          	jal	x0,298c <_malloc_r+0x8c>
    2e04:	0067d713          	srli	x14,x15,0x6
    2e08:	03970613          	addi	x12,x14,57
    2e0c:	03870693          	addi	x13,x14,56
    2e10:	00361613          	slli	x12,x12,0x3
    2e14:	ec5ff06f          	jal	x0,2cd8 <_malloc_r+0x3d8>
    2e18:	07340c63          	beq	x8,x19,2e90 <_malloc_r+0x590>
    2e1c:	0089a403          	lw	x8,8(x19)
    2e20:	00812c03          	lw	x24,8(x2)
    2e24:	00442783          	lw	x15,4(x8)
    2e28:	e09ff06f          	jal	x0,2c30 <_malloc_r+0x330>
    2e2c:	05c78593          	addi	x11,x15,92
    2e30:	05b78813          	addi	x16,x15,91
    2e34:	00359613          	slli	x12,x11,0x3
    2e38:	ba9ff06f          	jal	x0,29e0 <_malloc_r+0xe0>
    2e3c:	00832783          	lw	x15,8(x6)
    2e40:	fff58593          	addi	x11,x11,-1
    2e44:	26679e63          	bne	x15,x6,30c0 <_malloc_r+0x7c0>
    2e48:	0035f793          	andi	x15,x11,3
    2e4c:	ff830313          	addi	x6,x6,-8
    2e50:	fe0796e3          	bne	x15,x0,2e3c <_malloc_r+0x53c>
    2e54:	0049a703          	lw	x14,4(x19)
    2e58:	fff64793          	xori	x15,x12,-1
    2e5c:	00e7f7b3          	and	x15,x15,x14
    2e60:	00f9a223          	sw	x15,4(x19)
    2e64:	00161613          	slli	x12,x12,0x1
    2e68:	cec7e8e3          	bltu	x15,x12,2b58 <_malloc_r+0x258>
    2e6c:	ce0606e3          	beq	x12,x0,2b58 <_malloc_r+0x258>
    2e70:	00f67733          	and	x14,x12,x15
    2e74:	00071a63          	bne	x14,x0,2e88 <_malloc_r+0x588>
    2e78:	00161613          	slli	x12,x12,0x1
    2e7c:	00f67733          	and	x14,x12,x15
    2e80:	004e0e13          	addi	x28,x28,4
    2e84:	fe070ae3          	beq	x14,x0,2e78 <_malloc_r+0x578>
    2e88:	000e0593          	addi	x11,x28,0
    2e8c:	c4dff06f          	jal	x0,2ad8 <_malloc_r+0x1d8>
    2e90:	11c18c13          	addi	x24,x3,284 # 1456c <__malloc_current_mallinfo>
    2e94:	000c2703          	lw	x14,0(x24)
    2e98:	00ea8733          	add	x14,x21,x14
    2e9c:	00ec2023          	sw	x14,0(x24)
    2ea0:	000ca683          	lw	x13,0(x25)
    2ea4:	fff00793          	addi	x15,x0,-1
    2ea8:	18f68663          	beq	x13,x15,3034 <_malloc_r+0x734>
    2eac:	414b87b3          	sub	x15,x23,x20
    2eb0:	00e787b3          	add	x15,x15,x14
    2eb4:	00fc2023          	sw	x15,0(x24)
    2eb8:	007bfc93          	andi	x25,x23,7
    2ebc:	0c0c8c63          	beq	x25,x0,2f94 <_malloc_r+0x694>
    2ec0:	419b8bb3          	sub	x23,x23,x25
    2ec4:	000017b7          	lui	x15,0x1
    2ec8:	00878793          	addi	x15,x15,8 # 1008 <m_fast14_irq_handler+0x84>
    2ecc:	008b8b93          	addi	x23,x23,8
    2ed0:	419785b3          	sub	x11,x15,x25
    2ed4:	015b8ab3          	add	x21,x23,x21
    2ed8:	415585b3          	sub	x11,x11,x21
    2edc:	01459593          	slli	x11,x11,0x14
    2ee0:	0145da13          	srli	x20,x11,0x14
    2ee4:	000a0593          	addi	x11,x20,0
    2ee8:	00090513          	addi	x10,x18,0
    2eec:	53d050ef          	jal	x1,8c28 <_sbrk_r>
    2ef0:	fff00793          	addi	x15,x0,-1
    2ef4:	18f50063          	beq	x10,x15,3074 <_malloc_r+0x774>
    2ef8:	41750533          	sub	x10,x10,x23
    2efc:	01450ab3          	add	x21,x10,x20
    2f00:	000c2703          	lw	x14,0(x24)
    2f04:	0179a423          	sw	x23,8(x19)
    2f08:	001ae793          	ori	x15,x21,1
    2f0c:	00ea05b3          	add	x11,x20,x14
    2f10:	00bc2023          	sw	x11,0(x24)
    2f14:	00fba223          	sw	x15,4(x23)
    2f18:	cf3408e3          	beq	x8,x19,2c08 <_malloc_r+0x308>
    2f1c:	00f00693          	addi	x13,x0,15
    2f20:	0b66f063          	bgeu	x13,x22,2fc0 <_malloc_r+0x6c0>
    2f24:	00442703          	lw	x14,4(x8)
    2f28:	ff4b0793          	addi	x15,x22,-12
    2f2c:	ff87f793          	andi	x15,x15,-8
    2f30:	00177713          	andi	x14,x14,1
    2f34:	00f76733          	or	x14,x14,x15
    2f38:	00e42223          	sw	x14,4(x8)
    2f3c:	00500613          	addi	x12,x0,5
    2f40:	00f40733          	add	x14,x8,x15
    2f44:	00c72223          	sw	x12,4(x14)
    2f48:	00c72423          	sw	x12,8(x14)
    2f4c:	00f6e663          	bltu	x13,x15,2f58 <_malloc_r+0x658>
    2f50:	004ba783          	lw	x15,4(x23)
    2f54:	cb5ff06f          	jal	x0,2c08 <_malloc_r+0x308>
    2f58:	00840593          	addi	x11,x8,8
    2f5c:	00090513          	addi	x10,x18,0
    2f60:	2fc000ef          	jal	x1,325c <_free_r>
    2f64:	0089ab83          	lw	x23,8(x19)
    2f68:	000c2583          	lw	x11,0(x24)
    2f6c:	004ba783          	lw	x15,4(x23)
    2f70:	c99ff06f          	jal	x0,2c08 <_malloc_r+0x308>
    2f74:	010a8a93          	addi	x21,x21,16
    2f78:	c41ff06f          	jal	x0,2bb8 <_malloc_r+0x2b8>
    2f7c:	4026d693          	srai	x13,x13,0x2
    2f80:	00100793          	addi	x15,x0,1
    2f84:	00d797b3          	sll	x15,x15,x13
    2f88:	00f56533          	or	x10,x10,x15
    2f8c:	00a9a223          	sw	x10,4(x19)
    2f90:	d75ff06f          	jal	x0,2d04 <_malloc_r+0x404>
    2f94:	015b85b3          	add	x11,x23,x21
    2f98:	40b005b3          	sub	x11,x0,x11
    2f9c:	01459593          	slli	x11,x11,0x14
    2fa0:	0145da13          	srli	x20,x11,0x14
    2fa4:	000a0593          	addi	x11,x20,0
    2fa8:	00090513          	addi	x10,x18,0
    2fac:	47d050ef          	jal	x1,8c28 <_sbrk_r>
    2fb0:	fff00793          	addi	x15,x0,-1
    2fb4:	f4f512e3          	bne	x10,x15,2ef8 <_malloc_r+0x5f8>
    2fb8:	00000a13          	addi	x20,x0,0
    2fbc:	f45ff06f          	jal	x0,2f00 <_malloc_r+0x600>
    2fc0:	00812c03          	lw	x24,8(x2)
    2fc4:	00100793          	addi	x15,x0,1
    2fc8:	00fba223          	sw	x15,4(x23)
    2fcc:	00090513          	addi	x10,x18,0
    2fd0:	110010ef          	jal	x1,40e0 <__malloc_unlock>
    2fd4:	00000513          	addi	x10,x0,0
    2fd8:	01812a03          	lw	x20,24(x2)
    2fdc:	01412a83          	lw	x21,20(x2)
    2fe0:	01012b03          	lw	x22,16(x2)
    2fe4:	00c12b83          	lw	x23,12(x2)
    2fe8:	00412c83          	lw	x25,4(x2)
    2fec:	9a1ff06f          	jal	x0,298c <_malloc_r+0x8c>
    2ff0:	05400693          	addi	x13,x0,84
    2ff4:	04e6e463          	bltu	x13,x14,303c <_malloc_r+0x73c>
    2ff8:	00c7d713          	srli	x14,x15,0xc
    2ffc:	06f70613          	addi	x12,x14,111
    3000:	06e70693          	addi	x13,x14,110
    3004:	00361613          	slli	x12,x12,0x3
    3008:	cd1ff06f          	jal	x0,2cd8 <_malloc_r+0x3d8>
    300c:	15400713          	addi	x14,x0,340
    3010:	04f76463          	bltu	x14,x15,3058 <_malloc_r+0x758>
    3014:	00f4d793          	srli	x15,x9,0xf
    3018:	07878593          	addi	x11,x15,120
    301c:	07778813          	addi	x16,x15,119
    3020:	00359613          	slli	x12,x11,0x3
    3024:	9bdff06f          	jal	x0,29e0 <_malloc_r+0xe0>
    3028:	0089a403          	lw	x8,8(x19)
    302c:	00442783          	lw	x15,4(x8)
    3030:	c01ff06f          	jal	x0,2c30 <_malloc_r+0x330>
    3034:	017ca023          	sw	x23,0(x25)
    3038:	e81ff06f          	jal	x0,2eb8 <_malloc_r+0x5b8>
    303c:	15400693          	addi	x13,x0,340
    3040:	04e6e463          	bltu	x13,x14,3088 <_malloc_r+0x788>
    3044:	00f7d713          	srli	x14,x15,0xf
    3048:	07870613          	addi	x12,x14,120
    304c:	07770693          	addi	x13,x14,119
    3050:	00361613          	slli	x12,x12,0x3
    3054:	c85ff06f          	jal	x0,2cd8 <_malloc_r+0x3d8>
    3058:	55400713          	addi	x14,x0,1364
    305c:	04f76463          	bltu	x14,x15,30a4 <_malloc_r+0x7a4>
    3060:	0124d793          	srli	x15,x9,0x12
    3064:	07d78593          	addi	x11,x15,125
    3068:	07c78813          	addi	x16,x15,124
    306c:	00359613          	slli	x12,x11,0x3
    3070:	971ff06f          	jal	x0,29e0 <_malloc_r+0xe0>
    3074:	ff8c8c93          	addi	x25,x25,-8
    3078:	019a8ab3          	add	x21,x21,x25
    307c:	417a8ab3          	sub	x21,x21,x23
    3080:	00000a13          	addi	x20,x0,0
    3084:	e7dff06f          	jal	x0,2f00 <_malloc_r+0x600>
    3088:	55400693          	addi	x13,x0,1364
    308c:	02e6e463          	bltu	x13,x14,30b4 <_malloc_r+0x7b4>
    3090:	0127d713          	srli	x14,x15,0x12
    3094:	07d70613          	addi	x12,x14,125
    3098:	07c70693          	addi	x13,x14,124
    309c:	00361613          	slli	x12,x12,0x3
    30a0:	c39ff06f          	jal	x0,2cd8 <_malloc_r+0x3d8>
    30a4:	3f800613          	addi	x12,x0,1016
    30a8:	07f00593          	addi	x11,x0,127
    30ac:	07e00813          	addi	x16,x0,126
    30b0:	931ff06f          	jal	x0,29e0 <_malloc_r+0xe0>
    30b4:	3f800613          	addi	x12,x0,1016
    30b8:	07e00693          	addi	x13,x0,126
    30bc:	c1dff06f          	jal	x0,2cd8 <_malloc_r+0x3d8>
    30c0:	0049a783          	lw	x15,4(x19)
    30c4:	da1ff06f          	jal	x0,2e64 <_malloc_r+0x564>

000030c8 <__libc_fini_array>:
    30c8:	ff010113          	addi	x2,x2,-16
    30cc:	00812423          	sw	x8,8(x2)
    30d0:	00011797          	auipc	x15,0x11
    30d4:	b8078793          	addi	x15,x15,-1152 # 13c50 <IRQ_ID_PRIORITY>
    30d8:	00011417          	auipc	x8,0x11
    30dc:	b7840413          	addi	x8,x8,-1160 # 13c50 <IRQ_ID_PRIORITY>
    30e0:	40f40433          	sub	x8,x8,x15
    30e4:	00912223          	sw	x9,4(x2)
    30e8:	00112623          	sw	x1,12(x2)
    30ec:	40245493          	srai	x9,x8,0x2
    30f0:	02048063          	beq	x9,x0,3110 <__libc_fini_array+0x48>
    30f4:	ffc40413          	addi	x8,x8,-4
    30f8:	00f40433          	add	x8,x8,x15
    30fc:	00042783          	lw	x15,0(x8)
    3100:	fff48493          	addi	x9,x9,-1
    3104:	ffc40413          	addi	x8,x8,-4
    3108:	000780e7          	jalr	x1,0(x15)
    310c:	fe0498e3          	bne	x9,x0,30fc <__libc_fini_array+0x34>
    3110:	00c12083          	lw	x1,12(x2)
    3114:	00812403          	lw	x8,8(x2)
    3118:	00412483          	lw	x9,4(x2)
    311c:	01010113          	addi	x2,x2,16
    3120:	00008067          	jalr	x0,0(x1)

00003124 <_malloc_trim_r>:
    3124:	fe010113          	addi	x2,x2,-32
    3128:	00812c23          	sw	x8,24(x2)
    312c:	00912a23          	sw	x9,20(x2)
    3130:	01212823          	sw	x18,16(x2)
    3134:	01312623          	sw	x19,12(x2)
    3138:	01412423          	sw	x20,8(x2)
    313c:	00058993          	addi	x19,x11,0
    3140:	00112e23          	sw	x1,28(x2)
    3144:	00050913          	addi	x18,x10,0
    3148:	00011a17          	auipc	x20,0x11
    314c:	b60a0a13          	addi	x20,x20,-1184 # 13ca8 <__malloc_av_>
    3150:	78d000ef          	jal	x1,40dc <__malloc_lock>
    3154:	008a2703          	lw	x14,8(x20)
    3158:	000017b7          	lui	x15,0x1
    315c:	fef78793          	addi	x15,x15,-17 # fef <m_fast14_irq_handler+0x6b>
    3160:	00472483          	lw	x9,4(x14)
    3164:	00001737          	lui	x14,0x1
    3168:	ffc4f493          	andi	x9,x9,-4
    316c:	00f48433          	add	x8,x9,x15
    3170:	41340433          	sub	x8,x8,x19
    3174:	00c45413          	srli	x8,x8,0xc
    3178:	fff40413          	addi	x8,x8,-1
    317c:	00c41413          	slli	x8,x8,0xc
    3180:	00e44e63          	blt	x8,x14,319c <_malloc_trim_r+0x78>
    3184:	00000593          	addi	x11,x0,0
    3188:	00090513          	addi	x10,x18,0
    318c:	29d050ef          	jal	x1,8c28 <_sbrk_r>
    3190:	008a2783          	lw	x15,8(x20)
    3194:	009787b3          	add	x15,x15,x9
    3198:	02f50863          	beq	x10,x15,31c8 <_malloc_trim_r+0xa4>
    319c:	00090513          	addi	x10,x18,0
    31a0:	741000ef          	jal	x1,40e0 <__malloc_unlock>
    31a4:	01c12083          	lw	x1,28(x2)
    31a8:	01812403          	lw	x8,24(x2)
    31ac:	01412483          	lw	x9,20(x2)
    31b0:	01012903          	lw	x18,16(x2)
    31b4:	00c12983          	lw	x19,12(x2)
    31b8:	00812a03          	lw	x20,8(x2)
    31bc:	00000513          	addi	x10,x0,0
    31c0:	02010113          	addi	x2,x2,32
    31c4:	00008067          	jalr	x0,0(x1)
    31c8:	408005b3          	sub	x11,x0,x8
    31cc:	00090513          	addi	x10,x18,0
    31d0:	259050ef          	jal	x1,8c28 <_sbrk_r>
    31d4:	fff00793          	addi	x15,x0,-1
    31d8:	04f50863          	beq	x10,x15,3228 <_malloc_trim_r+0x104>
    31dc:	11c18713          	addi	x14,x3,284 # 1456c <__malloc_current_mallinfo>
    31e0:	00072783          	lw	x15,0(x14) # 1000 <m_fast14_irq_handler+0x7c>
    31e4:	008a2683          	lw	x13,8(x20)
    31e8:	408484b3          	sub	x9,x9,x8
    31ec:	0014e493          	ori	x9,x9,1
    31f0:	408787b3          	sub	x15,x15,x8
    31f4:	00090513          	addi	x10,x18,0
    31f8:	0096a223          	sw	x9,4(x13)
    31fc:	00f72023          	sw	x15,0(x14)
    3200:	6e1000ef          	jal	x1,40e0 <__malloc_unlock>
    3204:	01c12083          	lw	x1,28(x2)
    3208:	01812403          	lw	x8,24(x2)
    320c:	01412483          	lw	x9,20(x2)
    3210:	01012903          	lw	x18,16(x2)
    3214:	00c12983          	lw	x19,12(x2)
    3218:	00812a03          	lw	x20,8(x2)
    321c:	00100513          	addi	x10,x0,1
    3220:	02010113          	addi	x2,x2,32
    3224:	00008067          	jalr	x0,0(x1)
    3228:	00000593          	addi	x11,x0,0
    322c:	00090513          	addi	x10,x18,0
    3230:	1f9050ef          	jal	x1,8c28 <_sbrk_r>
    3234:	008a2703          	lw	x14,8(x20)
    3238:	00f00693          	addi	x13,x0,15
    323c:	40e507b3          	sub	x15,x10,x14
    3240:	f4f6dee3          	bge	x13,x15,319c <_malloc_trim_r+0x78>
    3244:	f541a683          	lw	x13,-172(x3) # 143a4 <__malloc_sbrk_base>
    3248:	40d50533          	sub	x10,x10,x13
    324c:	0017e793          	ori	x15,x15,1
    3250:	10a1ae23          	sw	x10,284(x3) # 1456c <__malloc_current_mallinfo>
    3254:	00f72223          	sw	x15,4(x14)
    3258:	f45ff06f          	jal	x0,319c <_malloc_trim_r+0x78>

0000325c <_free_r>:
    325c:	18058263          	beq	x11,x0,33e0 <_free_r+0x184>
    3260:	ff010113          	addi	x2,x2,-16
    3264:	00812423          	sw	x8,8(x2)
    3268:	00912223          	sw	x9,4(x2)
    326c:	00058413          	addi	x8,x11,0
    3270:	00050493          	addi	x9,x10,0
    3274:	00112623          	sw	x1,12(x2)
    3278:	665000ef          	jal	x1,40dc <__malloc_lock>
    327c:	ffc42583          	lw	x11,-4(x8)
    3280:	ff840713          	addi	x14,x8,-8
    3284:	00011517          	auipc	x10,0x11
    3288:	a2450513          	addi	x10,x10,-1500 # 13ca8 <__malloc_av_>
    328c:	ffe5f793          	andi	x15,x11,-2
    3290:	00f70633          	add	x12,x14,x15
    3294:	00462683          	lw	x13,4(x12)
    3298:	00852803          	lw	x16,8(x10)
    329c:	ffc6f693          	andi	x13,x13,-4
    32a0:	1ac80263          	beq	x16,x12,3444 <_free_r+0x1e8>
    32a4:	00d62223          	sw	x13,4(x12)
    32a8:	0015f593          	andi	x11,x11,1
    32ac:	00d60833          	add	x16,x12,x13
    32b0:	0a059063          	bne	x11,x0,3350 <_free_r+0xf4>
    32b4:	ff842303          	lw	x6,-8(x8)
    32b8:	00482583          	lw	x11,4(x16)
    32bc:	00011897          	auipc	x17,0x11
    32c0:	9f488893          	addi	x17,x17,-1548 # 13cb0 <__malloc_av_+0x8>
    32c4:	40670733          	sub	x14,x14,x6
    32c8:	00872803          	lw	x16,8(x14)
    32cc:	006787b3          	add	x15,x15,x6
    32d0:	0015f593          	andi	x11,x11,1
    32d4:	15180263          	beq	x16,x17,3418 <_free_r+0x1bc>
    32d8:	00c72303          	lw	x6,12(x14)
    32dc:	00682623          	sw	x6,12(x16)
    32e0:	01032423          	sw	x16,8(x6)
    32e4:	1a058663          	beq	x11,x0,3490 <_free_r+0x234>
    32e8:	0017e693          	ori	x13,x15,1
    32ec:	00d72223          	sw	x13,4(x14)
    32f0:	00f62023          	sw	x15,0(x12)
    32f4:	1ff00693          	addi	x13,x0,511
    32f8:	06f6ec63          	bltu	x13,x15,3370 <_free_r+0x114>
    32fc:	ff87f693          	andi	x13,x15,-8
    3300:	00868693          	addi	x13,x13,8
    3304:	00452583          	lw	x11,4(x10)
    3308:	00d506b3          	add	x13,x10,x13
    330c:	0006a603          	lw	x12,0(x13)
    3310:	0057d813          	srli	x16,x15,0x5
    3314:	00100793          	addi	x15,x0,1
    3318:	010797b3          	sll	x15,x15,x16
    331c:	00b7e7b3          	or	x15,x15,x11
    3320:	ff868593          	addi	x11,x13,-8
    3324:	00b72623          	sw	x11,12(x14)
    3328:	00c72423          	sw	x12,8(x14)
    332c:	00f52223          	sw	x15,4(x10)
    3330:	00e6a023          	sw	x14,0(x13)
    3334:	00e62623          	sw	x14,12(x12)
    3338:	00812403          	lw	x8,8(x2)
    333c:	00c12083          	lw	x1,12(x2)
    3340:	00048513          	addi	x10,x9,0
    3344:	00412483          	lw	x9,4(x2)
    3348:	01010113          	addi	x2,x2,16
    334c:	5950006f          	jal	x0,40e0 <__malloc_unlock>
    3350:	00482583          	lw	x11,4(x16)
    3354:	0015f593          	andi	x11,x11,1
    3358:	08058663          	beq	x11,x0,33e4 <_free_r+0x188>
    335c:	0017e693          	ori	x13,x15,1
    3360:	fed42e23          	sw	x13,-4(x8)
    3364:	00f62023          	sw	x15,0(x12)
    3368:	1ff00693          	addi	x13,x0,511
    336c:	f8f6f8e3          	bgeu	x13,x15,32fc <_free_r+0xa0>
    3370:	0097d693          	srli	x13,x15,0x9
    3374:	00400613          	addi	x12,x0,4
    3378:	12d66063          	bltu	x12,x13,3498 <_free_r+0x23c>
    337c:	0067d693          	srli	x13,x15,0x6
    3380:	03968593          	addi	x11,x13,57
    3384:	03868613          	addi	x12,x13,56
    3388:	00359593          	slli	x11,x11,0x3
    338c:	00b505b3          	add	x11,x10,x11
    3390:	0005a683          	lw	x13,0(x11)
    3394:	ff858593          	addi	x11,x11,-8
    3398:	00d59863          	bne	x11,x13,33a8 <_free_r+0x14c>
    339c:	1540006f          	jal	x0,34f0 <_free_r+0x294>
    33a0:	0086a683          	lw	x13,8(x13)
    33a4:	00d58863          	beq	x11,x13,33b4 <_free_r+0x158>
    33a8:	0046a603          	lw	x12,4(x13)
    33ac:	ffc67613          	andi	x12,x12,-4
    33b0:	fec7e8e3          	bltu	x15,x12,33a0 <_free_r+0x144>
    33b4:	00c6a583          	lw	x11,12(x13)
    33b8:	00b72623          	sw	x11,12(x14)
    33bc:	00d72423          	sw	x13,8(x14)
    33c0:	00812403          	lw	x8,8(x2)
    33c4:	00c12083          	lw	x1,12(x2)
    33c8:	00e5a423          	sw	x14,8(x11)
    33cc:	00048513          	addi	x10,x9,0
    33d0:	00412483          	lw	x9,4(x2)
    33d4:	00e6a623          	sw	x14,12(x13)
    33d8:	01010113          	addi	x2,x2,16
    33dc:	5050006f          	jal	x0,40e0 <__malloc_unlock>
    33e0:	00008067          	jalr	x0,0(x1)
    33e4:	00d787b3          	add	x15,x15,x13
    33e8:	00011897          	auipc	x17,0x11
    33ec:	8c888893          	addi	x17,x17,-1848 # 13cb0 <__malloc_av_+0x8>
    33f0:	00862683          	lw	x13,8(x12)
    33f4:	0d168c63          	beq	x13,x17,34cc <_free_r+0x270>
    33f8:	00c62803          	lw	x16,12(x12)
    33fc:	0017e593          	ori	x11,x15,1
    3400:	00f70633          	add	x12,x14,x15
    3404:	0106a623          	sw	x16,12(x13)
    3408:	00d82423          	sw	x13,8(x16)
    340c:	00b72223          	sw	x11,4(x14)
    3410:	00f62023          	sw	x15,0(x12)
    3414:	ee1ff06f          	jal	x0,32f4 <_free_r+0x98>
    3418:	12059c63          	bne	x11,x0,3550 <_free_r+0x2f4>
    341c:	00862583          	lw	x11,8(x12)
    3420:	00c62603          	lw	x12,12(x12)
    3424:	00f686b3          	add	x13,x13,x15
    3428:	0016e793          	ori	x15,x13,1
    342c:	00c5a623          	sw	x12,12(x11)
    3430:	00b62423          	sw	x11,8(x12)
    3434:	00f72223          	sw	x15,4(x14)
    3438:	00d70733          	add	x14,x14,x13
    343c:	00d72023          	sw	x13,0(x14)
    3440:	ef9ff06f          	jal	x0,3338 <_free_r+0xdc>
    3444:	0015f593          	andi	x11,x11,1
    3448:	00d786b3          	add	x13,x15,x13
    344c:	02059063          	bne	x11,x0,346c <_free_r+0x210>
    3450:	ff842583          	lw	x11,-8(x8)
    3454:	40b70733          	sub	x14,x14,x11
    3458:	00c72783          	lw	x15,12(x14)
    345c:	00872603          	lw	x12,8(x14)
    3460:	00b686b3          	add	x13,x13,x11
    3464:	00f62623          	sw	x15,12(x12)
    3468:	00c7a423          	sw	x12,8(x15)
    346c:	0016e793          	ori	x15,x13,1
    3470:	00f72223          	sw	x15,4(x14)
    3474:	00e52423          	sw	x14,8(x10)
    3478:	f581a783          	lw	x15,-168(x3) # 143a8 <__malloc_trim_threshold>
    347c:	eaf6eee3          	bltu	x13,x15,3338 <_free_r+0xdc>
    3480:	f8c1a583          	lw	x11,-116(x3) # 143dc <__malloc_top_pad>
    3484:	00048513          	addi	x10,x9,0
    3488:	c9dff0ef          	jal	x1,3124 <_malloc_trim_r>
    348c:	eadff06f          	jal	x0,3338 <_free_r+0xdc>
    3490:	00d787b3          	add	x15,x15,x13
    3494:	f5dff06f          	jal	x0,33f0 <_free_r+0x194>
    3498:	01400613          	addi	x12,x0,20
    349c:	02d67063          	bgeu	x12,x13,34bc <_free_r+0x260>
    34a0:	05400613          	addi	x12,x0,84
    34a4:	06d66463          	bltu	x12,x13,350c <_free_r+0x2b0>
    34a8:	00c7d693          	srli	x13,x15,0xc
    34ac:	06f68593          	addi	x11,x13,111
    34b0:	06e68613          	addi	x12,x13,110
    34b4:	00359593          	slli	x11,x11,0x3
    34b8:	ed5ff06f          	jal	x0,338c <_free_r+0x130>
    34bc:	05c68593          	addi	x11,x13,92
    34c0:	05b68613          	addi	x12,x13,91
    34c4:	00359593          	slli	x11,x11,0x3
    34c8:	ec5ff06f          	jal	x0,338c <_free_r+0x130>
    34cc:	00e52a23          	sw	x14,20(x10)
    34d0:	00e52823          	sw	x14,16(x10)
    34d4:	0017e693          	ori	x13,x15,1
    34d8:	01172623          	sw	x17,12(x14)
    34dc:	01172423          	sw	x17,8(x14)
    34e0:	00d72223          	sw	x13,4(x14)
    34e4:	00f70733          	add	x14,x14,x15
    34e8:	00f72023          	sw	x15,0(x14)
    34ec:	e4dff06f          	jal	x0,3338 <_free_r+0xdc>
    34f0:	00452803          	lw	x16,4(x10)
    34f4:	40265613          	srai	x12,x12,0x2
    34f8:	00100793          	addi	x15,x0,1
    34fc:	00c797b3          	sll	x15,x15,x12
    3500:	0107e7b3          	or	x15,x15,x16
    3504:	00f52223          	sw	x15,4(x10)
    3508:	eb1ff06f          	jal	x0,33b8 <_free_r+0x15c>
    350c:	15400613          	addi	x12,x0,340
    3510:	00d66c63          	bltu	x12,x13,3528 <_free_r+0x2cc>
    3514:	00f7d693          	srli	x13,x15,0xf
    3518:	07868593          	addi	x11,x13,120
    351c:	07768613          	addi	x12,x13,119
    3520:	00359593          	slli	x11,x11,0x3
    3524:	e69ff06f          	jal	x0,338c <_free_r+0x130>
    3528:	55400613          	addi	x12,x0,1364
    352c:	00d66c63          	bltu	x12,x13,3544 <_free_r+0x2e8>
    3530:	0127d693          	srli	x13,x15,0x12
    3534:	07d68593          	addi	x11,x13,125
    3538:	07c68613          	addi	x12,x13,124
    353c:	00359593          	slli	x11,x11,0x3
    3540:	e4dff06f          	jal	x0,338c <_free_r+0x130>
    3544:	3f800593          	addi	x11,x0,1016
    3548:	07e00613          	addi	x12,x0,126
    354c:	e41ff06f          	jal	x0,338c <_free_r+0x130>
    3550:	0017e693          	ori	x13,x15,1
    3554:	00d72223          	sw	x13,4(x14)
    3558:	00f62023          	sw	x15,0(x12)
    355c:	dddff06f          	jal	x0,3338 <_free_r+0xdc>

00003560 <strlen>:
    3560:	00357793          	andi	x15,x10,3
    3564:	00050713          	addi	x14,x10,0
    3568:	04079c63          	bne	x15,x0,35c0 <strlen+0x60>
    356c:	7f7f86b7          	lui	x13,0x7f7f8
    3570:	f7f68693          	addi	x13,x13,-129 # 7f7f7f7f <__heap_end+0x7f3f7f7f>
    3574:	fff00593          	addi	x11,x0,-1
    3578:	00072603          	lw	x12,0(x14)
    357c:	00470713          	addi	x14,x14,4
    3580:	00d677b3          	and	x15,x12,x13
    3584:	00d787b3          	add	x15,x15,x13
    3588:	00c7e7b3          	or	x15,x15,x12
    358c:	00d7e7b3          	or	x15,x15,x13
    3590:	feb784e3          	beq	x15,x11,3578 <strlen+0x18>
    3594:	ffc74683          	lbu	x13,-4(x14)
    3598:	40a707b3          	sub	x15,x14,x10
    359c:	04068463          	beq	x13,x0,35e4 <strlen+0x84>
    35a0:	ffd74683          	lbu	x13,-3(x14)
    35a4:	02068c63          	beq	x13,x0,35dc <strlen+0x7c>
    35a8:	ffe74503          	lbu	x10,-2(x14)
    35ac:	00a03533          	sltu	x10,x0,x10
    35b0:	00f50533          	add	x10,x10,x15
    35b4:	ffe50513          	addi	x10,x10,-2
    35b8:	00008067          	jalr	x0,0(x1)
    35bc:	fa0688e3          	beq	x13,x0,356c <strlen+0xc>
    35c0:	00074783          	lbu	x15,0(x14)
    35c4:	00170713          	addi	x14,x14,1
    35c8:	00377693          	andi	x13,x14,3
    35cc:	fe0798e3          	bne	x15,x0,35bc <strlen+0x5c>
    35d0:	40a70733          	sub	x14,x14,x10
    35d4:	fff70513          	addi	x10,x14,-1
    35d8:	00008067          	jalr	x0,0(x1)
    35dc:	ffd78513          	addi	x10,x15,-3
    35e0:	00008067          	jalr	x0,0(x1)
    35e4:	ffc78513          	addi	x10,x15,-4
    35e8:	00008067          	jalr	x0,0(x1)

000035ec <memchr>:
    35ec:	00357793          	andi	x15,x10,3
    35f0:	0ff5f693          	andi	x13,x11,255
    35f4:	02078a63          	beq	x15,x0,3628 <memchr+0x3c>
    35f8:	fff60793          	addi	x15,x12,-1
    35fc:	02060e63          	beq	x12,x0,3638 <memchr+0x4c>
    3600:	fff00613          	addi	x12,x0,-1
    3604:	0180006f          	jal	x0,361c <memchr+0x30>
    3608:	00150513          	addi	x10,x10,1
    360c:	00357713          	andi	x14,x10,3
    3610:	00070e63          	beq	x14,x0,362c <memchr+0x40>
    3614:	fff78793          	addi	x15,x15,-1
    3618:	02c78063          	beq	x15,x12,3638 <memchr+0x4c>
    361c:	00054703          	lbu	x14,0(x10)
    3620:	fed714e3          	bne	x14,x13,3608 <memchr+0x1c>
    3624:	00008067          	jalr	x0,0(x1)
    3628:	00060793          	addi	x15,x12,0
    362c:	00300713          	addi	x14,x0,3
    3630:	00f76863          	bltu	x14,x15,3640 <memchr+0x54>
    3634:	06079063          	bne	x15,x0,3694 <memchr+0xa8>
    3638:	00000513          	addi	x10,x0,0
    363c:	00008067          	jalr	x0,0(x1)
    3640:	0ff5f593          	andi	x11,x11,255
    3644:	00859713          	slli	x14,x11,0x8
    3648:	00b705b3          	add	x11,x14,x11
    364c:	01059713          	slli	x14,x11,0x10
    3650:	feff08b7          	lui	x17,0xfeff0
    3654:	80808837          	lui	x16,0x80808
    3658:	00e585b3          	add	x11,x11,x14
    365c:	eff88893          	addi	x17,x17,-257 # fefefeff <__heap_end+0xfebefeff>
    3660:	08080813          	addi	x16,x16,128 # 80808080 <__heap_end+0x80408080>
    3664:	00300313          	addi	x6,x0,3
    3668:	0100006f          	jal	x0,3678 <memchr+0x8c>
    366c:	ffc78793          	addi	x15,x15,-4
    3670:	00450513          	addi	x10,x10,4
    3674:	fcf370e3          	bgeu	x6,x15,3634 <memchr+0x48>
    3678:	00052703          	lw	x14,0(x10)
    367c:	00e5c733          	xor	x14,x11,x14
    3680:	01170633          	add	x12,x14,x17
    3684:	fff74713          	xori	x14,x14,-1
    3688:	00e67733          	and	x14,x12,x14
    368c:	01077733          	and	x14,x14,x16
    3690:	fc070ee3          	beq	x14,x0,366c <memchr+0x80>
    3694:	00f507b3          	add	x15,x10,x15
    3698:	00c0006f          	jal	x0,36a4 <memchr+0xb8>
    369c:	00150513          	addi	x10,x10,1
    36a0:	f8a78ce3          	beq	x15,x10,3638 <memchr+0x4c>
    36a4:	00054703          	lbu	x14,0(x10)
    36a8:	fed71ae3          	bne	x14,x13,369c <memchr+0xb0>
    36ac:	00008067          	jalr	x0,0(x1)

000036b0 <memset>:
    36b0:	00f00313          	addi	x6,x0,15
    36b4:	00050713          	addi	x14,x10,0
    36b8:	02c37e63          	bgeu	x6,x12,36f4 <memset+0x44>
    36bc:	00f77793          	andi	x15,x14,15
    36c0:	0a079063          	bne	x15,x0,3760 <memset+0xb0>
    36c4:	08059263          	bne	x11,x0,3748 <memset+0x98>
    36c8:	ff067693          	andi	x13,x12,-16
    36cc:	00f67613          	andi	x12,x12,15
    36d0:	00e686b3          	add	x13,x13,x14
    36d4:	00b72023          	sw	x11,0(x14)
    36d8:	00b72223          	sw	x11,4(x14)
    36dc:	00b72423          	sw	x11,8(x14)
    36e0:	00b72623          	sw	x11,12(x14)
    36e4:	01070713          	addi	x14,x14,16
    36e8:	fed766e3          	bltu	x14,x13,36d4 <memset+0x24>
    36ec:	00061463          	bne	x12,x0,36f4 <memset+0x44>
    36f0:	00008067          	jalr	x0,0(x1)
    36f4:	40c306b3          	sub	x13,x6,x12
    36f8:	00269693          	slli	x13,x13,0x2
    36fc:	00000297          	auipc	x5,0x0
    3700:	005686b3          	add	x13,x13,x5
    3704:	00c68067          	jalr	x0,12(x13)
    3708:	00b70723          	sb	x11,14(x14)
    370c:	00b706a3          	sb	x11,13(x14)
    3710:	00b70623          	sb	x11,12(x14)
    3714:	00b705a3          	sb	x11,11(x14)
    3718:	00b70523          	sb	x11,10(x14)
    371c:	00b704a3          	sb	x11,9(x14)
    3720:	00b70423          	sb	x11,8(x14)
    3724:	00b703a3          	sb	x11,7(x14)
    3728:	00b70323          	sb	x11,6(x14)
    372c:	00b702a3          	sb	x11,5(x14)
    3730:	00b70223          	sb	x11,4(x14)
    3734:	00b701a3          	sb	x11,3(x14)
    3738:	00b70123          	sb	x11,2(x14)
    373c:	00b700a3          	sb	x11,1(x14)
    3740:	00b70023          	sb	x11,0(x14)
    3744:	00008067          	jalr	x0,0(x1)
    3748:	0ff5f593          	andi	x11,x11,255
    374c:	00859693          	slli	x13,x11,0x8
    3750:	00d5e5b3          	or	x11,x11,x13
    3754:	01059693          	slli	x13,x11,0x10
    3758:	00d5e5b3          	or	x11,x11,x13
    375c:	f6dff06f          	jal	x0,36c8 <memset+0x18>
    3760:	00279693          	slli	x13,x15,0x2
    3764:	00000297          	auipc	x5,0x0
    3768:	005686b3          	add	x13,x13,x5
    376c:	00008293          	addi	x5,x1,0
    3770:	fa0680e7          	jalr	x1,-96(x13)
    3774:	00028093          	addi	x1,x5,0 # 3764 <memset+0xb4>
    3778:	ff078793          	addi	x15,x15,-16
    377c:	40f70733          	sub	x14,x14,x15
    3780:	00f60633          	add	x12,x12,x15
    3784:	f6c378e3          	bgeu	x6,x12,36f4 <memset+0x44>
    3788:	f3dff06f          	jal	x0,36c4 <memset+0x14>

0000378c <_fwalk_sglue>:
    378c:	fd010113          	addi	x2,x2,-48
    3790:	03212023          	sw	x18,32(x2)
    3794:	01312e23          	sw	x19,28(x2)
    3798:	01412c23          	sw	x20,24(x2)
    379c:	01512a23          	sw	x21,20(x2)
    37a0:	01612823          	sw	x22,16(x2)
    37a4:	01712623          	sw	x23,12(x2)
    37a8:	02112623          	sw	x1,44(x2)
    37ac:	02812423          	sw	x8,40(x2)
    37b0:	02912223          	sw	x9,36(x2)
    37b4:	00050b13          	addi	x22,x10,0
    37b8:	00058b93          	addi	x23,x11,0
    37bc:	00060a93          	addi	x21,x12,0
    37c0:	00000a13          	addi	x20,x0,0
    37c4:	00100993          	addi	x19,x0,1
    37c8:	fff00913          	addi	x18,x0,-1
    37cc:	004aa483          	lw	x9,4(x21)
    37d0:	008aa403          	lw	x8,8(x21)
    37d4:	fff48493          	addi	x9,x9,-1
    37d8:	0204c863          	blt	x9,x0,3808 <_fwalk_sglue+0x7c>
    37dc:	00c45783          	lhu	x15,12(x8)
    37e0:	00f9fe63          	bgeu	x19,x15,37fc <_fwalk_sglue+0x70>
    37e4:	00e41783          	lh	x15,14(x8)
    37e8:	00040593          	addi	x11,x8,0
    37ec:	000b0513          	addi	x10,x22,0
    37f0:	01278663          	beq	x15,x18,37fc <_fwalk_sglue+0x70>
    37f4:	000b80e7          	jalr	x1,0(x23)
    37f8:	00aa6a33          	or	x20,x20,x10
    37fc:	fff48493          	addi	x9,x9,-1
    3800:	06840413          	addi	x8,x8,104
    3804:	fd249ce3          	bne	x9,x18,37dc <_fwalk_sglue+0x50>
    3808:	000aaa83          	lw	x21,0(x21)
    380c:	fc0a90e3          	bne	x21,x0,37cc <_fwalk_sglue+0x40>
    3810:	02c12083          	lw	x1,44(x2)
    3814:	02812403          	lw	x8,40(x2)
    3818:	02412483          	lw	x9,36(x2)
    381c:	02012903          	lw	x18,32(x2)
    3820:	01c12983          	lw	x19,28(x2)
    3824:	01412a83          	lw	x21,20(x2)
    3828:	01012b03          	lw	x22,16(x2)
    382c:	00c12b83          	lw	x23,12(x2)
    3830:	000a0513          	addi	x10,x20,0
    3834:	01812a03          	lw	x20,24(x2)
    3838:	03010113          	addi	x2,x2,48
    383c:	00008067          	jalr	x0,0(x1)

00003840 <_realloc_r>:
    3840:	fd010113          	addi	x2,x2,-48
    3844:	02912223          	sw	x9,36(x2)
    3848:	02112623          	sw	x1,44(x2)
    384c:	00060493          	addi	x9,x12,0
    3850:	1e058863          	beq	x11,x0,3a40 <_realloc_r+0x200>
    3854:	02812423          	sw	x8,40(x2)
    3858:	03212023          	sw	x18,32(x2)
    385c:	00058413          	addi	x8,x11,0
    3860:	01312e23          	sw	x19,28(x2)
    3864:	01512a23          	sw	x21,20(x2)
    3868:	01412c23          	sw	x20,24(x2)
    386c:	00050913          	addi	x18,x10,0
    3870:	06d000ef          	jal	x1,40dc <__malloc_lock>
    3874:	ffc42703          	lw	x14,-4(x8)
    3878:	00b48793          	addi	x15,x9,11
    387c:	01600693          	addi	x13,x0,22
    3880:	ff840a93          	addi	x21,x8,-8
    3884:	ffc77993          	andi	x19,x14,-4
    3888:	10f6f263          	bgeu	x13,x15,398c <_realloc_r+0x14c>
    388c:	ff87fa13          	andi	x20,x15,-8
    3890:	1007c263          	blt	x15,x0,3994 <_realloc_r+0x154>
    3894:	109a6063          	bltu	x20,x9,3994 <_realloc_r+0x154>
    3898:	1349d263          	bge	x19,x20,39bc <_realloc_r+0x17c>
    389c:	01812423          	sw	x24,8(x2)
    38a0:	00010c17          	auipc	x24,0x10
    38a4:	408c0c13          	addi	x24,x24,1032 # 13ca8 <__malloc_av_>
    38a8:	008c2603          	lw	x12,8(x24)
    38ac:	013a86b3          	add	x13,x21,x19
    38b0:	0046a783          	lw	x15,4(x13)
    38b4:	1cd60863          	beq	x12,x13,3a84 <_realloc_r+0x244>
    38b8:	ffe7f613          	andi	x12,x15,-2
    38bc:	00c68633          	add	x12,x13,x12
    38c0:	00462603          	lw	x12,4(x12)
    38c4:	00167613          	andi	x12,x12,1
    38c8:	14061a63          	bne	x12,x0,3a1c <_realloc_r+0x1dc>
    38cc:	ffc7f793          	andi	x15,x15,-4
    38d0:	00f98633          	add	x12,x19,x15
    38d4:	0d465863          	bge	x12,x20,39a4 <_realloc_r+0x164>
    38d8:	00177713          	andi	x14,x14,1
    38dc:	02071c63          	bne	x14,x0,3914 <_realloc_r+0xd4>
    38e0:	01712623          	sw	x23,12(x2)
    38e4:	ff842b83          	lw	x23,-8(x8)
    38e8:	01612823          	sw	x22,16(x2)
    38ec:	417a8bb3          	sub	x23,x21,x23
    38f0:	004ba703          	lw	x14,4(x23)
    38f4:	ffc77713          	andi	x14,x14,-4
    38f8:	00e787b3          	add	x15,x15,x14
    38fc:	01378b33          	add	x22,x15,x19
    3900:	334b5c63          	bge	x22,x20,3c38 <_realloc_r+0x3f8>
    3904:	00e98b33          	add	x22,x19,x14
    3908:	294b5863          	bge	x22,x20,3b98 <_realloc_r+0x358>
    390c:	01012b03          	lw	x22,16(x2)
    3910:	00c12b83          	lw	x23,12(x2)
    3914:	00048593          	addi	x11,x9,0
    3918:	00090513          	addi	x10,x18,0
    391c:	fe5fe0ef          	jal	x1,2900 <_malloc_r>
    3920:	00050493          	addi	x9,x10,0
    3924:	40050863          	beq	x10,x0,3d34 <_realloc_r+0x4f4>
    3928:	ffc42783          	lw	x15,-4(x8)
    392c:	ff850713          	addi	x14,x10,-8
    3930:	ffe7f793          	andi	x15,x15,-2
    3934:	00fa87b3          	add	x15,x21,x15
    3938:	24e78663          	beq	x15,x14,3b84 <_realloc_r+0x344>
    393c:	ffc98613          	addi	x12,x19,-4
    3940:	02400793          	addi	x15,x0,36
    3944:	2ec7e463          	bltu	x15,x12,3c2c <_realloc_r+0x3ec>
    3948:	01300713          	addi	x14,x0,19
    394c:	20c76a63          	bltu	x14,x12,3b60 <_realloc_r+0x320>
    3950:	00050793          	addi	x15,x10,0
    3954:	00040713          	addi	x14,x8,0
    3958:	00072683          	lw	x13,0(x14)
    395c:	00d7a023          	sw	x13,0(x15)
    3960:	00472683          	lw	x13,4(x14)
    3964:	00d7a223          	sw	x13,4(x15)
    3968:	00872703          	lw	x14,8(x14)
    396c:	00e7a423          	sw	x14,8(x15)
    3970:	00040593          	addi	x11,x8,0
    3974:	00090513          	addi	x10,x18,0
    3978:	8e5ff0ef          	jal	x1,325c <_free_r>
    397c:	00090513          	addi	x10,x18,0
    3980:	760000ef          	jal	x1,40e0 <__malloc_unlock>
    3984:	00812c03          	lw	x24,8(x2)
    3988:	06c0006f          	jal	x0,39f4 <_realloc_r+0x1b4>
    398c:	01000a13          	addi	x20,x0,16
    3990:	f09a74e3          	bgeu	x20,x9,3898 <_realloc_r+0x58>
    3994:	00c00793          	addi	x15,x0,12
    3998:	00f92023          	sw	x15,0(x18)
    399c:	00000493          	addi	x9,x0,0
    39a0:	0540006f          	jal	x0,39f4 <_realloc_r+0x1b4>
    39a4:	00c6a783          	lw	x15,12(x13)
    39a8:	0086a703          	lw	x14,8(x13)
    39ac:	00812c03          	lw	x24,8(x2)
    39b0:	00060993          	addi	x19,x12,0
    39b4:	00f72623          	sw	x15,12(x14)
    39b8:	00e7a423          	sw	x14,8(x15)
    39bc:	004aa783          	lw	x15,4(x21)
    39c0:	414986b3          	sub	x13,x19,x20
    39c4:	00f00613          	addi	x12,x0,15
    39c8:	0017f793          	andi	x15,x15,1
    39cc:	013a8733          	add	x14,x21,x19
    39d0:	08d66263          	bltu	x12,x13,3a54 <_realloc_r+0x214>
    39d4:	0137e7b3          	or	x15,x15,x19
    39d8:	00faa223          	sw	x15,4(x21)
    39dc:	00472783          	lw	x15,4(x14)
    39e0:	0017e793          	ori	x15,x15,1
    39e4:	00f72223          	sw	x15,4(x14)
    39e8:	00090513          	addi	x10,x18,0
    39ec:	6f4000ef          	jal	x1,40e0 <__malloc_unlock>
    39f0:	00040493          	addi	x9,x8,0
    39f4:	02812403          	lw	x8,40(x2)
    39f8:	02c12083          	lw	x1,44(x2)
    39fc:	02012903          	lw	x18,32(x2)
    3a00:	01c12983          	lw	x19,28(x2)
    3a04:	01812a03          	lw	x20,24(x2)
    3a08:	01412a83          	lw	x21,20(x2)
    3a0c:	00048513          	addi	x10,x9,0
    3a10:	02412483          	lw	x9,36(x2)
    3a14:	03010113          	addi	x2,x2,48
    3a18:	00008067          	jalr	x0,0(x1)
    3a1c:	00177713          	andi	x14,x14,1
    3a20:	ee071ae3          	bne	x14,x0,3914 <_realloc_r+0xd4>
    3a24:	01712623          	sw	x23,12(x2)
    3a28:	ff842b83          	lw	x23,-8(x8)
    3a2c:	01612823          	sw	x22,16(x2)
    3a30:	417a8bb3          	sub	x23,x21,x23
    3a34:	004ba703          	lw	x14,4(x23)
    3a38:	ffc77713          	andi	x14,x14,-4
    3a3c:	ec9ff06f          	jal	x0,3904 <_realloc_r+0xc4>
    3a40:	02c12083          	lw	x1,44(x2)
    3a44:	02412483          	lw	x9,36(x2)
    3a48:	00060593          	addi	x11,x12,0
    3a4c:	03010113          	addi	x2,x2,48
    3a50:	eb1fe06f          	jal	x0,2900 <_malloc_r>
    3a54:	0147e7b3          	or	x15,x15,x20
    3a58:	00faa223          	sw	x15,4(x21)
    3a5c:	014a85b3          	add	x11,x21,x20
    3a60:	0016e693          	ori	x13,x13,1
    3a64:	00d5a223          	sw	x13,4(x11)
    3a68:	00472783          	lw	x15,4(x14)
    3a6c:	00858593          	addi	x11,x11,8
    3a70:	00090513          	addi	x10,x18,0
    3a74:	0017e793          	ori	x15,x15,1
    3a78:	00f72223          	sw	x15,4(x14)
    3a7c:	fe0ff0ef          	jal	x1,325c <_free_r>
    3a80:	f69ff06f          	jal	x0,39e8 <_realloc_r+0x1a8>
    3a84:	ffc7f793          	andi	x15,x15,-4
    3a88:	013786b3          	add	x13,x15,x19
    3a8c:	010a0613          	addi	x12,x20,16
    3a90:	26c6d063          	bge	x13,x12,3cf0 <_realloc_r+0x4b0>
    3a94:	00177713          	andi	x14,x14,1
    3a98:	e6071ee3          	bne	x14,x0,3914 <_realloc_r+0xd4>
    3a9c:	01712623          	sw	x23,12(x2)
    3aa0:	ff842b83          	lw	x23,-8(x8)
    3aa4:	01612823          	sw	x22,16(x2)
    3aa8:	417a8bb3          	sub	x23,x21,x23
    3aac:	004ba703          	lw	x14,4(x23)
    3ab0:	ffc77713          	andi	x14,x14,-4
    3ab4:	00e787b3          	add	x15,x15,x14
    3ab8:	01378b33          	add	x22,x15,x19
    3abc:	e4cb44e3          	blt	x22,x12,3904 <_realloc_r+0xc4>
    3ac0:	00cba783          	lw	x15,12(x23)
    3ac4:	008ba703          	lw	x14,8(x23)
    3ac8:	ffc98613          	addi	x12,x19,-4
    3acc:	02400693          	addi	x13,x0,36
    3ad0:	00f72623          	sw	x15,12(x14)
    3ad4:	00e7a423          	sw	x14,8(x15)
    3ad8:	008b8493          	addi	x9,x23,8
    3adc:	28c6e463          	bltu	x13,x12,3d64 <_realloc_r+0x524>
    3ae0:	01300713          	addi	x14,x0,19
    3ae4:	00048793          	addi	x15,x9,0
    3ae8:	02c77263          	bgeu	x14,x12,3b0c <_realloc_r+0x2cc>
    3aec:	00042703          	lw	x14,0(x8)
    3af0:	01b00793          	addi	x15,x0,27
    3af4:	00eba423          	sw	x14,8(x23)
    3af8:	00442703          	lw	x14,4(x8)
    3afc:	00eba623          	sw	x14,12(x23)
    3b00:	26c7ea63          	bltu	x15,x12,3d74 <_realloc_r+0x534>
    3b04:	00840413          	addi	x8,x8,8
    3b08:	010b8793          	addi	x15,x23,16
    3b0c:	00042703          	lw	x14,0(x8)
    3b10:	00e7a023          	sw	x14,0(x15)
    3b14:	00442703          	lw	x14,4(x8)
    3b18:	00e7a223          	sw	x14,4(x15)
    3b1c:	00842703          	lw	x14,8(x8)
    3b20:	00e7a423          	sw	x14,8(x15)
    3b24:	014b8733          	add	x14,x23,x20
    3b28:	414b07b3          	sub	x15,x22,x20
    3b2c:	00ec2423          	sw	x14,8(x24)
    3b30:	0017e793          	ori	x15,x15,1
    3b34:	00f72223          	sw	x15,4(x14)
    3b38:	004ba783          	lw	x15,4(x23)
    3b3c:	00090513          	addi	x10,x18,0
    3b40:	0017f793          	andi	x15,x15,1
    3b44:	0147e7b3          	or	x15,x15,x20
    3b48:	00fba223          	sw	x15,4(x23)
    3b4c:	594000ef          	jal	x1,40e0 <__malloc_unlock>
    3b50:	01012b03          	lw	x22,16(x2)
    3b54:	00c12b83          	lw	x23,12(x2)
    3b58:	00812c03          	lw	x24,8(x2)
    3b5c:	e99ff06f          	jal	x0,39f4 <_realloc_r+0x1b4>
    3b60:	00042683          	lw	x13,0(x8)
    3b64:	01b00713          	addi	x14,x0,27
    3b68:	00d52023          	sw	x13,0(x10)
    3b6c:	00442683          	lw	x13,4(x8)
    3b70:	00d52223          	sw	x13,4(x10)
    3b74:	14c76e63          	bltu	x14,x12,3cd0 <_realloc_r+0x490>
    3b78:	00840713          	addi	x14,x8,8
    3b7c:	00850793          	addi	x15,x10,8
    3b80:	dd9ff06f          	jal	x0,3958 <_realloc_r+0x118>
    3b84:	ffc52783          	lw	x15,-4(x10)
    3b88:	00812c03          	lw	x24,8(x2)
    3b8c:	ffc7f793          	andi	x15,x15,-4
    3b90:	00f989b3          	add	x19,x19,x15
    3b94:	e29ff06f          	jal	x0,39bc <_realloc_r+0x17c>
    3b98:	00cba783          	lw	x15,12(x23)
    3b9c:	008ba703          	lw	x14,8(x23)
    3ba0:	ffc98613          	addi	x12,x19,-4
    3ba4:	02400693          	addi	x13,x0,36
    3ba8:	00f72623          	sw	x15,12(x14)
    3bac:	00e7a423          	sw	x14,8(x15)
    3bb0:	008b8493          	addi	x9,x23,8
    3bb4:	10c6e663          	bltu	x13,x12,3cc0 <_realloc_r+0x480>
    3bb8:	01300713          	addi	x14,x0,19
    3bbc:	00048793          	addi	x15,x9,0
    3bc0:	02c77c63          	bgeu	x14,x12,3bf8 <_realloc_r+0x3b8>
    3bc4:	00042703          	lw	x14,0(x8)
    3bc8:	01b00793          	addi	x15,x0,27
    3bcc:	00eba423          	sw	x14,8(x23)
    3bd0:	00442703          	lw	x14,4(x8)
    3bd4:	00eba623          	sw	x14,12(x23)
    3bd8:	14c7f863          	bgeu	x15,x12,3d28 <_realloc_r+0x4e8>
    3bdc:	00842783          	lw	x15,8(x8)
    3be0:	00fba823          	sw	x15,16(x23)
    3be4:	00c42783          	lw	x15,12(x8)
    3be8:	00fbaa23          	sw	x15,20(x23)
    3bec:	0ad60c63          	beq	x12,x13,3ca4 <_realloc_r+0x464>
    3bf0:	01040413          	addi	x8,x8,16
    3bf4:	018b8793          	addi	x15,x23,24
    3bf8:	00042703          	lw	x14,0(x8)
    3bfc:	00e7a023          	sw	x14,0(x15)
    3c00:	00442703          	lw	x14,4(x8)
    3c04:	00e7a223          	sw	x14,4(x15)
    3c08:	00842703          	lw	x14,8(x8)
    3c0c:	00e7a423          	sw	x14,8(x15)
    3c10:	000b0993          	addi	x19,x22,0
    3c14:	000b8a93          	addi	x21,x23,0
    3c18:	01012b03          	lw	x22,16(x2)
    3c1c:	00c12b83          	lw	x23,12(x2)
    3c20:	00812c03          	lw	x24,8(x2)
    3c24:	00048413          	addi	x8,x9,0
    3c28:	d95ff06f          	jal	x0,39bc <_realloc_r+0x17c>
    3c2c:	00040593          	addi	x11,x8,0
    3c30:	171030ef          	jal	x1,75a0 <memmove>
    3c34:	d3dff06f          	jal	x0,3970 <_realloc_r+0x130>
    3c38:	00c6a783          	lw	x15,12(x13)
    3c3c:	0086a703          	lw	x14,8(x13)
    3c40:	ffc98613          	addi	x12,x19,-4
    3c44:	02400693          	addi	x13,x0,36
    3c48:	00f72623          	sw	x15,12(x14)
    3c4c:	00e7a423          	sw	x14,8(x15)
    3c50:	008ba703          	lw	x14,8(x23)
    3c54:	00cba783          	lw	x15,12(x23)
    3c58:	008b8493          	addi	x9,x23,8
    3c5c:	00f72623          	sw	x15,12(x14)
    3c60:	00e7a423          	sw	x14,8(x15)
    3c64:	04c6ee63          	bltu	x13,x12,3cc0 <_realloc_r+0x480>
    3c68:	01300713          	addi	x14,x0,19
    3c6c:	00048793          	addi	x15,x9,0
    3c70:	f8c774e3          	bgeu	x14,x12,3bf8 <_realloc_r+0x3b8>
    3c74:	00042703          	lw	x14,0(x8)
    3c78:	01b00793          	addi	x15,x0,27
    3c7c:	00eba423          	sw	x14,8(x23)
    3c80:	00442703          	lw	x14,4(x8)
    3c84:	00eba623          	sw	x14,12(x23)
    3c88:	0ac7f063          	bgeu	x15,x12,3d28 <_realloc_r+0x4e8>
    3c8c:	00842703          	lw	x14,8(x8)
    3c90:	02400793          	addi	x15,x0,36
    3c94:	00eba823          	sw	x14,16(x23)
    3c98:	00c42703          	lw	x14,12(x8)
    3c9c:	00ebaa23          	sw	x14,20(x23)
    3ca0:	f4f618e3          	bne	x12,x15,3bf0 <_realloc_r+0x3b0>
    3ca4:	01042703          	lw	x14,16(x8)
    3ca8:	020b8793          	addi	x15,x23,32
    3cac:	01840413          	addi	x8,x8,24
    3cb0:	00ebac23          	sw	x14,24(x23)
    3cb4:	ffc42703          	lw	x14,-4(x8)
    3cb8:	00ebae23          	sw	x14,28(x23)
    3cbc:	f3dff06f          	jal	x0,3bf8 <_realloc_r+0x3b8>
    3cc0:	00040593          	addi	x11,x8,0
    3cc4:	00048513          	addi	x10,x9,0
    3cc8:	0d9030ef          	jal	x1,75a0 <memmove>
    3ccc:	f45ff06f          	jal	x0,3c10 <_realloc_r+0x3d0>
    3cd0:	00842703          	lw	x14,8(x8)
    3cd4:	00e52423          	sw	x14,8(x10)
    3cd8:	00c42703          	lw	x14,12(x8)
    3cdc:	00e52623          	sw	x14,12(x10)
    3ce0:	06f60463          	beq	x12,x15,3d48 <_realloc_r+0x508>
    3ce4:	01040713          	addi	x14,x8,16
    3ce8:	01050793          	addi	x15,x10,16
    3cec:	c6dff06f          	jal	x0,3958 <_realloc_r+0x118>
    3cf0:	014a8ab3          	add	x21,x21,x20
    3cf4:	414687b3          	sub	x15,x13,x20
    3cf8:	015c2423          	sw	x21,8(x24)
    3cfc:	0017e793          	ori	x15,x15,1
    3d00:	00faa223          	sw	x15,4(x21)
    3d04:	ffc42783          	lw	x15,-4(x8)
    3d08:	00090513          	addi	x10,x18,0
    3d0c:	00040493          	addi	x9,x8,0
    3d10:	0017f793          	andi	x15,x15,1
    3d14:	0147e7b3          	or	x15,x15,x20
    3d18:	fef42e23          	sw	x15,-4(x8)
    3d1c:	3c4000ef          	jal	x1,40e0 <__malloc_unlock>
    3d20:	00812c03          	lw	x24,8(x2)
    3d24:	cd1ff06f          	jal	x0,39f4 <_realloc_r+0x1b4>
    3d28:	00840413          	addi	x8,x8,8
    3d2c:	010b8793          	addi	x15,x23,16
    3d30:	ec9ff06f          	jal	x0,3bf8 <_realloc_r+0x3b8>
    3d34:	00090513          	addi	x10,x18,0
    3d38:	3a8000ef          	jal	x1,40e0 <__malloc_unlock>
    3d3c:	00000493          	addi	x9,x0,0
    3d40:	00812c03          	lw	x24,8(x2)
    3d44:	cb1ff06f          	jal	x0,39f4 <_realloc_r+0x1b4>
    3d48:	01042683          	lw	x13,16(x8)
    3d4c:	01840713          	addi	x14,x8,24
    3d50:	01850793          	addi	x15,x10,24
    3d54:	00d52823          	sw	x13,16(x10)
    3d58:	01442683          	lw	x13,20(x8)
    3d5c:	00d52a23          	sw	x13,20(x10)
    3d60:	bf9ff06f          	jal	x0,3958 <_realloc_r+0x118>
    3d64:	00040593          	addi	x11,x8,0
    3d68:	00048513          	addi	x10,x9,0
    3d6c:	035030ef          	jal	x1,75a0 <memmove>
    3d70:	db5ff06f          	jal	x0,3b24 <_realloc_r+0x2e4>
    3d74:	00842783          	lw	x15,8(x8)
    3d78:	00fba823          	sw	x15,16(x23)
    3d7c:	00c42783          	lw	x15,12(x8)
    3d80:	00fbaa23          	sw	x15,20(x23)
    3d84:	00d60863          	beq	x12,x13,3d94 <_realloc_r+0x554>
    3d88:	01040413          	addi	x8,x8,16
    3d8c:	018b8793          	addi	x15,x23,24
    3d90:	d7dff06f          	jal	x0,3b0c <_realloc_r+0x2cc>
    3d94:	01042703          	lw	x14,16(x8)
    3d98:	020b8793          	addi	x15,x23,32
    3d9c:	01840413          	addi	x8,x8,24
    3da0:	00ebac23          	sw	x14,24(x23)
    3da4:	ffc42703          	lw	x14,-4(x8)
    3da8:	00ebae23          	sw	x14,28(x23)
    3dac:	d61ff06f          	jal	x0,3b0c <_realloc_r+0x2cc>

00003db0 <__sflush_r>:
    3db0:	00c59703          	lh	x14,12(x11)
    3db4:	fe010113          	addi	x2,x2,-32
    3db8:	00812c23          	sw	x8,24(x2)
    3dbc:	01312623          	sw	x19,12(x2)
    3dc0:	00112e23          	sw	x1,28(x2)
    3dc4:	00877793          	andi	x15,x14,8
    3dc8:	00058413          	addi	x8,x11,0
    3dcc:	00050993          	addi	x19,x10,0
    3dd0:	12079063          	bne	x15,x0,3ef0 <__sflush_r+0x140>
    3dd4:	000017b7          	lui	x15,0x1
    3dd8:	80078793          	addi	x15,x15,-2048 # 800 <m_fast0_irq_handler+0x84>
    3ddc:	0045a683          	lw	x13,4(x11)
    3de0:	00f767b3          	or	x15,x14,x15
    3de4:	00f59623          	sh	x15,12(x11)
    3de8:	18d05263          	bge	x0,x13,3f6c <__sflush_r+0x1bc>
    3dec:	02842803          	lw	x16,40(x8)
    3df0:	0e080463          	beq	x16,x0,3ed8 <__sflush_r+0x128>
    3df4:	00912a23          	sw	x9,20(x2)
    3df8:	01371693          	slli	x13,x14,0x13
    3dfc:	0009a483          	lw	x9,0(x19)
    3e00:	0009a023          	sw	x0,0(x19)
    3e04:	01c42583          	lw	x11,28(x8)
    3e08:	1606ce63          	blt	x13,x0,3f84 <__sflush_r+0x1d4>
    3e0c:	00000613          	addi	x12,x0,0
    3e10:	00100693          	addi	x13,x0,1
    3e14:	00098513          	addi	x10,x19,0
    3e18:	000800e7          	jalr	x1,0(x16)
    3e1c:	fff00793          	addi	x15,x0,-1
    3e20:	00050613          	addi	x12,x10,0
    3e24:	1af50463          	beq	x10,x15,3fcc <__sflush_r+0x21c>
    3e28:	00c41783          	lh	x15,12(x8)
    3e2c:	02842803          	lw	x16,40(x8)
    3e30:	01c42583          	lw	x11,28(x8)
    3e34:	0047f793          	andi	x15,x15,4
    3e38:	00078e63          	beq	x15,x0,3e54 <__sflush_r+0xa4>
    3e3c:	00442703          	lw	x14,4(x8)
    3e40:	03042783          	lw	x15,48(x8)
    3e44:	40e60633          	sub	x12,x12,x14
    3e48:	00078663          	beq	x15,x0,3e54 <__sflush_r+0xa4>
    3e4c:	03c42783          	lw	x15,60(x8)
    3e50:	40f60633          	sub	x12,x12,x15
    3e54:	00000693          	addi	x13,x0,0
    3e58:	00098513          	addi	x10,x19,0
    3e5c:	000800e7          	jalr	x1,0(x16)
    3e60:	fff00793          	addi	x15,x0,-1
    3e64:	12f51463          	bne	x10,x15,3f8c <__sflush_r+0x1dc>
    3e68:	0009a683          	lw	x13,0(x19)
    3e6c:	01d00793          	addi	x15,x0,29
    3e70:	00c41703          	lh	x14,12(x8)
    3e74:	16d7ea63          	bltu	x15,x13,3fe8 <__sflush_r+0x238>
    3e78:	204007b7          	lui	x15,0x20400
    3e7c:	00178793          	addi	x15,x15,1 # 20400001 <__heap_end+0x20000001>
    3e80:	00d7d7b3          	srl	x15,x15,x13
    3e84:	0017f793          	andi	x15,x15,1
    3e88:	16078063          	beq	x15,x0,3fe8 <__sflush_r+0x238>
    3e8c:	01042603          	lw	x12,16(x8)
    3e90:	fffff7b7          	lui	x15,0xfffff
    3e94:	7ff78793          	addi	x15,x15,2047 # fffff7ff <__heap_end+0xffbff7ff>
    3e98:	00f777b3          	and	x15,x14,x15
    3e9c:	00f41623          	sh	x15,12(x8)
    3ea0:	00042223          	sw	x0,4(x8)
    3ea4:	00c42023          	sw	x12,0(x8)
    3ea8:	01371793          	slli	x15,x14,0x13
    3eac:	0007d463          	bge	x15,x0,3eb4 <__sflush_r+0x104>
    3eb0:	10068263          	beq	x13,x0,3fb4 <__sflush_r+0x204>
    3eb4:	03042583          	lw	x11,48(x8)
    3eb8:	0099a023          	sw	x9,0(x19)
    3ebc:	10058463          	beq	x11,x0,3fc4 <__sflush_r+0x214>
    3ec0:	04040793          	addi	x15,x8,64
    3ec4:	00f58663          	beq	x11,x15,3ed0 <__sflush_r+0x120>
    3ec8:	00098513          	addi	x10,x19,0
    3ecc:	b90ff0ef          	jal	x1,325c <_free_r>
    3ed0:	01412483          	lw	x9,20(x2)
    3ed4:	02042823          	sw	x0,48(x8)
    3ed8:	00000513          	addi	x10,x0,0
    3edc:	01c12083          	lw	x1,28(x2)
    3ee0:	01812403          	lw	x8,24(x2)
    3ee4:	00c12983          	lw	x19,12(x2)
    3ee8:	02010113          	addi	x2,x2,32
    3eec:	00008067          	jalr	x0,0(x1)
    3ef0:	01212823          	sw	x18,16(x2)
    3ef4:	0105a903          	lw	x18,16(x11)
    3ef8:	08090263          	beq	x18,x0,3f7c <__sflush_r+0x1cc>
    3efc:	00912a23          	sw	x9,20(x2)
    3f00:	0005a483          	lw	x9,0(x11)
    3f04:	00377713          	andi	x14,x14,3
    3f08:	0125a023          	sw	x18,0(x11)
    3f0c:	412484b3          	sub	x9,x9,x18
    3f10:	00000793          	addi	x15,x0,0
    3f14:	00071463          	bne	x14,x0,3f1c <__sflush_r+0x16c>
    3f18:	0145a783          	lw	x15,20(x11)
    3f1c:	00f42423          	sw	x15,8(x8)
    3f20:	00904863          	blt	x0,x9,3f30 <__sflush_r+0x180>
    3f24:	0540006f          	jal	x0,3f78 <__sflush_r+0x1c8>
    3f28:	00a90933          	add	x18,x18,x10
    3f2c:	04905663          	bge	x0,x9,3f78 <__sflush_r+0x1c8>
    3f30:	02442783          	lw	x15,36(x8)
    3f34:	01c42583          	lw	x11,28(x8)
    3f38:	00048693          	addi	x13,x9,0
    3f3c:	00090613          	addi	x12,x18,0
    3f40:	00098513          	addi	x10,x19,0
    3f44:	000780e7          	jalr	x1,0(x15)
    3f48:	40a484b3          	sub	x9,x9,x10
    3f4c:	fca04ee3          	blt	x0,x10,3f28 <__sflush_r+0x178>
    3f50:	00c41703          	lh	x14,12(x8)
    3f54:	01012903          	lw	x18,16(x2)
    3f58:	04076713          	ori	x14,x14,64
    3f5c:	01412483          	lw	x9,20(x2)
    3f60:	00e41623          	sh	x14,12(x8)
    3f64:	fff00513          	addi	x10,x0,-1
    3f68:	f75ff06f          	jal	x0,3edc <__sflush_r+0x12c>
    3f6c:	03c5a683          	lw	x13,60(x11)
    3f70:	e6d04ee3          	blt	x0,x13,3dec <__sflush_r+0x3c>
    3f74:	f65ff06f          	jal	x0,3ed8 <__sflush_r+0x128>
    3f78:	01412483          	lw	x9,20(x2)
    3f7c:	01012903          	lw	x18,16(x2)
    3f80:	f59ff06f          	jal	x0,3ed8 <__sflush_r+0x128>
    3f84:	05042603          	lw	x12,80(x8)
    3f88:	eadff06f          	jal	x0,3e34 <__sflush_r+0x84>
    3f8c:	00c41703          	lh	x14,12(x8)
    3f90:	01042683          	lw	x13,16(x8)
    3f94:	fffff7b7          	lui	x15,0xfffff
    3f98:	7ff78793          	addi	x15,x15,2047 # fffff7ff <__heap_end+0xffbff7ff>
    3f9c:	00f777b3          	and	x15,x14,x15
    3fa0:	00f41623          	sh	x15,12(x8)
    3fa4:	00042223          	sw	x0,4(x8)
    3fa8:	00d42023          	sw	x13,0(x8)
    3fac:	01371793          	slli	x15,x14,0x13
    3fb0:	f007d2e3          	bge	x15,x0,3eb4 <__sflush_r+0x104>
    3fb4:	03042583          	lw	x11,48(x8)
    3fb8:	04a42823          	sw	x10,80(x8)
    3fbc:	0099a023          	sw	x9,0(x19)
    3fc0:	f00590e3          	bne	x11,x0,3ec0 <__sflush_r+0x110>
    3fc4:	01412483          	lw	x9,20(x2)
    3fc8:	f11ff06f          	jal	x0,3ed8 <__sflush_r+0x128>
    3fcc:	0009a783          	lw	x15,0(x19)
    3fd0:	e4078ce3          	beq	x15,x0,3e28 <__sflush_r+0x78>
    3fd4:	01d00713          	addi	x14,x0,29
    3fd8:	00e78c63          	beq	x15,x14,3ff0 <__sflush_r+0x240>
    3fdc:	01600713          	addi	x14,x0,22
    3fe0:	00e78863          	beq	x15,x14,3ff0 <__sflush_r+0x240>
    3fe4:	00c41703          	lh	x14,12(x8)
    3fe8:	04076713          	ori	x14,x14,64
    3fec:	f71ff06f          	jal	x0,3f5c <__sflush_r+0x1ac>
    3ff0:	0099a023          	sw	x9,0(x19)
    3ff4:	01412483          	lw	x9,20(x2)
    3ff8:	ee1ff06f          	jal	x0,3ed8 <__sflush_r+0x128>

00003ffc <_fflush_r>:
    3ffc:	fe010113          	addi	x2,x2,-32
    4000:	00812c23          	sw	x8,24(x2)
    4004:	00112e23          	sw	x1,28(x2)
    4008:	00050413          	addi	x8,x10,0
    400c:	00050663          	beq	x10,x0,4018 <_fflush_r+0x1c>
    4010:	03452783          	lw	x15,52(x10)
    4014:	02078a63          	beq	x15,x0,4048 <_fflush_r+0x4c>
    4018:	00c59783          	lh	x15,12(x11)
    401c:	00079c63          	bne	x15,x0,4034 <_fflush_r+0x38>
    4020:	01c12083          	lw	x1,28(x2)
    4024:	01812403          	lw	x8,24(x2)
    4028:	00000513          	addi	x10,x0,0
    402c:	02010113          	addi	x2,x2,32
    4030:	00008067          	jalr	x0,0(x1)
    4034:	00040513          	addi	x10,x8,0
    4038:	01812403          	lw	x8,24(x2)
    403c:	01c12083          	lw	x1,28(x2)
    4040:	02010113          	addi	x2,x2,32
    4044:	d6dff06f          	jal	x0,3db0 <__sflush_r>
    4048:	00b12623          	sw	x11,12(x2)
    404c:	a34fe0ef          	jal	x1,2280 <__sinit>
    4050:	00c12583          	lw	x11,12(x2)
    4054:	fc5ff06f          	jal	x0,4018 <_fflush_r+0x1c>

00004058 <fflush>:
    4058:	06050063          	beq	x10,x0,40b8 <fflush+0x60>
    405c:	00050593          	addi	x11,x10,0
    4060:	f5c1a503          	lw	x10,-164(x3) # 143ac <_impure_ptr>
    4064:	00050663          	beq	x10,x0,4070 <fflush+0x18>
    4068:	03452783          	lw	x15,52(x10)
    406c:	00078c63          	beq	x15,x0,4084 <fflush+0x2c>
    4070:	00c59783          	lh	x15,12(x11)
    4074:	00079663          	bne	x15,x0,4080 <fflush+0x28>
    4078:	00000513          	addi	x10,x0,0
    407c:	00008067          	jalr	x0,0(x1)
    4080:	d31ff06f          	jal	x0,3db0 <__sflush_r>
    4084:	fe010113          	addi	x2,x2,-32
    4088:	00b12623          	sw	x11,12(x2)
    408c:	00a12423          	sw	x10,8(x2)
    4090:	00112e23          	sw	x1,28(x2)
    4094:	9ecfe0ef          	jal	x1,2280 <__sinit>
    4098:	00c12583          	lw	x11,12(x2)
    409c:	00812503          	lw	x10,8(x2)
    40a0:	00c59783          	lh	x15,12(x11)
    40a4:	02079663          	bne	x15,x0,40d0 <fflush+0x78>
    40a8:	01c12083          	lw	x1,28(x2)
    40ac:	00000513          	addi	x10,x0,0
    40b0:	02010113          	addi	x2,x2,32
    40b4:	00008067          	jalr	x0,0(x1)
    40b8:	00010617          	auipc	x12,0x10
    40bc:	be460613          	addi	x12,x12,-1052 # 13c9c <__sglue>
    40c0:	00000597          	auipc	x11,0x0
    40c4:	f3c58593          	addi	x11,x11,-196 # 3ffc <_fflush_r>
    40c8:	c6018513          	addi	x10,x3,-928 # 140b0 <_impure_data>
    40cc:	ec0ff06f          	jal	x0,378c <_fwalk_sglue>
    40d0:	01c12083          	lw	x1,28(x2)
    40d4:	02010113          	addi	x2,x2,32
    40d8:	cd9ff06f          	jal	x0,3db0 <__sflush_r>

000040dc <__malloc_lock>:
    40dc:	00008067          	jalr	x0,0(x1)

000040e0 <__malloc_unlock>:
    40e0:	00008067          	jalr	x0,0(x1)

000040e4 <__libc_init_array>:
    40e4:	ff010113          	addi	x2,x2,-16
    40e8:	00812423          	sw	x8,8(x2)
    40ec:	01212023          	sw	x18,0(x2)
    40f0:	00010797          	auipc	x15,0x10
    40f4:	b5c78793          	addi	x15,x15,-1188 # 13c4c <__init_array_start>
    40f8:	00010417          	auipc	x8,0x10
    40fc:	b5440413          	addi	x8,x8,-1196 # 13c4c <__init_array_start>
    4100:	00112623          	sw	x1,12(x2)
    4104:	00912223          	sw	x9,4(x2)
    4108:	40878933          	sub	x18,x15,x8
    410c:	02878063          	beq	x15,x8,412c <__libc_init_array+0x48>
    4110:	40295913          	srai	x18,x18,0x2
    4114:	00000493          	addi	x9,x0,0
    4118:	00042783          	lw	x15,0(x8)
    411c:	00148493          	addi	x9,x9,1
    4120:	00440413          	addi	x8,x8,4
    4124:	000780e7          	jalr	x1,0(x15)
    4128:	ff24e8e3          	bltu	x9,x18,4118 <__libc_init_array+0x34>
    412c:	00010797          	auipc	x15,0x10
    4130:	b2478793          	addi	x15,x15,-1244 # 13c50 <IRQ_ID_PRIORITY>
    4134:	00010417          	auipc	x8,0x10
    4138:	b1840413          	addi	x8,x8,-1256 # 13c4c <__init_array_start>
    413c:	40878933          	sub	x18,x15,x8
    4140:	40295913          	srai	x18,x18,0x2
    4144:	00878e63          	beq	x15,x8,4160 <__libc_init_array+0x7c>
    4148:	00000493          	addi	x9,x0,0
    414c:	00042783          	lw	x15,0(x8)
    4150:	00148493          	addi	x9,x9,1
    4154:	00440413          	addi	x8,x8,4
    4158:	000780e7          	jalr	x1,0(x15)
    415c:	ff24e8e3          	bltu	x9,x18,414c <__libc_init_array+0x68>
    4160:	00c12083          	lw	x1,12(x2)
    4164:	00812403          	lw	x8,8(x2)
    4168:	00412483          	lw	x9,4(x2)
    416c:	00012903          	lw	x18,0(x2)
    4170:	01010113          	addi	x2,x2,16
    4174:	00008067          	jalr	x0,0(x1)

00004178 <exit>:
    4178:	ff010113          	addi	x2,x2,-16
    417c:	00000593          	addi	x11,x0,0
    4180:	00812423          	sw	x8,8(x2)
    4184:	00112623          	sw	x1,12(x2)
    4188:	00050413          	addi	x8,x10,0
    418c:	768060ef          	jal	x1,a8f4 <__call_exitprocs>
    4190:	f801a783          	lw	x15,-128(x3) # 143d0 <__stdio_exit_handler>
    4194:	00078463          	beq	x15,x0,419c <exit+0x24>
    4198:	000780e7          	jalr	x1,0(x15)
    419c:	00040513          	addi	x10,x8,0
    41a0:	9abfd0ef          	jal	x1,1b4a <_exit>

000041a4 <atexit>:
    41a4:	00050593          	addi	x11,x10,0
    41a8:	00000693          	addi	x13,x0,0
    41ac:	00000613          	addi	x12,x0,0
    41b0:	00000513          	addi	x10,x0,0
    41b4:	0d50606f          	jal	x0,aa88 <__register_exitproc>

000041b8 <__swsetup_r>:
    41b8:	ff010113          	addi	x2,x2,-16
    41bc:	00812423          	sw	x8,8(x2)
    41c0:	00912223          	sw	x9,4(x2)
    41c4:	00112623          	sw	x1,12(x2)
    41c8:	f5c1a783          	lw	x15,-164(x3) # 143ac <_impure_ptr>
    41cc:	00050493          	addi	x9,x10,0
    41d0:	00058413          	addi	x8,x11,0
    41d4:	00078663          	beq	x15,x0,41e0 <__swsetup_r+0x28>
    41d8:	0347a703          	lw	x14,52(x15)
    41dc:	0e070c63          	beq	x14,x0,42d4 <__swsetup_r+0x11c>
    41e0:	00c41783          	lh	x15,12(x8)
    41e4:	0087f713          	andi	x14,x15,8
    41e8:	06070a63          	beq	x14,x0,425c <__swsetup_r+0xa4>
    41ec:	01042703          	lw	x14,16(x8)
    41f0:	08070663          	beq	x14,x0,427c <__swsetup_r+0xc4>
    41f4:	0017f693          	andi	x13,x15,1
    41f8:	02068863          	beq	x13,x0,4228 <__swsetup_r+0x70>
    41fc:	01442683          	lw	x13,20(x8)
    4200:	00042423          	sw	x0,8(x8)
    4204:	00000513          	addi	x10,x0,0
    4208:	40d006b3          	sub	x13,x0,x13
    420c:	00d42c23          	sw	x13,24(x8)
    4210:	02070a63          	beq	x14,x0,4244 <__swsetup_r+0x8c>
    4214:	00c12083          	lw	x1,12(x2)
    4218:	00812403          	lw	x8,8(x2)
    421c:	00412483          	lw	x9,4(x2)
    4220:	01010113          	addi	x2,x2,16
    4224:	00008067          	jalr	x0,0(x1)
    4228:	0027f693          	andi	x13,x15,2
    422c:	00000613          	addi	x12,x0,0
    4230:	00069463          	bne	x13,x0,4238 <__swsetup_r+0x80>
    4234:	01442603          	lw	x12,20(x8)
    4238:	00c42423          	sw	x12,8(x8)
    423c:	00000513          	addi	x10,x0,0
    4240:	fc071ae3          	bne	x14,x0,4214 <__swsetup_r+0x5c>
    4244:	0807f713          	andi	x14,x15,128
    4248:	fc0706e3          	beq	x14,x0,4214 <__swsetup_r+0x5c>
    424c:	0407e793          	ori	x15,x15,64
    4250:	00f41623          	sh	x15,12(x8)
    4254:	fff00513          	addi	x10,x0,-1
    4258:	fbdff06f          	jal	x0,4214 <__swsetup_r+0x5c>
    425c:	0107f713          	andi	x14,x15,16
    4260:	08070063          	beq	x14,x0,42e0 <__swsetup_r+0x128>
    4264:	0047f713          	andi	x14,x15,4
    4268:	02071c63          	bne	x14,x0,42a0 <__swsetup_r+0xe8>
    426c:	01042703          	lw	x14,16(x8)
    4270:	0087e793          	ori	x15,x15,8
    4274:	00f41623          	sh	x15,12(x8)
    4278:	f6071ee3          	bne	x14,x0,41f4 <__swsetup_r+0x3c>
    427c:	2807f693          	andi	x13,x15,640
    4280:	20000613          	addi	x12,x0,512
    4284:	f6c688e3          	beq	x13,x12,41f4 <__swsetup_r+0x3c>
    4288:	00040593          	addi	x11,x8,0
    428c:	00048513          	addi	x10,x9,0
    4290:	18d060ef          	jal	x1,ac1c <__smakebuf_r>
    4294:	00c41783          	lh	x15,12(x8)
    4298:	01042703          	lw	x14,16(x8)
    429c:	f59ff06f          	jal	x0,41f4 <__swsetup_r+0x3c>
    42a0:	03042583          	lw	x11,48(x8)
    42a4:	00058e63          	beq	x11,x0,42c0 <__swsetup_r+0x108>
    42a8:	04040713          	addi	x14,x8,64
    42ac:	00e58863          	beq	x11,x14,42bc <__swsetup_r+0x104>
    42b0:	00048513          	addi	x10,x9,0
    42b4:	fa9fe0ef          	jal	x1,325c <_free_r>
    42b8:	00c41783          	lh	x15,12(x8)
    42bc:	02042823          	sw	x0,48(x8)
    42c0:	01042703          	lw	x14,16(x8)
    42c4:	fdb7f793          	andi	x15,x15,-37
    42c8:	00042223          	sw	x0,4(x8)
    42cc:	00e42023          	sw	x14,0(x8)
    42d0:	fa1ff06f          	jal	x0,4270 <__swsetup_r+0xb8>
    42d4:	00078513          	addi	x10,x15,0
    42d8:	fa9fd0ef          	jal	x1,2280 <__sinit>
    42dc:	f05ff06f          	jal	x0,41e0 <__swsetup_r+0x28>
    42e0:	00900713          	addi	x14,x0,9
    42e4:	00e4a023          	sw	x14,0(x9)
    42e8:	0407e793          	ori	x15,x15,64
    42ec:	00f41623          	sh	x15,12(x8)
    42f0:	fff00513          	addi	x10,x0,-1
    42f4:	f21ff06f          	jal	x0,4214 <__swsetup_r+0x5c>

000042f8 <__sread>:
    42f8:	ff010113          	addi	x2,x2,-16
    42fc:	00812423          	sw	x8,8(x2)
    4300:	00058413          	addi	x8,x11,0
    4304:	00e59583          	lh	x11,14(x11)
    4308:	00112623          	sw	x1,12(x2)
    430c:	23c070ef          	jal	x1,b548 <_read_r>
    4310:	02054063          	blt	x10,x0,4330 <__sread+0x38>
    4314:	05042783          	lw	x15,80(x8)
    4318:	00c12083          	lw	x1,12(x2)
    431c:	00a787b3          	add	x15,x15,x10
    4320:	04f42823          	sw	x15,80(x8)
    4324:	00812403          	lw	x8,8(x2)
    4328:	01010113          	addi	x2,x2,16
    432c:	00008067          	jalr	x0,0(x1)
    4330:	00c45783          	lhu	x15,12(x8)
    4334:	fffff737          	lui	x14,0xfffff
    4338:	fff70713          	addi	x14,x14,-1 # ffffefff <__heap_end+0xffbfefff>
    433c:	00e7f7b3          	and	x15,x15,x14
    4340:	00c12083          	lw	x1,12(x2)
    4344:	00f41623          	sh	x15,12(x8)
    4348:	00812403          	lw	x8,8(x2)
    434c:	01010113          	addi	x2,x2,16
    4350:	00008067          	jalr	x0,0(x1)

00004354 <__seofread>:
    4354:	00000513          	addi	x10,x0,0
    4358:	00008067          	jalr	x0,0(x1)

0000435c <__swrite>:
    435c:	00c59783          	lh	x15,12(x11)
    4360:	fe010113          	addi	x2,x2,-32
    4364:	00812c23          	sw	x8,24(x2)
    4368:	00912a23          	sw	x9,20(x2)
    436c:	01212823          	sw	x18,16(x2)
    4370:	01312623          	sw	x19,12(x2)
    4374:	00112e23          	sw	x1,28(x2)
    4378:	1007f713          	andi	x14,x15,256
    437c:	00058413          	addi	x8,x11,0
    4380:	00050493          	addi	x9,x10,0
    4384:	00060913          	addi	x18,x12,0
    4388:	00068993          	addi	x19,x13,0
    438c:	04071063          	bne	x14,x0,43cc <__swrite+0x70>
    4390:	fffff737          	lui	x14,0xfffff
    4394:	fff70713          	addi	x14,x14,-1 # ffffefff <__heap_end+0xffbfefff>
    4398:	00e7f7b3          	and	x15,x15,x14
    439c:	00e41583          	lh	x11,14(x8)
    43a0:	00f41623          	sh	x15,12(x8)
    43a4:	01812403          	lw	x8,24(x2)
    43a8:	01c12083          	lw	x1,28(x2)
    43ac:	00098693          	addi	x13,x19,0
    43b0:	00090613          	addi	x12,x18,0
    43b4:	00c12983          	lw	x19,12(x2)
    43b8:	01012903          	lw	x18,16(x2)
    43bc:	00048513          	addi	x10,x9,0
    43c0:	01412483          	lw	x9,20(x2)
    43c4:	02010113          	addi	x2,x2,32
    43c8:	6640606f          	jal	x0,aa2c <_write_r>
    43cc:	00e59583          	lh	x11,14(x11)
    43d0:	00200693          	addi	x13,x0,2
    43d4:	00000613          	addi	x12,x0,0
    43d8:	5c9060ef          	jal	x1,b1a0 <_lseek_r>
    43dc:	00c41783          	lh	x15,12(x8)
    43e0:	fb1ff06f          	jal	x0,4390 <__swrite+0x34>

000043e4 <__sseek>:
    43e4:	ff010113          	addi	x2,x2,-16
    43e8:	00812423          	sw	x8,8(x2)
    43ec:	00058413          	addi	x8,x11,0
    43f0:	00e59583          	lh	x11,14(x11)
    43f4:	00112623          	sw	x1,12(x2)
    43f8:	5a9060ef          	jal	x1,b1a0 <_lseek_r>
    43fc:	fff00793          	addi	x15,x0,-1
    4400:	02f50863          	beq	x10,x15,4430 <__sseek+0x4c>
    4404:	00c45783          	lhu	x15,12(x8)
    4408:	00001737          	lui	x14,0x1
    440c:	00c12083          	lw	x1,12(x2)
    4410:	00e7e7b3          	or	x15,x15,x14
    4414:	01079793          	slli	x15,x15,0x10
    4418:	4107d793          	srai	x15,x15,0x10
    441c:	04a42823          	sw	x10,80(x8)
    4420:	00f41623          	sh	x15,12(x8)
    4424:	00812403          	lw	x8,8(x2)
    4428:	01010113          	addi	x2,x2,16
    442c:	00008067          	jalr	x0,0(x1)
    4430:	00c45783          	lhu	x15,12(x8)
    4434:	fffff737          	lui	x14,0xfffff
    4438:	fff70713          	addi	x14,x14,-1 # ffffefff <__heap_end+0xffbfefff>
    443c:	00e7f7b3          	and	x15,x15,x14
    4440:	01079793          	slli	x15,x15,0x10
    4444:	4107d793          	srai	x15,x15,0x10
    4448:	00c12083          	lw	x1,12(x2)
    444c:	00f41623          	sh	x15,12(x8)
    4450:	00812403          	lw	x8,8(x2)
    4454:	01010113          	addi	x2,x2,16
    4458:	00008067          	jalr	x0,0(x1)

0000445c <__sclose>:
    445c:	00e59583          	lh	x11,14(x11)
    4460:	6c00606f          	jal	x0,ab20 <_close_r>

00004464 <_vfprintf_r>:
    4464:	e3010113          	addi	x2,x2,-464
    4468:	1c112623          	sw	x1,460(x2)
    446c:	1c812423          	sw	x8,456(x2)
    4470:	1d212023          	sw	x18,448(x2)
    4474:	00b12023          	sw	x11,0(x2)
    4478:	00060913          	addi	x18,x12,0
    447c:	00d12623          	sw	x13,12(x2)
    4480:	00050413          	addi	x8,x10,0
    4484:	02a12023          	sw	x10,32(x2)
    4488:	0b0070ef          	jal	x1,b538 <_localeconv_r>
    448c:	00052703          	lw	x14,0(x10)
    4490:	00070513          	addi	x10,x14,0
    4494:	02e12423          	sw	x14,40(x2)
    4498:	8c8ff0ef          	jal	x1,3560 <strlen>
    449c:	02a12223          	sw	x10,36(x2)
    44a0:	0c012823          	sw	x0,208(x2)
    44a4:	0c012a23          	sw	x0,212(x2)
    44a8:	0c012c23          	sw	x0,216(x2)
    44ac:	0c012e23          	sw	x0,220(x2)
    44b0:	00040863          	beq	x8,x0,44c0 <_vfprintf_r+0x5c>
    44b4:	03442703          	lw	x14,52(x8)
    44b8:	00071463          	bne	x14,x0,44c0 <_vfprintf_r+0x5c>
    44bc:	2010106f          	jal	x0,5ebc <_vfprintf_r+0x1a58>
    44c0:	00012783          	lw	x15,0(x2)
    44c4:	00c79703          	lh	x14,12(x15)
    44c8:	01271693          	slli	x13,x14,0x12
    44cc:	0206c663          	blt	x13,x0,44f8 <_vfprintf_r+0x94>
    44d0:	0647a683          	lw	x13,100(x15)
    44d4:	000025b7          	lui	x11,0x2
    44d8:	ffffe637          	lui	x12,0xffffe
    44dc:	00b76733          	or	x14,x14,x11
    44e0:	fff60613          	addi	x12,x12,-1 # ffffdfff <__heap_end+0xffbfdfff>
    44e4:	01071713          	slli	x14,x14,0x10
    44e8:	41075713          	srai	x14,x14,0x10
    44ec:	00c6f6b3          	and	x13,x13,x12
    44f0:	00e79623          	sh	x14,12(x15)
    44f4:	06d7a223          	sw	x13,100(x15)
    44f8:	00877693          	andi	x13,x14,8
    44fc:	30068a63          	beq	x13,x0,4810 <_vfprintf_r+0x3ac>
    4500:	00012783          	lw	x15,0(x2)
    4504:	0107a683          	lw	x13,16(x15)
    4508:	30068463          	beq	x13,x0,4810 <_vfprintf_r+0x3ac>
    450c:	01a77713          	andi	x14,x14,26
    4510:	00a00693          	addi	x13,x0,10
    4514:	32d70263          	beq	x14,x13,4838 <_vfprintf_r+0x3d4>
    4518:	1c912223          	sw	x9,452(x2)
    451c:	1b512a23          	sw	x21,436(x2)
    4520:	1b812423          	sw	x24,424(x2)
    4524:	1ba12023          	sw	x26,416(x2)
    4528:	1b312e23          	sw	x19,444(x2)
    452c:	1b412c23          	sw	x20,440(x2)
    4530:	1b612823          	sw	x22,432(x2)
    4534:	1b712623          	sw	x23,428(x2)
    4538:	1b912223          	sw	x25,420(x2)
    453c:	19b12e23          	sw	x27,412(x2)
    4540:	00090d13          	addi	x26,x18,0
    4544:	000d4703          	lbu	x14,0(x26)
    4548:	0ec10c13          	addi	x24,x2,236
    454c:	0d812223          	sw	x24,196(x2)
    4550:	0c012623          	sw	x0,204(x2)
    4554:	0c012423          	sw	x0,200(x2)
    4558:	00012823          	sw	x0,16(x2)
    455c:	02012623          	sw	x0,44(x2)
    4560:	02012c23          	sw	x0,56(x2)
    4564:	02012a23          	sw	x0,52(x2)
    4568:	04012223          	sw	x0,68(x2)
    456c:	02012e23          	sw	x0,60(x2)
    4570:	00012223          	sw	x0,4(x2)
    4574:	02012a83          	lw	x21,32(x2)
    4578:	01000413          	addi	x8,x0,16
    457c:	000c0493          	addi	x9,x24,0
    4580:	22070863          	beq	x14,x0,47b0 <_vfprintf_r+0x34c>
    4584:	000d0993          	addi	x19,x26,0
    4588:	02500693          	addi	x13,x0,37
    458c:	32d70263          	beq	x14,x13,48b0 <_vfprintf_r+0x44c>
    4590:	0019c703          	lbu	x14,1(x19)
    4594:	00198993          	addi	x19,x19,1
    4598:	fe071ae3          	bne	x14,x0,458c <_vfprintf_r+0x128>
    459c:	41a98933          	sub	x18,x19,x26
    45a0:	21a98863          	beq	x19,x26,47b0 <_vfprintf_r+0x34c>
    45a4:	0cc12683          	lw	x13,204(x2)
    45a8:	0c812703          	lw	x14,200(x2)
    45ac:	01a4a023          	sw	x26,0(x9)
    45b0:	012686b3          	add	x13,x13,x18
    45b4:	00170713          	addi	x14,x14,1
    45b8:	0124a223          	sw	x18,4(x9)
    45bc:	0cd12623          	sw	x13,204(x2)
    45c0:	0ce12423          	sw	x14,200(x2)
    45c4:	00700693          	addi	x13,x0,7
    45c8:	00848493          	addi	x9,x9,8
    45cc:	2ee6ca63          	blt	x13,x14,48c0 <_vfprintf_r+0x45c>
    45d0:	00412783          	lw	x15,4(x2)
    45d4:	0009c703          	lbu	x14,0(x19)
    45d8:	012787b3          	add	x15,x15,x18
    45dc:	00f12223          	sw	x15,4(x2)
    45e0:	1c070863          	beq	x14,x0,47b0 <_vfprintf_r+0x34c>
    45e4:	00000e13          	addi	x28,x0,0
    45e8:	0019c883          	lbu	x17,1(x19)
    45ec:	0a0103a3          	sb	x0,167(x2)
    45f0:	00198993          	addi	x19,x19,1
    45f4:	fff00a13          	addi	x20,x0,-1
    45f8:	00000c93          	addi	x25,x0,0
    45fc:	05a00913          	addi	x18,x0,90
    4600:	000e0b13          	addi	x22,x28,0
    4604:	00198993          	addi	x19,x19,1
    4608:	fe088793          	addi	x15,x17,-32
    460c:	04f96a63          	bltu	x18,x15,4660 <_vfprintf_r+0x1fc>
    4610:	0000f717          	auipc	x14,0xf
    4614:	ea070713          	addi	x14,x14,-352 # 134b0 <no_exception_handler_msg+0xb4>
    4618:	00279793          	slli	x15,x15,0x2
    461c:	00e787b3          	add	x15,x15,x14
    4620:	0007a783          	lw	x15,0(x15)
    4624:	00e787b3          	add	x15,x15,x14
    4628:	00078067          	jalr	x0,0(x15)
    462c:	00000c93          	addi	x25,x0,0
    4630:	fd088793          	addi	x15,x17,-48
    4634:	00900693          	addi	x13,x0,9
    4638:	0009c883          	lbu	x17,0(x19)
    463c:	002c9713          	slli	x14,x25,0x2
    4640:	01970cb3          	add	x25,x14,x25
    4644:	001c9c93          	slli	x25,x25,0x1
    4648:	01978cb3          	add	x25,x15,x25
    464c:	fd088793          	addi	x15,x17,-48
    4650:	00198993          	addi	x19,x19,1
    4654:	fef6f2e3          	bgeu	x13,x15,4638 <_vfprintf_r+0x1d4>
    4658:	fe088793          	addi	x15,x17,-32
    465c:	faf97ae3          	bgeu	x18,x15,4610 <_vfprintf_r+0x1ac>
    4660:	000b0e13          	addi	x28,x22,0
    4664:	14088663          	beq	x17,x0,47b0 <_vfprintf_r+0x34c>
    4668:	13110623          	sb	x17,300(x2)
    466c:	0a0103a3          	sb	x0,167(x2)
    4670:	00100d93          	addi	x27,x0,1
    4674:	00100913          	addi	x18,x0,1
    4678:	12c10d13          	addi	x26,x2,300
    467c:	00012423          	sw	x0,8(x2)
    4680:	00000a13          	addi	x20,x0,0
    4684:	00012e23          	sw	x0,28(x2)
    4688:	00012c23          	sw	x0,24(x2)
    468c:	00012a23          	sw	x0,20(x2)
    4690:	002e7293          	andi	x5,x28,2
    4694:	00028463          	beq	x5,x0,469c <_vfprintf_r+0x238>
    4698:	002d8d93          	addi	x27,x27,2
    469c:	084e7f93          	andi	x31,x28,132
    46a0:	0cc12603          	lw	x12,204(x2)
    46a4:	000f9663          	bne	x31,x0,46b0 <_vfprintf_r+0x24c>
    46a8:	41bc8733          	sub	x14,x25,x27
    46ac:	42e042e3          	blt	x0,x14,52d0 <_vfprintf_r+0xe6c>
    46b0:	0a714703          	lbu	x14,167(x2)
    46b4:	02070a63          	beq	x14,x0,46e8 <_vfprintf_r+0x284>
    46b8:	0c812703          	lw	x14,200(x2)
    46bc:	0a710593          	addi	x11,x2,167
    46c0:	00b4a023          	sw	x11,0(x9)
    46c4:	00160613          	addi	x12,x12,1
    46c8:	00100593          	addi	x11,x0,1
    46cc:	00170713          	addi	x14,x14,1
    46d0:	00b4a223          	sw	x11,4(x9)
    46d4:	0cc12623          	sw	x12,204(x2)
    46d8:	0ce12423          	sw	x14,200(x2)
    46dc:	00700593          	addi	x11,x0,7
    46e0:	00848493          	addi	x9,x9,8
    46e4:	30e5c263          	blt	x11,x14,49e8 <_vfprintf_r+0x584>
    46e8:	02028a63          	beq	x5,x0,471c <_vfprintf_r+0x2b8>
    46ec:	0c812703          	lw	x14,200(x2)
    46f0:	00200593          	addi	x11,x0,2
