
/home/mike/GitHubRepos/openhwgroup/core-v-verif/master/cv32e40p/tests/programs/custom/interrupt_test/interrupt_test.elf:     file format elf32-littleriscv


Disassembly of section .vectors:

00000000 <__vector_start>:
.section .vectors, "ax"
.option norvc
.global vector_table

vector_table:
	j u_sw_irq_handler
   0:	2330106f          	jal	x0,1a32 <u_sw_irq_handler>
	j __no_irq_handler
   4:	1fb0106f          	jal	x0,19fe <__no_irq_handler>
	j __no_irq_handler
   8:	1f70106f          	jal	x0,19fe <__no_irq_handler>
	j m_software_irq_handler
   c:	5ba0006f          	jal	x0,5c6 <m_software_irq_handler>
	j __no_irq_handler
  10:	1ef0106f          	jal	x0,19fe <__no_irq_handler>
	j __no_irq_handler
  14:	1eb0106f          	jal	x0,19fe <__no_irq_handler>
	j __no_irq_handler
  18:	1e70106f          	jal	x0,19fe <__no_irq_handler>
	j m_timer_irq_handler
  1c:	63c0006f          	jal	x0,658 <m_timer_irq_handler>
	j __no_irq_handler
  20:	1df0106f          	jal	x0,19fe <__no_irq_handler>
	j __no_irq_handler
  24:	1db0106f          	jal	x0,19fe <__no_irq_handler>
	j __no_irq_handler
  28:	1d70106f          	jal	x0,19fe <__no_irq_handler>
	j m_external_irq_handler
  2c:	6be0006f          	jal	x0,6ea <m_external_irq_handler>
	j __no_irq_handler
  30:	1cf0106f          	jal	x0,19fe <__no_irq_handler>
	j __no_irq_handler
  34:	1cb0106f          	jal	x0,19fe <__no_irq_handler>
	j __no_irq_handler
  38:	1c70106f          	jal	x0,19fe <__no_irq_handler>
	j __no_irq_handler
  3c:	1c30106f          	jal	x0,19fe <__no_irq_handler>
	j m_fast0_irq_handler
  40:	73c0006f          	jal	x0,77c <m_fast0_irq_handler>
	j m_fast1_irq_handler
  44:	7ca0006f          	jal	x0,80e <m_fast1_irq_handler>
	j m_fast2_irq_handler
  48:	0590006f          	jal	x0,8a0 <m_fast2_irq_handler>
	j m_fast3_irq_handler
  4c:	0e70006f          	jal	x0,932 <m_fast3_irq_handler>
	j m_fast4_irq_handler
  50:	1750006f          	jal	x0,9c4 <m_fast4_irq_handler>
	j m_fast5_irq_handler
  54:	2030006f          	jal	x0,a56 <m_fast5_irq_handler>
	j m_fast6_irq_handler
  58:	2910006f          	jal	x0,ae8 <m_fast6_irq_handler>
	j m_fast7_irq_handler
  5c:	31f0006f          	jal	x0,b7a <m_fast7_irq_handler>
	j m_fast8_irq_handler
  60:	3ad0006f          	jal	x0,c0c <m_fast8_irq_handler>
	j m_fast9_irq_handler
  64:	43d0006f          	jal	x0,ca0 <m_fast9_irq_handler>
	j m_fast10_irq_handler
  68:	4cd0006f          	jal	x0,d34 <m_fast10_irq_handler>
	j m_fast11_irq_handler
  6c:	55d0006f          	jal	x0,dc8 <m_fast11_irq_handler>
	j m_fast12_irq_handler
  70:	5ed0006f          	jal	x0,e5c <m_fast12_irq_handler>
	j m_fast13_irq_handler
  74:	67d0006f          	jal	x0,ef0 <m_fast13_irq_handler>
	j m_fast14_irq_handler
  78:	70d0006f          	jal	x0,f84 <m_fast14_irq_handler>
	j m_fast15_irq_handler
  7c:	79d0006f          	jal	x0,1018 <m_fast15_irq_handler>

Disassembly of section .init:

00000080 <_start>:

_start:
/* initialize global pointer */
.option push
.option norelax
1:	auipc gp, %pcrel_hi(__global_pointer$)
  80:	00014197          	auipc	x3,0x14
	addi  gp, gp, %pcrel_lo(1b)
  84:	3d018193          	addi	x3,x3,976 # 14450 <__global_pointer$>
.option pop

/* initialize stack pointer */
	la sp, __stack_end
  88:	00400117          	auipc	x2,0x400
  8c:	f7810113          	addi	x2,x2,-136 # 400000 <__heap_end>

/* set vector table address */
	la a0, __vector_start
  90:	00000517          	auipc	x10,0x0
  94:	f7050513          	addi	x10,x10,-144 # 0 <__vector_start>
	ori a0, a0, 1 /*vector mode = vectored */
  98:	00156513          	ori	x10,x10,1
	csrw mtvec, a0
  9c:	30551073          	csrrw	x0,mtvec,x10

/* clear the bss segment */
	la a0, _edata
  a0:	f6018513          	addi	x10,x3,-160 # 143b0 <in_direct_handler>
	la a2, _end
  a4:	2d418613          	addi	x12,x3,724 # 14724 <__bss_end>
	sub a2, a2, a0
  a8:	8e09                	c.sub	x12,x10
	li a1, 0
  aa:	4581                	c.li	x11,0
	call memset
  ac:	604030ef          	jal	x1,36b0 <memset>

/* new-style constructors and destructors */
	la a0, __libc_fini_array
  b0:	00003517          	auipc	x10,0x3
  b4:	01850513          	addi	x10,x10,24 # 30c8 <__libc_fini_array>
	call atexit
  b8:	0ec040ef          	jal	x1,41a4 <atexit>
	call __libc_init_array
  bc:	028040ef          	jal	x1,40e4 <__libc_init_array>
//	lw a0, 0(sp)                    /* a0 = argc */
//	addi a1, sp, __SIZEOF_POINTER__ /* a1 = argv */
//	li a2, 0                        /* a2 = envp = NULL */
// Initialize these variables to 0. Cannot use argc or argv
// since the stack is not initialized
	li a0, 0
  c0:	4501                	c.li	x10,0
	li a1, 0
  c2:	4581                	c.li	x11,0
	li a2, 0
  c4:	4601                	c.li	x12,0

	call main
  c6:	282d                	c.jal	100 <main>
	tail exit
  c8:	0b00406f          	jal	x0,4178 <exit>

000000cc <_fini>:
.type   _fini, @function
_init:
_fini:
 /* These don't have to do anything since we use init_array/fini_array. Prevent
    missing symbol error */
	ret
  cc:	8082                	c.jr	x1

Disassembly of section .text:

00000100 <main>:
        "alt_direct_ecall_table:\n"
        "wfi\n"
	    "j u_sw_irq_handler\n"	
    );

int main(int argc, char *argv[]) {
     100:	ff010113          	addi	x2,x2,-16
     104:	00112623          	sw	x1,12(x2)
    int retval;

    // Test 1
    retval = test1();
     108:	16e010ef          	jal	x1,1276 <test1>
    if (retval != EXIT_SUCCESS)
     10c:	04051463          	bne	x10,x0,154 <main+0x54>
        return retval;

    // Test 2
    retval = test2();
     110:	196010ef          	jal	x1,12a6 <test2>
    if (retval != EXIT_SUCCESS)
     114:	04051063          	bne	x10,x0,154 <main+0x54>
        return retval;

    // Test 3
    retval = test3();
     118:	23c010ef          	jal	x1,1354 <test3>
    if (retval != EXIT_SUCCESS)
     11c:	02051c63          	bne	x10,x0,154 <main+0x54>
        return retval;

    // Test 4
    retval = test4();
     120:	390010ef          	jal	x1,14b0 <test4>
    if (retval != EXIT_SUCCESS)
     124:	02051863          	bne	x10,x0,154 <main+0x54>
        return retval;

    // Test 5
    retval = test5();
     128:	51a010ef          	jal	x1,1642 <test5>
    if (retval != EXIT_SUCCESS)
     12c:	02051463          	bne	x10,x0,154 <main+0x54>
        return retval;

    // Test 6
    retval = test6();
     130:	56a010ef          	jal	x1,169a <test6>
    if (retval != EXIT_SUCCESS)
     134:	02051063          	bne	x10,x0,154 <main+0x54>
        return retval;

    // Repeat test1 (restore vector mode)
    retval = test7();
     138:	5ae010ef          	jal	x1,16e6 <test7>
    if (retval != EXIT_SUCCESS)
     13c:	00051c63          	bne	x10,x0,154 <main+0x54>
        return retval;

    // Try to write mcause (for coverage)
    retval = test8();
     140:	5da010ef          	jal	x1,171a <test8>
    if (retval != EXIT_SUCCESS)
     144:	00051863          	bne	x10,x0,154 <main+0x54>
    retval = test9();
    if (retval != EXIT_SUCCESS)
        return retval;

    return EXIT_SUCCESS;
}
     148:	00c12083          	lw	x1,12(x2)
     14c:	01010113          	addi	x2,x2,16
    retval = test9();
     150:	66c0106f          	jal	x0,17bc <test9>
}
     154:	00c12083          	lw	x1,12(x2)
     158:	01010113          	addi	x2,x2,16
     15c:	00008067          	jalr	x0,0(x1)

00000160 <register_fini>:
     160:	00000793          	addi	x15,x0,0
     164:	00078863          	beq	x15,x0,174 <register_fini+0x14>
     168:	00003517          	auipc	x10,0x3
     16c:	f6050513          	addi	x10,x10,-160 # 30c8 <__libc_fini_array>
     170:	0340406f          	jal	x0,41a4 <atexit>
     174:	00008067          	jalr	x0,0(x1)
	...

00000200 <alt_vector_table>:
     200:	0330106f          	jal	x0,1a32 <u_sw_irq_handler>
     204:	7fa0106f          	jal	x0,19fe <__no_irq_handler>
     208:	7f60106f          	jal	x0,19fe <__no_irq_handler>
     20c:	3ba0006f          	jal	x0,5c6 <m_software_irq_handler>
     210:	7ee0106f          	jal	x0,19fe <__no_irq_handler>
     214:	7ea0106f          	jal	x0,19fe <__no_irq_handler>
     218:	7e60106f          	jal	x0,19fe <__no_irq_handler>
     21c:	43c0006f          	jal	x0,658 <m_timer_irq_handler>
     220:	7de0106f          	jal	x0,19fe <__no_irq_handler>
     224:	7da0106f          	jal	x0,19fe <__no_irq_handler>
     228:	7d60106f          	jal	x0,19fe <__no_irq_handler>
     22c:	4be0006f          	jal	x0,6ea <m_external_irq_handler>
     230:	7ce0106f          	jal	x0,19fe <__no_irq_handler>
     234:	7ca0106f          	jal	x0,19fe <__no_irq_handler>
     238:	7c60106f          	jal	x0,19fe <__no_irq_handler>
     23c:	7c20106f          	jal	x0,19fe <__no_irq_handler>
     240:	53c0006f          	jal	x0,77c <m_fast0_irq_handler>
     244:	5ca0006f          	jal	x0,80e <m_fast1_irq_handler>
     248:	6580006f          	jal	x0,8a0 <m_fast2_irq_handler>
     24c:	6e60006f          	jal	x0,932 <m_fast3_irq_handler>
     250:	7740006f          	jal	x0,9c4 <m_fast4_irq_handler>
     254:	0030006f          	jal	x0,a56 <m_fast5_irq_handler>
     258:	0910006f          	jal	x0,ae8 <m_fast6_irq_handler>
     25c:	11f0006f          	jal	x0,b7a <m_fast7_irq_handler>
     260:	1ad0006f          	jal	x0,c0c <m_fast8_irq_handler>
     264:	23d0006f          	jal	x0,ca0 <m_fast9_irq_handler>
     268:	2cd0006f          	jal	x0,d34 <m_fast10_irq_handler>
     26c:	35d0006f          	jal	x0,dc8 <m_fast11_irq_handler>
     270:	3ed0006f          	jal	x0,e5c <m_fast12_irq_handler>
     274:	47d0006f          	jal	x0,ef0 <m_fast13_irq_handler>
     278:	50d0006f          	jal	x0,f84 <m_fast14_irq_handler>
     27c:	59d0006f          	jal	x0,1018 <m_fast15_irq_handler>
     280:	00000013          	addi	x0,x0,0
     284:	00000013          	addi	x0,x0,0
     288:	00000013          	addi	x0,x0,0
     28c:	00000013          	addi	x0,x0,0
     290:	00000013          	addi	x0,x0,0
     294:	00000013          	addi	x0,x0,0
     298:	00000013          	addi	x0,x0,0
     29c:	00000013          	addi	x0,x0,0
     2a0:	00000013          	addi	x0,x0,0
     2a4:	00000013          	addi	x0,x0,0
     2a8:	00000013          	addi	x0,x0,0
     2ac:	00000013          	addi	x0,x0,0
     2b0:	00000013          	addi	x0,x0,0
     2b4:	00000013          	addi	x0,x0,0
     2b8:	00000013          	addi	x0,x0,0
     2bc:	00000013          	addi	x0,x0,0
     2c0:	00000013          	addi	x0,x0,0
     2c4:	00000013          	addi	x0,x0,0
     2c8:	00000013          	addi	x0,x0,0
     2cc:	00000013          	addi	x0,x0,0
     2d0:	00000013          	addi	x0,x0,0
     2d4:	00000013          	addi	x0,x0,0
     2d8:	00000013          	addi	x0,x0,0
     2dc:	00000013          	addi	x0,x0,0
     2e0:	00000013          	addi	x0,x0,0
     2e4:	00000013          	addi	x0,x0,0
     2e8:	00000013          	addi	x0,x0,0
     2ec:	00000013          	addi	x0,x0,0
     2f0:	00000013          	addi	x0,x0,0
     2f4:	00000013          	addi	x0,x0,0
     2f8:	00000013          	addi	x0,x0,0
     2fc:	00000013          	addi	x0,x0,0

00000300 <alt_direct_vector_table>:
     300:	5ad0006f          	jal	x0,10ac <u_sw_direct_irq_handler>
     304:	00000013          	addi	x0,x0,0
     308:	00000013          	addi	x0,x0,0
     30c:	00000013          	addi	x0,x0,0
     310:	00000013          	addi	x0,x0,0
     314:	00000013          	addi	x0,x0,0
     318:	00000013          	addi	x0,x0,0
     31c:	00000013          	addi	x0,x0,0
     320:	00000013          	addi	x0,x0,0
     324:	00000013          	addi	x0,x0,0
     328:	00000013          	addi	x0,x0,0
     32c:	00000013          	addi	x0,x0,0
     330:	00000013          	addi	x0,x0,0
     334:	00000013          	addi	x0,x0,0
     338:	00000013          	addi	x0,x0,0
     33c:	00000013          	addi	x0,x0,0
     340:	00000013          	addi	x0,x0,0
     344:	00000013          	addi	x0,x0,0
     348:	00000013          	addi	x0,x0,0
     34c:	00000013          	addi	x0,x0,0
     350:	00000013          	addi	x0,x0,0
     354:	00000013          	addi	x0,x0,0
     358:	00000013          	addi	x0,x0,0
     35c:	00000013          	addi	x0,x0,0
     360:	00000013          	addi	x0,x0,0
     364:	00000013          	addi	x0,x0,0
     368:	00000013          	addi	x0,x0,0
     36c:	00000013          	addi	x0,x0,0
     370:	00000013          	addi	x0,x0,0
     374:	00000013          	addi	x0,x0,0
     378:	00000013          	addi	x0,x0,0
     37c:	00000013          	addi	x0,x0,0
     380:	00000013          	addi	x0,x0,0
     384:	00000013          	addi	x0,x0,0
     388:	00000013          	addi	x0,x0,0
     38c:	00000013          	addi	x0,x0,0
     390:	00000013          	addi	x0,x0,0
     394:	00000013          	addi	x0,x0,0
     398:	00000013          	addi	x0,x0,0
     39c:	00000013          	addi	x0,x0,0
     3a0:	00000013          	addi	x0,x0,0
     3a4:	00000013          	addi	x0,x0,0
     3a8:	00000013          	addi	x0,x0,0
     3ac:	00000013          	addi	x0,x0,0
     3b0:	00000013          	addi	x0,x0,0
     3b4:	00000013          	addi	x0,x0,0
     3b8:	00000013          	addi	x0,x0,0
     3bc:	00000013          	addi	x0,x0,0
     3c0:	00000013          	addi	x0,x0,0
     3c4:	00000013          	addi	x0,x0,0
     3c8:	00000013          	addi	x0,x0,0
     3cc:	00000013          	addi	x0,x0,0
     3d0:	00000013          	addi	x0,x0,0
     3d4:	00000013          	addi	x0,x0,0
     3d8:	00000013          	addi	x0,x0,0
     3dc:	00000013          	addi	x0,x0,0
     3e0:	00000013          	addi	x0,x0,0
     3e4:	00000013          	addi	x0,x0,0
     3e8:	00000013          	addi	x0,x0,0
     3ec:	00000013          	addi	x0,x0,0
     3f0:	00000013          	addi	x0,x0,0
     3f4:	00000013          	addi	x0,x0,0
     3f8:	00000013          	addi	x0,x0,0
     3fc:	00000013          	addi	x0,x0,0

00000400 <alt_direct_ecall_table>:
     400:	10500073          	wfi
     404:	62e0106f          	jal	x0,1a32 <u_sw_irq_handler>

00000408 <delay>:
void delay(int count) {
     408:	ff010113          	addi	x2,x2,-16
    for (volatile int d = 0; d < count; d++);
     40c:	00012623          	sw	x0,12(x2)
     410:	00c12783          	lw	x15,12(x2)
     414:	00a7c663          	blt	x15,x10,420 <delay+0x18>
}
     418:	01010113          	addi	x2,x2,16
     41c:	00008067          	jalr	x0,0(x1)
    for (volatile int d = 0; d < count; d++);
     420:	00c12783          	lw	x15,12(x2)
     424:	00178793          	addi	x15,x15,1
     428:	00f12623          	sw	x15,12(x2)
     42c:	fe5ff06f          	jal	x0,410 <delay+0x8>

00000430 <mstatus_mie_enable>:
    asm volatile("csrrs x0, mstatus, %0" : : "r" (mie_bit));
     430:	00800793          	addi	x15,x0,8
     434:	3007a073          	csrrs	x0,mstatus,x15
}
     438:	00008067          	jalr	x0,0(x1)

0000043c <mstatus_mie_disable>:
    asm volatile("csrrc x0, mstatus, %0" : : "r" (mie_bit));
     43c:	00800793          	addi	x15,x0,8
     440:	3007b073          	csrrc	x0,mstatus,x15
}
     444:	00008067          	jalr	x0,0(x1)

00000448 <mie_enable_all>:
    asm volatile("csrrs x0, mie, %0" : : "r" (mie_mask));
     448:	fff00793          	addi	x15,x0,-1
     44c:	3047a073          	csrrs	x0,mie,x15
}
     450:	00008067          	jalr	x0,0(x1)

00000454 <mie_disable_all>:
    asm volatile("csrrc x0, mie, %0" : : "r" (mie_mask));
     454:	fff00793          	addi	x15,x0,-1
     458:	3047b073          	csrrc	x0,mie,x15
}
     45c:	00008067          	jalr	x0,0(x1)

00000460 <mie_enable>:
    uint32_t mie_bit = 0x1 << irq;
     460:	00100793          	addi	x15,x0,1
     464:	00a797b3          	sll	x15,x15,x10
    asm volatile("csrrs x0, mie, %0" : : "r" (mie_bit));
     468:	3047a073          	csrrs	x0,mie,x15
}
     46c:	00008067          	jalr	x0,0(x1)

00000470 <mie_disable>:
    uint32_t mie_bit = 0x1 << irq;
     470:	00100793          	addi	x15,x0,1
     474:	00a797b3          	sll	x15,x15,x10
    asm volatile("csrrc x0, mie, %0" : : "r" (mie_bit));
     478:	3047b073          	csrrc	x0,mie,x15
}
     47c:	00008067          	jalr	x0,0(x1)

00000480 <mm_ram_assert_irq>:
    *TIMER_REG_ADDR = mask;
     480:	150007b7          	lui	x15,0x15000
     484:	00a7a023          	sw	x10,0(x15) # 15000000 <__heap_end+0x14c00000>
    *TIMER_VAL_ADDR = 1 + cycle_delay;
     488:	00158593          	addi	x11,x11,1
     48c:	00b7a223          	sw	x11,4(x15)
}
     490:	00008067          	jalr	x0,0(x1)

00000494 <random_num>:
    uint32_t random_num = *((volatile int *)0x15001000);
     494:	150017b7          	lui	x15,0x15001
     498:	0007a703          	lw	x14,0(x15) # 15001000 <__heap_end+0x14c01000>
    uint32_t num = (random_num  % (upper_bound - lower_bound + 1)) + lower_bound;
     49c:	40b507b3          	sub	x15,x10,x11
     4a0:	00178793          	addi	x15,x15,1
     4a4:	02f77533          	remu	x10,x14,x15
}
     4a8:	00b50533          	add	x10,x10,x11
     4ac:	00008067          	jalr	x0,0(x1)

000004b0 <random_num32>:
    uint32_t num = *((volatile int *)0x15001000);
     4b0:	150017b7          	lui	x15,0x15001
     4b4:	0007a503          	lw	x10,0(x15) # 15001000 <__heap_end+0x14c01000>
}
     4b8:	00008067          	jalr	x0,0(x1)

000004bc <nested_irq_handler>:
void nested_irq_handler(uint32_t id) {
     4bc:	ff010113          	addi	x2,x2,-16
    asm volatile("csrr %0, mie" : "=r" (mie));
     4c0:	304027f3          	csrrs	x15,mie,x0
     4c4:	00f12023          	sw	x15,0(x2)
    asm volatile("csrr %0, mepc" :"=r" (mepc));
     4c8:	341027f3          	csrrs	x15,mepc,x0
     4cc:	00f12223          	sw	x15,4(x2)
    asm volatile("csrr %0, mstatus" : "=r" (mstatus));
     4d0:	300027f3          	csrrs	x15,mstatus,x0
     4d4:	00f12423          	sw	x15,8(x2)
    asm volatile("csrrs x0, mstatus, %0" : : "r" (mie_bit));
     4d8:	00800793          	addi	x15,x0,8
     4dc:	3007a073          	csrrs	x0,mstatus,x15
    for (volatile int i = 0; i < 20; i++);
     4e0:	01300713          	addi	x14,x0,19
     4e4:	00012623          	sw	x0,12(x2)
     4e8:	00c12783          	lw	x15,12(x2)
     4ec:	02f75663          	bge	x14,x15,518 <nested_irq_handler+0x5c>
    asm volatile("csrrc x0, mstatus, %0" : : "r" (mie_bit));
     4f0:	00800793          	addi	x15,x0,8
     4f4:	3007b073          	csrrc	x0,mstatus,x15
    asm volatile("csrw mie, %0" : : "r" (mie));
     4f8:	00012783          	lw	x15,0(x2)
     4fc:	30479073          	csrrw	x0,mie,x15
    asm volatile("csrw mepc, %0" : : "r" (mepc));
     500:	00412783          	lw	x15,4(x2)
     504:	34179073          	csrrw	x0,mepc,x15
    asm volatile("csrw mstatus, %0" : : "r" (mstatus));
     508:	00812783          	lw	x15,8(x2)
     50c:	30079073          	csrrw	x0,mstatus,x15
}
     510:	01010113          	addi	x2,x2,16
     514:	00008067          	jalr	x0,0(x1)
    for (volatile int i = 0; i < 20; i++);
     518:	00c12783          	lw	x15,12(x2)
     51c:	00178793          	addi	x15,x15,1
     520:	00f12623          	sw	x15,12(x2)
     524:	fc5ff06f          	jal	x0,4e8 <nested_irq_handler+0x2c>

00000528 <generic_irq_handler>:
    asm volatile("csrr %0, mcause": "=r" (mmcause));
     528:	34202773          	csrrs	x14,mcause,x0
     52c:	f6e1a823          	sw	x14,-144(x3) # 143c0 <mmcause>
    irq_id = id;
     530:	f6a1ac23          	sw	x10,-136(x3) # 143c8 <irq_id>
    if (active_test == 2 || active_test == 3 || active_test == 4) {
     534:	f6c1a683          	lw	x13,-148(x3) # 143bc <active_test>
     538:	00200793          	addi	x15,x0,2
     53c:	00f68e63          	beq	x13,x15,558 <generic_irq_handler+0x30>
     540:	f6c1a683          	lw	x13,-148(x3) # 143bc <active_test>
     544:	00300793          	addi	x15,x0,3
     548:	00f68863          	beq	x13,x15,558 <generic_irq_handler+0x30>
     54c:	f6c1a683          	lw	x13,-148(x3) # 143bc <active_test>
     550:	00400793          	addi	x15,x0,4
     554:	02f69063          	bne	x13,x15,574 <generic_irq_handler+0x4c>
        irq_id_q[irq_id_q_ptr++] = id;
     558:	f741a783          	lw	x15,-140(x3) # 143c4 <irq_id_q_ptr>
     55c:	00178613          	addi	x12,x15,1
     560:	f6c1aa23          	sw	x12,-140(x3) # 143c4 <irq_id_q_ptr>
     564:	00279693          	slli	x13,x15,0x2
     568:	f9818793          	addi	x15,x3,-104 # 143e8 <irq_id_q>
     56c:	00d787b3          	add	x15,x15,x13
     570:	00a7a023          	sw	x10,0(x15)
    if (active_test == 3) {
     574:	f6c1a703          	lw	x14,-148(x3) # 143bc <active_test>
     578:	00300793          	addi	x15,x0,3
     57c:	04f71363          	bne	x14,x15,5c2 <generic_irq_handler+0x9a>
        if (nested_irq_valid) {
     580:	f641a703          	lw	x14,-156(x3) # 143b4 <nested_irq_valid>
     584:	02070e63          	beq	x14,x0,5c0 <generic_irq_handler+0x98>
            nested_irq_valid = 0;
     588:	f601a223          	sw	x0,-156(x3) # 143b4 <nested_irq_valid>
            mm_ram_assert_irq(0x1 << nested_irq, random_num(10,0));
     58c:	f681a783          	lw	x15,-152(x3) # 143b8 <nested_irq>
     590:	00100713          	addi	x14,x0,1
    *TIMER_REG_ADDR = mask;
     594:	150006b7          	lui	x13,0x15000
            mm_ram_assert_irq(0x1 << nested_irq, random_num(10,0));
     598:	00f71733          	sll	x14,x14,x15
    uint32_t random_num = *((volatile int *)0x15001000);
     59c:	150017b7          	lui	x15,0x15001
     5a0:	0007a783          	lw	x15,0(x15) # 15001000 <__heap_end+0x14c01000>
    *TIMER_REG_ADDR = mask;
     5a4:	00e6a023          	sw	x14,0(x13) # 15000000 <__heap_end+0x14c00000>
    uint32_t num = (random_num  % (upper_bound - lower_bound + 1)) + lower_bound;
     5a8:	00b00713          	addi	x14,x0,11
     5ac:	02e7f7b3          	remu	x15,x15,x14
    *TIMER_VAL_ADDR = 1 + cycle_delay;
     5b0:	15000737          	lui	x14,0x15000
     5b4:	00470713          	addi	x14,x14,4 # 15000004 <__heap_end+0x14c00004>
     5b8:	00178793          	addi	x15,x15,1
     5bc:	00f72023          	sw	x15,0(x14)
        nested_irq_handler(id);
     5c0:	bdf5                	.insn	2, 0xbdf5
}
     5c2:	00008067          	jalr	x0,0(x1)

000005c6 <m_software_irq_handler>:
void m_software_irq_handler(void) { generic_irq_handler(SOFTWARE_IRQ_ID); }
     5c6:	fc010113          	addi	x2,x2,-64
     5ca:	02a12623          	sw	x10,44(x2)
     5ce:	00300513          	addi	x10,x0,3
     5d2:	02112e23          	sw	x1,60(x2)
     5d6:	02512c23          	sw	x5,56(x2)
     5da:	02612a23          	sw	x6,52(x2)
     5de:	02712823          	sw	x7,48(x2)
     5e2:	02b12423          	sw	x11,40(x2)
     5e6:	02c12223          	sw	x12,36(x2)
     5ea:	02d12023          	sw	x13,32(x2)
     5ee:	00e12e23          	sw	x14,28(x2)
     5f2:	00f12c23          	sw	x15,24(x2)
     5f6:	01012a23          	sw	x16,20(x2)
     5fa:	01112823          	sw	x17,16(x2)
     5fe:	01c12623          	sw	x28,12(x2)
     602:	01d12423          	sw	x29,8(x2)
     606:	01e12223          	sw	x30,4(x2)
     60a:	01f12023          	sw	x31,0(x2)
     60e:	3f29                	.insn	2, 0x3f29
     610:	03c12083          	lw	x1,60(x2)
     614:	03812283          	lw	x5,56(x2)
     618:	03412303          	lw	x6,52(x2)
     61c:	03012383          	lw	x7,48(x2)
     620:	02c12503          	lw	x10,44(x2)
     624:	02812583          	lw	x11,40(x2)
     628:	02412603          	lw	x12,36(x2)
     62c:	02012683          	lw	x13,32(x2)
     630:	01c12703          	lw	x14,28(x2)
     634:	01812783          	lw	x15,24(x2)
     638:	01412803          	lw	x16,20(x2)
     63c:	01012883          	lw	x17,16(x2)
     640:	00c12e03          	lw	x28,12(x2)
     644:	00812e83          	lw	x29,8(x2)
     648:	00412f03          	lw	x30,4(x2)
     64c:	00012f83          	lw	x31,0(x2)
     650:	04010113          	addi	x2,x2,64
     654:	30200073          	mret

00000658 <m_timer_irq_handler>:
void m_timer_irq_handler(void) { generic_irq_handler(TIMER_IRQ_ID); }
     658:	fc010113          	addi	x2,x2,-64
     65c:	02a12623          	sw	x10,44(x2)
     660:	00700513          	addi	x10,x0,7
     664:	02112e23          	sw	x1,60(x2)
     668:	02512c23          	sw	x5,56(x2)
     66c:	02612a23          	sw	x6,52(x2)
     670:	02712823          	sw	x7,48(x2)
     674:	02b12423          	sw	x11,40(x2)
     678:	02c12223          	sw	x12,36(x2)
     67c:	02d12023          	sw	x13,32(x2)
     680:	00e12e23          	sw	x14,28(x2)
     684:	00f12c23          	sw	x15,24(x2)
     688:	01012a23          	sw	x16,20(x2)
     68c:	01112823          	sw	x17,16(x2)
     690:	01c12623          	sw	x28,12(x2)
     694:	01d12423          	sw	x29,8(x2)
     698:	01e12223          	sw	x30,4(x2)
     69c:	01f12023          	sw	x31,0(x2)
     6a0:	3561                	.insn	2, 0x3561
     6a2:	03c12083          	lw	x1,60(x2)
     6a6:	03812283          	lw	x5,56(x2)
     6aa:	03412303          	lw	x6,52(x2)
     6ae:	03012383          	lw	x7,48(x2)
     6b2:	02c12503          	lw	x10,44(x2)
     6b6:	02812583          	lw	x11,40(x2)
     6ba:	02412603          	lw	x12,36(x2)
     6be:	02012683          	lw	x13,32(x2)
     6c2:	01c12703          	lw	x14,28(x2)
     6c6:	01812783          	lw	x15,24(x2)
     6ca:	01412803          	lw	x16,20(x2)
     6ce:	01012883          	lw	x17,16(x2)
     6d2:	00c12e03          	lw	x28,12(x2)
     6d6:	00812e83          	lw	x29,8(x2)
     6da:	00412f03          	lw	x30,4(x2)
     6de:	00012f83          	lw	x31,0(x2)
     6e2:	04010113          	addi	x2,x2,64
     6e6:	30200073          	mret

000006ea <m_external_irq_handler>:
void m_external_irq_handler(void) { generic_irq_handler(EXTERNAL_IRQ_ID); }
     6ea:	fc010113          	addi	x2,x2,-64
     6ee:	02a12623          	sw	x10,44(x2)
     6f2:	00b00513          	addi	x10,x0,11
     6f6:	02112e23          	sw	x1,60(x2)
     6fa:	02512c23          	sw	x5,56(x2)
     6fe:	02612a23          	sw	x6,52(x2)
     702:	02712823          	sw	x7,48(x2)
     706:	02b12423          	sw	x11,40(x2)
     70a:	02c12223          	sw	x12,36(x2)
     70e:	02d12023          	sw	x13,32(x2)
     712:	00e12e23          	sw	x14,28(x2)
     716:	00f12c23          	sw	x15,24(x2)
     71a:	01012a23          	sw	x16,20(x2)
     71e:	01112823          	sw	x17,16(x2)
     722:	01c12623          	sw	x28,12(x2)
     726:	01d12423          	sw	x29,8(x2)
     72a:	01e12223          	sw	x30,4(x2)
     72e:	01f12023          	sw	x31,0(x2)
     732:	3bdd                	.insn	2, 0x3bdd
     734:	03c12083          	lw	x1,60(x2)
     738:	03812283          	lw	x5,56(x2)
     73c:	03412303          	lw	x6,52(x2)
     740:	03012383          	lw	x7,48(x2)
     744:	02c12503          	lw	x10,44(x2)
     748:	02812583          	lw	x11,40(x2)
     74c:	02412603          	lw	x12,36(x2)
     750:	02012683          	lw	x13,32(x2)
     754:	01c12703          	lw	x14,28(x2)
     758:	01812783          	lw	x15,24(x2)
     75c:	01412803          	lw	x16,20(x2)
     760:	01012883          	lw	x17,16(x2)
     764:	00c12e03          	lw	x28,12(x2)
     768:	00812e83          	lw	x29,8(x2)
     76c:	00412f03          	lw	x30,4(x2)
     770:	00012f83          	lw	x31,0(x2)
     774:	04010113          	addi	x2,x2,64
     778:	30200073          	mret

0000077c <m_fast0_irq_handler>:
void m_fast0_irq_handler(void) { generic_irq_handler(FAST0_IRQ_ID); }
     77c:	fc010113          	addi	x2,x2,-64
     780:	02a12623          	sw	x10,44(x2)
     784:	01000513          	addi	x10,x0,16
     788:	02112e23          	sw	x1,60(x2)
     78c:	02512c23          	sw	x5,56(x2)
     790:	02612a23          	sw	x6,52(x2)
     794:	02712823          	sw	x7,48(x2)
     798:	02b12423          	sw	x11,40(x2)
     79c:	02c12223          	sw	x12,36(x2)
     7a0:	02d12023          	sw	x13,32(x2)
     7a4:	00e12e23          	sw	x14,28(x2)
     7a8:	00f12c23          	sw	x15,24(x2)
     7ac:	01012a23          	sw	x16,20(x2)
     7b0:	01112823          	sw	x17,16(x2)
     7b4:	01c12623          	sw	x28,12(x2)
     7b8:	01d12423          	sw	x29,8(x2)
     7bc:	01e12223          	sw	x30,4(x2)
     7c0:	01f12023          	sw	x31,0(x2)
     7c4:	3395                	.insn	2, 0x3395
     7c6:	03c12083          	lw	x1,60(x2)
     7ca:	03812283          	lw	x5,56(x2)
     7ce:	03412303          	lw	x6,52(x2)
     7d2:	03012383          	lw	x7,48(x2)
     7d6:	02c12503          	lw	x10,44(x2)
     7da:	02812583          	lw	x11,40(x2)
     7de:	02412603          	lw	x12,36(x2)
     7e2:	02012683          	lw	x13,32(x2)
     7e6:	01c12703          	lw	x14,28(x2)
     7ea:	01812783          	lw	x15,24(x2)
     7ee:	01412803          	lw	x16,20(x2)
     7f2:	01012883          	lw	x17,16(x2)
     7f6:	00c12e03          	lw	x28,12(x2)
     7fa:	00812e83          	lw	x29,8(x2)
     7fe:	00412f03          	lw	x30,4(x2)
     802:	00012f83          	lw	x31,0(x2)
     806:	04010113          	addi	x2,x2,64
     80a:	30200073          	mret

0000080e <m_fast1_irq_handler>:
void m_fast1_irq_handler(void) { generic_irq_handler(FAST1_IRQ_ID); }
     80e:	fc010113          	addi	x2,x2,-64
     812:	02a12623          	sw	x10,44(x2)
     816:	01100513          	addi	x10,x0,17
     81a:	02112e23          	sw	x1,60(x2)
     81e:	02512c23          	sw	x5,56(x2)
     822:	02612a23          	sw	x6,52(x2)
     826:	02712823          	sw	x7,48(x2)
     82a:	02b12423          	sw	x11,40(x2)
     82e:	02c12223          	sw	x12,36(x2)
     832:	02d12023          	sw	x13,32(x2)
     836:	00e12e23          	sw	x14,28(x2)
     83a:	00f12c23          	sw	x15,24(x2)
     83e:	01012a23          	sw	x16,20(x2)
     842:	01112823          	sw	x17,16(x2)
     846:	01c12623          	sw	x28,12(x2)
     84a:	01d12423          	sw	x29,8(x2)
     84e:	01e12223          	sw	x30,4(x2)
     852:	01f12023          	sw	x31,0(x2)
     856:	39c9                	.insn	2, 0x39c9
     858:	03c12083          	lw	x1,60(x2)
     85c:	03812283          	lw	x5,56(x2)
     860:	03412303          	lw	x6,52(x2)
     864:	03012383          	lw	x7,48(x2)
     868:	02c12503          	lw	x10,44(x2)
     86c:	02812583          	lw	x11,40(x2)
     870:	02412603          	lw	x12,36(x2)
     874:	02012683          	lw	x13,32(x2)
     878:	01c12703          	lw	x14,28(x2)
     87c:	01812783          	lw	x15,24(x2)
     880:	01412803          	lw	x16,20(x2)
     884:	01012883          	lw	x17,16(x2)
     888:	00c12e03          	lw	x28,12(x2)
     88c:	00812e83          	lw	x29,8(x2)
     890:	00412f03          	lw	x30,4(x2)
     894:	00012f83          	lw	x31,0(x2)
     898:	04010113          	addi	x2,x2,64
     89c:	30200073          	mret

000008a0 <m_fast2_irq_handler>:
void m_fast2_irq_handler(void) { generic_irq_handler(FAST2_IRQ_ID); }
     8a0:	fc010113          	addi	x2,x2,-64
     8a4:	02a12623          	sw	x10,44(x2)
     8a8:	01200513          	addi	x10,x0,18
     8ac:	02112e23          	sw	x1,60(x2)
     8b0:	02512c23          	sw	x5,56(x2)
     8b4:	02612a23          	sw	x6,52(x2)
     8b8:	02712823          	sw	x7,48(x2)
     8bc:	02b12423          	sw	x11,40(x2)
     8c0:	02c12223          	sw	x12,36(x2)
     8c4:	02d12023          	sw	x13,32(x2)
     8c8:	00e12e23          	sw	x14,28(x2)
     8cc:	00f12c23          	sw	x15,24(x2)
     8d0:	01012a23          	sw	x16,20(x2)
     8d4:	01112823          	sw	x17,16(x2)
     8d8:	01c12623          	sw	x28,12(x2)
     8dc:	01d12423          	sw	x29,8(x2)
     8e0:	01e12223          	sw	x30,4(x2)
     8e4:	01f12023          	sw	x31,0(x2)
     8e8:	3181                	.insn	2, 0x3181
     8ea:	03c12083          	lw	x1,60(x2)
     8ee:	03812283          	lw	x5,56(x2)
     8f2:	03412303          	lw	x6,52(x2)
     8f6:	03012383          	lw	x7,48(x2)
     8fa:	02c12503          	lw	x10,44(x2)
     8fe:	02812583          	lw	x11,40(x2)
     902:	02412603          	lw	x12,36(x2)
     906:	02012683          	lw	x13,32(x2)
     90a:	01c12703          	lw	x14,28(x2)
     90e:	01812783          	lw	x15,24(x2)
     912:	01412803          	lw	x16,20(x2)
     916:	01012883          	lw	x17,16(x2)
     91a:	00c12e03          	lw	x28,12(x2)
     91e:	00812e83          	lw	x29,8(x2)
     922:	00412f03          	lw	x30,4(x2)
     926:	00012f83          	lw	x31,0(x2)
     92a:	04010113          	addi	x2,x2,64
     92e:	30200073          	mret

00000932 <m_fast3_irq_handler>:
void m_fast3_irq_handler(void) { generic_irq_handler(FAST3_IRQ_ID); }
     932:	fc010113          	addi	x2,x2,-64
     936:	02a12623          	sw	x10,44(x2)
     93a:	01300513          	addi	x10,x0,19
     93e:	02112e23          	sw	x1,60(x2)
     942:	02512c23          	sw	x5,56(x2)
     946:	02612a23          	sw	x6,52(x2)
     94a:	02712823          	sw	x7,48(x2)
     94e:	02b12423          	sw	x11,40(x2)
     952:	02c12223          	sw	x12,36(x2)
     956:	02d12023          	sw	x13,32(x2)
     95a:	00e12e23          	sw	x14,28(x2)
     95e:	00f12c23          	sw	x15,24(x2)
     962:	01012a23          	sw	x16,20(x2)
     966:	01112823          	sw	x17,16(x2)
     96a:	01c12623          	sw	x28,12(x2)
     96e:	01d12423          	sw	x29,8(x2)
     972:	01e12223          	sw	x30,4(x2)
     976:	01f12023          	sw	x31,0(x2)
     97a:	367d                	.insn	2, 0x367d
     97c:	03c12083          	lw	x1,60(x2)
     980:	03812283          	lw	x5,56(x2)
     984:	03412303          	lw	x6,52(x2)
     988:	03012383          	lw	x7,48(x2)
     98c:	02c12503          	lw	x10,44(x2)
     990:	02812583          	lw	x11,40(x2)
     994:	02412603          	lw	x12,36(x2)
     998:	02012683          	lw	x13,32(x2)
     99c:	01c12703          	lw	x14,28(x2)
     9a0:	01812783          	lw	x15,24(x2)
     9a4:	01412803          	lw	x16,20(x2)
     9a8:	01012883          	lw	x17,16(x2)
     9ac:	00c12e03          	lw	x28,12(x2)
     9b0:	00812e83          	lw	x29,8(x2)
     9b4:	00412f03          	lw	x30,4(x2)
     9b8:	00012f83          	lw	x31,0(x2)
     9bc:	04010113          	addi	x2,x2,64
     9c0:	30200073          	mret

000009c4 <m_fast4_irq_handler>:
void m_fast4_irq_handler(void) { generic_irq_handler(FAST4_IRQ_ID); }
     9c4:	fc010113          	addi	x2,x2,-64
     9c8:	02a12623          	sw	x10,44(x2)
     9cc:	01400513          	addi	x10,x0,20
     9d0:	02112e23          	sw	x1,60(x2)
     9d4:	02512c23          	sw	x5,56(x2)
     9d8:	02612a23          	sw	x6,52(x2)
     9dc:	02712823          	sw	x7,48(x2)
     9e0:	02b12423          	sw	x11,40(x2)
     9e4:	02c12223          	sw	x12,36(x2)
     9e8:	02d12023          	sw	x13,32(x2)
     9ec:	00e12e23          	sw	x14,28(x2)
     9f0:	00f12c23          	sw	x15,24(x2)
     9f4:	01012a23          	sw	x16,20(x2)
     9f8:	01112823          	sw	x17,16(x2)
     9fc:	01c12623          	sw	x28,12(x2)
     a00:	01d12423          	sw	x29,8(x2)
     a04:	01e12223          	sw	x30,4(x2)
     a08:	01f12023          	sw	x31,0(x2)
     a0c:	3e31                	.insn	2, 0x3e31
     a0e:	03c12083          	lw	x1,60(x2)
     a12:	03812283          	lw	x5,56(x2)
     a16:	03412303          	lw	x6,52(x2)
     a1a:	03012383          	lw	x7,48(x2)
     a1e:	02c12503          	lw	x10,44(x2)
     a22:	02812583          	lw	x11,40(x2)
     a26:	02412603          	lw	x12,36(x2)
     a2a:	02012683          	lw	x13,32(x2)
     a2e:	01c12703          	lw	x14,28(x2)
     a32:	01812783          	lw	x15,24(x2)
     a36:	01412803          	lw	x16,20(x2)
     a3a:	01012883          	lw	x17,16(x2)
     a3e:	00c12e03          	lw	x28,12(x2)
     a42:	00812e83          	lw	x29,8(x2)
     a46:	00412f03          	lw	x30,4(x2)
     a4a:	00012f83          	lw	x31,0(x2)
     a4e:	04010113          	addi	x2,x2,64
     a52:	30200073          	mret

00000a56 <m_fast5_irq_handler>:
void m_fast5_irq_handler(void) { generic_irq_handler(FAST5_IRQ_ID); }
     a56:	fc010113          	addi	x2,x2,-64
     a5a:	02a12623          	sw	x10,44(x2)
     a5e:	01500513          	addi	x10,x0,21
     a62:	02112e23          	sw	x1,60(x2)
     a66:	02512c23          	sw	x5,56(x2)
     a6a:	02612a23          	sw	x6,52(x2)
     a6e:	02712823          	sw	x7,48(x2)
     a72:	02b12423          	sw	x11,40(x2)
     a76:	02c12223          	sw	x12,36(x2)
     a7a:	02d12023          	sw	x13,32(x2)
     a7e:	00e12e23          	sw	x14,28(x2)
     a82:	00f12c23          	sw	x15,24(x2)
     a86:	01012a23          	sw	x16,20(x2)
     a8a:	01112823          	sw	x17,16(x2)
     a8e:	01c12623          	sw	x28,12(x2)
     a92:	01d12423          	sw	x29,8(x2)
     a96:	01e12223          	sw	x30,4(x2)
     a9a:	01f12023          	sw	x31,0(x2)
     a9e:	3469                	.insn	2, 0x3469
     aa0:	03c12083          	lw	x1,60(x2)
     aa4:	03812283          	lw	x5,56(x2)
     aa8:	03412303          	lw	x6,52(x2)
     aac:	03012383          	lw	x7,48(x2)
     ab0:	02c12503          	lw	x10,44(x2)
     ab4:	02812583          	lw	x11,40(x2)
     ab8:	02412603          	lw	x12,36(x2)
     abc:	02012683          	lw	x13,32(x2)
     ac0:	01c12703          	lw	x14,28(x2)
     ac4:	01812783          	lw	x15,24(x2)
     ac8:	01412803          	lw	x16,20(x2)
     acc:	01012883          	lw	x17,16(x2)
     ad0:	00c12e03          	lw	x28,12(x2)
     ad4:	00812e83          	lw	x29,8(x2)
     ad8:	00412f03          	lw	x30,4(x2)
     adc:	00012f83          	lw	x31,0(x2)
     ae0:	04010113          	addi	x2,x2,64
     ae4:	30200073          	mret

00000ae8 <m_fast6_irq_handler>:
void m_fast6_irq_handler(void) { generic_irq_handler(FAST6_IRQ_ID); }
     ae8:	fc010113          	addi	x2,x2,-64
     aec:	02a12623          	sw	x10,44(x2)
     af0:	01600513          	addi	x10,x0,22
     af4:	02112e23          	sw	x1,60(x2)
     af8:	02512c23          	sw	x5,56(x2)
     afc:	02612a23          	sw	x6,52(x2)
     b00:	02712823          	sw	x7,48(x2)
     b04:	02b12423          	sw	x11,40(x2)
     b08:	02c12223          	sw	x12,36(x2)
     b0c:	02d12023          	sw	x13,32(x2)
     b10:	00e12e23          	sw	x14,28(x2)
     b14:	00f12c23          	sw	x15,24(x2)
     b18:	01012a23          	sw	x16,20(x2)
     b1c:	01112823          	sw	x17,16(x2)
     b20:	01c12623          	sw	x28,12(x2)
     b24:	01d12423          	sw	x29,8(x2)
     b28:	01e12223          	sw	x30,4(x2)
     b2c:	01f12023          	sw	x31,0(x2)
     b30:	3ae5                	.insn	2, 0x3ae5
     b32:	03c12083          	lw	x1,60(x2)
     b36:	03812283          	lw	x5,56(x2)
     b3a:	03412303          	lw	x6,52(x2)
     b3e:	03012383          	lw	x7,48(x2)
     b42:	02c12503          	lw	x10,44(x2)
     b46:	02812583          	lw	x11,40(x2)
     b4a:	02412603          	lw	x12,36(x2)
     b4e:	02012683          	lw	x13,32(x2)
     b52:	01c12703          	lw	x14,28(x2)
     b56:	01812783          	lw	x15,24(x2)
     b5a:	01412803          	lw	x16,20(x2)
     b5e:	01012883          	lw	x17,16(x2)
     b62:	00c12e03          	lw	x28,12(x2)
     b66:	00812e83          	lw	x29,8(x2)
     b6a:	00412f03          	lw	x30,4(x2)
     b6e:	00012f83          	lw	x31,0(x2)
     b72:	04010113          	addi	x2,x2,64
     b76:	30200073          	mret

00000b7a <m_fast7_irq_handler>:
void m_fast7_irq_handler(void) { generic_irq_handler(FAST7_IRQ_ID); }
     b7a:	fc010113          	addi	x2,x2,-64
     b7e:	02a12623          	sw	x10,44(x2)
     b82:	01700513          	addi	x10,x0,23
     b86:	02112e23          	sw	x1,60(x2)
     b8a:	02512c23          	sw	x5,56(x2)
     b8e:	02612a23          	sw	x6,52(x2)
     b92:	02712823          	sw	x7,48(x2)
     b96:	02b12423          	sw	x11,40(x2)
     b9a:	02c12223          	sw	x12,36(x2)
     b9e:	02d12023          	sw	x13,32(x2)
     ba2:	00e12e23          	sw	x14,28(x2)
     ba6:	00f12c23          	sw	x15,24(x2)
     baa:	01012a23          	sw	x16,20(x2)
     bae:	01112823          	sw	x17,16(x2)
     bb2:	01c12623          	sw	x28,12(x2)
     bb6:	01d12423          	sw	x29,8(x2)
     bba:	01e12223          	sw	x30,4(x2)
     bbe:	01f12023          	sw	x31,0(x2)
     bc2:	329d                	.insn	2, 0x329d
     bc4:	03c12083          	lw	x1,60(x2)
     bc8:	03812283          	lw	x5,56(x2)
     bcc:	03412303          	lw	x6,52(x2)
     bd0:	03012383          	lw	x7,48(x2)
     bd4:	02c12503          	lw	x10,44(x2)
     bd8:	02812583          	lw	x11,40(x2)
     bdc:	02412603          	lw	x12,36(x2)
     be0:	02012683          	lw	x13,32(x2)
     be4:	01c12703          	lw	x14,28(x2)
     be8:	01812783          	lw	x15,24(x2)
     bec:	01412803          	lw	x16,20(x2)
     bf0:	01012883          	lw	x17,16(x2)
     bf4:	00c12e03          	lw	x28,12(x2)
     bf8:	00812e83          	lw	x29,8(x2)
     bfc:	00412f03          	lw	x30,4(x2)
     c00:	00012f83          	lw	x31,0(x2)
     c04:	04010113          	addi	x2,x2,64
     c08:	30200073          	mret

00000c0c <m_fast8_irq_handler>:
void m_fast8_irq_handler(void) { generic_irq_handler(FAST8_IRQ_ID); }
     c0c:	fc010113          	addi	x2,x2,-64
     c10:	02a12623          	sw	x10,44(x2)
     c14:	01800513          	addi	x10,x0,24
     c18:	02112e23          	sw	x1,60(x2)
     c1c:	02512c23          	sw	x5,56(x2)
     c20:	02612a23          	sw	x6,52(x2)
     c24:	02712823          	sw	x7,48(x2)
     c28:	02b12423          	sw	x11,40(x2)
     c2c:	02c12223          	sw	x12,36(x2)
     c30:	02d12023          	sw	x13,32(x2)
     c34:	00e12e23          	sw	x14,28(x2)
     c38:	00f12c23          	sw	x15,24(x2)
     c3c:	01012a23          	sw	x16,20(x2)
     c40:	01112823          	sw	x17,16(x2)
     c44:	01c12623          	sw	x28,12(x2)
     c48:	01d12423          	sw	x29,8(x2)
     c4c:	01e12223          	sw	x30,4(x2)
     c50:	01f12023          	sw	x31,0(x2)
     c54:	8d5ff0ef          	jal	x1,528 <generic_irq_handler>
     c58:	03c12083          	lw	x1,60(x2)
     c5c:	03812283          	lw	x5,56(x2)
     c60:	03412303          	lw	x6,52(x2)
     c64:	03012383          	lw	x7,48(x2)
     c68:	02c12503          	lw	x10,44(x2)
     c6c:	02812583          	lw	x11,40(x2)
     c70:	02412603          	lw	x12,36(x2)
     c74:	02012683          	lw	x13,32(x2)
     c78:	01c12703          	lw	x14,28(x2)
     c7c:	01812783          	lw	x15,24(x2)
     c80:	01412803          	lw	x16,20(x2)
     c84:	01012883          	lw	x17,16(x2)
     c88:	00c12e03          	lw	x28,12(x2)
     c8c:	00812e83          	lw	x29,8(x2)
     c90:	00412f03          	lw	x30,4(x2)
     c94:	00012f83          	lw	x31,0(x2)
     c98:	04010113          	addi	x2,x2,64
     c9c:	30200073          	mret

00000ca0 <m_fast9_irq_handler>:
void m_fast9_irq_handler(void) { generic_irq_handler(FAST9_IRQ_ID); }
     ca0:	fc010113          	addi	x2,x2,-64
     ca4:	02a12623          	sw	x10,44(x2)
     ca8:	01900513          	addi	x10,x0,25
     cac:	02112e23          	sw	x1,60(x2)
     cb0:	02512c23          	sw	x5,56(x2)
     cb4:	02612a23          	sw	x6,52(x2)
     cb8:	02712823          	sw	x7,48(x2)
     cbc:	02b12423          	sw	x11,40(x2)
     cc0:	02c12223          	sw	x12,36(x2)
     cc4:	02d12023          	sw	x13,32(x2)
     cc8:	00e12e23          	sw	x14,28(x2)
     ccc:	00f12c23          	sw	x15,24(x2)
     cd0:	01012a23          	sw	x16,20(x2)
     cd4:	01112823          	sw	x17,16(x2)
     cd8:	01c12623          	sw	x28,12(x2)
     cdc:	01d12423          	sw	x29,8(x2)
     ce0:	01e12223          	sw	x30,4(x2)
     ce4:	01f12023          	sw	x31,0(x2)
     ce8:	841ff0ef          	jal	x1,528 <generic_irq_handler>
     cec:	03c12083          	lw	x1,60(x2)
     cf0:	03812283          	lw	x5,56(x2)
     cf4:	03412303          	lw	x6,52(x2)
     cf8:	03012383          	lw	x7,48(x2)
     cfc:	02c12503          	lw	x10,44(x2)
     d00:	02812583          	lw	x11,40(x2)
     d04:	02412603          	lw	x12,36(x2)
     d08:	02012683          	lw	x13,32(x2)
     d0c:	01c12703          	lw	x14,28(x2)
     d10:	01812783          	lw	x15,24(x2)
     d14:	01412803          	lw	x16,20(x2)
     d18:	01012883          	lw	x17,16(x2)
     d1c:	00c12e03          	lw	x28,12(x2)
     d20:	00812e83          	lw	x29,8(x2)
     d24:	00412f03          	lw	x30,4(x2)
     d28:	00012f83          	lw	x31,0(x2)
     d2c:	04010113          	addi	x2,x2,64
     d30:	30200073          	mret

00000d34 <m_fast10_irq_handler>:
void m_fast10_irq_handler(void) { generic_irq_handler(FAST10_IRQ_ID); }
     d34:	fc010113          	addi	x2,x2,-64
     d38:	02a12623          	sw	x10,44(x2)
     d3c:	01a00513          	addi	x10,x0,26
     d40:	02112e23          	sw	x1,60(x2)
     d44:	02512c23          	sw	x5,56(x2)
     d48:	02612a23          	sw	x6,52(x2)
     d4c:	02712823          	sw	x7,48(x2)
     d50:	02b12423          	sw	x11,40(x2)
     d54:	02c12223          	sw	x12,36(x2)
     d58:	02d12023          	sw	x13,32(x2)
     d5c:	00e12e23          	sw	x14,28(x2)
     d60:	00f12c23          	sw	x15,24(x2)
     d64:	01012a23          	sw	x16,20(x2)
     d68:	01112823          	sw	x17,16(x2)
     d6c:	01c12623          	sw	x28,12(x2)
     d70:	01d12423          	sw	x29,8(x2)
     d74:	01e12223          	sw	x30,4(x2)
     d78:	01f12023          	sw	x31,0(x2)
     d7c:	facff0ef          	jal	x1,528 <generic_irq_handler>
     d80:	03c12083          	lw	x1,60(x2)
     d84:	03812283          	lw	x5,56(x2)
     d88:	03412303          	lw	x6,52(x2)
     d8c:	03012383          	lw	x7,48(x2)
     d90:	02c12503          	lw	x10,44(x2)
     d94:	02812583          	lw	x11,40(x2)
     d98:	02412603          	lw	x12,36(x2)
     d9c:	02012683          	lw	x13,32(x2)
     da0:	01c12703          	lw	x14,28(x2)
     da4:	01812783          	lw	x15,24(x2)
     da8:	01412803          	lw	x16,20(x2)
     dac:	01012883          	lw	x17,16(x2)
     db0:	00c12e03          	lw	x28,12(x2)
     db4:	00812e83          	lw	x29,8(x2)
     db8:	00412f03          	lw	x30,4(x2)
     dbc:	00012f83          	lw	x31,0(x2)
     dc0:	04010113          	addi	x2,x2,64
     dc4:	30200073          	mret

00000dc8 <m_fast11_irq_handler>:
void m_fast11_irq_handler(void) { generic_irq_handler(FAST11_IRQ_ID); }
     dc8:	fc010113          	addi	x2,x2,-64
     dcc:	02a12623          	sw	x10,44(x2)
     dd0:	01b00513          	addi	x10,x0,27
     dd4:	02112e23          	sw	x1,60(x2)
     dd8:	02512c23          	sw	x5,56(x2)
     ddc:	02612a23          	sw	x6,52(x2)
     de0:	02712823          	sw	x7,48(x2)
     de4:	02b12423          	sw	x11,40(x2)
     de8:	02c12223          	sw	x12,36(x2)
     dec:	02d12023          	sw	x13,32(x2)
     df0:	00e12e23          	sw	x14,28(x2)
     df4:	00f12c23          	sw	x15,24(x2)
     df8:	01012a23          	sw	x16,20(x2)
     dfc:	01112823          	sw	x17,16(x2)
     e00:	01c12623          	sw	x28,12(x2)
     e04:	01d12423          	sw	x29,8(x2)
     e08:	01e12223          	sw	x30,4(x2)
     e0c:	01f12023          	sw	x31,0(x2)
     e10:	f18ff0ef          	jal	x1,528 <generic_irq_handler>
     e14:	03c12083          	lw	x1,60(x2)
     e18:	03812283          	lw	x5,56(x2)
     e1c:	03412303          	lw	x6,52(x2)
     e20:	03012383          	lw	x7,48(x2)
     e24:	02c12503          	lw	x10,44(x2)
     e28:	02812583          	lw	x11,40(x2)
     e2c:	02412603          	lw	x12,36(x2)
     e30:	02012683          	lw	x13,32(x2)
     e34:	01c12703          	lw	x14,28(x2)
     e38:	01812783          	lw	x15,24(x2)
     e3c:	01412803          	lw	x16,20(x2)
     e40:	01012883          	lw	x17,16(x2)
     e44:	00c12e03          	lw	x28,12(x2)
     e48:	00812e83          	lw	x29,8(x2)
     e4c:	00412f03          	lw	x30,4(x2)
     e50:	00012f83          	lw	x31,0(x2)
     e54:	04010113          	addi	x2,x2,64
     e58:	30200073          	mret

00000e5c <m_fast12_irq_handler>:
void m_fast12_irq_handler(void) { generic_irq_handler(FAST12_IRQ_ID); }
     e5c:	fc010113          	addi	x2,x2,-64
     e60:	02a12623          	sw	x10,44(x2)
     e64:	01c00513          	addi	x10,x0,28
     e68:	02112e23          	sw	x1,60(x2)
     e6c:	02512c23          	sw	x5,56(x2)
     e70:	02612a23          	sw	x6,52(x2)
     e74:	02712823          	sw	x7,48(x2)
     e78:	02b12423          	sw	x11,40(x2)
     e7c:	02c12223          	sw	x12,36(x2)
     e80:	02d12023          	sw	x13,32(x2)
     e84:	00e12e23          	sw	x14,28(x2)
     e88:	00f12c23          	sw	x15,24(x2)
     e8c:	01012a23          	sw	x16,20(x2)
     e90:	01112823          	sw	x17,16(x2)
     e94:	01c12623          	sw	x28,12(x2)
     e98:	01d12423          	sw	x29,8(x2)
     e9c:	01e12223          	sw	x30,4(x2)
     ea0:	01f12023          	sw	x31,0(x2)
     ea4:	e84ff0ef          	jal	x1,528 <generic_irq_handler>
     ea8:	03c12083          	lw	x1,60(x2)
     eac:	03812283          	lw	x5,56(x2)
     eb0:	03412303          	lw	x6,52(x2)
     eb4:	03012383          	lw	x7,48(x2)
     eb8:	02c12503          	lw	x10,44(x2)
     ebc:	02812583          	lw	x11,40(x2)
     ec0:	02412603          	lw	x12,36(x2)
     ec4:	02012683          	lw	x13,32(x2)
     ec8:	01c12703          	lw	x14,28(x2)
     ecc:	01812783          	lw	x15,24(x2)
     ed0:	01412803          	lw	x16,20(x2)
     ed4:	01012883          	lw	x17,16(x2)
     ed8:	00c12e03          	lw	x28,12(x2)
     edc:	00812e83          	lw	x29,8(x2)
     ee0:	00412f03          	lw	x30,4(x2)
     ee4:	00012f83          	lw	x31,0(x2)
     ee8:	04010113          	addi	x2,x2,64
     eec:	30200073          	mret

00000ef0 <m_fast13_irq_handler>:
void m_fast13_irq_handler(void) { generic_irq_handler(FAST13_IRQ_ID); }
     ef0:	fc010113          	addi	x2,x2,-64
     ef4:	02a12623          	sw	x10,44(x2)
     ef8:	01d00513          	addi	x10,x0,29
     efc:	02112e23          	sw	x1,60(x2)
     f00:	02512c23          	sw	x5,56(x2)
     f04:	02612a23          	sw	x6,52(x2)
     f08:	02712823          	sw	x7,48(x2)
     f0c:	02b12423          	sw	x11,40(x2)
     f10:	02c12223          	sw	x12,36(x2)
     f14:	02d12023          	sw	x13,32(x2)
     f18:	00e12e23          	sw	x14,28(x2)
     f1c:	00f12c23          	sw	x15,24(x2)
     f20:	01012a23          	sw	x16,20(x2)
     f24:	01112823          	sw	x17,16(x2)
     f28:	01c12623          	sw	x28,12(x2)
     f2c:	01d12423          	sw	x29,8(x2)
     f30:	01e12223          	sw	x30,4(x2)
     f34:	01f12023          	sw	x31,0(x2)
     f38:	df0ff0ef          	jal	x1,528 <generic_irq_handler>
     f3c:	03c12083          	lw	x1,60(x2)
     f40:	03812283          	lw	x5,56(x2)
     f44:	03412303          	lw	x6,52(x2)
     f48:	03012383          	lw	x7,48(x2)
     f4c:	02c12503          	lw	x10,44(x2)
     f50:	02812583          	lw	x11,40(x2)
     f54:	02412603          	lw	x12,36(x2)
     f58:	02012683          	lw	x13,32(x2)
     f5c:	01c12703          	lw	x14,28(x2)
     f60:	01812783          	lw	x15,24(x2)
     f64:	01412803          	lw	x16,20(x2)
     f68:	01012883          	lw	x17,16(x2)
     f6c:	00c12e03          	lw	x28,12(x2)
     f70:	00812e83          	lw	x29,8(x2)
     f74:	00412f03          	lw	x30,4(x2)
     f78:	00012f83          	lw	x31,0(x2)
     f7c:	04010113          	addi	x2,x2,64
     f80:	30200073          	mret

00000f84 <m_fast14_irq_handler>:
void m_fast14_irq_handler(void) { generic_irq_handler(FAST14_IRQ_ID); }
     f84:	fc010113          	addi	x2,x2,-64
     f88:	02a12623          	sw	x10,44(x2)
     f8c:	01e00513          	addi	x10,x0,30
     f90:	02112e23          	sw	x1,60(x2)
     f94:	02512c23          	sw	x5,56(x2)
     f98:	02612a23          	sw	x6,52(x2)
     f9c:	02712823          	sw	x7,48(x2)
     fa0:	02b12423          	sw	x11,40(x2)
     fa4:	02c12223          	sw	x12,36(x2)
     fa8:	02d12023          	sw	x13,32(x2)
     fac:	00e12e23          	sw	x14,28(x2)
     fb0:	00f12c23          	sw	x15,24(x2)
     fb4:	01012a23          	sw	x16,20(x2)
     fb8:	01112823          	sw	x17,16(x2)
     fbc:	01c12623          	sw	x28,12(x2)
     fc0:	01d12423          	sw	x29,8(x2)
     fc4:	01e12223          	sw	x30,4(x2)
     fc8:	01f12023          	sw	x31,0(x2)
     fcc:	d5cff0ef          	jal	x1,528 <generic_irq_handler>
     fd0:	03c12083          	lw	x1,60(x2)
     fd4:	03812283          	lw	x5,56(x2)
     fd8:	03412303          	lw	x6,52(x2)
     fdc:	03012383          	lw	x7,48(x2)
     fe0:	02c12503          	lw	x10,44(x2)
     fe4:	02812583          	lw	x11,40(x2)
     fe8:	02412603          	lw	x12,36(x2)
     fec:	02012683          	lw	x13,32(x2)
     ff0:	01c12703          	lw	x14,28(x2)
     ff4:	01812783          	lw	x15,24(x2)
     ff8:	01412803          	lw	x16,20(x2)
     ffc:	01012883          	lw	x17,16(x2)
    1000:	00c12e03          	lw	x28,12(x2)
    1004:	00812e83          	lw	x29,8(x2)
    1008:	00412f03          	lw	x30,4(x2)
    100c:	00012f83          	lw	x31,0(x2)
    1010:	04010113          	addi	x2,x2,64
    1014:	30200073          	mret

00001018 <m_fast15_irq_handler>:
void m_fast15_irq_handler(void) { generic_irq_handler(FAST15_IRQ_ID); }
    1018:	fc010113          	addi	x2,x2,-64
    101c:	02a12623          	sw	x10,44(x2)
    1020:	01f00513          	addi	x10,x0,31
    1024:	02112e23          	sw	x1,60(x2)
    1028:	02512c23          	sw	x5,56(x2)
    102c:	02612a23          	sw	x6,52(x2)
    1030:	02712823          	sw	x7,48(x2)
    1034:	02b12423          	sw	x11,40(x2)
    1038:	02c12223          	sw	x12,36(x2)
    103c:	02d12023          	sw	x13,32(x2)
    1040:	00e12e23          	sw	x14,28(x2)
    1044:	00f12c23          	sw	x15,24(x2)
    1048:	01012a23          	sw	x16,20(x2)
    104c:	01112823          	sw	x17,16(x2)
    1050:	01c12623          	sw	x28,12(x2)
    1054:	01d12423          	sw	x29,8(x2)
    1058:	01e12223          	sw	x30,4(x2)
    105c:	01f12023          	sw	x31,0(x2)
    1060:	cc8ff0ef          	jal	x1,528 <generic_irq_handler>
    1064:	03c12083          	lw	x1,60(x2)
    1068:	03812283          	lw	x5,56(x2)
    106c:	03412303          	lw	x6,52(x2)
    1070:	03012383          	lw	x7,48(x2)
    1074:	02c12503          	lw	x10,44(x2)
    1078:	02812583          	lw	x11,40(x2)
    107c:	02412603          	lw	x12,36(x2)
    1080:	02012683          	lw	x13,32(x2)
    1084:	01c12703          	lw	x14,28(x2)
    1088:	01812783          	lw	x15,24(x2)
    108c:	01412803          	lw	x16,20(x2)
    1090:	01012883          	lw	x17,16(x2)
    1094:	00c12e03          	lw	x28,12(x2)
    1098:	00812e83          	lw	x29,8(x2)
    109c:	00412f03          	lw	x30,4(x2)
    10a0:	00012f83          	lw	x31,0(x2)
    10a4:	04010113          	addi	x2,x2,64
    10a8:	30200073          	mret

000010ac <u_sw_direct_irq_handler>:
__attribute__((interrupt ("machine"))) void u_sw_direct_irq_handler(void)  {
    10ac:	ff010113          	addi	x2,x2,-16
    10b0:	00e12623          	sw	x14,12(x2)
    10b4:	00f12423          	sw	x15,8(x2)
    in_direct_handler = 1;
    10b8:	00100713          	addi	x14,x0,1
    10bc:	f6e1a023          	sw	x14,-160(x3) # 143b0 <in_direct_handler>
    asm volatile("csrr %0, mcause" : "=r" (mmcause));
    10c0:	34202773          	csrrs	x14,mcause,x0
    10c4:	f6e1a823          	sw	x14,-144(x3) # 143c0 <mmcause>
}
    10c8:	00c12703          	lw	x14,12(x2)
    10cc:	00812783          	lw	x15,8(x2)
    10d0:	01010113          	addi	x2,x2,16
    10d4:	30200073          	mret

000010d8 <test1_impl>:
    return EXIT_SUCCESS;
}

// To share implementation of basic interrupt test with vector relocation tests,
// break out the test 1 implementation here
int test1_impl(int direct_mode) {
    10d8:	ff010113          	addi	x2,x2,-16
    10dc:	ffff1e37          	lui	x28,0xffff1
    *TIMER_VAL_ADDR = 1 + cycle_delay;
    10e0:	150008b7          	lui	x17,0x15000
int test1_impl(int direct_mode) {
    10e4:	00812423          	sw	x8,8(x2)
    10e8:	00112623          	sw	x1,12(x2)
    10ec:	00912223          	sw	x9,4(x2)
    for (uint32_t i = 0; i < 32; i++) {
    10f0:	00000593          	addi	x11,x0,0
                if (mie) mie_enable(i);
                else mie_disable(i);

                in_direct_handler = 0;
                mmcause = 0;
                mm_ram_assert_irq(0x1 << i, 1);    
    10f4:	00100f13          	addi	x30,x0,1
    10f8:	888e0e13          	addi	x28,x28,-1912 # ffff0888 <__heap_end+0xffbf0888>
    *TIMER_REG_ADDR = mask;
    10fc:	15000fb7          	lui	x31,0x15000
    *TIMER_VAL_ADDR = 1 + cycle_delay;
    1100:	00488893          	addi	x17,x17,4 # 15000004 <__heap_end+0x14c00004>
    1104:	00200293          	addi	x5,x0,2
    asm volatile("csrrs x0, mstatus, %0" : : "r" (mie_bit));
    1108:	00800393          	addi	x7,x0,8
    for (uint32_t i = 0; i < 32; i++) {
    110c:	02000413          	addi	x8,x0,32
                mm_ram_assert_irq(0x1 << i, 1);    
    1110:	00bf1833          	sll	x16,x30,x11
    1114:	01c87333          	and	x6,x16,x28
        for (uint32_t gmie = 0; gmie <= 1; gmie++) {
    1118:	00000613          	addi	x12,x0,0
    111c:	1420006f          	jal	x0,125e <test1_impl+0x186>
    1120:	00100713          	addi	x14,x0,1
                if (gmie) mstatus_mie_enable();
    1124:	04060763          	beq	x12,x0,1172 <test1_impl+0x9a>
    asm volatile("csrrs x0, mstatus, %0" : : "r" (mie_bit));
    1128:	3003a073          	csrrs	x0,mstatus,x7
                if (mie) mie_enable(i);
    112c:	04070963          	beq	x14,x0,117e <test1_impl+0xa6>
    asm volatile("csrrs x0, mie, %0" : : "r" (mie_bit));
    1130:	30482073          	csrrs	x0,mie,x16
                in_direct_handler = 0;
    1134:	f601a023          	sw	x0,-160(x3) # 143b0 <in_direct_handler>
                mmcause = 0;
    1138:	f601a823          	sw	x0,-144(x3) # 143c0 <mmcause>
    *TIMER_REG_ADDR = mask;
    113c:	010fa023          	sw	x16,0(x31) # 15000000 <__heap_end+0x14c00000>
    *TIMER_VAL_ADDR = 1 + cycle_delay;
    1140:	0058a023          	sw	x5,0(x17)

                if (((0x1 << i) & IRQ_MASK) && mie && gmie) {
    1144:	08030563          	beq	x6,x0,11ce <test1_impl+0xf6>
    1148:	08070363          	beq	x14,x0,11ce <test1_impl+0xf6>
    114c:	08060163          	beq	x12,x0,11ce <test1_impl+0xf6>
                    // Interrupt is valid and enabled 
                    // wait for the irq to be served
                    while (!mmcause);
    1150:	f701a683          	lw	x13,-144(x3) # 143c0 <mmcause>
    1154:	fe068ee3          	beq	x13,x0,1150 <test1_impl+0x78>
                
                    if ((mmcause & (0x1 << 31)) == 0) {
    1158:	f701a683          	lw	x13,-144(x3) # 143c0 <mmcause>
    115c:	0206c563          	blt	x13,x0,1186 <test1_impl+0xae>
                        printf("MCAUSE[31] was not set: mmcause = 0x%08lx\n", (uint32_t) mmcause);
    1160:	f701a583          	lw	x11,-144(x3) # 143c0 <mmcause>
    1164:	654d                	.insn	2, 0x654d
    1166:	df050513          	addi	x10,x10,-528
                }

                // Check flag at direct mode handler
                if (((0x1 << i) & IRQ_MASK) && mie && gmie) {
                    if (direct_mode && !in_direct_handler) {
                        printf("In direct mode, the direct sw handler was not entered, irq: %lu\n", i);
    116a:	4e7000ef          	jal	x1,1e50 <printf>
                        return ERR_CODE_TEST_1;
    116e:	0480006f          	jal	x0,11b6 <test1_impl+0xde>
    asm volatile("csrrc x0, mstatus, %0" : : "r" (mie_bit));
    1172:	00800693          	addi	x13,x0,8
    1176:	3006b073          	csrrc	x0,mstatus,x13
}
    117a:	fb3ff06f          	jal	x0,112c <test1_impl+0x54>
    asm volatile("csrrc x0, mie, %0" : : "r" (mie_bit));
    117e:	30483073          	csrrc	x0,mie,x16
}
    1182:	fb3ff06f          	jal	x0,1134 <test1_impl+0x5c>
                    if ((mmcause & MCAUSE_IRQ_MASK) != i) {
    1186:	f701a683          	lw	x13,-144(x3) # 143c0 <mmcause>
    118a:	01f6f693          	andi	x13,x13,31
    118e:	00b69d63          	bne	x13,x11,11a8 <test1_impl+0xd0>
                __asm__ volatile ("csrr %0,mip" : "=r" (mip));
    1192:	344026f3          	csrrs	x13,mip,x0
                    if (mip & (0x1 << i)) {
    1196:	00d876b3          	and	x13,x16,x13
    119a:	08068063          	beq	x13,x0,121a <test1_impl+0x142>
                        printf("MIP for unimplemented IRQ[%lu] set\n", i);
    119e:	654d                	.insn	2, 0x654d
    11a0:	ea450513          	addi	x10,x10,-348
    11a4:	fc7ff06f          	jal	x0,116a <test1_impl+0x92>
                        printf("MCAUSE reported wrong irq, exp = %lu, act = 0x%08lx", i, mmcause);
    11a8:	f701a603          	lw	x12,-144(x3) # 143c0 <mmcause>
    11ac:	654d                	.insn	2, 0x654d
    11ae:	e1c50513          	addi	x10,x10,-484
    11b2:	49f000ef          	jal	x1,1e50 <printf>
                        return ERR_CODE_TEST_1;
    11b6:	00100513          	addi	x10,x0,1
            }
        }
    }

    return EXIT_SUCCESS;
}
    11ba:	00c12083          	lw	x1,12(x2)
    11be:	00812403          	lw	x8,8(x2)
    11c2:	00412483          	lw	x9,4(x2)
    11c6:	01010113          	addi	x2,x2,16
    11ca:	00008067          	jalr	x0,0(x1)
    11ce:	01400693          	addi	x13,x0,20
                        if (mmcause != 0) {
    11d2:	f701a483          	lw	x9,-144(x3) # 143c0 <mmcause>
    11d6:	00048d63          	beq	x9,x0,11f0 <test1_impl+0x118>
                            printf("MMCAUSE = 0x%08lx when unimplmented interrupt %lu first", mmcause, i);
    11da:	f701a783          	lw	x15,-144(x3) # 143c0 <mmcause>
    11de:	654d                	.insn	2, 0x654d
    11e0:	00058613          	addi	x12,x11,0
    11e4:	e5050513          	addi	x10,x10,-432
    11e8:	00078593          	addi	x11,x15,0
    11ec:	fc7ff06f          	jal	x0,11b2 <test1_impl+0xda>
                    for (int j = 0; j < 20; j++) {
    11f0:	fff68693          	addi	x13,x13,-1
    11f4:	fc069fe3          	bne	x13,x0,11d2 <test1_impl+0xfa>
                __asm__ volatile ("csrr %0,mip" : "=r" (mip));
    11f8:	344026f3          	csrrs	x13,mip,x0
                if (((0x1 << i) & IRQ_MASK) && (!mie || !gmie)) {
    11fc:	f8030de3          	beq	x6,x0,1196 <test1_impl+0xbe>
    1200:	00070463          	beq	x14,x0,1208 <test1_impl+0x130>
    1204:	f80619e3          	bne	x12,x0,1196 <test1_impl+0xbe>
                    if (!(mip & (0x1 << i))) {
    1208:	00d876b3          	and	x13,x16,x13
    120c:	00069963          	bne	x13,x0,121e <test1_impl+0x146>
                        printf("MIP for IRQ[%lu] not set\n", i);
    1210:	654d                	.insn	2, 0x654d
    1212:	e8850513          	addi	x10,x10,-376
    1216:	f55ff06f          	jal	x0,116a <test1_impl+0x92>
                if (((0x1 << i) & IRQ_MASK) && mie && gmie) {
    121a:	02030863          	beq	x6,x0,124a <test1_impl+0x172>
    121e:	02070663          	beq	x14,x0,124a <test1_impl+0x172>
    1222:	02060463          	beq	x12,x0,124a <test1_impl+0x172>
                    if (direct_mode && !in_direct_handler) {
    1226:	f601a683          	lw	x13,-160(x3) # 143b0 <in_direct_handler>
    122a:	00050963          	beq	x10,x0,123c <test1_impl+0x164>
    122e:	00069e63          	bne	x13,x0,124a <test1_impl+0x172>
                        printf("In direct mode, the direct sw handler was not entered, irq: %lu\n", i);
    1232:	654d                	.insn	2, 0x654d
    1234:	ec850513          	addi	x10,x10,-312
    1238:	f33ff06f          	jal	x0,116a <test1_impl+0x92>
                    if (!direct_mode && in_direct_handler) {
    123c:	00068763          	beq	x13,x0,124a <test1_impl+0x172>
                        printf("In vector mode, the direct sw handler was entered, irq: %lu\n", i);
    1240:	654d                	.insn	2, 0x654d
    1242:	f0c50513          	addi	x10,x10,-244
    1246:	f25ff06f          	jal	x0,116a <test1_impl+0x92>
    *TIMER_REG_ADDR = mask;
    124a:	000fa023          	sw	x0,0(x31)
    *TIMER_VAL_ADDR = 1 + cycle_delay;
    124e:	01e8a023          	sw	x30,0(x17)
            for (uint32_t mie = 0; mie <= 1; mie++) {
    1252:	ec0707e3          	beq	x14,x0,1120 <test1_impl+0x48>
        for (uint32_t gmie = 0; gmie <= 1; gmie++) {
    1256:	00061863          	bne	x12,x0,1266 <test1_impl+0x18e>
    125a:	00070613          	addi	x12,x14,0
            for (uint32_t mie = 0; mie <= 1; mie++) {
    125e:	00000713          	addi	x14,x0,0
    1262:	ec3ff06f          	jal	x0,1124 <test1_impl+0x4c>
    for (uint32_t i = 0; i < 32; i++) {
    1266:	00158593          	addi	x11,x11,1
    126a:	ea8593e3          	bne	x11,x8,1110 <test1_impl+0x38>
    return EXIT_SUCCESS;
    126e:	00000513          	addi	x10,x0,0
    1272:	f49ff06f          	jal	x0,11ba <test1_impl+0xe2>

00001276 <test1>:
    printf("TEST 1 - TRIGGER ALL IRQS IN SEQUENCE:\n");
    1276:	654d                	.insn	2, 0x654d
int test1() {
    1278:	ff010113          	addi	x2,x2,-16
    printf("TEST 1 - TRIGGER ALL IRQS IN SEQUENCE:\n");
    127c:	f4c50513          	addi	x10,x10,-180
int test1() {
    1280:	00112623          	sw	x1,12(x2)
    printf("TEST 1 - TRIGGER ALL IRQS IN SEQUENCE:\n");
    1284:	4e9000ef          	jal	x1,1f6c <puts>
    active_test = 1;
    1288:	00100713          	addi	x14,x0,1
    if (test1_impl(0) != EXIT_SUCCESS)
    128c:	00000513          	addi	x10,x0,0
    active_test = 1;
    1290:	f6e1a623          	sw	x14,-148(x3) # 143bc <active_test>
    if (test1_impl(0) != EXIT_SUCCESS)
    1294:	3591                	.insn	2, 0x3591
}
    1296:	00c12083          	lw	x1,12(x2)
    129a:	00a03533          	sltu	x10,x0,x10
    129e:	01010113          	addi	x2,x2,16
    12a2:	00008067          	jalr	x0,0(x1)

000012a6 <test2>:
    //-------------------------------------------------------------------------------------------------------------------------------------------
    //-------------------------------------------------------------------------------------------------------------------------------------------

// Test 2 will issue all interrupts at once and check that all interrupt are serviced in priority order
int test2() {
    printf("TEST 2 - TRIGGER ALL IRQS AT ONCE:\n");
    12a6:	654d                	.insn	2, 0x654d
int test2() {
    12a8:	ff010113          	addi	x2,x2,-16
    printf("TEST 2 - TRIGGER ALL IRQS AT ONCE:\n");
    12ac:	f7450513          	addi	x10,x10,-140
int test2() {
    12b0:	00112623          	sw	x1,12(x2)
    printf("TEST 2 - TRIGGER ALL IRQS AT ONCE:\n");
    12b4:	4b9000ef          	jal	x1,1f6c <puts>
    active_test = 2;
    12b8:	00200713          	addi	x14,x0,2
    12bc:	f6e1a623          	sw	x14,-148(x3) # 143bc <active_test>
    *TIMER_REG_ADDR = mask;
    12c0:	150006b7          	lui	x13,0x15000
    *TIMER_VAL_ADDR = 1 + cycle_delay;
    12c4:	150007b7          	lui	x15,0x15000
    *TIMER_REG_ADDR = mask;
    12c8:	0006a023          	sw	x0,0(x13) # 15000000 <__heap_end+0x14c00000>
    *TIMER_VAL_ADDR = 1 + cycle_delay;
    12cc:	00478793          	addi	x15,x15,4 # 15000004 <__heap_end+0x14c00004>
    12d0:	00100713          	addi	x14,x0,1
    12d4:	00e7a023          	sw	x14,0(x15)
    // Clear VP irq
    mm_ram_assert_irq(0, 0); 
    
    // Enable all interrupts (MIE and MSTATUS.MIE)
    uint32_t mie = (uint32_t) -1;
    asm volatile("csrw mie, %0" : : "r" (mie));            
    12d8:	fff00613          	addi	x12,x0,-1
    12dc:	30461073          	csrrw	x0,mie,x12
    asm volatile("csrrs x0, mstatus, %0" : : "r" (mie_bit));
    12e0:	00800593          	addi	x11,x0,8
    12e4:	3005a073          	csrrs	x0,mstatus,x11
    mstatus_mie_enable();
    irq_id_q_ptr = 0;
    12e8:	f601aa23          	sw	x0,-140(x3) # 143c4 <irq_id_q_ptr>
    *TIMER_REG_ADDR = mask;
    12ec:	00c6a023          	sw	x12,0(x13)
    *TIMER_VAL_ADDR = 1 + cycle_delay;
    12f0:	00e7a023          	sw	x14,0(x15)

    // Fire all IRQs and give time for them to be handled
    mm_ram_assert_irq((uint32_t) -1, 0);

    delay(100);
    12f4:	06400513          	addi	x10,x0,100
    12f8:	910ff0ef          	jal	x1,408 <delay>

    for (int i = 0; i < IRQ_NUM; i++) {
    12fc:	67d1                	.insn	2, 0x67d1
        // The irq_id_q should now contain interrupt IDs in the same order as IRQ_ID_PRIORITY
        if (IRQ_ID_PRIORITY[i] != irq_id_q[i]) {
    12fe:	c5078793          	addi	x15,x15,-944
    for (int i = 0; i < IRQ_NUM; i++) {
    1302:	00000593          	addi	x11,x0,0
        if (IRQ_ID_PRIORITY[i] != irq_id_q[i]) {
    1306:	f9818693          	addi	x13,x3,-104 # 143e8 <irq_id_q>
    for (int i = 0; i < IRQ_NUM; i++) {
    130a:	01300513          	addi	x10,x0,19
        if (IRQ_ID_PRIORITY[i] != irq_id_q[i]) {
    130e:	00259713          	slli	x14,x11,0x2
    1312:	00e68733          	add	x14,x13,x14
    1316:	0007a603          	lw	x12,0(x15)
    131a:	00072803          	lw	x16,0(x14)
    131e:	03060163          	beq	x12,x16,1340 <test2+0x9a>
            printf("priority mismatch, index %d, exp %lu, act %lu\n",
                    i, IRQ_ID_PRIORITY[i], irq_id_q[i]);
    1322:	00072683          	lw	x13,0(x14)
            printf("priority mismatch, index %d, exp %lu, act %lu\n",
    1326:	654d                	.insn	2, 0x654d
    1328:	f9850513          	addi	x10,x10,-104
    132c:	325000ef          	jal	x1,1e50 <printf>
            return ERR_CODE_TEST_2;
    1330:	00200513          	addi	x10,x0,2
        }
    }

    return EXIT_SUCCESS;
}
    1334:	00c12083          	lw	x1,12(x2)
    1338:	01010113          	addi	x2,x2,16
    133c:	00008067          	jalr	x0,0(x1)
    for (int i = 0; i < IRQ_NUM; i++) {
    1340:	00158593          	addi	x11,x11,1
    1344:	00478793          	addi	x15,x15,4
    1348:	fca593e3          	bne	x11,x10,130e <test2+0x68>
    return EXIT_SUCCESS;
    134c:	00000513          	addi	x10,x0,0
    1350:	fe5ff06f          	jal	x0,1334 <test2+0x8e>

00001354 <test3>:
    //-------------------------------------------------------------------------------------------------------------------------------------------
    //-------------------------------------------------------------------------------------------------------------------------------------------

// Test 3 will create nested interrupts
int test3() {
    printf("TEST 3 - NESTED INTERRUPTS:\n"); 
    1354:	654d                	.insn	2, 0x654d
int test3() {
    1356:	fc010113          	addi	x2,x2,-64
    printf("TEST 3 - NESTED INTERRUPTS:\n"); 
    135a:	fc850513          	addi	x10,x10,-56
int test3() {
    135e:	02912a23          	sw	x9,52(x2)
    1362:	02112e23          	sw	x1,60(x2)
    1366:	02812c23          	sw	x8,56(x2)
    136a:	03212823          	sw	x18,48(x2)
    136e:	03312623          	sw	x19,44(x2)
    1372:	03412423          	sw	x20,40(x2)
    1376:	03512223          	sw	x21,36(x2)
    137a:	03612023          	sw	x22,32(x2)
    137e:	01712e23          	sw	x23,28(x2)
    1382:	01812c23          	sw	x24,24(x2)
    1386:	01912a23          	sw	x25,20(x2)
    138a:	01a12823          	sw	x26,16(x2)
    printf("TEST 3 - NESTED INTERRUPTS:\n"); 
    138e:	3df000ef          	jal	x1,1f6c <puts>
    
    // Test 3 is a nested interrupt test
    active_test = 3;
    1392:	00300713          	addi	x14,x0,3
    1396:	f6e1a623          	sw	x14,-148(x3) # 143bc <active_test>
    *TIMER_VAL_ADDR = 1 + cycle_delay;
    139a:	150004b7          	lui	x9,0x15000
    *TIMER_REG_ADDR = mask;
    139e:	150007b7          	lui	x15,0x15000
    13a2:	0007a023          	sw	x0,0(x15) # 15000000 <__heap_end+0x14c00000>
    *TIMER_VAL_ADDR = 1 + cycle_delay;
    13a6:	00448493          	addi	x9,x9,4 # 15000004 <__heap_end+0x14c00004>
    13aa:	00100793          	addi	x15,x0,1
    13ae:	00f4a023          	sw	x15,0(x9)
    asm volatile("csrrs x0, mie, %0" : : "r" (mie_mask));
    13b2:	fff00793          	addi	x15,x0,-1
    13b6:	3047a073          	csrrs	x0,mie,x15
    asm volatile("csrrs x0, mstatus, %0" : : "r" (mie_bit));
    13ba:	00800793          	addi	x15,x0,8
    13be:	3007a073          	csrrs	x0,mstatus,x15
    // Set 2 interrupts
    for (uint32_t loop = 0; loop < 50; loop++) {
        uint32_t irq[2];

        // Pick 2 random interrupts
        irq[0] = IRQ_ID_PRIORITY[random_num(IRQ_NUM-1, 0)];
    13c2:	6951                	.insn	2, 0x6951
    asm volatile("csrrs x0, mstatus, %0" : : "r" (mie_bit));
    13c4:	03200993          	addi	x19,x0,50
    uint32_t random_num = *((volatile int *)0x15001000);
    13c8:	15001ab7          	lui	x21,0x15001
        irq[0] = IRQ_ID_PRIORITY[random_num(IRQ_NUM-1, 0)];
    13cc:	c5090913          	addi	x18,x18,-944
        irq[1] = IRQ_ID_PRIORITY[random_num(IRQ_NUM-1, 0)];

        irq_id_q_ptr = 0;
        nested_irq = irq[1];
        nested_irq_valid = 1;    
    13d0:	00100d13          	addi	x26,x0,1
    13d4:	00100b13          	addi	x22,x0,1

        mm_ram_assert_irq(0x1 << irq[0], 0);

        delay(50);

        if (irq_id_q[0] != irq[0]) {
    13d8:	f9818413          	addi	x8,x3,-104 # 143e8 <irq_id_q>
    uint32_t random_num = *((volatile int *)0x15001000);
    13dc:	000aa783          	lw	x15,0(x21) # 15001000 <__heap_end+0x14c01000>
    uint32_t num = (random_num  % (upper_bound - lower_bound + 1)) + lower_bound;
    13e0:	01300713          	addi	x14,x0,19
        delay(50);
    13e4:	03200513          	addi	x10,x0,50
    uint32_t num = (random_num  % (upper_bound - lower_bound + 1)) + lower_bound;
    13e8:	02e7f7b3          	remu	x15,x15,x14
        irq[0] = IRQ_ID_PRIORITY[random_num(IRQ_NUM-1, 0)];
    13ec:	00279793          	slli	x15,x15,0x2
    13f0:	00f907b3          	add	x15,x18,x15
    13f4:	0007a583          	lw	x11,0(x15)
    uint32_t random_num = *((volatile int *)0x15001000);
    13f8:	000aa783          	lw	x15,0(x21)
        irq_id_q_ptr = 0;
    13fc:	f601aa23          	sw	x0,-140(x3) # 143c4 <irq_id_q_ptr>
        mm_ram_assert_irq(0x1 << irq[0], 0);
    1400:	00b12623          	sw	x11,12(x2)
    uint32_t num = (random_num  % (upper_bound - lower_bound + 1)) + lower_bound;
    1404:	02e7f7b3          	remu	x15,x15,x14
        mm_ram_assert_irq(0x1 << irq[0], 0);
    1408:	00bd1733          	sll	x14,x26,x11
        irq[1] = IRQ_ID_PRIORITY[random_num(IRQ_NUM-1, 0)];
    140c:	00279793          	slli	x15,x15,0x2
    1410:	00f907b3          	add	x15,x18,x15
    1414:	0007aa03          	lw	x20,0(x15)
    *TIMER_REG_ADDR = mask;
    1418:	150007b7          	lui	x15,0x15000
        nested_irq = irq[1];
    141c:	f741a423          	sw	x20,-152(x3) # 143b8 <nested_irq>
        nested_irq_valid = 1;    
    1420:	f761a223          	sw	x22,-156(x3) # 143b4 <nested_irq_valid>
    *TIMER_REG_ADDR = mask;
    1424:	00e7a023          	sw	x14,0(x15) # 15000000 <__heap_end+0x14c00000>
    *TIMER_VAL_ADDR = 1 + cycle_delay;
    1428:	0164a023          	sw	x22,0(x9)
        delay(50);
    142c:	fddfe0ef          	jal	x1,408 <delay>
        if (irq_id_q[0] != irq[0]) {
    1430:	00042783          	lw	x15,0(x8)
    1434:	00c12583          	lw	x11,12(x2)
    1438:	04f58763          	beq	x11,x15,1486 <test3+0x132>
            printf("TEST3, first interrupt exp %lu act %lu\n", irq[0], irq_id_q[0]);
    143c:	00042603          	lw	x12,0(x8)
    1440:	654d                	.insn	2, 0x654d
    1442:	fe450513          	addi	x10,x10,-28
            return ERR_CODE_TEST_3;
        }
        if (irq_id_q[1] != irq[1]) {
            printf("TEST3, second interrupt exp %lu act %lu\n", irq[1], irq_id_q[1]);
    1446:	20b000ef          	jal	x1,1e50 <printf>
    asm volatile("csrrs x0, mstatus, %0" : : "r" (mie_bit));
    144a:	00300513          	addi	x10,x0,3
            return ERR_CODE_TEST_3;
        }
    }

    return EXIT_SUCCESS;
}
    144e:	03c12083          	lw	x1,60(x2)
    1452:	03812403          	lw	x8,56(x2)
    1456:	03412483          	lw	x9,52(x2)
    145a:	03012903          	lw	x18,48(x2)
    145e:	02c12983          	lw	x19,44(x2)
    1462:	02812a03          	lw	x20,40(x2)
    1466:	02412a83          	lw	x21,36(x2)
    146a:	02012b03          	lw	x22,32(x2)
    146e:	01c12b83          	lw	x23,28(x2)
    1472:	01812c03          	lw	x24,24(x2)
    1476:	01412c83          	lw	x25,20(x2)
    147a:	01012d03          	lw	x26,16(x2)
    147e:	04010113          	addi	x2,x2,64
    1482:	00008067          	jalr	x0,0(x1)
        if (irq_id_q[1] != irq[1]) {
    1486:	00442783          	lw	x15,4(x8)
    148a:	00fa0b63          	beq	x20,x15,14a0 <test3+0x14c>
            printf("TEST3, second interrupt exp %lu act %lu\n", irq[1], irq_id_q[1]);
    148e:	654d                	.insn	2, 0x654d
    1490:	00442603          	lw	x12,4(x8)
    1494:	000a0593          	addi	x11,x20,0
    1498:	00c50513          	addi	x10,x10,12
    149c:	fabff06f          	jal	x0,1446 <test3+0xf2>
    for (uint32_t loop = 0; loop < 50; loop++) {
    14a0:	fff98993          	addi	x19,x19,-1
    14a4:	f2099ce3          	bne	x19,x0,13dc <test3+0x88>
    return EXIT_SUCCESS;
    14a8:	00000513          	addi	x10,x0,0
    14ac:	fa3ff06f          	jal	x0,144e <test3+0xfa>

000014b0 <test4>:
// Test 4 will test WFI mode
// Ensures that only MIE-enabled interrupts wake WFI
// Tests that WFI works regardless of MSTATUS.MIE
// Tests that IRQ handler is not entered after WFI unless MSTATUS.MIE is set
int test4() {
    printf("TEST 4 - WFI\n");
    14b0:	654d                	.insn	2, 0x654d
int test4() {
    14b2:	fb010113          	addi	x2,x2,-80
    printf("TEST 4 - WFI\n");
    14b6:	03850513          	addi	x10,x10,56
int test4() {
    14ba:	04812423          	sw	x8,72(x2)
    14be:	04912223          	sw	x9,68(x2)
    14c2:	05212023          	sw	x18,64(x2)
    14c6:	03512a23          	sw	x21,52(x2)
    14ca:	03812423          	sw	x24,40(x2)
    14ce:	03a12023          	sw	x26,32(x2)
    14d2:	01b12e23          	sw	x27,28(x2)
    14d6:	04112623          	sw	x1,76(x2)
    14da:	03312e23          	sw	x19,60(x2)
    14de:	03412c23          	sw	x20,56(x2)
    14e2:	03612823          	sw	x22,48(x2)
    14e6:	03712623          	sw	x23,44(x2)
    14ea:	03912223          	sw	x25,36(x2)
    printf("TEST 4 - WFI\n");
    14ee:	27f000ef          	jal	x1,1f6c <puts>
    
    // Test 4 is a WFI test
    active_test = 4;
    14f2:	00400713          	addi	x14,x0,4

    // Iterate through multiple loops
    for (int irq = 0; irq < 32; irq++) {
        if (!(((0x1 << irq) & IRQ_MASK))) 
    14f6:	ffff1ab7          	lui	x21,0xffff1
    *TIMER_VAL_ADDR = 1 + cycle_delay;
    14fa:	15000937          	lui	x18,0x15000
    active_test = 4;
    14fe:	f6e1a623          	sw	x14,-148(x3) # 143bc <active_test>
    for (int irq = 0; irq < 32; irq++) {
    1502:	00000493          	addi	x9,x0,0
        if (!(((0x1 << irq) & IRQ_MASK))) 
    1506:	00100d13          	addi	x26,x0,1
    150a:	888a8a93          	addi	x21,x21,-1912 # ffff0888 <__heap_end+0xffbf0888>
    *TIMER_VAL_ADDR = 1 + cycle_delay;
    150e:	00490913          	addi	x18,x18,4 # 15000004 <__heap_end+0x14c00004>
    1512:	00100c13          	addi	x24,x0,1

            // Select a wakeup interrupt and enable only it            
            mie_enable(irq);

            // Prep the IRQ ID Q to be empty, we need to detect if any interrupts (or none) taken
            irq_id_q[0] = -1;
    1516:	f9818413          	addi	x8,x3,-104 # 143e8 <irq_id_q>
        if (!(((0x1 << irq) & IRQ_MASK))) 
    151a:	009d19b3          	sll	x19,x26,x9
    151e:	0159f7b3          	and	x15,x19,x21
    1522:	0c078a63          	beq	x15,x0,15f6 <test4+0x146>
        for (uint32_t gmie = 0; gmie <= 1; gmie++) {
    1526:	00000b13          	addi	x22,x0,0
    asm volatile("csrrc x0, mie, %0" : : "r" (mie_mask));
    152a:	fff00693          	addi	x13,x0,-1
    *TIMER_REG_ADDR = mask;
    152e:	15000bb7          	lui	x23,0x15000
            irq_id_q[0] = -1;
    1532:	fff00593          	addi	x11,x0,-1
    asm volatile("csrrs x0, mstatus, %0" : : "r" (mie_bit));
    1536:	00800813          	addi	x16,x0,8
                mstatus_mie_enable();
            else
                mstatus_mie_disable();

            // Assert random batch of irqs (w/o selected irq)
            rand_irq = random_num32() & ~(0x1 << irq);
    153a:	fff9c613          	xori	x12,x19,-1
    asm volatile("csrrc x0, mie, %0" : : "r" (mie_mask));
    153e:	3046b073          	csrrc	x0,mie,x13
    *TIMER_REG_ADDR = mask;
    1542:	000ba023          	sw	x0,0(x23) # 15000000 <__heap_end+0x14c00000>
    *TIMER_VAL_ADDR = 1 + cycle_delay;
    1546:	01892023          	sw	x24,0(x18)
    asm volatile("csrrs x0, mie, %0" : : "r" (mie_bit));
    154a:	3049a073          	csrrs	x0,mie,x19
            irq_id_q[0] = -1;
    154e:	00b42023          	sw	x11,0(x8)
            irq_id_q_ptr = 0;
    1552:	f601aa23          	sw	x0,-140(x3) # 143c4 <irq_id_q_ptr>
            if (gmie)
    1556:	060b0963          	beq	x22,x0,15c8 <test4+0x118>
    asm volatile("csrrs x0, mstatus, %0" : : "r" (mie_bit));
    155a:	30082073          	csrrs	x0,mstatus,x16
    uint32_t num = *((volatile int *)0x15001000);
    155e:	15001cb7          	lui	x25,0x15001
    1562:	000caa03          	lw	x20,0(x25) # 15001000 <__heap_end+0x14c01000>
            rand_irq = random_num32() & ~(0x1 << irq);
    1566:	00c12623          	sw	x12,12(x2)
            mm_ram_assert_irq(rand_irq, 0);

            delay(2);
    156a:	00200513          	addi	x10,x0,2
            rand_irq = random_num32() & ~(0x1 << irq);
    156e:	014677b3          	and	x15,x12,x20
    *TIMER_REG_ADDR = mask;
    1572:	00fba023          	sw	x15,0(x23)
    *TIMER_VAL_ADDR = 1 + cycle_delay;
    1576:	01892023          	sw	x24,0(x18)
            delay(2);
    157a:	e8ffe0ef          	jal	x1,408 <delay>
    uint32_t num = *((volatile int *)0x15001000);
    157e:	000ca783          	lw	x15,0(x25)

            // Random assert "enabled" irq
            mm_ram_assert_irq(rand_irq | (0x1 << irq), (random_num32() & 0x3f) + 32);
    1582:	0149ea33          	or	x20,x19,x20
    *TIMER_REG_ADDR = mask;
    1586:	014ba023          	sw	x20,0(x23)
            mm_ram_assert_irq(rand_irq | (0x1 << irq), (random_num32() & 0x3f) + 32);
    158a:	03f7f793          	andi	x15,x15,63
    *TIMER_VAL_ADDR = 1 + cycle_delay;
    158e:	02178793          	addi	x15,x15,33
    1592:	00f92023          	sw	x15,0(x18)
            asm volatile("wfi");            
    1596:	10500073          	wfi
            
        
            if (gmie) {
    159a:	fff00693          	addi	x13,x0,-1
    159e:	00c12603          	lw	x12,12(x2)
    15a2:	fff00593          	addi	x11,x0,-1
    15a6:	00800813          	addi	x16,x0,8
    15aa:	020b0563          	beq	x22,x0,15d4 <test4+0x124>
                // Expected an interrupt taken
                if (irq_id_q[0] != irq) {
    15ae:	00042783          	lw	x15,0(x8)
    15b2:	04978263          	beq	x15,x9,15f6 <test4+0x146>
                    printf("After WFI, expected to hit an interrupt, but irq_id_q is empty\n");
    15b6:	654d                	.insn	2, 0x654d
    15b8:	04850513          	addi	x10,x10,72
    15bc:	1b1000ef          	jal	x1,1f6c <puts>
                    return ERR_CODE_TEST_4;
    15c0:	00400513          	addi	x10,x0,4
    15c4:	0420006f          	jal	x0,1606 <test4+0x156>
    asm volatile("csrrc x0, mstatus, %0" : : "r" (mie_bit));
    15c8:	00800793          	addi	x15,x0,8
    15cc:	3007b073          	csrrc	x0,mstatus,x15
}
    15d0:	f8fff06f          	jal	x0,155e <test4+0xae>
                }
            } else {
                // Expected no interrupt taken
                if (irq_id_q[0] != -1) {
    15d4:	00042703          	lw	x14,0(x8)
    15d8:	fff00793          	addi	x15,x0,-1
        for (uint32_t gmie = 0; gmie <= 1; gmie++) {
    15dc:	00100b13          	addi	x22,x0,1
                if (irq_id_q[0] != -1) {
    15e0:	f4f70fe3          	beq	x14,x15,153e <test4+0x8e>
                    printf("After WFI with MSTATUS.MIE == 0, interrupt was taken: %lu\n", irq_id_q[0]);
    15e4:	00042583          	lw	x11,0(x8)
    15e8:	654d                	.insn	2, 0x654d
    15ea:	08850513          	addi	x10,x10,136
    15ee:	063000ef          	jal	x1,1e50 <printf>
                    return ERR_CODE_TEST_4;
    15f2:	fcfff06f          	jal	x0,15c0 <test4+0x110>
    for (int irq = 0; irq < 32; irq++) {
    15f6:	00148493          	addi	x9,x9,1
    15fa:	02000793          	addi	x15,x0,32
    15fe:	f0f49ee3          	bne	x9,x15,151a <test4+0x6a>
                }
            }
        }
    }
    return EXIT_SUCCESS;
    1602:	00000513          	addi	x10,x0,0
}
    1606:	04c12083          	lw	x1,76(x2)
    160a:	04812403          	lw	x8,72(x2)
    160e:	04412483          	lw	x9,68(x2)
    1612:	04012903          	lw	x18,64(x2)
    1616:	03c12983          	lw	x19,60(x2)
    161a:	03812a03          	lw	x20,56(x2)
    161e:	03412a83          	lw	x21,52(x2)
    1622:	03012b03          	lw	x22,48(x2)
    1626:	02c12b83          	lw	x23,44(x2)
    162a:	02812c03          	lw	x24,40(x2)
    162e:	02412c83          	lw	x25,36(x2)
    1632:	02012d03          	lw	x26,32(x2)
    1636:	01c12d83          	lw	x27,28(x2)
    163a:	05010113          	addi	x2,x2,80
    163e:	00008067          	jalr	x0,0(x1)

00001642 <test5>:
// But with a relocated vector table via mtvec CSR
int test5() {
    volatile uint32_t save_mtvec;
    int retval;

    printf("TEST 5 - TRIGGER ALL IRQS IN SEQUENCE (RELOCATED MTVEC):\n");
    1642:	654d                	.insn	2, 0x654d
int test5() {
    1644:	fe010113          	addi	x2,x2,-32
    printf("TEST 5 - TRIGGER ALL IRQS IN SEQUENCE (RELOCATED MTVEC):\n");
    1648:	0c450513          	addi	x10,x10,196
int test5() {
    164c:	00112e23          	sw	x1,28(x2)
    printf("TEST 5 - TRIGGER ALL IRQS IN SEQUENCE (RELOCATED MTVEC):\n");
    1650:	11d000ef          	jal	x1,1f6c <puts>

    active_test = 5;
    1654:	00500713          	addi	x14,x0,5
    1658:	f6e1a623          	sw	x14,-148(x3) # 143bc <active_test>

    asm volatile("csrr %0, mtvec" : "=r" (save_mtvec));
    165c:	305027f3          	csrrs	x15,mtvec,x0
    1660:	00f12623          	sw	x15,12(x2)
    asm volatile("csrw mtvec, %0" : : "r" ((uint32_t) alt_vector_table | (save_mtvec & 0x3)));
    1664:	00c12783          	lw	x15,12(x2)
    1668:	20000713          	addi	x14,x0,512
    166c:	0037f793          	andi	x15,x15,3
    1670:	00e7e7b3          	or	x15,x15,x14
    1674:	30579073          	csrrw	x0,mtvec,x15

    retval = test1_impl(0);
    1678:	00000513          	addi	x10,x0,0
    167c:	3cb1                	.insn	2, 0x3cb1
    asm volatile("csrw mtvec, %0" : : "r" (save_mtvec)); 
    167e:	00c12783          	lw	x15,12(x2)
    1682:	30579073          	csrrw	x0,mtvec,x15
    if (retval != EXIT_SUCCESS) {
    1686:	00050463          	beq	x10,x0,168e <test5+0x4c>
        return ERR_CODE_TEST_5;
    168a:	00500513          	addi	x10,x0,5
    }

    return EXIT_SUCCESS;
}
    168e:	01c12083          	lw	x1,28(x2)
    1692:	02010113          	addi	x2,x2,32
    1696:	00008067          	jalr	x0,0(x1)

0000169a <test6>:
// But with a relocated vector table via mtvec CSR and DIRECT vector mode
int test6() {
    volatile uint32_t save_mtvec;
    int retval;

    printf("TEST 6 - TRIGGER ALL IRQS IN SEQUENCE (DIRECT-MODE MTVEC):\n");
    169a:	654d                	.insn	2, 0x654d
int test6() {
    169c:	fe010113          	addi	x2,x2,-32
    printf("TEST 6 - TRIGGER ALL IRQS IN SEQUENCE (DIRECT-MODE MTVEC):\n");
    16a0:	10050513          	addi	x10,x10,256
int test6() {
    16a4:	00112e23          	sw	x1,28(x2)
    printf("TEST 6 - TRIGGER ALL IRQS IN SEQUENCE (DIRECT-MODE MTVEC):\n");
    16a8:	0c5000ef          	jal	x1,1f6c <puts>

    active_test = 6;
    16ac:	00600713          	addi	x14,x0,6
    16b0:	f6e1a623          	sw	x14,-148(x3) # 143bc <active_test>

    asm volatile("csrr %0, mtvec" : "=r" (save_mtvec));
    16b4:	305027f3          	csrrs	x15,mtvec,x0
    16b8:	00f12623          	sw	x15,12(x2)
    asm volatile("csrw mtvec, %0" : : "r" ((uint32_t) alt_direct_vector_table)); // Leave mode at 0
    16bc:	30000793          	addi	x15,x0,768
    16c0:	30579073          	csrrw	x0,mtvec,x15

    retval = test1_impl(1);
    16c4:	00100513          	addi	x10,x0,1
    16c8:	3c01                	.insn	2, 0x3c01
    asm volatile("csrw mtvec, %0" : : "r" (save_mtvec)); 
    16ca:	00c12783          	lw	x15,12(x2)
    16ce:	30579073          	csrrw	x0,mtvec,x15
    if (retval != EXIT_SUCCESS) {
    16d2:	00050463          	beq	x10,x0,16da <test6+0x40>
        return ERR_CODE_TEST_6;
    16d6:	00600513          	addi	x10,x0,6
    }

    return EXIT_SUCCESS;
}
    16da:	01c12083          	lw	x1,28(x2)
    16de:	02010113          	addi	x2,x2,32
    16e2:	00008067          	jalr	x0,0(x1)

000016e6 <test7>:

// Test 7 is a direct repeat of test 1 in vectored mode
int test7() {
    printf("TEST 7 - TRIGGER ALL IRQS IN SEQUENCE: (REPEAT VECTOR MODE)\n");
    16e6:	654d                	.insn	2, 0x654d
int test7() {
    16e8:	ff010113          	addi	x2,x2,-16
    printf("TEST 7 - TRIGGER ALL IRQS IN SEQUENCE: (REPEAT VECTOR MODE)\n");
    16ec:	13c50513          	addi	x10,x10,316
int test7() {
    16f0:	00112623          	sw	x1,12(x2)
    printf("TEST 7 - TRIGGER ALL IRQS IN SEQUENCE: (REPEAT VECTOR MODE)\n");
    16f4:	079000ef          	jal	x1,1f6c <puts>

    active_test = 7;
    16f8:	00700713          	addi	x14,x0,7

    if (test1_impl(0) != EXIT_SUCCESS)
    16fc:	00000513          	addi	x10,x0,0
    active_test = 7;
    1700:	f6e1a623          	sw	x14,-148(x3) # 143bc <active_test>
    if (test1_impl(0) != EXIT_SUCCESS)
    1704:	3ad1                	.insn	2, 0x3ad1
    1706:	00050463          	beq	x10,x0,170e <test7+0x28>
        return ERR_CODE_TEST_7;
    170a:	00700513          	addi	x10,x0,7

    return EXIT_SUCCESS;
}
    170e:	00c12083          	lw	x1,12(x2)
    1712:	01010113          	addi	x2,x2,16
    1716:	00008067          	jalr	x0,0(x1)

0000171a <test8>:
int test8() {
    volatile uint32_t mcausew;
    volatile uint32_t mcauser;

    // MCAUSE is writable, this simple check tests this and also fufills code coverage
    printf("TEST 8 - READ/WRITE TO MCAUSE\n");
    171a:	654d                	.insn	2, 0x654d
int test8() {
    171c:	fe010113          	addi	x2,x2,-32
    printf("TEST 8 - READ/WRITE TO MCAUSE\n");
    1720:	17850513          	addi	x10,x10,376
int test8() {
    1724:	00112e23          	sw	x1,28(x2)
    printf("TEST 8 - READ/WRITE TO MCAUSE\n");
    1728:	045000ef          	jal	x1,1f6c <puts>

    mcausew = 0x0;
    172c:	00012423          	sw	x0,8(x2)
    __asm__ volatile("csrw mcause, %0" : : "r"(mcausew));
    1730:	00812783          	lw	x15,8(x2)
    1734:	34279073          	csrrw	x0,mcause,x15
    __asm__ volatile("csrr %0, mcause" : "=r"(mcauser));
    1738:	342027f3          	csrrs	x15,mcause,x0
    173c:	00f12623          	sw	x15,12(x2)
    if (mcauser != 0) {
    1740:	00c12783          	lw	x15,12(x2)
    1744:	00078963          	beq	x15,x0,1756 <test8+0x3c>

    mcausew = 0x0;
    __asm__ volatile("csrw mcause, %0" : : "r"(mcausew));
    __asm__ volatile("csrr %0, mcause" : "=r"(mcauser));
    if (mcauser != 0) {
        printf("MCAUSE write-read error, exp: 0x0, act: 0x%lx\n", mcauser);
    1748:	654d                	.insn	2, 0x654d
    174a:	00c12583          	lw	x11,12(x2)
    174e:	19850513          	addi	x10,x10,408
    1752:	0320006f          	jal	x0,1784 <test8+0x6a>
    mcausew = 0x1f;
    1756:	01f00793          	addi	x15,x0,31
    175a:	00f12423          	sw	x15,8(x2)
    __asm__ volatile("csrw mcause, %0" : : "r"(mcausew));
    175e:	00812783          	lw	x15,8(x2)
    1762:	34279073          	csrrw	x0,mcause,x15
    __asm__ volatile("csrr %0, mcause" : "=r"(mcauser));
    1766:	342027f3          	csrrs	x15,mcause,x0
    176a:	00f12623          	sw	x15,12(x2)
    if (mcauser != mcausew) {
    176e:	00c12703          	lw	x14,12(x2)
    1772:	00812783          	lw	x15,8(x2)
    1776:	02f70163          	beq	x14,x15,1798 <test8+0x7e>
        printf("MCAUSE write-read error, exp: 0x1f, act: 0x%lx\n", mcauser);
    177a:	00c12583          	lw	x11,12(x2)
    177e:	654d                	.insn	2, 0x654d
    1780:	1c850513          	addi	x10,x10,456
    1784:	6cc000ef          	jal	x1,1e50 <printf>
        return EXIT_FAILURE;
    1788:	00100513          	addi	x10,x0,1
        return EXIT_FAILURE;
    }

    return EXIT_SUCCESS;
}
    178c:	01c12083          	lw	x1,28(x2)
    1790:	02010113          	addi	x2,x2,32
    1794:	00008067          	jalr	x0,0(x1)
    mcausew = 0x0;
    1798:	00012423          	sw	x0,8(x2)
    __asm__ volatile("csrw mcause, %0" : : "r"(mcausew));
    179c:	00812783          	lw	x15,8(x2)
    17a0:	34279073          	csrrw	x0,mcause,x15
    __asm__ volatile("csrr %0, mcause" : "=r"(mcauser));
    17a4:	342027f3          	csrrs	x15,mcause,x0
    17a8:	00f12623          	sw	x15,12(x2)
    if (mcauser != 0) {
    17ac:	00c12783          	lw	x15,12(x2)
    return EXIT_SUCCESS;
    17b0:	00000513          	addi	x10,x0,0
    if (mcauser != 0) {
    17b4:	fc078ce3          	beq	x15,x0,178c <test8+0x72>
    17b8:	f91ff06f          	jal	x0,1748 <test8+0x2e>

000017bc <test9>:

int test9() {
    volatile uint32_t save_mtvec;
    printf("TEST 9 - ECALL-WFI Coverage Test\n");
    17bc:	654d                	.insn	2, 0x654d
int test9() {
    17be:	fb010113          	addi	x2,x2,-80
    printf("TEST 9 - ECALL-WFI Coverage Test\n");
    17c2:	1f850513          	addi	x10,x10,504
int test9() {
    17c6:	04112623          	sw	x1,76(x2)
    17ca:	04812423          	sw	x8,72(x2)
    17ce:	04912223          	sw	x9,68(x2)
    17d2:	05212023          	sw	x18,64(x2)
    17d6:	03312e23          	sw	x19,60(x2)
    17da:	03412c23          	sw	x20,56(x2)
    17de:	03512a23          	sw	x21,52(x2)
    17e2:	03612823          	sw	x22,48(x2)
    17e6:	03712623          	sw	x23,44(x2)
    17ea:	03812423          	sw	x24,40(x2)
    17ee:	03912223          	sw	x25,36(x2)
    17f2:	03a12023          	sw	x26,32(x2)
    17f6:	01b12e23          	sw	x27,28(x2)
    printf("TEST 9 - ECALL-WFI Coverage Test\n");
    17fa:	772000ef          	jal	x1,1f6c <puts>

    active_test = 9;
    17fe:	00900713          	addi	x14,x0,9
    1802:	f6e1a623          	sw	x14,-148(x3) # 143bc <active_test>

    asm volatile("csrr %0, mtvec" : "=r" (save_mtvec));
    1806:	305027f3          	csrrs	x15,mtvec,x0
    180a:	00f12623          	sw	x15,12(x2)
    asm volatile("csrw mtvec, %0" : : "r" ((uint32_t) alt_direct_ecall_table)); // Leave mode at 0
    180e:	40000793          	addi	x15,x0,1024
    1812:	30579073          	csrrw	x0,mtvec,x15
    *TIMER_REG_ADDR = mask;
    1816:	150007b7          	lui	x15,0x15000
    *TIMER_VAL_ADDR = 1 + cycle_delay;
    181a:	150004b7          	lui	x9,0x15000
    *TIMER_REG_ADDR = mask;
    181e:	0007a023          	sw	x0,0(x15) # 15000000 <__heap_end+0x14c00000>
    *TIMER_VAL_ADDR = 1 + cycle_delay;
    1822:	00448493          	addi	x9,x9,4 # 15000004 <__heap_end+0x14c00004>
    1826:	00100793          	addi	x15,x0,1

    mm_ram_assert_irq(0, 0);

    // Iterate through multiple loops
    for (int irq = 0; irq < 32; irq++) {
        if (!(((0x1 << irq) & IRQ_MASK))) 
    182a:	ffff1a37          	lui	x20,0xffff1
    *TIMER_VAL_ADDR = 1 + cycle_delay;
    182e:	00f4a023          	sw	x15,0(x9)
    for (int irq = 0; irq < 32; irq++) {
    1832:	00000993          	addi	x19,x0,0
        if (!(((0x1 << irq) & IRQ_MASK))) 
    1836:	00100b13          	addi	x22,x0,1
    183a:	888a0a13          	addi	x20,x20,-1912 # ffff0888 <__heap_end+0xffbf0888>
    asm volatile("csrrc x0, mie, %0" : : "r" (mie_mask));
    183e:	fff00a93          	addi	x21,x0,-1

            // Select a wakeup interrupt and enable only it            
            mie_enable(irq);

            // Prep the IRQ ID Q to be empty, we need to detect if any interrupts (or none) taken
            irq_id_q[0] = -1;
    1842:	f9818913          	addi	x18,x3,-104 # 143e8 <irq_id_q>
    asm volatile("csrrc x0, mstatus, %0" : : "r" (mie_bit));
    1846:	00800d93          	addi	x27,x0,8
        if (!(((0x1 << irq) & IRQ_MASK))) 
    184a:	013b1433          	sll	x8,x22,x19
    184e:	014477b3          	and	x15,x8,x20
    1852:	02079063          	bne	x15,x0,1872 <test9+0xb6>
    for (int irq = 0; irq < 32; irq++) {
    1856:	00198993          	addi	x19,x19,1
    185a:	02000793          	addi	x15,x0,32
    185e:	fef996e3          	bne	x19,x15,184a <test9+0x8e>
                }
            }
        }
    }

    asm volatile("csrw mtvec, %0" : : "r" (save_mtvec)); 
    1862:	00c12783          	lw	x15,12(x2)
    1866:	30579073          	csrrw	x0,mtvec,x15

    return EXIT_SUCCESS;
    186a:	00000513          	addi	x10,x0,0
    186e:	0700006f          	jal	x0,18de <test9+0x122>
    asm volatile("csrrc x0, mie, %0" : : "r" (mie_mask));
    1872:	304ab073          	csrrc	x0,mie,x21
    asm volatile("csrrs x0, mie, %0" : : "r" (mie_bit));
    1876:	30442073          	csrrs	x0,mie,x8
            irq_id_q[0] = -1;
    187a:	01592023          	sw	x21,0(x18)
            irq_id_q_ptr = 0;
    187e:	f601aa23          	sw	x0,-140(x3) # 143c4 <irq_id_q_ptr>
    asm volatile("csrrc x0, mstatus, %0" : : "r" (mie_bit));
    1882:	300db073          	csrrc	x0,mstatus,x27
    uint32_t num = *((volatile int *)0x15001000);
    1886:	15001c37          	lui	x24,0x15001
    188a:	000c2c83          	lw	x25,0(x24) # 15001000 <__heap_end+0x14c01000>
            rand_irq = random_num32() & ~(0x1 << irq);
    188e:	fff44793          	xori	x15,x8,-1
    *TIMER_REG_ADDR = mask;
    1892:	15000bb7          	lui	x23,0x15000
            rand_irq = random_num32() & ~(0x1 << irq);
    1896:	0197f7b3          	and	x15,x15,x25
    *TIMER_REG_ADDR = mask;
    189a:	00fba023          	sw	x15,0(x23) # 15000000 <__heap_end+0x14c00000>
    *TIMER_VAL_ADDR = 1 + cycle_delay;
    189e:	0164a023          	sw	x22,0(x9)
            delay(2);
    18a2:	00200513          	addi	x10,x0,2
    18a6:	b63fe0ef          	jal	x1,408 <delay>
    uint32_t num = *((volatile int *)0x15001000);
    18aa:	000c2783          	lw	x15,0(x24)
            mm_ram_assert_irq(rand_irq | (0x1 << irq), (random_num32() & 0x3f) + 64);
    18ae:	01946433          	or	x8,x8,x25
    *TIMER_REG_ADDR = mask;
    18b2:	008ba023          	sw	x8,0(x23)
            mm_ram_assert_irq(rand_irq | (0x1 << irq), (random_num32() & 0x3f) + 64);
    18b6:	03f7f793          	andi	x15,x15,63
    *TIMER_VAL_ADDR = 1 + cycle_delay;
    18ba:	04178793          	addi	x15,x15,65
    18be:	00f4a023          	sw	x15,0(x9)
            asm volatile("ecall");
    18c2:	00000073          	ecall
                if (irq_id_q[0] != -1) {
    18c6:	00092783          	lw	x15,0(x18)
    18ca:	f95786e3          	beq	x15,x21,1856 <test9+0x9a>
                    printf("After WFI with MSTATUS.MIE == 0, interrupt was taken: %lu\n", irq_id_q[0]);
    18ce:	00092583          	lw	x11,0(x18)
    18d2:	654d                	.insn	2, 0x654d
    18d4:	08850513          	addi	x10,x10,136
    18d8:	2ba5                	.insn	2, 0x2ba5
                    return ERR_CODE_TEST_4;
    18da:	00400513          	addi	x10,x0,4
}
    18de:	04c12083          	lw	x1,76(x2)
    18e2:	04812403          	lw	x8,72(x2)
    18e6:	04412483          	lw	x9,68(x2)
    18ea:	04012903          	lw	x18,64(x2)
    18ee:	03c12983          	lw	x19,60(x2)
    18f2:	03812a03          	lw	x20,56(x2)
    18f6:	03412a83          	lw	x21,52(x2)
    18fa:	03012b03          	lw	x22,48(x2)
    18fe:	02c12b83          	lw	x23,44(x2)
    1902:	02812c03          	lw	x24,40(x2)
    1906:	02412c83          	lw	x25,36(x2)
    190a:	02012d03          	lw	x26,32(x2)
    190e:	01c12d83          	lw	x27,28(x2)
    1912:	05010113          	addi	x2,x2,80
    1916:	00008067          	jalr	x0,0(x1)
	...

000019fe <__no_irq_handler>:
.weak m_fast15_irq_handler


/* exception handling */
__no_irq_handler:
	la a0, no_exception_handler_msg
    19fe:	00012517          	auipc	x10,0x12
    1a02:	9fe50513          	addi	x10,x10,-1538 # 133fc <no_exception_handler_msg>
	jal ra, puts
    1a06:	566000ef          	jal	x1,1f6c <puts>
	j __no_irq_handler
    1a0a:	bfd5                	c.j	19fe <__no_irq_handler>

m_software_irq_handler:
	j __no_irq_handler
    1a0c:	bfcd                	c.j	19fe <__no_irq_handler>

m_timer_irq_handler:
	j __no_irq_handler
    1a0e:	bfc5                	c.j	19fe <__no_irq_handler>

m_external_irq_handler:
	j __no_irq_handler
    1a10:	b7fd                	c.j	19fe <__no_irq_handler>

m_fast0_irq_handler:
	j __no_irq_handler
    1a12:	b7f5                	c.j	19fe <__no_irq_handler>

m_fast1_irq_handler:
	j __no_irq_handler
    1a14:	b7ed                	c.j	19fe <__no_irq_handler>

m_fast2_irq_handler:
	j __no_irq_handler
    1a16:	b7e5                	c.j	19fe <__no_irq_handler>

m_fast3_irq_handler:
	j __no_irq_handler
    1a18:	b7dd                	c.j	19fe <__no_irq_handler>

m_fast4_irq_handler:
	j __no_irq_handler
    1a1a:	b7d5                	c.j	19fe <__no_irq_handler>

m_fast5_irq_handler:
	j __no_irq_handler
    1a1c:	b7cd                	c.j	19fe <__no_irq_handler>

m_fast6_irq_handler:
	j __no_irq_handler
    1a1e:	b7c5                	c.j	19fe <__no_irq_handler>

m_fast7_irq_handler:
	j __no_irq_handler
    1a20:	bff9                	c.j	19fe <__no_irq_handler>

m_fast8_irq_handler:
	j __no_irq_handler
    1a22:	bff1                	c.j	19fe <__no_irq_handler>

m_fast9_irq_handler:
	j __no_irq_handler
    1a24:	bfe9                	c.j	19fe <__no_irq_handler>

m_fast10_irq_handler:
	j __no_irq_handler
    1a26:	bfe1                	c.j	19fe <__no_irq_handler>

m_fast11_irq_handler:
	j __no_irq_handler
    1a28:	bfd9                	c.j	19fe <__no_irq_handler>

m_fast12_irq_handler:
	j __no_irq_handler
    1a2a:	bfd1                	c.j	19fe <__no_irq_handler>

m_fast13_irq_handler:
	j __no_irq_handler
    1a2c:	bfc9                	c.j	19fe <__no_irq_handler>

m_fast14_irq_handler:
	j __no_irq_handler
    1a2e:	bfc1                	c.j	19fe <__no_irq_handler>

m_fast15_irq_handler:
	j __no_irq_handler
    1a30:	b7f9                	c.j	19fe <__no_irq_handler>

00001a32 <u_sw_irq_handler>:

u_sw_irq_handler:
	/* While we are still using puts in handlers, save all caller saved
	   regs.  Eventually, some of these saves could be deferred.  */
	addi sp,sp,-64
    1a32:	7139                	c.addi16sp	x2,-64
	sw ra, 0(sp)
    1a34:	c006                	c.swsp	x1,0(x2)
	sw a0, 4(sp)
    1a36:	c22a                	c.swsp	x10,4(x2)
	sw a1, 8(sp)
    1a38:	c42e                	c.swsp	x11,8(x2)
	sw a2, 12(sp)
    1a3a:	c632                	c.swsp	x12,12(x2)
	sw a3, 16(sp)
    1a3c:	c836                	c.swsp	x13,16(x2)
	sw a4, 20(sp)
    1a3e:	ca3a                	c.swsp	x14,20(x2)
	sw a5, 24(sp)
    1a40:	cc3e                	c.swsp	x15,24(x2)
	sw a6, 28(sp)
    1a42:	ce42                	c.swsp	x16,28(x2)
	sw a7, 32(sp)
    1a44:	d046                	c.swsp	x17,32(x2)
	sw t0, 36(sp)
    1a46:	d216                	c.swsp	x5,36(x2)
	sw t1, 40(sp)
    1a48:	d41a                	c.swsp	x6,40(x2)
	sw t2, 44(sp)
    1a4a:	d61e                	c.swsp	x7,44(x2)
	sw t3, 48(sp)
    1a4c:	d872                	c.swsp	x28,48(x2)
	sw t4, 52(sp)
    1a4e:	da76                	c.swsp	x29,52(x2)
	sw t5, 56(sp)
    1a50:	dc7a                	c.swsp	x30,56(x2)
	sw t6, 60(sp)
    1a52:	de7e                	c.swsp	x31,60(x2)
	csrr t0, mcause
    1a54:	342022f3          	csrrs	x5,mcause,x0
	li t1, EXCEPTION_ILLEGAL_INSN
    1a58:	4309                	c.li	x6,2
	beq t0, t1, handle_illegal_insn
    1a5a:	02628363          	beq	x5,x6,1a80 <handle_illegal_insn>
	li t1, EXCEPTION_ECALL_M
    1a5e:	432d                	c.li	x6,11
	beq t0, t1, handle_ecall
    1a60:	00628663          	beq	x5,x6,1a6c <handle_ecall>
	li t1, EXCEPTION_BREAKPOINT
    1a64:	430d                	c.li	x6,3
	beq t0, t1, handle_ebreak
    1a66:	00628663          	beq	x5,x6,1a72 <handle_ebreak>
	j handle_unknown
    1a6a:	a015                	c.j	1a8e <handle_unknown>

00001a6c <handle_ecall>:

handle_ecall:
	jal ra, handle_syscall
    1a6c:	204000ef          	jal	x1,1c70 <handle_syscall>
	j end_handler_incr_mepc
    1a70:	a035                	c.j	1a9c <end_handler_incr_mepc>

00001a72 <handle_ebreak>:

handle_ebreak:
	/* TODO support debug handling requirements.  */
	la a0, ebreak_msg
    1a72:	00012517          	auipc	x10,0x12
    1a76:	92950513          	addi	x10,x10,-1751 # 1339b <ebreak_msg>
	jal ra, puts
    1a7a:	4f2000ef          	jal	x1,1f6c <puts>
	j end_handler_incr_mepc
    1a7e:	a839                	c.j	1a9c <end_handler_incr_mepc>

00001a80 <handle_illegal_insn>:

handle_illegal_insn:
	la a0, illegal_insn_msg
    1a80:	00012517          	auipc	x10,0x12
    1a84:	8af50513          	addi	x10,x10,-1873 # 1332f <illegal_insn_msg>
	jal ra, puts
    1a88:	4e4000ef          	jal	x1,1f6c <puts>
	j end_handler_incr_mepc
    1a8c:	a801                	c.j	1a9c <end_handler_incr_mepc>

00001a8e <handle_unknown>:

handle_unknown:
	la a0, unknown_msg
    1a8e:	00012517          	auipc	x10,0x12
    1a92:	93d50513          	addi	x10,x10,-1731 # 133cb <unknown_msg>
	jal ra, puts
    1a96:	4d6000ef          	jal	x1,1f6c <puts>
	/* We don't know what interrupt/exception is being handled, so don't
	   increment mepc.  */
	j end_handler_ret
    1a9a:	a831                	c.j	1ab6 <end_handler_ret>

00001a9c <end_handler_incr_mepc>:

end_handler_incr_mepc:
	csrr t0, mepc
    1a9c:	341022f3          	csrrs	x5,mepc,x0
	lb t1, 0(t0)
    1aa0:	00028303          	lb	x6,0(x5)
	li a0, 0x3
    1aa4:	450d                	c.li	x10,3
	and t1, t1, a0
    1aa6:	00a37333          	and	x6,x6,x10
	/* Increment mepc by 2 or 4 depending on whether the instruction at mepc
	   is compressed or not.  */
	bne t1, a0, end_handler_incr_mepc2
    1aaa:	00a31363          	bne	x6,x10,1ab0 <end_handler_incr_mepc2>
	addi t0, t0, 2
    1aae:	0289                	c.addi	x5,2

00001ab0 <end_handler_incr_mepc2>:
end_handler_incr_mepc2:
	addi t0, t0, 2
    1ab0:	0289                	c.addi	x5,2
	csrw mepc, t0
    1ab2:	34129073          	csrrw	x0,mepc,x5

00001ab6 <end_handler_ret>:
end_handler_ret:
	lw ra, 0(sp)
    1ab6:	4082                	c.lwsp	x1,0(x2)
	lw a0, 4(sp)
    1ab8:	4512                	c.lwsp	x10,4(x2)
	lw a1, 8(sp)
    1aba:	45a2                	c.lwsp	x11,8(x2)
	lw a2, 12(sp)
    1abc:	4632                	c.lwsp	x12,12(x2)
	lw a3, 16(sp)
    1abe:	46c2                	c.lwsp	x13,16(x2)
	lw a4, 20(sp)
    1ac0:	4752                	c.lwsp	x14,20(x2)
	lw a5, 24(sp)
    1ac2:	47e2                	c.lwsp	x15,24(x2)
	lw a6, 28(sp)
    1ac4:	4872                	c.lwsp	x16,28(x2)
	lw a7, 32(sp)
    1ac6:	5882                	c.lwsp	x17,32(x2)
	lw t0, 36(sp)
    1ac8:	5292                	c.lwsp	x5,36(x2)
	lw t1, 40(sp)
    1aca:	5322                	c.lwsp	x6,40(x2)
	lw t2, 44(sp)
    1acc:	53b2                	c.lwsp	x7,44(x2)
	lw t3, 48(sp)
    1ace:	5e42                	c.lwsp	x28,48(x2)
	lw t4, 52(sp)
    1ad0:	5ed2                	c.lwsp	x29,52(x2)
	lw t5, 56(sp)
    1ad2:	5f62                	c.lwsp	x30,56(x2)
	lw t6, 60(sp)
    1ad4:	5ff2                	c.lwsp	x31,60(x2)
	addi sp,sp,64
    1ad6:	6121                	c.addi16sp	x2,64
	mret
    1ad8:	30200073          	mret

00001adc <__syscall_error>:
#endif
/* Upstream newlib now defines this in libgloss/riscv/internal_syscall.h.  */
long
__syscall_error(long a0)
{
  errno = -a0;
    1adc:	40a00533          	sub	x10,x0,x10
    1ae0:	f6a1ae23          	sw	x10,-132(x3) # 143cc <errno>
  return -1;
}
    1ae4:	557d                	c.li	x10,-1
    1ae6:	8082                	c.jr	x1

00001ae8 <unimplemented_syscall>:

void unimplemented_syscall()
{
  const char *p = "BSP: Unimplemented system call called!\n";
    1ae8:	67cd                	c.lui	x15,0x13
    1aea:	21c78793          	addi	x15,x15,540 # 1321c <__clzsi2+0x4b4>
  while (*p)
    *(volatile int *)STDOUT_REG = *(p++);
    1aee:	100006b7          	lui	x13,0x10000
  while (*p)
    1af2:	0007c703          	lbu	x14,0(x15)
    1af6:	e311                	c.bnez	x14,1afa <unimplemented_syscall+0x12>
}
    1af8:	8082                	c.jr	x1
    *(volatile int *)STDOUT_REG = *(p++);
    1afa:	0785                	c.addi	x15,1
    1afc:	c298                	c.sw	x14,0(x13)
    1afe:	bfd5                	c.j	1af2 <unimplemented_syscall+0xa>

00001b00 <nanosleep>:

int nanosleep(const struct timespec *rqtp, struct timespec *rmtp)
{
  errno = ENOSYS;
    1b00:	05800713          	addi	x14,x0,88
    1b04:	f6e1ae23          	sw	x14,-132(x3) # 143cc <errno>
  return -1;
}
    1b08:	557d                	c.li	x10,-1
    1b0a:	8082                	c.jr	x1

00001b0c <_access>:

int _access(const char *file, int mode)
{
  errno = ENOSYS;
    1b0c:	05800713          	addi	x14,x0,88
    1b10:	f6e1ae23          	sw	x14,-132(x3) # 143cc <errno>
  return -1;
}
    1b14:	557d                	c.li	x10,-1
    1b16:	8082                	c.jr	x1

00001b18 <_chdir>:

int _chdir(const char *path)
{
  errno = ENOSYS;
    1b18:	05800713          	addi	x14,x0,88
    1b1c:	f6e1ae23          	sw	x14,-132(x3) # 143cc <errno>
  return -1;
}
    1b20:	557d                	c.li	x10,-1
    1b22:	8082                	c.jr	x1

00001b24 <_chmod>:

int _chmod(const char *path, mode_t mode)
{
  errno = ENOSYS;
    1b24:	05800713          	addi	x14,x0,88
    1b28:	f6e1ae23          	sw	x14,-132(x3) # 143cc <errno>
  return -1;
}
    1b2c:	557d                	c.li	x10,-1
    1b2e:	8082                	c.jr	x1

00001b30 <_chown>:

int _chown(const char *path, uid_t owner, gid_t group)
{
  errno = ENOSYS;
    1b30:	05800713          	addi	x14,x0,88
    1b34:	f6e1ae23          	sw	x14,-132(x3) # 143cc <errno>
  return -1;
}
    1b38:	557d                	c.li	x10,-1
    1b3a:	8082                	c.jr	x1

00001b3c <_close>:

int _close(int file)
{
  return -1;
}
    1b3c:	557d                	c.li	x10,-1
    1b3e:	8082                	c.jr	x1

00001b40 <_execve>:

int _execve(const char *name, char *const argv[], char *const env[])
{
  errno = ENOMEM;
    1b40:	4731                	c.li	x14,12
    1b42:	f6e1ae23          	sw	x14,-132(x3) # 143cc <errno>
  return -1;
}
    1b46:	557d                	c.li	x10,-1
    1b48:	8082                	c.jr	x1

00001b4a <_exit>:

void _exit(int exit_status)
{
  *(volatile int *)EXIT_REG = exit_status;
    1b4a:	200007b7          	lui	x15,0x20000
    1b4e:	c3c8                	c.sw	x10,4(x15)
  asm volatile("wfi");
    1b50:	10500073          	wfi
  /* _exit should not return */
  while (1) {};
    1b54:	a001                	c.j	1b54 <_exit+0xa>

00001b56 <_faccessat>:
}

int _faccessat(int dirfd, const char *file, int mode, int flags)
{
  errno = ENOSYS;
    1b56:	05800713          	addi	x14,x0,88
    1b5a:	f6e1ae23          	sw	x14,-132(x3) # 143cc <errno>
  return -1;
}
    1b5e:	557d                	c.li	x10,-1
    1b60:	8082                	c.jr	x1

00001b62 <_fork>:

int _fork(void)
{
  errno = EAGAIN;
    1b62:	472d                	c.li	x14,11
    1b64:	f6e1ae23          	sw	x14,-132(x3) # 143cc <errno>
  return -1;
}
    1b68:	557d                	c.li	x10,-1
    1b6a:	8082                	c.jr	x1

00001b6c <_fstat>:

int _fstat(int file, struct stat *st)
{
  st->st_mode = S_IFCHR;
    1b6c:	6789                	c.lui	x15,0x2
    1b6e:	c1dc                	c.sw	x15,4(x11)
  return 0;
  // errno = -ENOSYS;
  // return -1;
}
    1b70:	4501                	c.li	x10,0
    1b72:	8082                	c.jr	x1

00001b74 <_fstatat>:

int _fstatat(int dirfd, const char *file, struct stat *st, int flags)
{
  errno = ENOSYS;
    1b74:	05800713          	addi	x14,x0,88
    1b78:	f6e1ae23          	sw	x14,-132(x3) # 143cc <errno>
  return -1;
}
    1b7c:	557d                	c.li	x10,-1
    1b7e:	8082                	c.jr	x1

00001b80 <_ftime>:

int _ftime(struct timeb *tp)
    1b80:	05800713          	addi	x14,x0,88
    1b84:	f6e1ae23          	sw	x14,-132(x3) # 143cc <errno>
    1b88:	557d                	c.li	x10,-1
    1b8a:	8082                	c.jr	x1

00001b8c <_getcwd>:
  return -1;
}

char *_getcwd(char *buf, size_t size)
{
  errno = -ENOSYS;
    1b8c:	fa800713          	addi	x14,x0,-88
    1b90:	f6e1ae23          	sw	x14,-132(x3) # 143cc <errno>
  return NULL;
}
    1b94:	4501                	c.li	x10,0
    1b96:	8082                	c.jr	x1

00001b98 <_getpid>:

int _getpid()
{
  return 1;
}
    1b98:	4505                	c.li	x10,1
    1b9a:	8082                	c.jr	x1

00001b9c <_gettimeofday>:

int _gettimeofday(struct timeval *tp, void *tzp)
{
  errno = -ENOSYS;
    1b9c:	fa800713          	addi	x14,x0,-88
    1ba0:	f6e1ae23          	sw	x14,-132(x3) # 143cc <errno>
  return -1;
}
    1ba4:	557d                	c.li	x10,-1
    1ba6:	8082                	c.jr	x1

00001ba8 <_isatty>:

int _isatty(int file)
{
  return (file == STDOUT_FILENO);
    1ba8:	157d                	c.addi	x10,-1
}
    1baa:	00153513          	sltiu	x10,x10,1
    1bae:	8082                	c.jr	x1

00001bb0 <_kill>:

int _kill(int pid, int sig)
{
  errno = EINVAL;
    1bb0:	4759                	c.li	x14,22
    1bb2:	f6e1ae23          	sw	x14,-132(x3) # 143cc <errno>
  return -1;
}
    1bb6:	557d                	c.li	x10,-1
    1bb8:	8082                	c.jr	x1

00001bba <_link>:

int _link(const char *old_name, const char *new_name)
{
  errno = EMLINK;
    1bba:	477d                	c.li	x14,31
    1bbc:	f6e1ae23          	sw	x14,-132(x3) # 143cc <errno>
  return -1;
}
    1bc0:	557d                	c.li	x10,-1
    1bc2:	8082                	c.jr	x1

00001bc4 <_lseek>:

off_t _lseek(int file, off_t ptr, int dir)
{
  return 0;
}
    1bc4:	4501                	c.li	x10,0
    1bc6:	8082                	c.jr	x1

00001bc8 <_lstat>:

int _lstat(const char *file, struct stat *st)
    1bc8:	05800713          	addi	x14,x0,88
    1bcc:	f6e1ae23          	sw	x14,-132(x3) # 143cc <errno>
    1bd0:	557d                	c.li	x10,-1
    1bd2:	8082                	c.jr	x1

00001bd4 <_open>:
}

int _open(const char *name, int flags, int mode)
{
  return -1;
}
    1bd4:	557d                	c.li	x10,-1
    1bd6:	8082                	c.jr	x1

00001bd8 <_openat>:

int _openat(int dirfd, const char *name, int flags, int mode)
    1bd8:	05800713          	addi	x14,x0,88
    1bdc:	f6e1ae23          	sw	x14,-132(x3) # 143cc <errno>
    1be0:	557d                	c.li	x10,-1
    1be2:	8082                	c.jr	x1

00001be4 <_read>:
}

ssize_t _read(int file, void *ptr, size_t len)
{
  return 0;
}
    1be4:	4501                	c.li	x10,0
    1be6:	8082                	c.jr	x1

00001be8 <_stat>:

int _stat(const char *file, struct stat *st)
{
  st->st_mode = S_IFCHR;
    1be8:	6789                	c.lui	x15,0x2
    1bea:	c1dc                	c.sw	x15,4(x11)
  return 0;
  // errno = ENOSYS;
  // return -1;
}
    1bec:	4501                	c.li	x10,0
    1bee:	8082                	c.jr	x1

00001bf0 <_sysconf>:

long _sysconf(int name)
    1bf0:	557d                	c.li	x10,-1
    1bf2:	8082                	c.jr	x1

00001bf4 <_times>:
}

clock_t _times(struct tms *buf)
{
  return -1;
}
    1bf4:	557d                	c.li	x10,-1
    1bf6:	8082                	c.jr	x1

00001bf8 <_unlink>:

int _unlink(const char *name)
{
  errno = ENOENT;
    1bf8:	4709                	c.li	x14,2
    1bfa:	f6e1ae23          	sw	x14,-132(x3) # 143cc <errno>
  return -1;
}
    1bfe:	557d                	c.li	x10,-1
    1c00:	8082                	c.jr	x1

00001c02 <_utime>:

int _utime(const char *path, const struct utimbuf *times)
    1c02:	05800713          	addi	x14,x0,88
    1c06:	f6e1ae23          	sw	x14,-132(x3) # 143cc <errno>
    1c0a:	557d                	c.li	x10,-1
    1c0c:	8082                	c.jr	x1

00001c0e <_wait>:
  return -1;
}

int _wait(int *status)
{
  errno = ECHILD;
    1c0e:	4729                	c.li	x14,10
    1c10:	f6e1ae23          	sw	x14,-132(x3) # 143cc <errno>
  return -1;
}
    1c14:	557d                	c.li	x10,-1
    1c16:	8082                	c.jr	x1

00001c18 <_write>:

ssize_t _write(int file, const void *ptr, size_t len)
{
  const char *cptr = (char *)ptr;
  if (file != STDOUT_FILENO)
    1c18:	4685                	c.li	x13,1
    {
      errno = ENOSYS;
      return -1;
    }

  const void *eptr = cptr + len;
    1c1a:	00c587b3          	add	x15,x11,x12
  while (cptr != eptr)
    *(volatile int *)STDOUT_REG = *cptr++;
    1c1e:	10000737          	lui	x14,0x10000
  if (file != STDOUT_FILENO)
    1c22:	00d50c63          	beq	x10,x13,1c3a <_write+0x22>
      errno = ENOSYS;
    1c26:	05800713          	addi	x14,x0,88
    1c2a:	f6e1ae23          	sw	x14,-132(x3) # 143cc <errno>
      return -1;
    1c2e:	557d                	c.li	x10,-1
    1c30:	8082                	c.jr	x1
    *(volatile int *)STDOUT_REG = *cptr++;
    1c32:	0005c683          	lbu	x13,0(x11)
    1c36:	0585                	c.addi	x11,1
    1c38:	c314                	c.sw	x13,0(x14)
  while (cptr != eptr)
    1c3a:	fef59ce3          	bne	x11,x15,1c32 <_write+0x1a>
  return len;
    1c3e:	8532                	c.mv	x10,x12
}
    1c40:	8082                	c.jr	x1

00001c42 <_brk>:
extern char __heap_end[];
static char *brk = __heap_start;

int _brk(void *addr)
{
  brk = addr;
    1c42:	f4a1a823          	sw	x10,-176(x3) # 143a0 <brk>
  return 0;
}
    1c46:	4501                	c.li	x10,0
    1c48:	8082                	c.jr	x1

00001c4a <_sbrk>:

void *_sbrk(ptrdiff_t incr)
{
    1c4a:	87aa                	c.mv	x15,x10
  char *old_brk = brk;
    1c4c:	f501a503          	lw	x10,-176(x3) # 143a0 <brk>
  register long sp asm("sp");

  char *new_brk = brk += incr;
    1c50:	97aa                	c.add	x15,x10
    1c52:	f4f1a823          	sw	x15,-176(x3) # 143a0 <brk>
  if (new_brk < (char *) sp && new_brk < __heap_end)
    1c56:	0027f863          	bgeu	x15,x2,1c66 <_sbrk+0x1c>
    1c5a:	00400737          	lui	x14,0x400
    1c5e:	00070713          	addi	x14,x14,0 # 400000 <__heap_end>
    1c62:	00e7e663          	bltu	x15,x14,1c6e <_sbrk+0x24>

      return old_brk;
    }
  else
    {
      errno = ENOMEM;
    1c66:	4731                	c.li	x14,12
    1c68:	f6e1ae23          	sw	x14,-132(x3) # 143cc <errno>
      return (void *) -1;
    1c6c:	557d                	c.li	x10,-1
    }
}
    1c6e:	8082                	c.jr	x1

00001c70 <handle_syscall>:
    register long syscall_id asm("t0");
  #else
    long syscall_id = a7;
  #endif

  switch (syscall_id) {
    1c70:	08100793          	addi	x15,x0,129
    1c74:	0af88c63          	beq	x17,x15,1d2c <handle_syscall+0xbc>
    1c78:	0717c763          	blt	x15,x17,1ce6 <handle_syscall+0x76>
    1c7c:	04000793          	addi	x15,x0,64
    1c80:	0517c663          	blt	x15,x17,1ccc <handle_syscall+0x5c>
    1c84:	02f00793          	addi	x15,x0,47
    1c88:	0317c563          	blt	x15,x17,1cb2 <handle_syscall+0x42>
    1c8c:	47c5                	c.li	x15,17
    1c8e:	04f89b63          	bne	x17,x15,1ce4 <handle_syscall+0x74>
  errno = -ENOSYS;
    1c92:	fa800713          	addi	x14,x0,-88
    1c96:	a861                	c.j	1d2e <handle_syscall+0xbe>
  switch (syscall_id) {
    1c98:	c0088893          	addi	x17,x17,-1024
    1c9c:	47bd                	c.li	x15,15
    1c9e:	0517e363          	bltu	x15,x17,1ce4 <handle_syscall+0x74>
    1ca2:	67cd                	c.lui	x15,0x13
    1ca4:	42c78793          	addi	x15,x15,1068 # 1342c <no_exception_handler_msg+0x30>
    1ca8:	088a                	c.slli	x17,0x2
    1caa:	98be                	c.add	x17,x15
    1cac:	0008a783          	lw	x15,0(x17)
    1cb0:	8782                	c.jr	x15
    1cb2:	fd088893          	addi	x17,x17,-48
    1cb6:	47c1                	c.li	x15,16
    1cb8:	0317e663          	bltu	x15,x17,1ce4 <handle_syscall+0x74>
    1cbc:	67cd                	c.lui	x15,0x13
    1cbe:	46c78793          	addi	x15,x15,1132 # 1346c <no_exception_handler_msg+0x70>
    1cc2:	088a                	c.slli	x17,0x2
    1cc4:	98be                	c.add	x17,x15
    1cc6:	0008a783          	lw	x15,0(x17)
    1cca:	8782                	c.jr	x15
    1ccc:	05000793          	addi	x15,x0,80
    1cd0:	06f88963          	beq	x17,x15,1d42 <handle_syscall+0xd2>
    1cd4:	05d00793          	addi	x15,x0,93
    1cd8:	04f88363          	beq	x17,x15,1d1e <handle_syscall+0xae>
    1cdc:	04f00793          	addi	x15,x0,79
    1ce0:	04f88a63          	beq	x17,x15,1d34 <handle_syscall+0xc4>
      break;
    case SYS_times:
      _times ((struct tms *) a0);
      break;
    default:
      unimplemented_syscall ();
    1ce4:	b511                	c.j	1ae8 <unimplemented_syscall>
  switch (syscall_id) {
    1ce6:	40f00793          	addi	x15,x0,1039
    1cea:	ff17cde3          	blt	x15,x17,1ce4 <handle_syscall+0x74>
    1cee:	3ff00793          	addi	x15,x0,1023
    1cf2:	fb17c3e3          	blt	x15,x17,1c98 <handle_syscall+0x28>
    1cf6:	0ac00793          	addi	x15,x0,172
    1cfa:	04f88763          	beq	x17,x15,1d48 <handle_syscall+0xd8>
    1cfe:	0117c963          	blt	x15,x17,1d10 <handle_syscall+0xa0>
    1d02:	09900793          	addi	x15,x0,153
    1d06:	04f88163          	beq	x17,x15,1d48 <handle_syscall+0xd8>
    1d0a:	0a900793          	addi	x15,x0,169
    1d0e:	b741                	c.j	1c8e <handle_syscall+0x1e>
    1d10:	0d600793          	addi	x15,x0,214
    1d14:	fcf898e3          	bne	x17,x15,1ce4 <handle_syscall+0x74>
  brk = addr;
    1d18:	f4a1a823          	sw	x10,-176(x3) # 143a0 <brk>
  return 0;
    1d1c:	8082                	c.jr	x1
  *(volatile int *)EXIT_REG = exit_status;
    1d1e:	200007b7          	lui	x15,0x20000
    1d22:	c3c8                	c.sw	x10,4(x15)
  asm volatile("wfi");
    1d24:	10500073          	wfi
  while (1) {};
    1d28:	a001                	c.j	1d28 <handle_syscall+0xb8>
      _write (a0, (const void *) a1, a2);
    1d2a:	b5fd                	c.j	1c18 <_write>
  errno = EINVAL;
    1d2c:	4759                	c.li	x14,22
  errno = ENOSYS;
    1d2e:	f6e1ae23          	sw	x14,-132(x3) # 143cc <errno>
  return -1;
    1d32:	8082                	c.jr	x1
  errno = ENOSYS;
    1d34:	05800713          	addi	x14,x0,88
    1d38:	bfdd                	c.j	1d2e <handle_syscall+0xbe>
  errno = EMLINK;
    1d3a:	477d                	c.li	x14,31
    1d3c:	bfcd                	c.j	1d2e <handle_syscall+0xbe>
  errno = ENOENT;
    1d3e:	4709                	c.li	x14,2
    1d40:	b7fd                	c.j	1d2e <handle_syscall+0xbe>
  st->st_mode = S_IFCHR;
    1d42:	6789                	c.lui	x15,0x2
    1d44:	c1dc                	c.sw	x15,4(x11)
  return 0;
    1d46:	8082                	c.jr	x1
      break;
  }
}
    1d48:	8082                	c.jr	x1
	...

00001d4c <_reclaim_reent>:
    1d4c:	f5c1a783          	lw	x15,-164(x3) # 143ac <_impure_ptr>
    1d50:	0aa78e63          	beq	x15,x10,1e0c <_reclaim_reent+0xc0>
    1d54:	04452583          	lw	x11,68(x10)
    1d58:	fe010113          	addi	x2,x2,-32
    1d5c:	00912a23          	sw	x9,20(x2)
    1d60:	00112e23          	sw	x1,28(x2)
    1d64:	00050493          	addi	x9,x10,0
    1d68:	04058c63          	beq	x11,x0,1dc0 <_reclaim_reent+0x74>
    1d6c:	01212823          	sw	x18,16(x2)
    1d70:	01312623          	sw	x19,12(x2)
    1d74:	00812c23          	sw	x8,24(x2)
    1d78:	00000913          	addi	x18,x0,0
    1d7c:	08000993          	addi	x19,x0,128
    1d80:	012587b3          	add	x15,x11,x18
    1d84:	0007a403          	lw	x8,0(x15) # 2000 <__fp_unlock+0x4>
    1d88:	00040e63          	beq	x8,x0,1da4 <_reclaim_reent+0x58>
    1d8c:	00040593          	addi	x11,x8,0
    1d90:	00042403          	lw	x8,0(x8)
    1d94:	00048513          	addi	x10,x9,0
    1d98:	4c4010ef          	jal	x1,325c <_free_r>
    1d9c:	fe0418e3          	bne	x8,x0,1d8c <_reclaim_reent+0x40>
    1da0:	0444a583          	lw	x11,68(x9)
    1da4:	00490913          	addi	x18,x18,4
    1da8:	fd391ce3          	bne	x18,x19,1d80 <_reclaim_reent+0x34>
    1dac:	00048513          	addi	x10,x9,0
    1db0:	4ac010ef          	jal	x1,325c <_free_r>
    1db4:	01812403          	lw	x8,24(x2)
    1db8:	01012903          	lw	x18,16(x2)
    1dbc:	00c12983          	lw	x19,12(x2)
    1dc0:	0384a583          	lw	x11,56(x9)
    1dc4:	00058663          	beq	x11,x0,1dd0 <_reclaim_reent+0x84>
    1dc8:	00048513          	addi	x10,x9,0
    1dcc:	490010ef          	jal	x1,325c <_free_r>
    1dd0:	04c4a583          	lw	x11,76(x9)
    1dd4:	00058663          	beq	x11,x0,1de0 <_reclaim_reent+0x94>
    1dd8:	00048513          	addi	x10,x9,0
    1ddc:	480010ef          	jal	x1,325c <_free_r>
    1de0:	0344a783          	lw	x15,52(x9)
    1de4:	00078c63          	beq	x15,x0,1dfc <_reclaim_reent+0xb0>
    1de8:	01c12083          	lw	x1,28(x2)
    1dec:	00048513          	addi	x10,x9,0
    1df0:	01412483          	lw	x9,20(x2)
    1df4:	02010113          	addi	x2,x2,32
    1df8:	00078067          	jalr	x0,0(x15)
    1dfc:	01c12083          	lw	x1,28(x2)
    1e00:	01412483          	lw	x9,20(x2)
    1e04:	02010113          	addi	x2,x2,32
    1e08:	00008067          	jalr	x0,0(x1)
    1e0c:	00008067          	jalr	x0,0(x1)

00001e10 <_printf_r>:
    1e10:	fc010113          	addi	x2,x2,-64
    1e14:	02c12423          	sw	x12,40(x2)
    1e18:	02d12623          	sw	x13,44(x2)
    1e1c:	02e12823          	sw	x14,48(x2)
    1e20:	02f12a23          	sw	x15,52(x2)
    1e24:	03012c23          	sw	x16,56(x2)
    1e28:	03112e23          	sw	x17,60(x2)
    1e2c:	00058613          	addi	x12,x11,0
    1e30:	00852583          	lw	x11,8(x10)
    1e34:	02810693          	addi	x13,x2,40
    1e38:	00112e23          	sw	x1,28(x2)
    1e3c:	00d12623          	sw	x13,12(x2)
    1e40:	624020ef          	jal	x1,4464 <_vfprintf_r>
    1e44:	01c12083          	lw	x1,28(x2)
    1e48:	04010113          	addi	x2,x2,64
    1e4c:	00008067          	jalr	x0,0(x1)

00001e50 <printf>:
    1e50:	fc010113          	addi	x2,x2,-64
    1e54:	02c12423          	sw	x12,40(x2)
    1e58:	02d12623          	sw	x13,44(x2)
    1e5c:	f5c1a303          	lw	x6,-164(x3) # 143ac <_impure_ptr>
    1e60:	02b12223          	sw	x11,36(x2)
    1e64:	02e12823          	sw	x14,48(x2)
    1e68:	02f12a23          	sw	x15,52(x2)
    1e6c:	03012c23          	sw	x16,56(x2)
    1e70:	03112e23          	sw	x17,60(x2)
    1e74:	00832583          	lw	x11,8(x6)
    1e78:	02410693          	addi	x13,x2,36
    1e7c:	00050613          	addi	x12,x10,0
    1e80:	00030513          	addi	x10,x6,0
    1e84:	00112e23          	sw	x1,28(x2)
    1e88:	00d12623          	sw	x13,12(x2)
    1e8c:	5d8020ef          	jal	x1,4464 <_vfprintf_r>
    1e90:	01c12083          	lw	x1,28(x2)
    1e94:	04010113          	addi	x2,x2,64
    1e98:	00008067          	jalr	x0,0(x1)

00001e9c <_puts_r>:
    1e9c:	fc010113          	addi	x2,x2,-64
    1ea0:	02812c23          	sw	x8,56(x2)
    1ea4:	00050413          	addi	x8,x10,0
    1ea8:	00058513          	addi	x10,x11,0
    1eac:	02912a23          	sw	x9,52(x2)
    1eb0:	02112e23          	sw	x1,60(x2)
    1eb4:	00058493          	addi	x9,x11,0
    1eb8:	6a8010ef          	jal	x1,3560 <strlen>
    1ebc:	00150713          	addi	x14,x10,1
    1ec0:	00011697          	auipc	x13,0x11
    1ec4:	fe068693          	addi	x13,x13,-32 # 12ea0 <__clzsi2+0x138>
    1ec8:	00e12e23          	sw	x14,28(x2)
    1ecc:	03442783          	lw	x15,52(x8)
    1ed0:	02010713          	addi	x14,x2,32
    1ed4:	02d12423          	sw	x13,40(x2)
    1ed8:	00e12a23          	sw	x14,20(x2)
    1edc:	00100693          	addi	x13,x0,1
    1ee0:	00200713          	addi	x14,x0,2
    1ee4:	02912023          	sw	x9,32(x2)
    1ee8:	02a12223          	sw	x10,36(x2)
    1eec:	02d12623          	sw	x13,44(x2)
    1ef0:	00e12c23          	sw	x14,24(x2)
    1ef4:	00842583          	lw	x11,8(x8)
    1ef8:	06078063          	beq	x15,x0,1f58 <_puts_r+0xbc>
    1efc:	00c59783          	lh	x15,12(x11)
    1f00:	01279713          	slli	x14,x15,0x12
    1f04:	02074263          	blt	x14,x0,1f28 <_puts_r+0x8c>
    1f08:	0645a703          	lw	x14,100(x11)
    1f0c:	ffffe6b7          	lui	x13,0xffffe
    1f10:	fff68693          	addi	x13,x13,-1 # ffffdfff <__heap_end+0xffbfdfff>
    1f14:	00002637          	lui	x12,0x2
    1f18:	00c7e7b3          	or	x15,x15,x12
    1f1c:	00d77733          	and	x14,x14,x13
    1f20:	00f59623          	sh	x15,12(x11)
    1f24:	06e5a223          	sw	x14,100(x11)
    1f28:	01410613          	addi	x12,x2,20
    1f2c:	00040513          	addi	x10,x8,0
    1f30:	3ac000ef          	jal	x1,22dc <__sfvwrite_r>
    1f34:	03c12083          	lw	x1,60(x2)
    1f38:	03812403          	lw	x8,56(x2)
    1f3c:	00153513          	sltiu	x10,x10,1
    1f40:	40a00533          	sub	x10,x0,x10
    1f44:	00b57513          	andi	x10,x10,11
    1f48:	03412483          	lw	x9,52(x2)
    1f4c:	fff50513          	addi	x10,x10,-1
    1f50:	04010113          	addi	x2,x2,64
    1f54:	00008067          	jalr	x0,0(x1)
    1f58:	00040513          	addi	x10,x8,0
    1f5c:	00b12623          	sw	x11,12(x2)
    1f60:	320000ef          	jal	x1,2280 <__sinit>
    1f64:	00c12583          	lw	x11,12(x2)
    1f68:	f95ff06f          	jal	x0,1efc <_puts_r+0x60>

00001f6c <puts>:
    1f6c:	00050593          	addi	x11,x10,0
    1f70:	f5c1a503          	lw	x10,-164(x3) # 143ac <_impure_ptr>
    1f74:	f29ff06f          	jal	x0,1e9c <_puts_r>

00001f78 <__fp_lock>:
    1f78:	00000513          	addi	x10,x0,0
    1f7c:	00008067          	jalr	x0,0(x1)

00001f80 <stdio_exit_handler>:
    1f80:	00012617          	auipc	x12,0x12
    1f84:	d1c60613          	addi	x12,x12,-740 # 13c9c <__sglue>
    1f88:	00001597          	auipc	x11,0x1
    1f8c:	86458593          	addi	x11,x11,-1948 # 27ec <_fclose_r>
    1f90:	c6018513          	addi	x10,x3,-928 # 140b0 <_impure_data>
    1f94:	7f80106f          	jal	x0,378c <_fwalk_sglue>

00001f98 <cleanup_stdio>:
    1f98:	00452583          	lw	x11,4(x10)
    1f9c:	ff010113          	addi	x2,x2,-16
    1fa0:	00812423          	sw	x8,8(x2)
    1fa4:	00112623          	sw	x1,12(x2)
    1fa8:	fe418793          	addi	x15,x3,-28 # 14434 <__sf>
    1fac:	00050413          	addi	x8,x10,0
    1fb0:	00f58463          	beq	x11,x15,1fb8 <cleanup_stdio+0x20>
    1fb4:	039000ef          	jal	x1,27ec <_fclose_r>
    1fb8:	00842583          	lw	x11,8(x8)
    1fbc:	04c18793          	addi	x15,x3,76 # 1449c <__global_pointer$+0x4c>
    1fc0:	00f58663          	beq	x11,x15,1fcc <cleanup_stdio+0x34>
    1fc4:	00040513          	addi	x10,x8,0
    1fc8:	025000ef          	jal	x1,27ec <_fclose_r>
    1fcc:	00c42583          	lw	x11,12(x8)
    1fd0:	0b418793          	addi	x15,x3,180 # 14504 <__global_pointer$+0xb4>
    1fd4:	00f58c63          	beq	x11,x15,1fec <cleanup_stdio+0x54>
    1fd8:	00040513          	addi	x10,x8,0
    1fdc:	00812403          	lw	x8,8(x2)
    1fe0:	00c12083          	lw	x1,12(x2)
    1fe4:	01010113          	addi	x2,x2,16
    1fe8:	0050006f          	jal	x0,27ec <_fclose_r>
    1fec:	00c12083          	lw	x1,12(x2)
    1ff0:	00812403          	lw	x8,8(x2)
    1ff4:	01010113          	addi	x2,x2,16
    1ff8:	00008067          	jalr	x0,0(x1)

00001ffc <__fp_unlock>:
    1ffc:	00000513          	addi	x10,x0,0
    2000:	00008067          	jalr	x0,0(x1)

00002004 <global_stdio_init.part.0>:
    2004:	fe010113          	addi	x2,x2,-32
    2008:	00000797          	auipc	x15,0x0
    200c:	f7878793          	addi	x15,x15,-136 # 1f80 <stdio_exit_handler>
    2010:	00112e23          	sw	x1,28(x2)
    2014:	00812c23          	sw	x8,24(x2)
    2018:	00912a23          	sw	x9,20(x2)
    201c:	fe418413          	addi	x8,x3,-28 # 14434 <__sf>
    2020:	01212823          	sw	x18,16(x2)
    2024:	01312623          	sw	x19,12(x2)
    2028:	01412423          	sw	x20,8(x2)
    202c:	f8f1a023          	sw	x15,-128(x3) # 143d0 <__stdio_exit_handler>
    2030:	00800613          	addi	x12,x0,8
    2034:	00400793          	addi	x15,x0,4
    2038:	00000593          	addi	x11,x0,0
    203c:	04018513          	addi	x10,x3,64 # 14490 <__global_pointer$+0x40>
    2040:	00f42623          	sw	x15,12(x8)
    2044:	00042023          	sw	x0,0(x8)
    2048:	00042223          	sw	x0,4(x8)
    204c:	00042423          	sw	x0,8(x8)
    2050:	06042223          	sw	x0,100(x8)
    2054:	00042823          	sw	x0,16(x8)
    2058:	00042a23          	sw	x0,20(x8)
    205c:	00042c23          	sw	x0,24(x8)
    2060:	650010ef          	jal	x1,36b0 <memset>
    2064:	000107b7          	lui	x15,0x10
    2068:	00002a17          	auipc	x20,0x2
    206c:	290a0a13          	addi	x20,x20,656 # 42f8 <__sread>
    2070:	00002997          	auipc	x19,0x2
    2074:	2ec98993          	addi	x19,x19,748 # 435c <__swrite>
    2078:	00002917          	auipc	x18,0x2
    207c:	36c90913          	addi	x18,x18,876 # 43e4 <__sseek>
    2080:	00002497          	auipc	x9,0x2
    2084:	3dc48493          	addi	x9,x9,988 # 445c <__sclose>
    2088:	00978793          	addi	x15,x15,9 # 10009 <__multf3+0x16d>
    208c:	00800613          	addi	x12,x0,8
    2090:	00000593          	addi	x11,x0,0
    2094:	0a818513          	addi	x10,x3,168 # 144f8 <__global_pointer$+0xa8>
    2098:	03442023          	sw	x20,32(x8)
    209c:	03342223          	sw	x19,36(x8)
    20a0:	03242423          	sw	x18,40(x8)
    20a4:	02942623          	sw	x9,44(x8)
    20a8:	06f42a23          	sw	x15,116(x8)
    20ac:	00842e23          	sw	x8,28(x8)
    20b0:	06042423          	sw	x0,104(x8)
    20b4:	06042623          	sw	x0,108(x8)
    20b8:	06042823          	sw	x0,112(x8)
    20bc:	0c042623          	sw	x0,204(x8)
    20c0:	06042c23          	sw	x0,120(x8)
    20c4:	06042e23          	sw	x0,124(x8)
    20c8:	08042023          	sw	x0,128(x8)
    20cc:	5e4010ef          	jal	x1,36b0 <memset>
    20d0:	000207b7          	lui	x15,0x20
    20d4:	01278793          	addi	x15,x15,18 # 20012 <__heap_start+0xb8e2>
    20d8:	04c18713          	addi	x14,x3,76 # 1449c <__global_pointer$+0x4c>
    20dc:	00800613          	addi	x12,x0,8
    20e0:	00000593          	addi	x11,x0,0
    20e4:	11018513          	addi	x10,x3,272 # 14560 <__global_pointer$+0x110>
    20e8:	09442423          	sw	x20,136(x8)
    20ec:	09342623          	sw	x19,140(x8)
    20f0:	09242823          	sw	x18,144(x8)
    20f4:	08942a23          	sw	x9,148(x8)
    20f8:	0cf42e23          	sw	x15,220(x8)
    20fc:	08e42223          	sw	x14,132(x8)
    2100:	0c042823          	sw	x0,208(x8)
    2104:	0c042a23          	sw	x0,212(x8)
    2108:	0c042c23          	sw	x0,216(x8)
    210c:	12042a23          	sw	x0,308(x8)
    2110:	0e042023          	sw	x0,224(x8)
    2114:	0e042223          	sw	x0,228(x8)
    2118:	0e042423          	sw	x0,232(x8)
    211c:	594010ef          	jal	x1,36b0 <memset>
    2120:	0b418793          	addi	x15,x3,180 # 14504 <__global_pointer$+0xb4>
    2124:	0f442823          	sw	x20,240(x8)
    2128:	0f342a23          	sw	x19,244(x8)
    212c:	0f242c23          	sw	x18,248(x8)
    2130:	0e942e23          	sw	x9,252(x8)
    2134:	01c12083          	lw	x1,28(x2)
    2138:	0ef42623          	sw	x15,236(x8)
    213c:	01812403          	lw	x8,24(x2)
    2140:	01412483          	lw	x9,20(x2)
    2144:	01012903          	lw	x18,16(x2)
    2148:	00c12983          	lw	x19,12(x2)
    214c:	00812a03          	lw	x20,8(x2)
    2150:	02010113          	addi	x2,x2,32
    2154:	00008067          	jalr	x0,0(x1)

00002158 <__sfp>:
    2158:	fe010113          	addi	x2,x2,-32
    215c:	01312623          	sw	x19,12(x2)
    2160:	00112e23          	sw	x1,28(x2)
    2164:	00812c23          	sw	x8,24(x2)
    2168:	00912a23          	sw	x9,20(x2)
    216c:	01212823          	sw	x18,16(x2)
    2170:	f801a783          	lw	x15,-128(x3) # 143d0 <__stdio_exit_handler>
    2174:	00050993          	addi	x19,x10,0
    2178:	0e078863          	beq	x15,x0,2268 <__sfp+0x110>
    217c:	00012917          	auipc	x18,0x12
    2180:	b2090913          	addi	x18,x18,-1248 # 13c9c <__sglue>
    2184:	fff00493          	addi	x9,x0,-1
    2188:	00492783          	lw	x15,4(x18)
    218c:	00892403          	lw	x8,8(x18)
    2190:	fff78793          	addi	x15,x15,-1
    2194:	0007d863          	bge	x15,x0,21a4 <__sfp+0x4c>
    2198:	0800006f          	jal	x0,2218 <__sfp+0xc0>
    219c:	06840413          	addi	x8,x8,104
    21a0:	06978c63          	beq	x15,x9,2218 <__sfp+0xc0>
    21a4:	00c41703          	lh	x14,12(x8)
    21a8:	fff78793          	addi	x15,x15,-1
    21ac:	fe0718e3          	bne	x14,x0,219c <__sfp+0x44>
    21b0:	ffff07b7          	lui	x15,0xffff0
    21b4:	00178793          	addi	x15,x15,1 # ffff0001 <__heap_end+0xffbf0001>
    21b8:	00f42623          	sw	x15,12(x8)
    21bc:	06042223          	sw	x0,100(x8)
    21c0:	00042023          	sw	x0,0(x8)
    21c4:	00042423          	sw	x0,8(x8)
    21c8:	00042223          	sw	x0,4(x8)
    21cc:	00042823          	sw	x0,16(x8)
    21d0:	00042a23          	sw	x0,20(x8)
    21d4:	00042c23          	sw	x0,24(x8)
    21d8:	00800613          	addi	x12,x0,8
    21dc:	00000593          	addi	x11,x0,0
    21e0:	05c40513          	addi	x10,x8,92
    21e4:	4cc010ef          	jal	x1,36b0 <memset>
    21e8:	02042823          	sw	x0,48(x8)
    21ec:	02042a23          	sw	x0,52(x8)
    21f0:	04042223          	sw	x0,68(x8)
    21f4:	04042423          	sw	x0,72(x8)
    21f8:	01c12083          	lw	x1,28(x2)
    21fc:	00040513          	addi	x10,x8,0
    2200:	01812403          	lw	x8,24(x2)
    2204:	01412483          	lw	x9,20(x2)
    2208:	01012903          	lw	x18,16(x2)
    220c:	00c12983          	lw	x19,12(x2)
    2210:	02010113          	addi	x2,x2,32
    2214:	00008067          	jalr	x0,0(x1)
    2218:	00092403          	lw	x8,0(x18)
    221c:	00040663          	beq	x8,x0,2228 <__sfp+0xd0>
    2220:	00040913          	addi	x18,x8,0
    2224:	f65ff06f          	jal	x0,2188 <__sfp+0x30>
    2228:	1ac00593          	addi	x11,x0,428
    222c:	00098513          	addi	x10,x19,0
    2230:	6d0000ef          	jal	x1,2900 <_malloc_r>
    2234:	00050413          	addi	x8,x10,0
    2238:	02050c63          	beq	x10,x0,2270 <__sfp+0x118>
    223c:	00c50513          	addi	x10,x10,12
    2240:	00400793          	addi	x15,x0,4
    2244:	00042023          	sw	x0,0(x8)
    2248:	00f42223          	sw	x15,4(x8)
    224c:	00a42423          	sw	x10,8(x8)
    2250:	1a000613          	addi	x12,x0,416
    2254:	00000593          	addi	x11,x0,0
    2258:	458010ef          	jal	x1,36b0 <memset>
    225c:	00892023          	sw	x8,0(x18)
    2260:	00040913          	addi	x18,x8,0
    2264:	f25ff06f          	jal	x0,2188 <__sfp+0x30>
    2268:	d9dff0ef          	jal	x1,2004 <global_stdio_init.part.0>
    226c:	f11ff06f          	jal	x0,217c <__sfp+0x24>
    2270:	00092023          	sw	x0,0(x18)
    2274:	00c00793          	addi	x15,x0,12
    2278:	00f9a023          	sw	x15,0(x19)
    227c:	f7dff06f          	jal	x0,21f8 <__sfp+0xa0>

00002280 <__sinit>:
    2280:	03452783          	lw	x15,52(x10)
    2284:	00078463          	beq	x15,x0,228c <__sinit+0xc>
    2288:	00008067          	jalr	x0,0(x1)
    228c:	00000797          	auipc	x15,0x0
    2290:	d0c78793          	addi	x15,x15,-756 # 1f98 <cleanup_stdio>
    2294:	02f52a23          	sw	x15,52(x10)
    2298:	f801a783          	lw	x15,-128(x3) # 143d0 <__stdio_exit_handler>
    229c:	fe0796e3          	bne	x15,x0,2288 <__sinit+0x8>
    22a0:	d65ff06f          	jal	x0,2004 <global_stdio_init.part.0>

000022a4 <__sfp_lock_acquire>:
    22a4:	00008067          	jalr	x0,0(x1)

000022a8 <__sfp_lock_release>:
    22a8:	00008067          	jalr	x0,0(x1)

000022ac <__fp_lock_all>:
    22ac:	00012617          	auipc	x12,0x12
    22b0:	9f060613          	addi	x12,x12,-1552 # 13c9c <__sglue>
    22b4:	00000597          	auipc	x11,0x0
    22b8:	cc458593          	addi	x11,x11,-828 # 1f78 <__fp_lock>
    22bc:	00000513          	addi	x10,x0,0
    22c0:	4cc0106f          	jal	x0,378c <_fwalk_sglue>

000022c4 <__fp_unlock_all>:
    22c4:	00012617          	auipc	x12,0x12
    22c8:	9d860613          	addi	x12,x12,-1576 # 13c9c <__sglue>
    22cc:	00000597          	auipc	x11,0x0
    22d0:	d3058593          	addi	x11,x11,-720 # 1ffc <__fp_unlock>
    22d4:	00000513          	addi	x10,x0,0
    22d8:	4b40106f          	jal	x0,378c <_fwalk_sglue>

000022dc <__sfvwrite_r>:
    22dc:	00862783          	lw	x15,8(x12)
    22e0:	2c078463          	beq	x15,x0,25a8 <__sfvwrite_r+0x2cc>
    22e4:	00c59683          	lh	x13,12(x11)
    22e8:	fd010113          	addi	x2,x2,-48
    22ec:	02812423          	sw	x8,40(x2)
    22f0:	01412c23          	sw	x20,24(x2)
    22f4:	01612823          	sw	x22,16(x2)
    22f8:	02112623          	sw	x1,44(x2)
    22fc:	0086f793          	andi	x15,x13,8
    2300:	00060b13          	addi	x22,x12,0
    2304:	00050a13          	addi	x20,x10,0
    2308:	00058413          	addi	x8,x11,0
    230c:	08078e63          	beq	x15,x0,23a8 <__sfvwrite_r+0xcc>
    2310:	0105a783          	lw	x15,16(x11)
    2314:	08078a63          	beq	x15,x0,23a8 <__sfvwrite_r+0xcc>
    2318:	02912223          	sw	x9,36(x2)
    231c:	03212023          	sw	x18,32(x2)
    2320:	01312e23          	sw	x19,28(x2)
    2324:	01512a23          	sw	x21,20(x2)
    2328:	0026f793          	andi	x15,x13,2
    232c:	000b2483          	lw	x9,0(x22)
    2330:	0a078463          	beq	x15,x0,23d8 <__sfvwrite_r+0xfc>
    2334:	02442783          	lw	x15,36(x8)
    2338:	01c42583          	lw	x11,28(x8)
    233c:	80000ab7          	lui	x21,0x80000
    2340:	00000993          	addi	x19,x0,0
    2344:	00000913          	addi	x18,x0,0
    2348:	c00a8a93          	addi	x21,x21,-1024 # 7ffffc00 <__heap_end+0x7fbffc00>
    234c:	00098613          	addi	x12,x19,0
    2350:	000a0513          	addi	x10,x20,0
    2354:	04090263          	beq	x18,x0,2398 <__sfvwrite_r+0xbc>
    2358:	00090693          	addi	x13,x18,0
    235c:	012af463          	bgeu	x21,x18,2364 <__sfvwrite_r+0x88>
    2360:	000a8693          	addi	x13,x21,0
    2364:	000780e7          	jalr	x1,0(x15)
    2368:	46a05063          	bge	x0,x10,27c8 <__sfvwrite_r+0x4ec>
    236c:	008b2783          	lw	x15,8(x22)
    2370:	00a989b3          	add	x19,x19,x10
    2374:	40a90933          	sub	x18,x18,x10
    2378:	40a787b3          	sub	x15,x15,x10
    237c:	00fb2423          	sw	x15,8(x22)
    2380:	1a078663          	beq	x15,x0,252c <__sfvwrite_r+0x250>
    2384:	02442783          	lw	x15,36(x8)
    2388:	01c42583          	lw	x11,28(x8)
    238c:	00098613          	addi	x12,x19,0
    2390:	000a0513          	addi	x10,x20,0
    2394:	fc0912e3          	bne	x18,x0,2358 <__sfvwrite_r+0x7c>
    2398:	0004a983          	lw	x19,0(x9)
    239c:	0044a903          	lw	x18,4(x9)
    23a0:	00848493          	addi	x9,x9,8
    23a4:	fa9ff06f          	jal	x0,234c <__sfvwrite_r+0x70>
    23a8:	00040593          	addi	x11,x8,0
    23ac:	000a0513          	addi	x10,x20,0
    23b0:	609010ef          	jal	x1,41b8 <__swsetup_r>
    23b4:	1c051c63          	bne	x10,x0,258c <__sfvwrite_r+0x2b0>
    23b8:	00c41683          	lh	x13,12(x8)
    23bc:	02912223          	sw	x9,36(x2)
    23c0:	03212023          	sw	x18,32(x2)
    23c4:	01312e23          	sw	x19,28(x2)
    23c8:	01512a23          	sw	x21,20(x2)
    23cc:	0026f793          	andi	x15,x13,2
    23d0:	000b2483          	lw	x9,0(x22)
    23d4:	f60790e3          	bne	x15,x0,2334 <__sfvwrite_r+0x58>
    23d8:	01712623          	sw	x23,12(x2)
    23dc:	01812423          	sw	x24,8(x2)
    23e0:	0016f793          	andi	x15,x13,1
    23e4:	1c079663          	bne	x15,x0,25b0 <__sfvwrite_r+0x2d4>
    23e8:	00042783          	lw	x15,0(x8)
    23ec:	00842703          	lw	x14,8(x8)
    23f0:	80000ab7          	lui	x21,0x80000
    23f4:	01912223          	sw	x25,4(x2)
    23f8:	00000b93          	addi	x23,x0,0
    23fc:	00000993          	addi	x19,x0,0
    2400:	fffa8a93          	addi	x21,x21,-1 # 7fffffff <__heap_end+0x7fbfffff>
    2404:	00078513          	addi	x10,x15,0
    2408:	00070c13          	addi	x24,x14,0
    240c:	10098263          	beq	x19,x0,2510 <__sfvwrite_r+0x234>
    2410:	2006f613          	andi	x12,x13,512
    2414:	28060863          	beq	x12,x0,26a4 <__sfvwrite_r+0x3c8>
    2418:	00070c93          	addi	x25,x14,0
    241c:	32e9e663          	bltu	x19,x14,2748 <__sfvwrite_r+0x46c>
    2420:	4806f713          	andi	x14,x13,1152
    2424:	08070a63          	beq	x14,x0,24b8 <__sfvwrite_r+0x1dc>
    2428:	01442603          	lw	x12,20(x8)
    242c:	01042583          	lw	x11,16(x8)
    2430:	00161713          	slli	x14,x12,0x1
    2434:	00c70733          	add	x14,x14,x12
    2438:	40b78933          	sub	x18,x15,x11
    243c:	01f75c13          	srli	x24,x14,0x1f
    2440:	00ec0c33          	add	x24,x24,x14
    2444:	00190793          	addi	x15,x18,1
    2448:	401c5c13          	srai	x24,x24,0x1
    244c:	013787b3          	add	x15,x15,x19
    2450:	000c0613          	addi	x12,x24,0
    2454:	00fc7663          	bgeu	x24,x15,2460 <__sfvwrite_r+0x184>
    2458:	00078c13          	addi	x24,x15,0
    245c:	00078613          	addi	x12,x15,0
    2460:	4006f693          	andi	x13,x13,1024
    2464:	30068e63          	beq	x13,x0,2780 <__sfvwrite_r+0x4a4>
    2468:	00060593          	addi	x11,x12,0
    246c:	000a0513          	addi	x10,x20,0
    2470:	490000ef          	jal	x1,2900 <_malloc_r>
    2474:	00050c93          	addi	x25,x10,0
    2478:	34050c63          	beq	x10,x0,27d0 <__sfvwrite_r+0x4f4>
    247c:	01042583          	lw	x11,16(x8)
    2480:	00090613          	addi	x12,x18,0
    2484:	779040ef          	jal	x1,73fc <memcpy>
    2488:	00c45783          	lhu	x15,12(x8)
    248c:	b7f7f793          	andi	x15,x15,-1153
    2490:	0807e793          	ori	x15,x15,128
    2494:	00f41623          	sh	x15,12(x8)
    2498:	012c8533          	add	x10,x25,x18
    249c:	412c07b3          	sub	x15,x24,x18
    24a0:	01942823          	sw	x25,16(x8)
    24a4:	01842a23          	sw	x24,20(x8)
    24a8:	00a42023          	sw	x10,0(x8)
    24ac:	00098c13          	addi	x24,x19,0
    24b0:	00f42423          	sw	x15,8(x8)
    24b4:	00098c93          	addi	x25,x19,0
    24b8:	000c8613          	addi	x12,x25,0
    24bc:	000b8593          	addi	x11,x23,0
    24c0:	0e0050ef          	jal	x1,75a0 <memmove>
    24c4:	00842703          	lw	x14,8(x8)
    24c8:	00042783          	lw	x15,0(x8)
    24cc:	00098913          	addi	x18,x19,0
    24d0:	41870733          	sub	x14,x14,x24
    24d4:	019787b3          	add	x15,x15,x25
    24d8:	00e42423          	sw	x14,8(x8)
    24dc:	00f42023          	sw	x15,0(x8)
    24e0:	00000993          	addi	x19,x0,0
    24e4:	008b2783          	lw	x15,8(x22)
    24e8:	012b8bb3          	add	x23,x23,x18
    24ec:	412787b3          	sub	x15,x15,x18
    24f0:	00fb2423          	sw	x15,8(x22)
    24f4:	02078663          	beq	x15,x0,2520 <__sfvwrite_r+0x244>
    24f8:	00042783          	lw	x15,0(x8)
    24fc:	00842703          	lw	x14,8(x8)
    2500:	00c41683          	lh	x13,12(x8)
    2504:	00078513          	addi	x10,x15,0
    2508:	00070c13          	addi	x24,x14,0
    250c:	f00992e3          	bne	x19,x0,2410 <__sfvwrite_r+0x134>
    2510:	0004ab83          	lw	x23,0(x9)
    2514:	0044a983          	lw	x19,4(x9)
    2518:	00848493          	addi	x9,x9,8
    251c:	ee9ff06f          	jal	x0,2404 <__sfvwrite_r+0x128>
    2520:	00c12b83          	lw	x23,12(x2)
    2524:	00812c03          	lw	x24,8(x2)
    2528:	00412c83          	lw	x25,4(x2)
    252c:	02c12083          	lw	x1,44(x2)
    2530:	02812403          	lw	x8,40(x2)
    2534:	02412483          	lw	x9,36(x2)
    2538:	02012903          	lw	x18,32(x2)
    253c:	01c12983          	lw	x19,28(x2)
    2540:	01412a83          	lw	x21,20(x2)
    2544:	01812a03          	lw	x20,24(x2)
    2548:	01012b03          	lw	x22,16(x2)
    254c:	00000513          	addi	x10,x0,0
    2550:	03010113          	addi	x2,x2,48
    2554:	00008067          	jalr	x0,0(x1)
    2558:	00040593          	addi	x11,x8,0
    255c:	000a0513          	addi	x10,x20,0
    2560:	29d010ef          	jal	x1,3ffc <_fflush_r>
    2564:	0a050e63          	beq	x10,x0,2620 <__sfvwrite_r+0x344>
    2568:	00c41783          	lh	x15,12(x8)
    256c:	00c12b83          	lw	x23,12(x2)
    2570:	00812c03          	lw	x24,8(x2)
    2574:	02412483          	lw	x9,36(x2)
    2578:	02012903          	lw	x18,32(x2)
    257c:	01c12983          	lw	x19,28(x2)
    2580:	01412a83          	lw	x21,20(x2)
    2584:	0407e793          	ori	x15,x15,64
    2588:	00f41623          	sh	x15,12(x8)
    258c:	02c12083          	lw	x1,44(x2)
    2590:	02812403          	lw	x8,40(x2)
    2594:	01812a03          	lw	x20,24(x2)
    2598:	01012b03          	lw	x22,16(x2)
    259c:	fff00513          	addi	x10,x0,-1
    25a0:	03010113          	addi	x2,x2,48
    25a4:	00008067          	jalr	x0,0(x1)
    25a8:	00000513          	addi	x10,x0,0
    25ac:	00008067          	jalr	x0,0(x1)
    25b0:	00000a93          	addi	x21,x0,0
    25b4:	00000513          	addi	x10,x0,0
    25b8:	00000c13          	addi	x24,x0,0
    25bc:	00000993          	addi	x19,x0,0
    25c0:	08098263          	beq	x19,x0,2644 <__sfvwrite_r+0x368>
    25c4:	08050a63          	beq	x10,x0,2658 <__sfvwrite_r+0x37c>
    25c8:	000a8793          	addi	x15,x21,0
    25cc:	00098b93          	addi	x23,x19,0
    25d0:	0137f463          	bgeu	x15,x19,25d8 <__sfvwrite_r+0x2fc>
    25d4:	00078b93          	addi	x23,x15,0
    25d8:	00042503          	lw	x10,0(x8)
    25dc:	01042783          	lw	x15,16(x8)
    25e0:	00842903          	lw	x18,8(x8)
    25e4:	01442683          	lw	x13,20(x8)
    25e8:	00a7f663          	bgeu	x15,x10,25f4 <__sfvwrite_r+0x318>
    25ec:	00d90933          	add	x18,x18,x13
    25f0:	09794463          	blt	x18,x23,2678 <__sfvwrite_r+0x39c>
    25f4:	16dbc063          	blt	x23,x13,2754 <__sfvwrite_r+0x478>
    25f8:	02442783          	lw	x15,36(x8)
    25fc:	01c42583          	lw	x11,28(x8)
    2600:	000c0613          	addi	x12,x24,0
    2604:	000a0513          	addi	x10,x20,0
    2608:	000780e7          	jalr	x1,0(x15)
    260c:	00050913          	addi	x18,x10,0
    2610:	f4a05ce3          	bge	x0,x10,2568 <__sfvwrite_r+0x28c>
    2614:	412a8ab3          	sub	x21,x21,x18
    2618:	00100513          	addi	x10,x0,1
    261c:	f20a8ee3          	beq	x21,x0,2558 <__sfvwrite_r+0x27c>
    2620:	008b2783          	lw	x15,8(x22)
    2624:	012c0c33          	add	x24,x24,x18
    2628:	412989b3          	sub	x19,x19,x18
    262c:	412787b3          	sub	x15,x15,x18
    2630:	00fb2423          	sw	x15,8(x22)
    2634:	f80796e3          	bne	x15,x0,25c0 <__sfvwrite_r+0x2e4>
    2638:	00c12b83          	lw	x23,12(x2)
    263c:	00812c03          	lw	x24,8(x2)
    2640:	eedff06f          	jal	x0,252c <__sfvwrite_r+0x250>
    2644:	0044a983          	lw	x19,4(x9)
    2648:	00048793          	addi	x15,x9,0
    264c:	00848493          	addi	x9,x9,8
    2650:	fe098ae3          	beq	x19,x0,2644 <__sfvwrite_r+0x368>
    2654:	0007ac03          	lw	x24,0(x15)
    2658:	00098613          	addi	x12,x19,0
    265c:	00a00593          	addi	x11,x0,10
    2660:	000c0513          	addi	x10,x24,0
    2664:	789000ef          	jal	x1,35ec <memchr>
    2668:	14050a63          	beq	x10,x0,27bc <__sfvwrite_r+0x4e0>
    266c:	00150513          	addi	x10,x10,1
    2670:	41850ab3          	sub	x21,x10,x24
    2674:	f55ff06f          	jal	x0,25c8 <__sfvwrite_r+0x2ec>
    2678:	000c0593          	addi	x11,x24,0
    267c:	00090613          	addi	x12,x18,0
    2680:	721040ef          	jal	x1,75a0 <memmove>
    2684:	00042783          	lw	x15,0(x8)
    2688:	00040593          	addi	x11,x8,0
    268c:	000a0513          	addi	x10,x20,0
    2690:	012787b3          	add	x15,x15,x18
    2694:	00f42023          	sw	x15,0(x8)
    2698:	165010ef          	jal	x1,3ffc <_fflush_r>
    269c:	f6050ce3          	beq	x10,x0,2614 <__sfvwrite_r+0x338>
    26a0:	ec9ff06f          	jal	x0,2568 <__sfvwrite_r+0x28c>
    26a4:	01042683          	lw	x13,16(x8)
    26a8:	04f6e263          	bltu	x13,x15,26ec <__sfvwrite_r+0x410>
    26ac:	01442603          	lw	x12,20(x8)
    26b0:	02c9ee63          	bltu	x19,x12,26ec <__sfvwrite_r+0x410>
    26b4:	00098793          	addi	x15,x19,0
    26b8:	013af463          	bgeu	x21,x19,26c0 <__sfvwrite_r+0x3e4>
    26bc:	000a8793          	addi	x15,x21,0
    26c0:	02c7e6b3          	rem	x13,x15,x12
    26c4:	02442703          	lw	x14,36(x8)
    26c8:	01c42583          	lw	x11,28(x8)
    26cc:	000b8613          	addi	x12,x23,0
    26d0:	000a0513          	addi	x10,x20,0
    26d4:	40d786b3          	sub	x13,x15,x13
    26d8:	000700e7          	jalr	x1,0(x14)
    26dc:	00050913          	addi	x18,x10,0
    26e0:	04a05a63          	bge	x0,x10,2734 <__sfvwrite_r+0x458>
    26e4:	412989b3          	sub	x19,x19,x18
    26e8:	dfdff06f          	jal	x0,24e4 <__sfvwrite_r+0x208>
    26ec:	00070913          	addi	x18,x14,0
    26f0:	00e9f463          	bgeu	x19,x14,26f8 <__sfvwrite_r+0x41c>
    26f4:	00098913          	addi	x18,x19,0
    26f8:	00078513          	addi	x10,x15,0
    26fc:	00090613          	addi	x12,x18,0
    2700:	000b8593          	addi	x11,x23,0
    2704:	69d040ef          	jal	x1,75a0 <memmove>
    2708:	00842703          	lw	x14,8(x8)
    270c:	00042783          	lw	x15,0(x8)
    2710:	41270733          	sub	x14,x14,x18
    2714:	012787b3          	add	x15,x15,x18
    2718:	00e42423          	sw	x14,8(x8)
    271c:	00f42023          	sw	x15,0(x8)
    2720:	fc0712e3          	bne	x14,x0,26e4 <__sfvwrite_r+0x408>
    2724:	00040593          	addi	x11,x8,0
    2728:	000a0513          	addi	x10,x20,0
    272c:	0d1010ef          	jal	x1,3ffc <_fflush_r>
    2730:	fa050ae3          	beq	x10,x0,26e4 <__sfvwrite_r+0x408>
    2734:	00c41783          	lh	x15,12(x8)
    2738:	00c12b83          	lw	x23,12(x2)
    273c:	00812c03          	lw	x24,8(x2)
    2740:	00412c83          	lw	x25,4(x2)
    2744:	e31ff06f          	jal	x0,2574 <__sfvwrite_r+0x298>
    2748:	00098c13          	addi	x24,x19,0
    274c:	00098c93          	addi	x25,x19,0
    2750:	d69ff06f          	jal	x0,24b8 <__sfvwrite_r+0x1dc>
    2754:	000b8613          	addi	x12,x23,0
    2758:	000c0593          	addi	x11,x24,0
    275c:	645040ef          	jal	x1,75a0 <memmove>
    2760:	00842703          	lw	x14,8(x8)
    2764:	00042783          	lw	x15,0(x8)
    2768:	000b8913          	addi	x18,x23,0
    276c:	41770733          	sub	x14,x14,x23
    2770:	017787b3          	add	x15,x15,x23
    2774:	00e42423          	sw	x14,8(x8)
    2778:	00f42023          	sw	x15,0(x8)
    277c:	e99ff06f          	jal	x0,2614 <__sfvwrite_r+0x338>
    2780:	000a0513          	addi	x10,x20,0
    2784:	0bc010ef          	jal	x1,3840 <_realloc_r>
    2788:	00050c93          	addi	x25,x10,0
    278c:	d00516e3          	bne	x10,x0,2498 <__sfvwrite_r+0x1bc>
    2790:	01042583          	lw	x11,16(x8)
    2794:	000a0513          	addi	x10,x20,0
    2798:	2c5000ef          	jal	x1,325c <_free_r>
    279c:	00c41783          	lh	x15,12(x8)
    27a0:	00c00713          	addi	x14,x0,12
    27a4:	00c12b83          	lw	x23,12(x2)
    27a8:	00812c03          	lw	x24,8(x2)
    27ac:	00412c83          	lw	x25,4(x2)
    27b0:	00ea2023          	sw	x14,0(x20)
    27b4:	f7f7f793          	andi	x15,x15,-129
    27b8:	dbdff06f          	jal	x0,2574 <__sfvwrite_r+0x298>
    27bc:	00198793          	addi	x15,x19,1
    27c0:	00078a93          	addi	x21,x15,0
    27c4:	e09ff06f          	jal	x0,25cc <__sfvwrite_r+0x2f0>
    27c8:	00c41783          	lh	x15,12(x8)
    27cc:	da9ff06f          	jal	x0,2574 <__sfvwrite_r+0x298>
    27d0:	00c00713          	addi	x14,x0,12
    27d4:	00c41783          	lh	x15,12(x8)
    27d8:	00c12b83          	lw	x23,12(x2)
    27dc:	00812c03          	lw	x24,8(x2)
    27e0:	00412c83          	lw	x25,4(x2)
    27e4:	00ea2023          	sw	x14,0(x20)
    27e8:	d8dff06f          	jal	x0,2574 <__sfvwrite_r+0x298>

000027ec <_fclose_r>:
    27ec:	ff010113          	addi	x2,x2,-16
    27f0:	00112623          	sw	x1,12(x2)
    27f4:	01212023          	sw	x18,0(x2)
    27f8:	02058863          	beq	x11,x0,2828 <_fclose_r+0x3c>
    27fc:	00812423          	sw	x8,8(x2)
    2800:	00912223          	sw	x9,4(x2)
    2804:	00058413          	addi	x8,x11,0
    2808:	00050493          	addi	x9,x10,0
    280c:	00050663          	beq	x10,x0,2818 <_fclose_r+0x2c>
    2810:	03452783          	lw	x15,52(x10)
    2814:	0c078c63          	beq	x15,x0,28ec <_fclose_r+0x100>
    2818:	00c41783          	lh	x15,12(x8)
    281c:	02079263          	bne	x15,x0,2840 <_fclose_r+0x54>
    2820:	00812403          	lw	x8,8(x2)
    2824:	00412483          	lw	x9,4(x2)
    2828:	00c12083          	lw	x1,12(x2)
    282c:	00000913          	addi	x18,x0,0
    2830:	00090513          	addi	x10,x18,0
    2834:	00012903          	lw	x18,0(x2)
    2838:	01010113          	addi	x2,x2,16
    283c:	00008067          	jalr	x0,0(x1)
    2840:	00040593          	addi	x11,x8,0
    2844:	00048513          	addi	x10,x9,0
    2848:	568010ef          	jal	x1,3db0 <__sflush_r>
    284c:	02c42783          	lw	x15,44(x8)
    2850:	00050913          	addi	x18,x10,0
    2854:	00078a63          	beq	x15,x0,2868 <_fclose_r+0x7c>
    2858:	01c42583          	lw	x11,28(x8)
    285c:	00048513          	addi	x10,x9,0
    2860:	000780e7          	jalr	x1,0(x15)
    2864:	06054463          	blt	x10,x0,28cc <_fclose_r+0xe0>
    2868:	00c45783          	lhu	x15,12(x8)
    286c:	0807f793          	andi	x15,x15,128
    2870:	06079663          	bne	x15,x0,28dc <_fclose_r+0xf0>
    2874:	03042583          	lw	x11,48(x8)
    2878:	00058c63          	beq	x11,x0,2890 <_fclose_r+0xa4>
    287c:	04040793          	addi	x15,x8,64
    2880:	00f58663          	beq	x11,x15,288c <_fclose_r+0xa0>
    2884:	00048513          	addi	x10,x9,0
    2888:	1d5000ef          	jal	x1,325c <_free_r>
    288c:	02042823          	sw	x0,48(x8)
    2890:	04442583          	lw	x11,68(x8)
    2894:	00058863          	beq	x11,x0,28a4 <_fclose_r+0xb8>
    2898:	00048513          	addi	x10,x9,0
    289c:	1c1000ef          	jal	x1,325c <_free_r>
    28a0:	04042223          	sw	x0,68(x8)
    28a4:	a01ff0ef          	jal	x1,22a4 <__sfp_lock_acquire>
    28a8:	00041623          	sh	x0,12(x8)
    28ac:	9fdff0ef          	jal	x1,22a8 <__sfp_lock_release>
    28b0:	00c12083          	lw	x1,12(x2)
    28b4:	00812403          	lw	x8,8(x2)
    28b8:	00412483          	lw	x9,4(x2)
    28bc:	00090513          	addi	x10,x18,0
    28c0:	00012903          	lw	x18,0(x2)
    28c4:	01010113          	addi	x2,x2,16
    28c8:	00008067          	jalr	x0,0(x1)
    28cc:	00c45783          	lhu	x15,12(x8)
    28d0:	fff00913          	addi	x18,x0,-1
    28d4:	0807f793          	andi	x15,x15,128
    28d8:	f8078ee3          	beq	x15,x0,2874 <_fclose_r+0x88>
    28dc:	01042583          	lw	x11,16(x8)
    28e0:	00048513          	addi	x10,x9,0
    28e4:	179000ef          	jal	x1,325c <_free_r>
    28e8:	f8dff06f          	jal	x0,2874 <_fclose_r+0x88>
    28ec:	995ff0ef          	jal	x1,2280 <__sinit>
    28f0:	f29ff06f          	jal	x0,2818 <_fclose_r+0x2c>

000028f4 <fclose>:
    28f4:	00050593          	addi	x11,x10,0
    28f8:	f5c1a503          	lw	x10,-164(x3) # 143ac <_impure_ptr>
    28fc:	ef1ff06f          	jal	x0,27ec <_fclose_r>

00002900 <_malloc_r>:
    2900:	fd010113          	addi	x2,x2,-48
    2904:	03212023          	sw	x18,32(x2)
    2908:	02112623          	sw	x1,44(x2)
    290c:	02812423          	sw	x8,40(x2)
    2910:	02912223          	sw	x9,36(x2)
    2914:	01312e23          	sw	x19,28(x2)
    2918:	00b58793          	addi	x15,x11,11
    291c:	01600713          	addi	x14,x0,22
    2920:	00050913          	addi	x18,x10,0
    2924:	08f76263          	bltu	x14,x15,29a8 <_malloc_r+0xa8>
    2928:	01000793          	addi	x15,x0,16
    292c:	20b7e663          	bltu	x15,x11,2b38 <_malloc_r+0x238>
    2930:	7ac010ef          	jal	x1,40dc <__malloc_lock>
    2934:	01800793          	addi	x15,x0,24
    2938:	00200593          	addi	x11,x0,2
    293c:	01000493          	addi	x9,x0,16
    2940:	00011997          	auipc	x19,0x11
    2944:	36898993          	addi	x19,x19,872 # 13ca8 <__malloc_av_>
    2948:	00f987b3          	add	x15,x19,x15
    294c:	0047a403          	lw	x8,4(x15)
    2950:	ff878713          	addi	x14,x15,-8
    2954:	34e40a63          	beq	x8,x14,2ca8 <_malloc_r+0x3a8>
    2958:	00442783          	lw	x15,4(x8)
    295c:	00c42683          	lw	x13,12(x8)
    2960:	00842603          	lw	x12,8(x8)
    2964:	ffc7f793          	andi	x15,x15,-4
    2968:	00f407b3          	add	x15,x8,x15
    296c:	0047a703          	lw	x14,4(x15)
    2970:	00d62623          	sw	x13,12(x12)
    2974:	00c6a423          	sw	x12,8(x13)
    2978:	00176713          	ori	x14,x14,1
    297c:	00090513          	addi	x10,x18,0
    2980:	00e7a223          	sw	x14,4(x15)
    2984:	75c010ef          	jal	x1,40e0 <__malloc_unlock>
    2988:	00840513          	addi	x10,x8,8
    298c:	02c12083          	lw	x1,44(x2)
    2990:	02812403          	lw	x8,40(x2)
    2994:	02412483          	lw	x9,36(x2)
    2998:	02012903          	lw	x18,32(x2)
    299c:	01c12983          	lw	x19,28(x2)
    29a0:	03010113          	addi	x2,x2,48
    29a4:	00008067          	jalr	x0,0(x1)
    29a8:	ff87f493          	andi	x9,x15,-8
    29ac:	1807c663          	blt	x15,x0,2b38 <_malloc_r+0x238>
    29b0:	18b4e463          	bltu	x9,x11,2b38 <_malloc_r+0x238>
    29b4:	728010ef          	jal	x1,40dc <__malloc_lock>
    29b8:	1f700793          	addi	x15,x0,503
    29bc:	4097f063          	bgeu	x15,x9,2dbc <_malloc_r+0x4bc>
    29c0:	0094d793          	srli	x15,x9,0x9
    29c4:	18078263          	beq	x15,x0,2b48 <_malloc_r+0x248>
    29c8:	00400713          	addi	x14,x0,4
    29cc:	34f76663          	bltu	x14,x15,2d18 <_malloc_r+0x418>
    29d0:	0064d793          	srli	x15,x9,0x6
    29d4:	03978593          	addi	x11,x15,57
    29d8:	03878813          	addi	x16,x15,56
    29dc:	00359613          	slli	x12,x11,0x3
    29e0:	00011997          	auipc	x19,0x11
    29e4:	2c898993          	addi	x19,x19,712 # 13ca8 <__malloc_av_>
    29e8:	00c98633          	add	x12,x19,x12
    29ec:	00462403          	lw	x8,4(x12)
    29f0:	ff860613          	addi	x12,x12,-8
    29f4:	02860863          	beq	x12,x8,2a24 <_malloc_r+0x124>
    29f8:	00f00513          	addi	x10,x0,15
    29fc:	0140006f          	jal	x0,2a10 <_malloc_r+0x110>
    2a00:	00c42683          	lw	x13,12(x8)
    2a04:	28075e63          	bge	x14,x0,2ca0 <_malloc_r+0x3a0>
    2a08:	00d60e63          	beq	x12,x13,2a24 <_malloc_r+0x124>
    2a0c:	00068413          	addi	x8,x13,0
    2a10:	00442783          	lw	x15,4(x8)
    2a14:	ffc7f793          	andi	x15,x15,-4
    2a18:	40978733          	sub	x14,x15,x9
    2a1c:	fee552e3          	bge	x10,x14,2a00 <_malloc_r+0x100>
    2a20:	00080593          	addi	x11,x16,0
    2a24:	0109a403          	lw	x8,16(x19)
    2a28:	00011897          	auipc	x17,0x11
    2a2c:	28888893          	addi	x17,x17,648 # 13cb0 <__malloc_av_+0x8>
    2a30:	27140463          	beq	x8,x17,2c98 <_malloc_r+0x398>
    2a34:	00442783          	lw	x15,4(x8)
    2a38:	00f00693          	addi	x13,x0,15
    2a3c:	ffc7f793          	andi	x15,x15,-4
    2a40:	40978733          	sub	x14,x15,x9
    2a44:	38e6c263          	blt	x13,x14,2dc8 <_malloc_r+0x4c8>
    2a48:	0119aa23          	sw	x17,20(x19)
    2a4c:	0119a823          	sw	x17,16(x19)
    2a50:	34075663          	bge	x14,x0,2d9c <_malloc_r+0x49c>
    2a54:	1ff00713          	addi	x14,x0,511
    2a58:	0049a503          	lw	x10,4(x19)
    2a5c:	24f76e63          	bltu	x14,x15,2cb8 <_malloc_r+0x3b8>
    2a60:	ff87f713          	andi	x14,x15,-8
    2a64:	00870713          	addi	x14,x14,8
    2a68:	00e98733          	add	x14,x19,x14
    2a6c:	00072683          	lw	x13,0(x14)
    2a70:	0057d613          	srli	x12,x15,0x5
    2a74:	00100793          	addi	x15,x0,1
    2a78:	00c797b3          	sll	x15,x15,x12
    2a7c:	00f56533          	or	x10,x10,x15
    2a80:	ff870793          	addi	x15,x14,-8
    2a84:	00f42623          	sw	x15,12(x8)
    2a88:	00d42423          	sw	x13,8(x8)
    2a8c:	00a9a223          	sw	x10,4(x19)
    2a90:	00872023          	sw	x8,0(x14)
    2a94:	0086a623          	sw	x8,12(x13)
    2a98:	4025d793          	srai	x15,x11,0x2
    2a9c:	00100613          	addi	x12,x0,1
    2aa0:	00f61633          	sll	x12,x12,x15
    2aa4:	0ac56a63          	bltu	x10,x12,2b58 <_malloc_r+0x258>
    2aa8:	00a677b3          	and	x15,x12,x10
    2aac:	02079463          	bne	x15,x0,2ad4 <_malloc_r+0x1d4>
    2ab0:	00161613          	slli	x12,x12,0x1
    2ab4:	ffc5f593          	andi	x11,x11,-4
    2ab8:	00a677b3          	and	x15,x12,x10
    2abc:	00458593          	addi	x11,x11,4
    2ac0:	00079a63          	bne	x15,x0,2ad4 <_malloc_r+0x1d4>
    2ac4:	00161613          	slli	x12,x12,0x1
    2ac8:	00a677b3          	and	x15,x12,x10
    2acc:	00458593          	addi	x11,x11,4
    2ad0:	fe078ae3          	beq	x15,x0,2ac4 <_malloc_r+0x1c4>
    2ad4:	00f00813          	addi	x16,x0,15
    2ad8:	00359313          	slli	x6,x11,0x3
    2adc:	00698333          	add	x6,x19,x6
    2ae0:	00030513          	addi	x10,x6,0
    2ae4:	00c52783          	lw	x15,12(x10)
    2ae8:	00058e13          	addi	x28,x11,0
    2aec:	24f50863          	beq	x10,x15,2d3c <_malloc_r+0x43c>
    2af0:	0047a703          	lw	x14,4(x15)
    2af4:	00078413          	addi	x8,x15,0
    2af8:	00c7a783          	lw	x15,12(x15)
    2afc:	ffc77713          	andi	x14,x14,-4
    2b00:	409706b3          	sub	x13,x14,x9
    2b04:	24d84863          	blt	x16,x13,2d54 <_malloc_r+0x454>
    2b08:	fe06c2e3          	blt	x13,x0,2aec <_malloc_r+0x1ec>
    2b0c:	00e40733          	add	x14,x8,x14
    2b10:	00472683          	lw	x13,4(x14)
    2b14:	00842603          	lw	x12,8(x8)
    2b18:	00090513          	addi	x10,x18,0
    2b1c:	0016e693          	ori	x13,x13,1
    2b20:	00d72223          	sw	x13,4(x14)
    2b24:	00f62623          	sw	x15,12(x12)
    2b28:	00c7a423          	sw	x12,8(x15)
    2b2c:	5b4010ef          	jal	x1,40e0 <__malloc_unlock>
    2b30:	00840513          	addi	x10,x8,8
    2b34:	e59ff06f          	jal	x0,298c <_malloc_r+0x8c>
    2b38:	00c00793          	addi	x15,x0,12
    2b3c:	00f92023          	sw	x15,0(x18)
    2b40:	00000513          	addi	x10,x0,0
    2b44:	e49ff06f          	jal	x0,298c <_malloc_r+0x8c>
    2b48:	20000613          	addi	x12,x0,512
    2b4c:	04000593          	addi	x11,x0,64
    2b50:	03f00813          	addi	x16,x0,63
    2b54:	e8dff06f          	jal	x0,29e0 <_malloc_r+0xe0>
    2b58:	0089a403          	lw	x8,8(x19)
    2b5c:	01612823          	sw	x22,16(x2)
    2b60:	00442783          	lw	x15,4(x8)
    2b64:	ffc7fb13          	andi	x22,x15,-4
    2b68:	009b6863          	bltu	x22,x9,2b78 <_malloc_r+0x278>
    2b6c:	409b0733          	sub	x14,x22,x9
    2b70:	00f00793          	addi	x15,x0,15
    2b74:	0ee7c063          	blt	x15,x14,2c54 <_malloc_r+0x354>
    2b78:	01912223          	sw	x25,4(x2)
    2b7c:	f5418c93          	addi	x25,x3,-172 # 143a4 <__malloc_sbrk_base>
    2b80:	000ca703          	lw	x14,0(x25)
    2b84:	01412c23          	sw	x20,24(x2)
    2b88:	01512a23          	sw	x21,20(x2)
    2b8c:	01712623          	sw	x23,12(x2)
    2b90:	f8c1aa83          	lw	x21,-116(x3) # 143dc <__malloc_top_pad>
    2b94:	fff00793          	addi	x15,x0,-1
    2b98:	01640a33          	add	x20,x8,x22
    2b9c:	01548ab3          	add	x21,x9,x21
    2ba0:	3cf70a63          	beq	x14,x15,2f74 <_malloc_r+0x674>
    2ba4:	000017b7          	lui	x15,0x1
    2ba8:	00f78793          	addi	x15,x15,15 # 100f <m_fast14_irq_handler+0x8b>
    2bac:	00fa8ab3          	add	x21,x21,x15
    2bb0:	fffff7b7          	lui	x15,0xfffff
    2bb4:	00fafab3          	and	x21,x21,x15
    2bb8:	000a8593          	addi	x11,x21,0
    2bbc:	00090513          	addi	x10,x18,0
    2bc0:	068060ef          	jal	x1,8c28 <_sbrk_r>
    2bc4:	fff00793          	addi	x15,x0,-1
    2bc8:	00050b93          	addi	x23,x10,0
    2bcc:	44f50e63          	beq	x10,x15,3028 <_malloc_r+0x728>
    2bd0:	01812423          	sw	x24,8(x2)
    2bd4:	25456263          	bltu	x10,x20,2e18 <_malloc_r+0x518>
    2bd8:	11c18c13          	addi	x24,x3,284 # 1456c <__malloc_current_mallinfo>
    2bdc:	000c2583          	lw	x11,0(x24)
    2be0:	00ba85b3          	add	x11,x21,x11
    2be4:	00bc2023          	sw	x11,0(x24)
    2be8:	00058713          	addi	x14,x11,0
    2bec:	2aaa1a63          	bne	x20,x10,2ea0 <_malloc_r+0x5a0>
    2bf0:	01451793          	slli	x15,x10,0x14
    2bf4:	2a079663          	bne	x15,x0,2ea0 <_malloc_r+0x5a0>
    2bf8:	0089ab83          	lw	x23,8(x19)
    2bfc:	015b07b3          	add	x15,x22,x21
    2c00:	0017e793          	ori	x15,x15,1
    2c04:	00fba223          	sw	x15,4(x23)
    2c08:	f8818713          	addi	x14,x3,-120 # 143d8 <__malloc_max_sbrked_mem>
    2c0c:	00072683          	lw	x13,0(x14)
    2c10:	00b6f463          	bgeu	x13,x11,2c18 <_malloc_r+0x318>
    2c14:	00b72023          	sw	x11,0(x14)
    2c18:	f8418713          	addi	x14,x3,-124 # 143d4 <__malloc_max_total_mem>
    2c1c:	00072683          	lw	x13,0(x14)
    2c20:	00b6f463          	bgeu	x13,x11,2c28 <_malloc_r+0x328>
    2c24:	00b72023          	sw	x11,0(x14)
    2c28:	00812c03          	lw	x24,8(x2)
    2c2c:	000b8413          	addi	x8,x23,0
    2c30:	ffc7f793          	andi	x15,x15,-4
    2c34:	40978733          	sub	x14,x15,x9
    2c38:	3897ea63          	bltu	x15,x9,2fcc <_malloc_r+0x6cc>
    2c3c:	00f00793          	addi	x15,x0,15
    2c40:	38e7d663          	bge	x15,x14,2fcc <_malloc_r+0x6cc>
    2c44:	01812a03          	lw	x20,24(x2)
    2c48:	01412a83          	lw	x21,20(x2)
    2c4c:	00c12b83          	lw	x23,12(x2)
    2c50:	00412c83          	lw	x25,4(x2)
    2c54:	0014e793          	ori	x15,x9,1
    2c58:	00f42223          	sw	x15,4(x8)
    2c5c:	009404b3          	add	x9,x8,x9
    2c60:	0099a423          	sw	x9,8(x19)
    2c64:	00176713          	ori	x14,x14,1
    2c68:	00090513          	addi	x10,x18,0
    2c6c:	00e4a223          	sw	x14,4(x9)
    2c70:	470010ef          	jal	x1,40e0 <__malloc_unlock>
    2c74:	02c12083          	lw	x1,44(x2)
    2c78:	00840513          	addi	x10,x8,8
    2c7c:	02812403          	lw	x8,40(x2)
    2c80:	01012b03          	lw	x22,16(x2)
    2c84:	02412483          	lw	x9,36(x2)
    2c88:	02012903          	lw	x18,32(x2)
    2c8c:	01c12983          	lw	x19,28(x2)
    2c90:	03010113          	addi	x2,x2,48
    2c94:	00008067          	jalr	x0,0(x1)
    2c98:	0049a503          	lw	x10,4(x19)
    2c9c:	dfdff06f          	jal	x0,2a98 <_malloc_r+0x198>
    2ca0:	00842603          	lw	x12,8(x8)
    2ca4:	cc5ff06f          	jal	x0,2968 <_malloc_r+0x68>
    2ca8:	00c7a403          	lw	x8,12(x15) # fffff00c <__heap_end+0xffbff00c>
    2cac:	00258593          	addi	x11,x11,2
    2cb0:	d6878ae3          	beq	x15,x8,2a24 <_malloc_r+0x124>
    2cb4:	ca5ff06f          	jal	x0,2958 <_malloc_r+0x58>
    2cb8:	0097d713          	srli	x14,x15,0x9
    2cbc:	00400693          	addi	x13,x0,4
    2cc0:	14e6f263          	bgeu	x13,x14,2e04 <_malloc_r+0x504>
    2cc4:	01400693          	addi	x13,x0,20
    2cc8:	32e6e463          	bltu	x13,x14,2ff0 <_malloc_r+0x6f0>
    2ccc:	05c70613          	addi	x12,x14,92
    2cd0:	05b70693          	addi	x13,x14,91
    2cd4:	00361613          	slli	x12,x12,0x3
    2cd8:	00c98633          	add	x12,x19,x12
    2cdc:	00062703          	lw	x14,0(x12)
    2ce0:	ff860613          	addi	x12,x12,-8
    2ce4:	00e61863          	bne	x12,x14,2cf4 <_malloc_r+0x3f4>
    2ce8:	2940006f          	jal	x0,2f7c <_malloc_r+0x67c>
    2cec:	00872703          	lw	x14,8(x14)
    2cf0:	00e60863          	beq	x12,x14,2d00 <_malloc_r+0x400>
    2cf4:	00472683          	lw	x13,4(x14)
    2cf8:	ffc6f693          	andi	x13,x13,-4
    2cfc:	fed7e8e3          	bltu	x15,x13,2cec <_malloc_r+0x3ec>
    2d00:	00c72603          	lw	x12,12(x14)
    2d04:	00c42623          	sw	x12,12(x8)
    2d08:	00e42423          	sw	x14,8(x8)
    2d0c:	00862423          	sw	x8,8(x12)
    2d10:	00872623          	sw	x8,12(x14)
    2d14:	d85ff06f          	jal	x0,2a98 <_malloc_r+0x198>
    2d18:	01400713          	addi	x14,x0,20
    2d1c:	10f77863          	bgeu	x14,x15,2e2c <_malloc_r+0x52c>
    2d20:	05400713          	addi	x14,x0,84
    2d24:	2ef76463          	bltu	x14,x15,300c <_malloc_r+0x70c>
    2d28:	00c4d793          	srli	x15,x9,0xc
    2d2c:	06f78593          	addi	x11,x15,111
    2d30:	06e78813          	addi	x16,x15,110
    2d34:	00359613          	slli	x12,x11,0x3
    2d38:	ca9ff06f          	jal	x0,29e0 <_malloc_r+0xe0>
    2d3c:	001e0e13          	addi	x28,x28,1
    2d40:	003e7793          	andi	x15,x28,3
    2d44:	00850513          	addi	x10,x10,8
    2d48:	10078063          	beq	x15,x0,2e48 <_malloc_r+0x548>
    2d4c:	00c52783          	lw	x15,12(x10)
    2d50:	d9dff06f          	jal	x0,2aec <_malloc_r+0x1ec>
    2d54:	00842603          	lw	x12,8(x8)
    2d58:	0014e593          	ori	x11,x9,1
    2d5c:	00b42223          	sw	x11,4(x8)
    2d60:	00f62623          	sw	x15,12(x12)
    2d64:	00c7a423          	sw	x12,8(x15)
    2d68:	009404b3          	add	x9,x8,x9
    2d6c:	0099aa23          	sw	x9,20(x19)
    2d70:	0099a823          	sw	x9,16(x19)
    2d74:	0016e793          	ori	x15,x13,1
    2d78:	0114a623          	sw	x17,12(x9)
    2d7c:	0114a423          	sw	x17,8(x9)
    2d80:	00f4a223          	sw	x15,4(x9)
    2d84:	00e40733          	add	x14,x8,x14
    2d88:	00090513          	addi	x10,x18,0
    2d8c:	00d72023          	sw	x13,0(x14)
    2d90:	350010ef          	jal	x1,40e0 <__malloc_unlock>
    2d94:	00840513          	addi	x10,x8,8
    2d98:	bf5ff06f          	jal	x0,298c <_malloc_r+0x8c>
    2d9c:	00f407b3          	add	x15,x8,x15
    2da0:	0047a703          	lw	x14,4(x15)
    2da4:	00090513          	addi	x10,x18,0
    2da8:	00176713          	ori	x14,x14,1
    2dac:	00e7a223          	sw	x14,4(x15)
    2db0:	330010ef          	jal	x1,40e0 <__malloc_unlock>
    2db4:	00840513          	addi	x10,x8,8
    2db8:	bd5ff06f          	jal	x0,298c <_malloc_r+0x8c>
    2dbc:	0034d593          	srli	x11,x9,0x3
    2dc0:	00848793          	addi	x15,x9,8
    2dc4:	b7dff06f          	jal	x0,2940 <_malloc_r+0x40>
    2dc8:	0014e693          	ori	x13,x9,1
    2dcc:	00d42223          	sw	x13,4(x8)
    2dd0:	009404b3          	add	x9,x8,x9
    2dd4:	0099aa23          	sw	x9,20(x19)
    2dd8:	0099a823          	sw	x9,16(x19)
    2ddc:	00176693          	ori	x13,x14,1
    2de0:	0114a623          	sw	x17,12(x9)
    2de4:	0114a423          	sw	x17,8(x9)
    2de8:	00d4a223          	sw	x13,4(x9)
    2dec:	00f407b3          	add	x15,x8,x15
    2df0:	00090513          	addi	x10,x18,0
    2df4:	00e7a023          	sw	x14,0(x15)
    2df8:	2e8010ef          	jal	x1,40e0 <__malloc_unlock>
    2dfc:	00840513          	addi	x10,x8,8
    2e00:	b8dff06f          	jal	x0,298c <_malloc_r+0x8c>
    2e04:	0067d713          	srli	x14,x15,0x6
    2e08:	03970613          	addi	x12,x14,57
    2e0c:	03870693          	addi	x13,x14,56
    2e10:	00361613          	slli	x12,x12,0x3
    2e14:	ec5ff06f          	jal	x0,2cd8 <_malloc_r+0x3d8>
    2e18:	07340c63          	beq	x8,x19,2e90 <_malloc_r+0x590>
    2e1c:	0089a403          	lw	x8,8(x19)
    2e20:	00812c03          	lw	x24,8(x2)
    2e24:	00442783          	lw	x15,4(x8)
    2e28:	e09ff06f          	jal	x0,2c30 <_malloc_r+0x330>
    2e2c:	05c78593          	addi	x11,x15,92
    2e30:	05b78813          	addi	x16,x15,91
    2e34:	00359613          	slli	x12,x11,0x3
    2e38:	ba9ff06f          	jal	x0,29e0 <_malloc_r+0xe0>
    2e3c:	00832783          	lw	x15,8(x6)
    2e40:	fff58593          	addi	x11,x11,-1
    2e44:	26679e63          	bne	x15,x6,30c0 <_malloc_r+0x7c0>
    2e48:	0035f793          	andi	x15,x11,3
    2e4c:	ff830313          	addi	x6,x6,-8
    2e50:	fe0796e3          	bne	x15,x0,2e3c <_malloc_r+0x53c>
    2e54:	0049a703          	lw	x14,4(x19)
    2e58:	fff64793          	xori	x15,x12,-1
    2e5c:	00e7f7b3          	and	x15,x15,x14
    2e60:	00f9a223          	sw	x15,4(x19)
    2e64:	00161613          	slli	x12,x12,0x1
    2e68:	cec7e8e3          	bltu	x15,x12,2b58 <_malloc_r+0x258>
    2e6c:	ce0606e3          	beq	x12,x0,2b58 <_malloc_r+0x258>
    2e70:	00f67733          	and	x14,x12,x15
    2e74:	00071a63          	bne	x14,x0,2e88 <_malloc_r+0x588>
    2e78:	00161613          	slli	x12,x12,0x1
    2e7c:	00f67733          	and	x14,x12,x15
    2e80:	004e0e13          	addi	x28,x28,4
    2e84:	fe070ae3          	beq	x14,x0,2e78 <_malloc_r+0x578>
    2e88:	000e0593          	addi	x11,x28,0
    2e8c:	c4dff06f          	jal	x0,2ad8 <_malloc_r+0x1d8>
    2e90:	11c18c13          	addi	x24,x3,284 # 1456c <__malloc_current_mallinfo>
    2e94:	000c2703          	lw	x14,0(x24)
    2e98:	00ea8733          	add	x14,x21,x14
    2e9c:	00ec2023          	sw	x14,0(x24)
    2ea0:	000ca683          	lw	x13,0(x25)
    2ea4:	fff00793          	addi	x15,x0,-1
    2ea8:	18f68663          	beq	x13,x15,3034 <_malloc_r+0x734>
    2eac:	414b87b3          	sub	x15,x23,x20
    2eb0:	00e787b3          	add	x15,x15,x14
    2eb4:	00fc2023          	sw	x15,0(x24)
    2eb8:	007bfc93          	andi	x25,x23,7
    2ebc:	0c0c8c63          	beq	x25,x0,2f94 <_malloc_r+0x694>
    2ec0:	419b8bb3          	sub	x23,x23,x25
    2ec4:	000017b7          	lui	x15,0x1
    2ec8:	00878793          	addi	x15,x15,8 # 1008 <m_fast14_irq_handler+0x84>
    2ecc:	008b8b93          	addi	x23,x23,8
    2ed0:	419785b3          	sub	x11,x15,x25
    2ed4:	015b8ab3          	add	x21,x23,x21
    2ed8:	415585b3          	sub	x11,x11,x21
    2edc:	01459593          	slli	x11,x11,0x14
    2ee0:	0145da13          	srli	x20,x11,0x14
    2ee4:	000a0593          	addi	x11,x20,0
    2ee8:	00090513          	addi	x10,x18,0
    2eec:	53d050ef          	jal	x1,8c28 <_sbrk_r>
    2ef0:	fff00793          	addi	x15,x0,-1
    2ef4:	18f50063          	beq	x10,x15,3074 <_malloc_r+0x774>
    2ef8:	41750533          	sub	x10,x10,x23
    2efc:	01450ab3          	add	x21,x10,x20
    2f00:	000c2703          	lw	x14,0(x24)
    2f04:	0179a423          	sw	x23,8(x19)
    2f08:	001ae793          	ori	x15,x21,1
    2f0c:	00ea05b3          	add	x11,x20,x14
    2f10:	00bc2023          	sw	x11,0(x24)
    2f14:	00fba223          	sw	x15,4(x23)
    2f18:	cf3408e3          	beq	x8,x19,2c08 <_malloc_r+0x308>
    2f1c:	00f00693          	addi	x13,x0,15
    2f20:	0b66f063          	bgeu	x13,x22,2fc0 <_malloc_r+0x6c0>
    2f24:	00442703          	lw	x14,4(x8)
    2f28:	ff4b0793          	addi	x15,x22,-12
    2f2c:	ff87f793          	andi	x15,x15,-8
    2f30:	00177713          	andi	x14,x14,1
    2f34:	00f76733          	or	x14,x14,x15
    2f38:	00e42223          	sw	x14,4(x8)
    2f3c:	00500613          	addi	x12,x0,5
    2f40:	00f40733          	add	x14,x8,x15
    2f44:	00c72223          	sw	x12,4(x14)
    2f48:	00c72423          	sw	x12,8(x14)
    2f4c:	00f6e663          	bltu	x13,x15,2f58 <_malloc_r+0x658>
    2f50:	004ba783          	lw	x15,4(x23)
    2f54:	cb5ff06f          	jal	x0,2c08 <_malloc_r+0x308>
    2f58:	00840593          	addi	x11,x8,8
    2f5c:	00090513          	addi	x10,x18,0
    2f60:	2fc000ef          	jal	x1,325c <_free_r>
    2f64:	0089ab83          	lw	x23,8(x19)
    2f68:	000c2583          	lw	x11,0(x24)
    2f6c:	004ba783          	lw	x15,4(x23)
    2f70:	c99ff06f          	jal	x0,2c08 <_malloc_r+0x308>
    2f74:	010a8a93          	addi	x21,x21,16
    2f78:	c41ff06f          	jal	x0,2bb8 <_malloc_r+0x2b8>
    2f7c:	4026d693          	srai	x13,x13,0x2
    2f80:	00100793          	addi	x15,x0,1
    2f84:	00d797b3          	sll	x15,x15,x13
    2f88:	00f56533          	or	x10,x10,x15
    2f8c:	00a9a223          	sw	x10,4(x19)
    2f90:	d75ff06f          	jal	x0,2d04 <_malloc_r+0x404>
    2f94:	015b85b3          	add	x11,x23,x21
    2f98:	40b005b3          	sub	x11,x0,x11
    2f9c:	01459593          	slli	x11,x11,0x14
    2fa0:	0145da13          	srli	x20,x11,0x14
    2fa4:	000a0593          	addi	x11,x20,0
    2fa8:	00090513          	addi	x10,x18,0
    2fac:	47d050ef          	jal	x1,8c28 <_sbrk_r>
    2fb0:	fff00793          	addi	x15,x0,-1
    2fb4:	f4f512e3          	bne	x10,x15,2ef8 <_malloc_r+0x5f8>
    2fb8:	00000a13          	addi	x20,x0,0
    2fbc:	f45ff06f          	jal	x0,2f00 <_malloc_r+0x600>
    2fc0:	00812c03          	lw	x24,8(x2)
    2fc4:	00100793          	addi	x15,x0,1
    2fc8:	00fba223          	sw	x15,4(x23)
    2fcc:	00090513          	addi	x10,x18,0
    2fd0:	110010ef          	jal	x1,40e0 <__malloc_unlock>
    2fd4:	00000513          	addi	x10,x0,0
    2fd8:	01812a03          	lw	x20,24(x2)
    2fdc:	01412a83          	lw	x21,20(x2)
    2fe0:	01012b03          	lw	x22,16(x2)
    2fe4:	00c12b83          	lw	x23,12(x2)
    2fe8:	00412c83          	lw	x25,4(x2)
    2fec:	9a1ff06f          	jal	x0,298c <_malloc_r+0x8c>
    2ff0:	05400693          	addi	x13,x0,84
    2ff4:	04e6e463          	bltu	x13,x14,303c <_malloc_r+0x73c>
    2ff8:	00c7d713          	srli	x14,x15,0xc
    2ffc:	06f70613          	addi	x12,x14,111
    3000:	06e70693          	addi	x13,x14,110
    3004:	00361613          	slli	x12,x12,0x3
    3008:	cd1ff06f          	jal	x0,2cd8 <_malloc_r+0x3d8>
    300c:	15400713          	addi	x14,x0,340
    3010:	04f76463          	bltu	x14,x15,3058 <_malloc_r+0x758>
    3014:	00f4d793          	srli	x15,x9,0xf
    3018:	07878593          	addi	x11,x15,120
    301c:	07778813          	addi	x16,x15,119
    3020:	00359613          	slli	x12,x11,0x3
    3024:	9bdff06f          	jal	x0,29e0 <_malloc_r+0xe0>
    3028:	0089a403          	lw	x8,8(x19)
    302c:	00442783          	lw	x15,4(x8)
    3030:	c01ff06f          	jal	x0,2c30 <_malloc_r+0x330>
    3034:	017ca023          	sw	x23,0(x25)
    3038:	e81ff06f          	jal	x0,2eb8 <_malloc_r+0x5b8>
    303c:	15400693          	addi	x13,x0,340
    3040:	04e6e463          	bltu	x13,x14,3088 <_malloc_r+0x788>
    3044:	00f7d713          	srli	x14,x15,0xf
    3048:	07870613          	addi	x12,x14,120
    304c:	07770693          	addi	x13,x14,119
    3050:	00361613          	slli	x12,x12,0x3
    3054:	c85ff06f          	jal	x0,2cd8 <_malloc_r+0x3d8>
    3058:	55400713          	addi	x14,x0,1364
    305c:	04f76463          	bltu	x14,x15,30a4 <_malloc_r+0x7a4>
    3060:	0124d793          	srli	x15,x9,0x12
    3064:	07d78593          	addi	x11,x15,125
    3068:	07c78813          	addi	x16,x15,124
    306c:	00359613          	slli	x12,x11,0x3
    3070:	971ff06f          	jal	x0,29e0 <_malloc_r+0xe0>
    3074:	ff8c8c93          	addi	x25,x25,-8
    3078:	019a8ab3          	add	x21,x21,x25
    307c:	417a8ab3          	sub	x21,x21,x23
    3080:	00000a13          	addi	x20,x0,0
    3084:	e7dff06f          	jal	x0,2f00 <_malloc_r+0x600>
    3088:	55400693          	addi	x13,x0,1364
    308c:	02e6e463          	bltu	x13,x14,30b4 <_malloc_r+0x7b4>
    3090:	0127d713          	srli	x14,x15,0x12
    3094:	07d70613          	addi	x12,x14,125
    3098:	07c70693          	addi	x13,x14,124
    309c:	00361613          	slli	x12,x12,0x3
    30a0:	c39ff06f          	jal	x0,2cd8 <_malloc_r+0x3d8>
    30a4:	3f800613          	addi	x12,x0,1016
    30a8:	07f00593          	addi	x11,x0,127
    30ac:	07e00813          	addi	x16,x0,126
    30b0:	931ff06f          	jal	x0,29e0 <_malloc_r+0xe0>
    30b4:	3f800613          	addi	x12,x0,1016
    30b8:	07e00693          	addi	x13,x0,126
    30bc:	c1dff06f          	jal	x0,2cd8 <_malloc_r+0x3d8>
    30c0:	0049a783          	lw	x15,4(x19)
    30c4:	da1ff06f          	jal	x0,2e64 <_malloc_r+0x564>

000030c8 <__libc_fini_array>:
    30c8:	ff010113          	addi	x2,x2,-16
    30cc:	00812423          	sw	x8,8(x2)
    30d0:	00011797          	auipc	x15,0x11
    30d4:	b8078793          	addi	x15,x15,-1152 # 13c50 <IRQ_ID_PRIORITY>
    30d8:	00011417          	auipc	x8,0x11
    30dc:	b7840413          	addi	x8,x8,-1160 # 13c50 <IRQ_ID_PRIORITY>
    30e0:	40f40433          	sub	x8,x8,x15
    30e4:	00912223          	sw	x9,4(x2)
    30e8:	00112623          	sw	x1,12(x2)
    30ec:	40245493          	srai	x9,x8,0x2
    30f0:	02048063          	beq	x9,x0,3110 <__libc_fini_array+0x48>
    30f4:	ffc40413          	addi	x8,x8,-4
    30f8:	00f40433          	add	x8,x8,x15
    30fc:	00042783          	lw	x15,0(x8)
    3100:	fff48493          	addi	x9,x9,-1
    3104:	ffc40413          	addi	x8,x8,-4
    3108:	000780e7          	jalr	x1,0(x15)
    310c:	fe0498e3          	bne	x9,x0,30fc <__libc_fini_array+0x34>
    3110:	00c12083          	lw	x1,12(x2)
    3114:	00812403          	lw	x8,8(x2)
    3118:	00412483          	lw	x9,4(x2)
    311c:	01010113          	addi	x2,x2,16
    3120:	00008067          	jalr	x0,0(x1)

00003124 <_malloc_trim_r>:
    3124:	fe010113          	addi	x2,x2,-32
    3128:	00812c23          	sw	x8,24(x2)
    312c:	00912a23          	sw	x9,20(x2)
    3130:	01212823          	sw	x18,16(x2)
    3134:	01312623          	sw	x19,12(x2)
    3138:	01412423          	sw	x20,8(x2)
    313c:	00058993          	addi	x19,x11,0
    3140:	00112e23          	sw	x1,28(x2)
    3144:	00050913          	addi	x18,x10,0
    3148:	00011a17          	auipc	x20,0x11
    314c:	b60a0a13          	addi	x20,x20,-1184 # 13ca8 <__malloc_av_>
    3150:	78d000ef          	jal	x1,40dc <__malloc_lock>
    3154:	008a2703          	lw	x14,8(x20)
    3158:	000017b7          	lui	x15,0x1
    315c:	fef78793          	addi	x15,x15,-17 # fef <m_fast14_irq_handler+0x6b>
    3160:	00472483          	lw	x9,4(x14)
    3164:	00001737          	lui	x14,0x1
    3168:	ffc4f493          	andi	x9,x9,-4
    316c:	00f48433          	add	x8,x9,x15
    3170:	41340433          	sub	x8,x8,x19
    3174:	00c45413          	srli	x8,x8,0xc
    3178:	fff40413          	addi	x8,x8,-1
    317c:	00c41413          	slli	x8,x8,0xc
    3180:	00e44e63          	blt	x8,x14,319c <_malloc_trim_r+0x78>
    3184:	00000593          	addi	x11,x0,0
    3188:	00090513          	addi	x10,x18,0
    318c:	29d050ef          	jal	x1,8c28 <_sbrk_r>
    3190:	008a2783          	lw	x15,8(x20)
    3194:	009787b3          	add	x15,x15,x9
    3198:	02f50863          	beq	x10,x15,31c8 <_malloc_trim_r+0xa4>
    319c:	00090513          	addi	x10,x18,0
    31a0:	741000ef          	jal	x1,40e0 <__malloc_unlock>
    31a4:	01c12083          	lw	x1,28(x2)
    31a8:	01812403          	lw	x8,24(x2)
    31ac:	01412483          	lw	x9,20(x2)
    31b0:	01012903          	lw	x18,16(x2)
    31b4:	00c12983          	lw	x19,12(x2)
    31b8:	00812a03          	lw	x20,8(x2)
    31bc:	00000513          	addi	x10,x0,0
    31c0:	02010113          	addi	x2,x2,32
    31c4:	00008067          	jalr	x0,0(x1)
    31c8:	408005b3          	sub	x11,x0,x8
    31cc:	00090513          	addi	x10,x18,0
    31d0:	259050ef          	jal	x1,8c28 <_sbrk_r>
    31d4:	fff00793          	addi	x15,x0,-1
    31d8:	04f50863          	beq	x10,x15,3228 <_malloc_trim_r+0x104>
    31dc:	11c18713          	addi	x14,x3,284 # 1456c <__malloc_current_mallinfo>
    31e0:	00072783          	lw	x15,0(x14) # 1000 <m_fast14_irq_handler+0x7c>
    31e4:	008a2683          	lw	x13,8(x20)
    31e8:	408484b3          	sub	x9,x9,x8
    31ec:	0014e493          	ori	x9,x9,1
    31f0:	408787b3          	sub	x15,x15,x8
    31f4:	00090513          	addi	x10,x18,0
    31f8:	0096a223          	sw	x9,4(x13)
    31fc:	00f72023          	sw	x15,0(x14)
    3200:	6e1000ef          	jal	x1,40e0 <__malloc_unlock>
    3204:	01c12083          	lw	x1,28(x2)
    3208:	01812403          	lw	x8,24(x2)
    320c:	01412483          	lw	x9,20(x2)
    3210:	01012903          	lw	x18,16(x2)
    3214:	00c12983          	lw	x19,12(x2)
    3218:	00812a03          	lw	x20,8(x2)
    321c:	00100513          	addi	x10,x0,1
    3220:	02010113          	addi	x2,x2,32
    3224:	00008067          	jalr	x0,0(x1)
    3228:	00000593          	addi	x11,x0,0
    322c:	00090513          	addi	x10,x18,0
    3230:	1f9050ef          	jal	x1,8c28 <_sbrk_r>
    3234:	008a2703          	lw	x14,8(x20)
    3238:	00f00693          	addi	x13,x0,15
    323c:	40e507b3          	sub	x15,x10,x14
    3240:	f4f6dee3          	bge	x13,x15,319c <_malloc_trim_r+0x78>
    3244:	f541a683          	lw	x13,-172(x3) # 143a4 <__malloc_sbrk_base>
    3248:	40d50533          	sub	x10,x10,x13
    324c:	0017e793          	ori	x15,x15,1
    3250:	10a1ae23          	sw	x10,284(x3) # 1456c <__malloc_current_mallinfo>
    3254:	00f72223          	sw	x15,4(x14)
    3258:	f45ff06f          	jal	x0,319c <_malloc_trim_r+0x78>

0000325c <_free_r>:
    325c:	18058263          	beq	x11,x0,33e0 <_free_r+0x184>
    3260:	ff010113          	addi	x2,x2,-16
    3264:	00812423          	sw	x8,8(x2)
    3268:	00912223          	sw	x9,4(x2)
    326c:	00058413          	addi	x8,x11,0
    3270:	00050493          	addi	x9,x10,0
    3274:	00112623          	sw	x1,12(x2)
    3278:	665000ef          	jal	x1,40dc <__malloc_lock>
    327c:	ffc42583          	lw	x11,-4(x8)
    3280:	ff840713          	addi	x14,x8,-8
    3284:	00011517          	auipc	x10,0x11
    3288:	a2450513          	addi	x10,x10,-1500 # 13ca8 <__malloc_av_>
    328c:	ffe5f793          	andi	x15,x11,-2
    3290:	00f70633          	add	x12,x14,x15
    3294:	00462683          	lw	x13,4(x12)
    3298:	00852803          	lw	x16,8(x10)
    329c:	ffc6f693          	andi	x13,x13,-4
    32a0:	1ac80263          	beq	x16,x12,3444 <_free_r+0x1e8>
    32a4:	00d62223          	sw	x13,4(x12)
    32a8:	0015f593          	andi	x11,x11,1
    32ac:	00d60833          	add	x16,x12,x13
    32b0:	0a059063          	bne	x11,x0,3350 <_free_r+0xf4>
    32b4:	ff842303          	lw	x6,-8(x8)
    32b8:	00482583          	lw	x11,4(x16)
    32bc:	00011897          	auipc	x17,0x11
    32c0:	9f488893          	addi	x17,x17,-1548 # 13cb0 <__malloc_av_+0x8>
    32c4:	40670733          	sub	x14,x14,x6
    32c8:	00872803          	lw	x16,8(x14)
    32cc:	006787b3          	add	x15,x15,x6
    32d0:	0015f593          	andi	x11,x11,1
    32d4:	15180263          	beq	x16,x17,3418 <_free_r+0x1bc>
    32d8:	00c72303          	lw	x6,12(x14)
    32dc:	00682623          	sw	x6,12(x16)
    32e0:	01032423          	sw	x16,8(x6)
    32e4:	1a058663          	beq	x11,x0,3490 <_free_r+0x234>
    32e8:	0017e693          	ori	x13,x15,1
    32ec:	00d72223          	sw	x13,4(x14)
    32f0:	00f62023          	sw	x15,0(x12)
    32f4:	1ff00693          	addi	x13,x0,511
    32f8:	06f6ec63          	bltu	x13,x15,3370 <_free_r+0x114>
    32fc:	ff87f693          	andi	x13,x15,-8
    3300:	00868693          	addi	x13,x13,8
    3304:	00452583          	lw	x11,4(x10)
    3308:	00d506b3          	add	x13,x10,x13
    330c:	0006a603          	lw	x12,0(x13)
    3310:	0057d813          	srli	x16,x15,0x5
    3314:	00100793          	addi	x15,x0,1
    3318:	010797b3          	sll	x15,x15,x16
    331c:	00b7e7b3          	or	x15,x15,x11
    3320:	ff868593          	addi	x11,x13,-8
    3324:	00b72623          	sw	x11,12(x14)
    3328:	00c72423          	sw	x12,8(x14)
    332c:	00f52223          	sw	x15,4(x10)
    3330:	00e6a023          	sw	x14,0(x13)
    3334:	00e62623          	sw	x14,12(x12)
    3338:	00812403          	lw	x8,8(x2)
    333c:	00c12083          	lw	x1,12(x2)
    3340:	00048513          	addi	x10,x9,0
    3344:	00412483          	lw	x9,4(x2)
    3348:	01010113          	addi	x2,x2,16
    334c:	5950006f          	jal	x0,40e0 <__malloc_unlock>
    3350:	00482583          	lw	x11,4(x16)
    3354:	0015f593          	andi	x11,x11,1
    3358:	08058663          	beq	x11,x0,33e4 <_free_r+0x188>
    335c:	0017e693          	ori	x13,x15,1
    3360:	fed42e23          	sw	x13,-4(x8)
    3364:	00f62023          	sw	x15,0(x12)
    3368:	1ff00693          	addi	x13,x0,511
    336c:	f8f6f8e3          	bgeu	x13,x15,32fc <_free_r+0xa0>
    3370:	0097d693          	srli	x13,x15,0x9
    3374:	00400613          	addi	x12,x0,4
    3378:	12d66063          	bltu	x12,x13,3498 <_free_r+0x23c>
    337c:	0067d693          	srli	x13,x15,0x6
    3380:	03968593          	addi	x11,x13,57
    3384:	03868613          	addi	x12,x13,56
    3388:	00359593          	slli	x11,x11,0x3
    338c:	00b505b3          	add	x11,x10,x11
    3390:	0005a683          	lw	x13,0(x11)
    3394:	ff858593          	addi	x11,x11,-8
    3398:	00d59863          	bne	x11,x13,33a8 <_free_r+0x14c>
    339c:	1540006f          	jal	x0,34f0 <_free_r+0x294>
    33a0:	0086a683          	lw	x13,8(x13)
    33a4:	00d58863          	beq	x11,x13,33b4 <_free_r+0x158>
    33a8:	0046a603          	lw	x12,4(x13)
    33ac:	ffc67613          	andi	x12,x12,-4
    33b0:	fec7e8e3          	bltu	x15,x12,33a0 <_free_r+0x144>
    33b4:	00c6a583          	lw	x11,12(x13)
    33b8:	00b72623          	sw	x11,12(x14)
    33bc:	00d72423          	sw	x13,8(x14)
    33c0:	00812403          	lw	x8,8(x2)
    33c4:	00c12083          	lw	x1,12(x2)
    33c8:	00e5a423          	sw	x14,8(x11)
    33cc:	00048513          	addi	x10,x9,0
    33d0:	00412483          	lw	x9,4(x2)
    33d4:	00e6a623          	sw	x14,12(x13)
    33d8:	01010113          	addi	x2,x2,16
    33dc:	5050006f          	jal	x0,40e0 <__malloc_unlock>
    33e0:	00008067          	jalr	x0,0(x1)
    33e4:	00d787b3          	add	x15,x15,x13
    33e8:	00011897          	auipc	x17,0x11
    33ec:	8c888893          	addi	x17,x17,-1848 # 13cb0 <__malloc_av_+0x8>
    33f0:	00862683          	lw	x13,8(x12)
    33f4:	0d168c63          	beq	x13,x17,34cc <_free_r+0x270>
    33f8:	00c62803          	lw	x16,12(x12)
    33fc:	0017e593          	ori	x11,x15,1
    3400:	00f70633          	add	x12,x14,x15
    3404:	0106a623          	sw	x16,12(x13)
    3408:	00d82423          	sw	x13,8(x16)
    340c:	00b72223          	sw	x11,4(x14)
    3410:	00f62023          	sw	x15,0(x12)
    3414:	ee1ff06f          	jal	x0,32f4 <_free_r+0x98>
    3418:	12059c63          	bne	x11,x0,3550 <_free_r+0x2f4>
    341c:	00862583          	lw	x11,8(x12)
    3420:	00c62603          	lw	x12,12(x12)
    3424:	00f686b3          	add	x13,x13,x15
    3428:	0016e793          	ori	x15,x13,1
    342c:	00c5a623          	sw	x12,12(x11)
    3430:	00b62423          	sw	x11,8(x12)
    3434:	00f72223          	sw	x15,4(x14)
    3438:	00d70733          	add	x14,x14,x13
    343c:	00d72023          	sw	x13,0(x14)
    3440:	ef9ff06f          	jal	x0,3338 <_free_r+0xdc>
    3444:	0015f593          	andi	x11,x11,1
    3448:	00d786b3          	add	x13,x15,x13
    344c:	02059063          	bne	x11,x0,346c <_free_r+0x210>
    3450:	ff842583          	lw	x11,-8(x8)
    3454:	40b70733          	sub	x14,x14,x11
    3458:	00c72783          	lw	x15,12(x14)
    345c:	00872603          	lw	x12,8(x14)
    3460:	00b686b3          	add	x13,x13,x11
    3464:	00f62623          	sw	x15,12(x12)
    3468:	00c7a423          	sw	x12,8(x15)
    346c:	0016e793          	ori	x15,x13,1
    3470:	00f72223          	sw	x15,4(x14)
    3474:	00e52423          	sw	x14,8(x10)
    3478:	f581a783          	lw	x15,-168(x3) # 143a8 <__malloc_trim_threshold>
    347c:	eaf6eee3          	bltu	x13,x15,3338 <_free_r+0xdc>
    3480:	f8c1a583          	lw	x11,-116(x3) # 143dc <__malloc_top_pad>
    3484:	00048513          	addi	x10,x9,0
    3488:	c9dff0ef          	jal	x1,3124 <_malloc_trim_r>
    348c:	eadff06f          	jal	x0,3338 <_free_r+0xdc>
    3490:	00d787b3          	add	x15,x15,x13
    3494:	f5dff06f          	jal	x0,33f0 <_free_r+0x194>
    3498:	01400613          	addi	x12,x0,20
    349c:	02d67063          	bgeu	x12,x13,34bc <_free_r+0x260>
    34a0:	05400613          	addi	x12,x0,84
    34a4:	06d66463          	bltu	x12,x13,350c <_free_r+0x2b0>
    34a8:	00c7d693          	srli	x13,x15,0xc
    34ac:	06f68593          	addi	x11,x13,111
    34b0:	06e68613          	addi	x12,x13,110
    34b4:	00359593          	slli	x11,x11,0x3
    34b8:	ed5ff06f          	jal	x0,338c <_free_r+0x130>
    34bc:	05c68593          	addi	x11,x13,92
    34c0:	05b68613          	addi	x12,x13,91
    34c4:	00359593          	slli	x11,x11,0x3
    34c8:	ec5ff06f          	jal	x0,338c <_free_r+0x130>
    34cc:	00e52a23          	sw	x14,20(x10)
    34d0:	00e52823          	sw	x14,16(x10)
    34d4:	0017e693          	ori	x13,x15,1
    34d8:	01172623          	sw	x17,12(x14)
    34dc:	01172423          	sw	x17,8(x14)
    34e0:	00d72223          	sw	x13,4(x14)
    34e4:	00f70733          	add	x14,x14,x15
    34e8:	00f72023          	sw	x15,0(x14)
    34ec:	e4dff06f          	jal	x0,3338 <_free_r+0xdc>
    34f0:	00452803          	lw	x16,4(x10)
    34f4:	40265613          	srai	x12,x12,0x2
    34f8:	00100793          	addi	x15,x0,1
    34fc:	00c797b3          	sll	x15,x15,x12
    3500:	0107e7b3          	or	x15,x15,x16
    3504:	00f52223          	sw	x15,4(x10)
    3508:	eb1ff06f          	jal	x0,33b8 <_free_r+0x15c>
    350c:	15400613          	addi	x12,x0,340
    3510:	00d66c63          	bltu	x12,x13,3528 <_free_r+0x2cc>
    3514:	00f7d693          	srli	x13,x15,0xf
    3518:	07868593          	addi	x11,x13,120
    351c:	07768613          	addi	x12,x13,119
    3520:	00359593          	slli	x11,x11,0x3
    3524:	e69ff06f          	jal	x0,338c <_free_r+0x130>
    3528:	55400613          	addi	x12,x0,1364
    352c:	00d66c63          	bltu	x12,x13,3544 <_free_r+0x2e8>
    3530:	0127d693          	srli	x13,x15,0x12
    3534:	07d68593          	addi	x11,x13,125
    3538:	07c68613          	addi	x12,x13,124
    353c:	00359593          	slli	x11,x11,0x3
    3540:	e4dff06f          	jal	x0,338c <_free_r+0x130>
    3544:	3f800593          	addi	x11,x0,1016
    3548:	07e00613          	addi	x12,x0,126
    354c:	e41ff06f          	jal	x0,338c <_free_r+0x130>
    3550:	0017e693          	ori	x13,x15,1
    3554:	00d72223          	sw	x13,4(x14)
    3558:	00f62023          	sw	x15,0(x12)
    355c:	dddff06f          	jal	x0,3338 <_free_r+0xdc>

00003560 <strlen>:
    3560:	00357793          	andi	x15,x10,3
    3564:	00050713          	addi	x14,x10,0
    3568:	04079c63          	bne	x15,x0,35c0 <strlen+0x60>
    356c:	7f7f86b7          	lui	x13,0x7f7f8
    3570:	f7f68693          	addi	x13,x13,-129 # 7f7f7f7f <__heap_end+0x7f3f7f7f>
    3574:	fff00593          	addi	x11,x0,-1
    3578:	00072603          	lw	x12,0(x14)
    357c:	00470713          	addi	x14,x14,4
    3580:	00d677b3          	and	x15,x12,x13
    3584:	00d787b3          	add	x15,x15,x13
    3588:	00c7e7b3          	or	x15,x15,x12
    358c:	00d7e7b3          	or	x15,x15,x13
    3590:	feb784e3          	beq	x15,x11,3578 <strlen+0x18>
    3594:	ffc74683          	lbu	x13,-4(x14)
    3598:	40a707b3          	sub	x15,x14,x10
    359c:	04068463          	beq	x13,x0,35e4 <strlen+0x84>
    35a0:	ffd74683          	lbu	x13,-3(x14)
    35a4:	02068c63          	beq	x13,x0,35dc <strlen+0x7c>
    35a8:	ffe74503          	lbu	x10,-2(x14)
    35ac:	00a03533          	sltu	x10,x0,x10
    35b0:	00f50533          	add	x10,x10,x15
    35b4:	ffe50513          	addi	x10,x10,-2
    35b8:	00008067          	jalr	x0,0(x1)
    35bc:	fa0688e3          	beq	x13,x0,356c <strlen+0xc>
    35c0:	00074783          	lbu	x15,0(x14)
    35c4:	00170713          	addi	x14,x14,1
    35c8:	00377693          	andi	x13,x14,3
    35cc:	fe0798e3          	bne	x15,x0,35bc <strlen+0x5c>
    35d0:	40a70733          	sub	x14,x14,x10
    35d4:	fff70513          	addi	x10,x14,-1
    35d8:	00008067          	jalr	x0,0(x1)
    35dc:	ffd78513          	addi	x10,x15,-3
    35e0:	00008067          	jalr	x0,0(x1)
    35e4:	ffc78513          	addi	x10,x15,-4
    35e8:	00008067          	jalr	x0,0(x1)

000035ec <memchr>:
    35ec:	00357793          	andi	x15,x10,3
    35f0:	0ff5f693          	andi	x13,x11,255
    35f4:	02078a63          	beq	x15,x0,3628 <memchr+0x3c>
    35f8:	fff60793          	addi	x15,x12,-1
    35fc:	02060e63          	beq	x12,x0,3638 <memchr+0x4c>
    3600:	fff00613          	addi	x12,x0,-1
    3604:	0180006f          	jal	x0,361c <memchr+0x30>
    3608:	00150513          	addi	x10,x10,1
    360c:	00357713          	andi	x14,x10,3
    3610:	00070e63          	beq	x14,x0,362c <memchr+0x40>
    3614:	fff78793          	addi	x15,x15,-1
    3618:	02c78063          	beq	x15,x12,3638 <memchr+0x4c>
    361c:	00054703          	lbu	x14,0(x10)
    3620:	fed714e3          	bne	x14,x13,3608 <memchr+0x1c>
    3624:	00008067          	jalr	x0,0(x1)
    3628:	00060793          	addi	x15,x12,0
    362c:	00300713          	addi	x14,x0,3
    3630:	00f76863          	bltu	x14,x15,3640 <memchr+0x54>
    3634:	06079063          	bne	x15,x0,3694 <memchr+0xa8>
    3638:	00000513          	addi	x10,x0,0
    363c:	00008067          	jalr	x0,0(x1)
    3640:	0ff5f593          	andi	x11,x11,255
    3644:	00859713          	slli	x14,x11,0x8
    3648:	00b705b3          	add	x11,x14,x11
    364c:	01059713          	slli	x14,x11,0x10
    3650:	feff08b7          	lui	x17,0xfeff0
    3654:	80808837          	lui	x16,0x80808
    3658:	00e585b3          	add	x11,x11,x14
    365c:	eff88893          	addi	x17,x17,-257 # fefefeff <__heap_end+0xfebefeff>
    3660:	08080813          	addi	x16,x16,128 # 80808080 <__heap_end+0x80408080>
    3664:	00300313          	addi	x6,x0,3
    3668:	0100006f          	jal	x0,3678 <memchr+0x8c>
    366c:	ffc78793          	addi	x15,x15,-4
    3670:	00450513          	addi	x10,x10,4
    3674:	fcf370e3          	bgeu	x6,x15,3634 <memchr+0x48>
    3678:	00052703          	lw	x14,0(x10)
    367c:	00e5c733          	xor	x14,x11,x14
    3680:	01170633          	add	x12,x14,x17
    3684:	fff74713          	xori	x14,x14,-1
    3688:	00e67733          	and	x14,x12,x14
    368c:	01077733          	and	x14,x14,x16
    3690:	fc070ee3          	beq	x14,x0,366c <memchr+0x80>
    3694:	00f507b3          	add	x15,x10,x15
    3698:	00c0006f          	jal	x0,36a4 <memchr+0xb8>
    369c:	00150513          	addi	x10,x10,1
    36a0:	f8a78ce3          	beq	x15,x10,3638 <memchr+0x4c>
    36a4:	00054703          	lbu	x14,0(x10)
    36a8:	fed71ae3          	bne	x14,x13,369c <memchr+0xb0>
    36ac:	00008067          	jalr	x0,0(x1)

000036b0 <memset>:
    36b0:	00f00313          	addi	x6,x0,15
    36b4:	00050713          	addi	x14,x10,0
    36b8:	02c37e63          	bgeu	x6,x12,36f4 <memset+0x44>
    36bc:	00f77793          	andi	x15,x14,15
    36c0:	0a079063          	bne	x15,x0,3760 <memset+0xb0>
    36c4:	08059263          	bne	x11,x0,3748 <memset+0x98>
    36c8:	ff067693          	andi	x13,x12,-16
    36cc:	00f67613          	andi	x12,x12,15
    36d0:	00e686b3          	add	x13,x13,x14
    36d4:	00b72023          	sw	x11,0(x14)
    36d8:	00b72223          	sw	x11,4(x14)
    36dc:	00b72423          	sw	x11,8(x14)
    36e0:	00b72623          	sw	x11,12(x14)
    36e4:	01070713          	addi	x14,x14,16
    36e8:	fed766e3          	bltu	x14,x13,36d4 <memset+0x24>
    36ec:	00061463          	bne	x12,x0,36f4 <memset+0x44>
    36f0:	00008067          	jalr	x0,0(x1)
    36f4:	40c306b3          	sub	x13,x6,x12
    36f8:	00269693          	slli	x13,x13,0x2
    36fc:	00000297          	auipc	x5,0x0
    3700:	005686b3          	add	x13,x13,x5
    3704:	00c68067          	jalr	x0,12(x13)
    3708:	00b70723          	sb	x11,14(x14)
    370c:	00b706a3          	sb	x11,13(x14)
    3710:	00b70623          	sb	x11,12(x14)
    3714:	00b705a3          	sb	x11,11(x14)
    3718:	00b70523          	sb	x11,10(x14)
    371c:	00b704a3          	sb	x11,9(x14)
    3720:	00b70423          	sb	x11,8(x14)
    3724:	00b703a3          	sb	x11,7(x14)
    3728:	00b70323          	sb	x11,6(x14)
    372c:	00b702a3          	sb	x11,5(x14)
    3730:	00b70223          	sb	x11,4(x14)
    3734:	00b701a3          	sb	x11,3(x14)
    3738:	00b70123          	sb	x11,2(x14)
    373c:	00b700a3          	sb	x11,1(x14)
    3740:	00b70023          	sb	x11,0(x14)
    3744:	00008067          	jalr	x0,0(x1)
    3748:	0ff5f593          	andi	x11,x11,255
    374c:	00859693          	slli	x13,x11,0x8
    3750:	00d5e5b3          	or	x11,x11,x13
    3754:	01059693          	slli	x13,x11,0x10
    3758:	00d5e5b3          	or	x11,x11,x13
    375c:	f6dff06f          	jal	x0,36c8 <memset+0x18>
    3760:	00279693          	slli	x13,x15,0x2
    3764:	00000297          	auipc	x5,0x0
    3768:	005686b3          	add	x13,x13,x5
    376c:	00008293          	addi	x5,x1,0
    3770:	fa0680e7          	jalr	x1,-96(x13)
    3774:	00028093          	addi	x1,x5,0 # 3764 <memset+0xb4>
    3778:	ff078793          	addi	x15,x15,-16
    377c:	40f70733          	sub	x14,x14,x15
    3780:	00f60633          	add	x12,x12,x15
    3784:	f6c378e3          	bgeu	x6,x12,36f4 <memset+0x44>
    3788:	f3dff06f          	jal	x0,36c4 <memset+0x14>

0000378c <_fwalk_sglue>:
    378c:	fd010113          	addi	x2,x2,-48
    3790:	03212023          	sw	x18,32(x2)
    3794:	01312e23          	sw	x19,28(x2)
    3798:	01412c23          	sw	x20,24(x2)
    379c:	01512a23          	sw	x21,20(x2)
    37a0:	01612823          	sw	x22,16(x2)
    37a4:	01712623          	sw	x23,12(x2)
    37a8:	02112623          	sw	x1,44(x2)
    37ac:	02812423          	sw	x8,40(x2)
    37b0:	02912223          	sw	x9,36(x2)
    37b4:	00050b13          	addi	x22,x10,0
    37b8:	00058b93          	addi	x23,x11,0
    37bc:	00060a93          	addi	x21,x12,0
    37c0:	00000a13          	addi	x20,x0,0
    37c4:	00100993          	addi	x19,x0,1
    37c8:	fff00913          	addi	x18,x0,-1
    37cc:	004aa483          	lw	x9,4(x21)
    37d0:	008aa403          	lw	x8,8(x21)
    37d4:	fff48493          	addi	x9,x9,-1
    37d8:	0204c863          	blt	x9,x0,3808 <_fwalk_sglue+0x7c>
    37dc:	00c45783          	lhu	x15,12(x8)
    37e0:	00f9fe63          	bgeu	x19,x15,37fc <_fwalk_sglue+0x70>
    37e4:	00e41783          	lh	x15,14(x8)
    37e8:	00040593          	addi	x11,x8,0
    37ec:	000b0513          	addi	x10,x22,0
    37f0:	01278663          	beq	x15,x18,37fc <_fwalk_sglue+0x70>
    37f4:	000b80e7          	jalr	x1,0(x23)
    37f8:	00aa6a33          	or	x20,x20,x10
    37fc:	fff48493          	addi	x9,x9,-1
    3800:	06840413          	addi	x8,x8,104
    3804:	fd249ce3          	bne	x9,x18,37dc <_fwalk_sglue+0x50>
    3808:	000aaa83          	lw	x21,0(x21)
    380c:	fc0a90e3          	bne	x21,x0,37cc <_fwalk_sglue+0x40>
    3810:	02c12083          	lw	x1,44(x2)
    3814:	02812403          	lw	x8,40(x2)
    3818:	02412483          	lw	x9,36(x2)
    381c:	02012903          	lw	x18,32(x2)
    3820:	01c12983          	lw	x19,28(x2)
    3824:	01412a83          	lw	x21,20(x2)
    3828:	01012b03          	lw	x22,16(x2)
    382c:	00c12b83          	lw	x23,12(x2)
    3830:	000a0513          	addi	x10,x20,0
    3834:	01812a03          	lw	x20,24(x2)
    3838:	03010113          	addi	x2,x2,48
    383c:	00008067          	jalr	x0,0(x1)

00003840 <_realloc_r>:
    3840:	fd010113          	addi	x2,x2,-48
    3844:	02912223          	sw	x9,36(x2)
    3848:	02112623          	sw	x1,44(x2)
    384c:	00060493          	addi	x9,x12,0
    3850:	1e058863          	beq	x11,x0,3a40 <_realloc_r+0x200>
    3854:	02812423          	sw	x8,40(x2)
    3858:	03212023          	sw	x18,32(x2)
    385c:	00058413          	addi	x8,x11,0
    3860:	01312e23          	sw	x19,28(x2)
    3864:	01512a23          	sw	x21,20(x2)
    3868:	01412c23          	sw	x20,24(x2)
    386c:	00050913          	addi	x18,x10,0
    3870:	06d000ef          	jal	x1,40dc <__malloc_lock>
    3874:	ffc42703          	lw	x14,-4(x8)
    3878:	00b48793          	addi	x15,x9,11
    387c:	01600693          	addi	x13,x0,22
    3880:	ff840a93          	addi	x21,x8,-8
    3884:	ffc77993          	andi	x19,x14,-4
    3888:	10f6f263          	bgeu	x13,x15,398c <_realloc_r+0x14c>
    388c:	ff87fa13          	andi	x20,x15,-8
    3890:	1007c263          	blt	x15,x0,3994 <_realloc_r+0x154>
    3894:	109a6063          	bltu	x20,x9,3994 <_realloc_r+0x154>
    3898:	1349d263          	bge	x19,x20,39bc <_realloc_r+0x17c>
    389c:	01812423          	sw	x24,8(x2)
    38a0:	00010c17          	auipc	x24,0x10
    38a4:	408c0c13          	addi	x24,x24,1032 # 13ca8 <__malloc_av_>
    38a8:	008c2603          	lw	x12,8(x24)
    38ac:	013a86b3          	add	x13,x21,x19
    38b0:	0046a783          	lw	x15,4(x13)
    38b4:	1cd60863          	beq	x12,x13,3a84 <_realloc_r+0x244>
    38b8:	ffe7f613          	andi	x12,x15,-2
    38bc:	00c68633          	add	x12,x13,x12
    38c0:	00462603          	lw	x12,4(x12)
    38c4:	00167613          	andi	x12,x12,1
    38c8:	14061a63          	bne	x12,x0,3a1c <_realloc_r+0x1dc>
    38cc:	ffc7f793          	andi	x15,x15,-4
    38d0:	00f98633          	add	x12,x19,x15
    38d4:	0d465863          	bge	x12,x20,39a4 <_realloc_r+0x164>
    38d8:	00177713          	andi	x14,x14,1
    38dc:	02071c63          	bne	x14,x0,3914 <_realloc_r+0xd4>
    38e0:	01712623          	sw	x23,12(x2)
    38e4:	ff842b83          	lw	x23,-8(x8)
    38e8:	01612823          	sw	x22,16(x2)
    38ec:	417a8bb3          	sub	x23,x21,x23
    38f0:	004ba703          	lw	x14,4(x23)
    38f4:	ffc77713          	andi	x14,x14,-4
    38f8:	00e787b3          	add	x15,x15,x14
    38fc:	01378b33          	add	x22,x15,x19
    3900:	334b5c63          	bge	x22,x20,3c38 <_realloc_r+0x3f8>
    3904:	00e98b33          	add	x22,x19,x14
    3908:	294b5863          	bge	x22,x20,3b98 <_realloc_r+0x358>
    390c:	01012b03          	lw	x22,16(x2)
    3910:	00c12b83          	lw	x23,12(x2)
    3914:	00048593          	addi	x11,x9,0
    3918:	00090513          	addi	x10,x18,0
    391c:	fe5fe0ef          	jal	x1,2900 <_malloc_r>
    3920:	00050493          	addi	x9,x10,0
    3924:	40050863          	beq	x10,x0,3d34 <_realloc_r+0x4f4>
    3928:	ffc42783          	lw	x15,-4(x8)
    392c:	ff850713          	addi	x14,x10,-8
    3930:	ffe7f793          	andi	x15,x15,-2
    3934:	00fa87b3          	add	x15,x21,x15
    3938:	24e78663          	beq	x15,x14,3b84 <_realloc_r+0x344>
    393c:	ffc98613          	addi	x12,x19,-4
    3940:	02400793          	addi	x15,x0,36
    3944:	2ec7e463          	bltu	x15,x12,3c2c <_realloc_r+0x3ec>
    3948:	01300713          	addi	x14,x0,19
    394c:	20c76a63          	bltu	x14,x12,3b60 <_realloc_r+0x320>
    3950:	00050793          	addi	x15,x10,0
    3954:	00040713          	addi	x14,x8,0
    3958:	00072683          	lw	x13,0(x14)
    395c:	00d7a023          	sw	x13,0(x15)
    3960:	00472683          	lw	x13,4(x14)
    3964:	00d7a223          	sw	x13,4(x15)
    3968:	00872703          	lw	x14,8(x14)
    396c:	00e7a423          	sw	x14,8(x15)
    3970:	00040593          	addi	x11,x8,0
    3974:	00090513          	addi	x10,x18,0
    3978:	8e5ff0ef          	jal	x1,325c <_free_r>
    397c:	00090513          	addi	x10,x18,0
    3980:	760000ef          	jal	x1,40e0 <__malloc_unlock>
    3984:	00812c03          	lw	x24,8(x2)
    3988:	06c0006f          	jal	x0,39f4 <_realloc_r+0x1b4>
    398c:	01000a13          	addi	x20,x0,16
    3990:	f09a74e3          	bgeu	x20,x9,3898 <_realloc_r+0x58>
    3994:	00c00793          	addi	x15,x0,12
    3998:	00f92023          	sw	x15,0(x18)
    399c:	00000493          	addi	x9,x0,0
    39a0:	0540006f          	jal	x0,39f4 <_realloc_r+0x1b4>
    39a4:	00c6a783          	lw	x15,12(x13)
    39a8:	0086a703          	lw	x14,8(x13)
    39ac:	00812c03          	lw	x24,8(x2)
    39b0:	00060993          	addi	x19,x12,0
    39b4:	00f72623          	sw	x15,12(x14)
    39b8:	00e7a423          	sw	x14,8(x15)
    39bc:	004aa783          	lw	x15,4(x21)
    39c0:	414986b3          	sub	x13,x19,x20
    39c4:	00f00613          	addi	x12,x0,15
    39c8:	0017f793          	andi	x15,x15,1
    39cc:	013a8733          	add	x14,x21,x19
    39d0:	08d66263          	bltu	x12,x13,3a54 <_realloc_r+0x214>
    39d4:	0137e7b3          	or	x15,x15,x19
    39d8:	00faa223          	sw	x15,4(x21)
    39dc:	00472783          	lw	x15,4(x14)
    39e0:	0017e793          	ori	x15,x15,1
    39e4:	00f72223          	sw	x15,4(x14)
    39e8:	00090513          	addi	x10,x18,0
    39ec:	6f4000ef          	jal	x1,40e0 <__malloc_unlock>
    39f0:	00040493          	addi	x9,x8,0
    39f4:	02812403          	lw	x8,40(x2)
    39f8:	02c12083          	lw	x1,44(x2)
    39fc:	02012903          	lw	x18,32(x2)
    3a00:	01c12983          	lw	x19,28(x2)
    3a04:	01812a03          	lw	x20,24(x2)
    3a08:	01412a83          	lw	x21,20(x2)
    3a0c:	00048513          	addi	x10,x9,0
    3a10:	02412483          	lw	x9,36(x2)
    3a14:	03010113          	addi	x2,x2,48
    3a18:	00008067          	jalr	x0,0(x1)
    3a1c:	00177713          	andi	x14,x14,1
    3a20:	ee071ae3          	bne	x14,x0,3914 <_realloc_r+0xd4>
    3a24:	01712623          	sw	x23,12(x2)
    3a28:	ff842b83          	lw	x23,-8(x8)
    3a2c:	01612823          	sw	x22,16(x2)
    3a30:	417a8bb3          	sub	x23,x21,x23
    3a34:	004ba703          	lw	x14,4(x23)
    3a38:	ffc77713          	andi	x14,x14,-4
    3a3c:	ec9ff06f          	jal	x0,3904 <_realloc_r+0xc4>
    3a40:	02c12083          	lw	x1,44(x2)
    3a44:	02412483          	lw	x9,36(x2)
    3a48:	00060593          	addi	x11,x12,0
    3a4c:	03010113          	addi	x2,x2,48
    3a50:	eb1fe06f          	jal	x0,2900 <_malloc_r>
    3a54:	0147e7b3          	or	x15,x15,x20
    3a58:	00faa223          	sw	x15,4(x21)
    3a5c:	014a85b3          	add	x11,x21,x20
    3a60:	0016e693          	ori	x13,x13,1
    3a64:	00d5a223          	sw	x13,4(x11)
    3a68:	00472783          	lw	x15,4(x14)
    3a6c:	00858593          	addi	x11,x11,8
    3a70:	00090513          	addi	x10,x18,0
    3a74:	0017e793          	ori	x15,x15,1
    3a78:	00f72223          	sw	x15,4(x14)
    3a7c:	fe0ff0ef          	jal	x1,325c <_free_r>
    3a80:	f69ff06f          	jal	x0,39e8 <_realloc_r+0x1a8>
    3a84:	ffc7f793          	andi	x15,x15,-4
    3a88:	013786b3          	add	x13,x15,x19
    3a8c:	010a0613          	addi	x12,x20,16
    3a90:	26c6d063          	bge	x13,x12,3cf0 <_realloc_r+0x4b0>
    3a94:	00177713          	andi	x14,x14,1
    3a98:	e6071ee3          	bne	x14,x0,3914 <_realloc_r+0xd4>
    3a9c:	01712623          	sw	x23,12(x2)
    3aa0:	ff842b83          	lw	x23,-8(x8)
    3aa4:	01612823          	sw	x22,16(x2)
    3aa8:	417a8bb3          	sub	x23,x21,x23
    3aac:	004ba703          	lw	x14,4(x23)
    3ab0:	ffc77713          	andi	x14,x14,-4
    3ab4:	00e787b3          	add	x15,x15,x14
    3ab8:	01378b33          	add	x22,x15,x19
    3abc:	e4cb44e3          	blt	x22,x12,3904 <_realloc_r+0xc4>
    3ac0:	00cba783          	lw	x15,12(x23)
    3ac4:	008ba703          	lw	x14,8(x23)
    3ac8:	ffc98613          	addi	x12,x19,-4
    3acc:	02400693          	addi	x13,x0,36
    3ad0:	00f72623          	sw	x15,12(x14)
    3ad4:	00e7a423          	sw	x14,8(x15)
    3ad8:	008b8493          	addi	x9,x23,8
    3adc:	28c6e463          	bltu	x13,x12,3d64 <_realloc_r+0x524>
    3ae0:	01300713          	addi	x14,x0,19
    3ae4:	00048793          	addi	x15,x9,0
    3ae8:	02c77263          	bgeu	x14,x12,3b0c <_realloc_r+0x2cc>
    3aec:	00042703          	lw	x14,0(x8)
    3af0:	01b00793          	addi	x15,x0,27
    3af4:	00eba423          	sw	x14,8(x23)
    3af8:	00442703          	lw	x14,4(x8)
    3afc:	00eba623          	sw	x14,12(x23)
    3b00:	26c7ea63          	bltu	x15,x12,3d74 <_realloc_r+0x534>
    3b04:	00840413          	addi	x8,x8,8
    3b08:	010b8793          	addi	x15,x23,16
    3b0c:	00042703          	lw	x14,0(x8)
    3b10:	00e7a023          	sw	x14,0(x15)
    3b14:	00442703          	lw	x14,4(x8)
    3b18:	00e7a223          	sw	x14,4(x15)
    3b1c:	00842703          	lw	x14,8(x8)
    3b20:	00e7a423          	sw	x14,8(x15)
    3b24:	014b8733          	add	x14,x23,x20
    3b28:	414b07b3          	sub	x15,x22,x20
    3b2c:	00ec2423          	sw	x14,8(x24)
    3b30:	0017e793          	ori	x15,x15,1
    3b34:	00f72223          	sw	x15,4(x14)
    3b38:	004ba783          	lw	x15,4(x23)
    3b3c:	00090513          	addi	x10,x18,0
    3b40:	0017f793          	andi	x15,x15,1
    3b44:	0147e7b3          	or	x15,x15,x20
    3b48:	00fba223          	sw	x15,4(x23)
    3b4c:	594000ef          	jal	x1,40e0 <__malloc_unlock>
    3b50:	01012b03          	lw	x22,16(x2)
    3b54:	00c12b83          	lw	x23,12(x2)
    3b58:	00812c03          	lw	x24,8(x2)
    3b5c:	e99ff06f          	jal	x0,39f4 <_realloc_r+0x1b4>
    3b60:	00042683          	lw	x13,0(x8)
    3b64:	01b00713          	addi	x14,x0,27
    3b68:	00d52023          	sw	x13,0(x10)
    3b6c:	00442683          	lw	x13,4(x8)
    3b70:	00d52223          	sw	x13,4(x10)
    3b74:	14c76e63          	bltu	x14,x12,3cd0 <_realloc_r+0x490>
    3b78:	00840713          	addi	x14,x8,8
    3b7c:	00850793          	addi	x15,x10,8
    3b80:	dd9ff06f          	jal	x0,3958 <_realloc_r+0x118>
    3b84:	ffc52783          	lw	x15,-4(x10)
    3b88:	00812c03          	lw	x24,8(x2)
    3b8c:	ffc7f793          	andi	x15,x15,-4
    3b90:	00f989b3          	add	x19,x19,x15
    3b94:	e29ff06f          	jal	x0,39bc <_realloc_r+0x17c>
    3b98:	00cba783          	lw	x15,12(x23)
    3b9c:	008ba703          	lw	x14,8(x23)
    3ba0:	ffc98613          	addi	x12,x19,-4
    3ba4:	02400693          	addi	x13,x0,36
    3ba8:	00f72623          	sw	x15,12(x14)
    3bac:	00e7a423          	sw	x14,8(x15)
    3bb0:	008b8493          	addi	x9,x23,8
    3bb4:	10c6e663          	bltu	x13,x12,3cc0 <_realloc_r+0x480>
    3bb8:	01300713          	addi	x14,x0,19
    3bbc:	00048793          	addi	x15,x9,0
    3bc0:	02c77c63          	bgeu	x14,x12,3bf8 <_realloc_r+0x3b8>
    3bc4:	00042703          	lw	x14,0(x8)
    3bc8:	01b00793          	addi	x15,x0,27
    3bcc:	00eba423          	sw	x14,8(x23)
    3bd0:	00442703          	lw	x14,4(x8)
    3bd4:	00eba623          	sw	x14,12(x23)
    3bd8:	14c7f863          	bgeu	x15,x12,3d28 <_realloc_r+0x4e8>
    3bdc:	00842783          	lw	x15,8(x8)
    3be0:	00fba823          	sw	x15,16(x23)
    3be4:	00c42783          	lw	x15,12(x8)
    3be8:	00fbaa23          	sw	x15,20(x23)
    3bec:	0ad60c63          	beq	x12,x13,3ca4 <_realloc_r+0x464>
    3bf0:	01040413          	addi	x8,x8,16
    3bf4:	018b8793          	addi	x15,x23,24
    3bf8:	00042703          	lw	x14,0(x8)
    3bfc:	00e7a023          	sw	x14,0(x15)
    3c00:	00442703          	lw	x14,4(x8)
    3c04:	00e7a223          	sw	x14,4(x15)
    3c08:	00842703          	lw	x14,8(x8)
    3c0c:	00e7a423          	sw	x14,8(x15)
    3c10:	000b0993          	addi	x19,x22,0
    3c14:	000b8a93          	addi	x21,x23,0
    3c18:	01012b03          	lw	x22,16(x2)
    3c1c:	00c12b83          	lw	x23,12(x2)
    3c20:	00812c03          	lw	x24,8(x2)
    3c24:	00048413          	addi	x8,x9,0
    3c28:	d95ff06f          	jal	x0,39bc <_realloc_r+0x17c>
    3c2c:	00040593          	addi	x11,x8,0
    3c30:	171030ef          	jal	x1,75a0 <memmove>
    3c34:	d3dff06f          	jal	x0,3970 <_realloc_r+0x130>
    3c38:	00c6a783          	lw	x15,12(x13)
    3c3c:	0086a703          	lw	x14,8(x13)
    3c40:	ffc98613          	addi	x12,x19,-4
    3c44:	02400693          	addi	x13,x0,36
    3c48:	00f72623          	sw	x15,12(x14)
    3c4c:	00e7a423          	sw	x14,8(x15)
    3c50:	008ba703          	lw	x14,8(x23)
    3c54:	00cba783          	lw	x15,12(x23)
    3c58:	008b8493          	addi	x9,x23,8
    3c5c:	00f72623          	sw	x15,12(x14)
    3c60:	00e7a423          	sw	x14,8(x15)
    3c64:	04c6ee63          	bltu	x13,x12,3cc0 <_realloc_r+0x480>
    3c68:	01300713          	addi	x14,x0,19
    3c6c:	00048793          	addi	x15,x9,0
    3c70:	f8c774e3          	bgeu	x14,x12,3bf8 <_realloc_r+0x3b8>
    3c74:	00042703          	lw	x14,0(x8)
    3c78:	01b00793          	addi	x15,x0,27
    3c7c:	00eba423          	sw	x14,8(x23)
    3c80:	00442703          	lw	x14,4(x8)
    3c84:	00eba623          	sw	x14,12(x23)
    3c88:	0ac7f063          	bgeu	x15,x12,3d28 <_realloc_r+0x4e8>
    3c8c:	00842703          	lw	x14,8(x8)
    3c90:	02400793          	addi	x15,x0,36
    3c94:	00eba823          	sw	x14,16(x23)
    3c98:	00c42703          	lw	x14,12(x8)
    3c9c:	00ebaa23          	sw	x14,20(x23)
    3ca0:	f4f618e3          	bne	x12,x15,3bf0 <_realloc_r+0x3b0>
    3ca4:	01042703          	lw	x14,16(x8)
    3ca8:	020b8793          	addi	x15,x23,32
    3cac:	01840413          	addi	x8,x8,24
    3cb0:	00ebac23          	sw	x14,24(x23)
    3cb4:	ffc42703          	lw	x14,-4(x8)
    3cb8:	00ebae23          	sw	x14,28(x23)
    3cbc:	f3dff06f          	jal	x0,3bf8 <_realloc_r+0x3b8>
    3cc0:	00040593          	addi	x11,x8,0
    3cc4:	00048513          	addi	x10,x9,0
    3cc8:	0d9030ef          	jal	x1,75a0 <memmove>
    3ccc:	f45ff06f          	jal	x0,3c10 <_realloc_r+0x3d0>
    3cd0:	00842703          	lw	x14,8(x8)
    3cd4:	00e52423          	sw	x14,8(x10)
    3cd8:	00c42703          	lw	x14,12(x8)
    3cdc:	00e52623          	sw	x14,12(x10)
    3ce0:	06f60463          	beq	x12,x15,3d48 <_realloc_r+0x508>
    3ce4:	01040713          	addi	x14,x8,16
    3ce8:	01050793          	addi	x15,x10,16
    3cec:	c6dff06f          	jal	x0,3958 <_realloc_r+0x118>
    3cf0:	014a8ab3          	add	x21,x21,x20
    3cf4:	414687b3          	sub	x15,x13,x20
    3cf8:	015c2423          	sw	x21,8(x24)
    3cfc:	0017e793          	ori	x15,x15,1
    3d00:	00faa223          	sw	x15,4(x21)
    3d04:	ffc42783          	lw	x15,-4(x8)
    3d08:	00090513          	addi	x10,x18,0
    3d0c:	00040493          	addi	x9,x8,0
    3d10:	0017f793          	andi	x15,x15,1
    3d14:	0147e7b3          	or	x15,x15,x20
    3d18:	fef42e23          	sw	x15,-4(x8)
    3d1c:	3c4000ef          	jal	x1,40e0 <__malloc_unlock>
    3d20:	00812c03          	lw	x24,8(x2)
    3d24:	cd1ff06f          	jal	x0,39f4 <_realloc_r+0x1b4>
    3d28:	00840413          	addi	x8,x8,8
    3d2c:	010b8793          	addi	x15,x23,16
    3d30:	ec9ff06f          	jal	x0,3bf8 <_realloc_r+0x3b8>
    3d34:	00090513          	addi	x10,x18,0
    3d38:	3a8000ef          	jal	x1,40e0 <__malloc_unlock>
    3d3c:	00000493          	addi	x9,x0,0
    3d40:	00812c03          	lw	x24,8(x2)
    3d44:	cb1ff06f          	jal	x0,39f4 <_realloc_r+0x1b4>
    3d48:	01042683          	lw	x13,16(x8)
    3d4c:	01840713          	addi	x14,x8,24
    3d50:	01850793          	addi	x15,x10,24
    3d54:	00d52823          	sw	x13,16(x10)
    3d58:	01442683          	lw	x13,20(x8)
    3d5c:	00d52a23          	sw	x13,20(x10)
    3d60:	bf9ff06f          	jal	x0,3958 <_realloc_r+0x118>
    3d64:	00040593          	addi	x11,x8,0
    3d68:	00048513          	addi	x10,x9,0
    3d6c:	035030ef          	jal	x1,75a0 <memmove>
    3d70:	db5ff06f          	jal	x0,3b24 <_realloc_r+0x2e4>
    3d74:	00842783          	lw	x15,8(x8)
    3d78:	00fba823          	sw	x15,16(x23)
    3d7c:	00c42783          	lw	x15,12(x8)
    3d80:	00fbaa23          	sw	x15,20(x23)
    3d84:	00d60863          	beq	x12,x13,3d94 <_realloc_r+0x554>
    3d88:	01040413          	addi	x8,x8,16
    3d8c:	018b8793          	addi	x15,x23,24
    3d90:	d7dff06f          	jal	x0,3b0c <_realloc_r+0x2cc>
    3d94:	01042703          	lw	x14,16(x8)
    3d98:	020b8793          	addi	x15,x23,32
    3d9c:	01840413          	addi	x8,x8,24
    3da0:	00ebac23          	sw	x14,24(x23)
    3da4:	ffc42703          	lw	x14,-4(x8)
    3da8:	00ebae23          	sw	x14,28(x23)
    3dac:	d61ff06f          	jal	x0,3b0c <_realloc_r+0x2cc>

00003db0 <__sflush_r>:
    3db0:	00c59703          	lh	x14,12(x11)
    3db4:	fe010113          	addi	x2,x2,-32
    3db8:	00812c23          	sw	x8,24(x2)
    3dbc:	01312623          	sw	x19,12(x2)
    3dc0:	00112e23          	sw	x1,28(x2)
    3dc4:	00877793          	andi	x15,x14,8
    3dc8:	00058413          	addi	x8,x11,0
    3dcc:	00050993          	addi	x19,x10,0
    3dd0:	12079063          	bne	x15,x0,3ef0 <__sflush_r+0x140>
    3dd4:	000017b7          	lui	x15,0x1
    3dd8:	80078793          	addi	x15,x15,-2048 # 800 <m_fast0_irq_handler+0x84>
    3ddc:	0045a683          	lw	x13,4(x11)
    3de0:	00f767b3          	or	x15,x14,x15
    3de4:	00f59623          	sh	x15,12(x11)
    3de8:	18d05263          	bge	x0,x13,3f6c <__sflush_r+0x1bc>
    3dec:	02842803          	lw	x16,40(x8)
    3df0:	0e080463          	beq	x16,x0,3ed8 <__sflush_r+0x128>
    3df4:	00912a23          	sw	x9,20(x2)
    3df8:	01371693          	slli	x13,x14,0x13
    3dfc:	0009a483          	lw	x9,0(x19)
    3e00:	0009a023          	sw	x0,0(x19)
    3e04:	01c42583          	lw	x11,28(x8)
    3e08:	1606ce63          	blt	x13,x0,3f84 <__sflush_r+0x1d4>
    3e0c:	00000613          	addi	x12,x0,0
    3e10:	00100693          	addi	x13,x0,1
    3e14:	00098513          	addi	x10,x19,0
    3e18:	000800e7          	jalr	x1,0(x16)
    3e1c:	fff00793          	addi	x15,x0,-1
    3e20:	00050613          	addi	x12,x10,0
    3e24:	1af50463          	beq	x10,x15,3fcc <__sflush_r+0x21c>
    3e28:	00c41783          	lh	x15,12(x8)
    3e2c:	02842803          	lw	x16,40(x8)
    3e30:	01c42583          	lw	x11,28(x8)
    3e34:	0047f793          	andi	x15,x15,4
    3e38:	00078e63          	beq	x15,x0,3e54 <__sflush_r+0xa4>
    3e3c:	00442703          	lw	x14,4(x8)
    3e40:	03042783          	lw	x15,48(x8)
    3e44:	40e60633          	sub	x12,x12,x14
    3e48:	00078663          	beq	x15,x0,3e54 <__sflush_r+0xa4>
    3e4c:	03c42783          	lw	x15,60(x8)
    3e50:	40f60633          	sub	x12,x12,x15
    3e54:	00000693          	addi	x13,x0,0
    3e58:	00098513          	addi	x10,x19,0
    3e5c:	000800e7          	jalr	x1,0(x16)
    3e60:	fff00793          	addi	x15,x0,-1
    3e64:	12f51463          	bne	x10,x15,3f8c <__sflush_r+0x1dc>
    3e68:	0009a683          	lw	x13,0(x19)
    3e6c:	01d00793          	addi	x15,x0,29
    3e70:	00c41703          	lh	x14,12(x8)
    3e74:	16d7ea63          	bltu	x15,x13,3fe8 <__sflush_r+0x238>
    3e78:	204007b7          	lui	x15,0x20400
    3e7c:	00178793          	addi	x15,x15,1 # 20400001 <__heap_end+0x20000001>
    3e80:	00d7d7b3          	srl	x15,x15,x13
    3e84:	0017f793          	andi	x15,x15,1
    3e88:	16078063          	beq	x15,x0,3fe8 <__sflush_r+0x238>
    3e8c:	01042603          	lw	x12,16(x8)
    3e90:	fffff7b7          	lui	x15,0xfffff
    3e94:	7ff78793          	addi	x15,x15,2047 # fffff7ff <__heap_end+0xffbff7ff>
    3e98:	00f777b3          	and	x15,x14,x15
    3e9c:	00f41623          	sh	x15,12(x8)
    3ea0:	00042223          	sw	x0,4(x8)
    3ea4:	00c42023          	sw	x12,0(x8)
    3ea8:	01371793          	slli	x15,x14,0x13
    3eac:	0007d463          	bge	x15,x0,3eb4 <__sflush_r+0x104>
    3eb0:	10068263          	beq	x13,x0,3fb4 <__sflush_r+0x204>
    3eb4:	03042583          	lw	x11,48(x8)
    3eb8:	0099a023          	sw	x9,0(x19)
    3ebc:	10058463          	beq	x11,x0,3fc4 <__sflush_r+0x214>
    3ec0:	04040793          	addi	x15,x8,64
    3ec4:	00f58663          	beq	x11,x15,3ed0 <__sflush_r+0x120>
    3ec8:	00098513          	addi	x10,x19,0
    3ecc:	b90ff0ef          	jal	x1,325c <_free_r>
    3ed0:	01412483          	lw	x9,20(x2)
    3ed4:	02042823          	sw	x0,48(x8)
    3ed8:	00000513          	addi	x10,x0,0
    3edc:	01c12083          	lw	x1,28(x2)
    3ee0:	01812403          	lw	x8,24(x2)
    3ee4:	00c12983          	lw	x19,12(x2)
    3ee8:	02010113          	addi	x2,x2,32
    3eec:	00008067          	jalr	x0,0(x1)
    3ef0:	01212823          	sw	x18,16(x2)
    3ef4:	0105a903          	lw	x18,16(x11)
    3ef8:	08090263          	beq	x18,x0,3f7c <__sflush_r+0x1cc>
    3efc:	00912a23          	sw	x9,20(x2)
    3f00:	0005a483          	lw	x9,0(x11)
    3f04:	00377713          	andi	x14,x14,3
    3f08:	0125a023          	sw	x18,0(x11)
    3f0c:	412484b3          	sub	x9,x9,x18
    3f10:	00000793          	addi	x15,x0,0
    3f14:	00071463          	bne	x14,x0,3f1c <__sflush_r+0x16c>
    3f18:	0145a783          	lw	x15,20(x11)
    3f1c:	00f42423          	sw	x15,8(x8)
    3f20:	00904863          	blt	x0,x9,3f30 <__sflush_r+0x180>
    3f24:	0540006f          	jal	x0,3f78 <__sflush_r+0x1c8>
    3f28:	00a90933          	add	x18,x18,x10
    3f2c:	04905663          	bge	x0,x9,3f78 <__sflush_r+0x1c8>
    3f30:	02442783          	lw	x15,36(x8)
    3f34:	01c42583          	lw	x11,28(x8)
    3f38:	00048693          	addi	x13,x9,0
    3f3c:	00090613          	addi	x12,x18,0
    3f40:	00098513          	addi	x10,x19,0
    3f44:	000780e7          	jalr	x1,0(x15)
    3f48:	40a484b3          	sub	x9,x9,x10
    3f4c:	fca04ee3          	blt	x0,x10,3f28 <__sflush_r+0x178>
    3f50:	00c41703          	lh	x14,12(x8)
    3f54:	01012903          	lw	x18,16(x2)
    3f58:	04076713          	ori	x14,x14,64
    3f5c:	01412483          	lw	x9,20(x2)
    3f60:	00e41623          	sh	x14,12(x8)
    3f64:	fff00513          	addi	x10,x0,-1
    3f68:	f75ff06f          	jal	x0,3edc <__sflush_r+0x12c>
    3f6c:	03c5a683          	lw	x13,60(x11)
    3f70:	e6d04ee3          	blt	x0,x13,3dec <__sflush_r+0x3c>
    3f74:	f65ff06f          	jal	x0,3ed8 <__sflush_r+0x128>
    3f78:	01412483          	lw	x9,20(x2)
    3f7c:	01012903          	lw	x18,16(x2)
    3f80:	f59ff06f          	jal	x0,3ed8 <__sflush_r+0x128>
    3f84:	05042603          	lw	x12,80(x8)
    3f88:	eadff06f          	jal	x0,3e34 <__sflush_r+0x84>
    3f8c:	00c41703          	lh	x14,12(x8)
    3f90:	01042683          	lw	x13,16(x8)
    3f94:	fffff7b7          	lui	x15,0xfffff
    3f98:	7ff78793          	addi	x15,x15,2047 # fffff7ff <__heap_end+0xffbff7ff>
    3f9c:	00f777b3          	and	x15,x14,x15
    3fa0:	00f41623          	sh	x15,12(x8)
    3fa4:	00042223          	sw	x0,4(x8)
    3fa8:	00d42023          	sw	x13,0(x8)
    3fac:	01371793          	slli	x15,x14,0x13
    3fb0:	f007d2e3          	bge	x15,x0,3eb4 <__sflush_r+0x104>
    3fb4:	03042583          	lw	x11,48(x8)
    3fb8:	04a42823          	sw	x10,80(x8)
    3fbc:	0099a023          	sw	x9,0(x19)
    3fc0:	f00590e3          	bne	x11,x0,3ec0 <__sflush_r+0x110>
    3fc4:	01412483          	lw	x9,20(x2)
    3fc8:	f11ff06f          	jal	x0,3ed8 <__sflush_r+0x128>
    3fcc:	0009a783          	lw	x15,0(x19)
    3fd0:	e4078ce3          	beq	x15,x0,3e28 <__sflush_r+0x78>
    3fd4:	01d00713          	addi	x14,x0,29
    3fd8:	00e78c63          	beq	x15,x14,3ff0 <__sflush_r+0x240>
    3fdc:	01600713          	addi	x14,x0,22
    3fe0:	00e78863          	beq	x15,x14,3ff0 <__sflush_r+0x240>
    3fe4:	00c41703          	lh	x14,12(x8)
    3fe8:	04076713          	ori	x14,x14,64
    3fec:	f71ff06f          	jal	x0,3f5c <__sflush_r+0x1ac>
    3ff0:	0099a023          	sw	x9,0(x19)
    3ff4:	01412483          	lw	x9,20(x2)
    3ff8:	ee1ff06f          	jal	x0,3ed8 <__sflush_r+0x128>

00003ffc <_fflush_r>:
    3ffc:	fe010113          	addi	x2,x2,-32
    4000:	00812c23          	sw	x8,24(x2)
    4004:	00112e23          	sw	x1,28(x2)
    4008:	00050413          	addi	x8,x10,0
    400c:	00050663          	beq	x10,x0,4018 <_fflush_r+0x1c>
    4010:	03452783          	lw	x15,52(x10)
    4014:	02078a63          	beq	x15,x0,4048 <_fflush_r+0x4c>
    4018:	00c59783          	lh	x15,12(x11)
    401c:	00079c63          	bne	x15,x0,4034 <_fflush_r+0x38>
    4020:	01c12083          	lw	x1,28(x2)
    4024:	01812403          	lw	x8,24(x2)
    4028:	00000513          	addi	x10,x0,0
    402c:	02010113          	addi	x2,x2,32
    4030:	00008067          	jalr	x0,0(x1)
    4034:	00040513          	addi	x10,x8,0
    4038:	01812403          	lw	x8,24(x2)
    403c:	01c12083          	lw	x1,28(x2)
    4040:	02010113          	addi	x2,x2,32
    4044:	d6dff06f          	jal	x0,3db0 <__sflush_r>
    4048:	00b12623          	sw	x11,12(x2)
    404c:	a34fe0ef          	jal	x1,2280 <__sinit>
    4050:	00c12583          	lw	x11,12(x2)
    4054:	fc5ff06f          	jal	x0,4018 <_fflush_r+0x1c>

00004058 <fflush>:
    4058:	06050063          	beq	x10,x0,40b8 <fflush+0x60>
    405c:	00050593          	addi	x11,x10,0
    4060:	f5c1a503          	lw	x10,-164(x3) # 143ac <_impure_ptr>
    4064:	00050663          	beq	x10,x0,4070 <fflush+0x18>
    4068:	03452783          	lw	x15,52(x10)
    406c:	00078c63          	beq	x15,x0,4084 <fflush+0x2c>
    4070:	00c59783          	lh	x15,12(x11)
    4074:	00079663          	bne	x15,x0,4080 <fflush+0x28>
    4078:	00000513          	addi	x10,x0,0
    407c:	00008067          	jalr	x0,0(x1)
    4080:	d31ff06f          	jal	x0,3db0 <__sflush_r>
    4084:	fe010113          	addi	x2,x2,-32
    4088:	00b12623          	sw	x11,12(x2)
    408c:	00a12423          	sw	x10,8(x2)
    4090:	00112e23          	sw	x1,28(x2)
    4094:	9ecfe0ef          	jal	x1,2280 <__sinit>
    4098:	00c12583          	lw	x11,12(x2)
    409c:	00812503          	lw	x10,8(x2)
    40a0:	00c59783          	lh	x15,12(x11)
    40a4:	02079663          	bne	x15,x0,40d0 <fflush+0x78>
    40a8:	01c12083          	lw	x1,28(x2)
    40ac:	00000513          	addi	x10,x0,0
    40b0:	02010113          	addi	x2,x2,32
    40b4:	00008067          	jalr	x0,0(x1)
    40b8:	00010617          	auipc	x12,0x10
    40bc:	be460613          	addi	x12,x12,-1052 # 13c9c <__sglue>
    40c0:	00000597          	auipc	x11,0x0
    40c4:	f3c58593          	addi	x11,x11,-196 # 3ffc <_fflush_r>
    40c8:	c6018513          	addi	x10,x3,-928 # 140b0 <_impure_data>
    40cc:	ec0ff06f          	jal	x0,378c <_fwalk_sglue>
    40d0:	01c12083          	lw	x1,28(x2)
    40d4:	02010113          	addi	x2,x2,32
    40d8:	cd9ff06f          	jal	x0,3db0 <__sflush_r>

000040dc <__malloc_lock>:
    40dc:	00008067          	jalr	x0,0(x1)

000040e0 <__malloc_unlock>:
    40e0:	00008067          	jalr	x0,0(x1)

000040e4 <__libc_init_array>:
    40e4:	ff010113          	addi	x2,x2,-16
    40e8:	00812423          	sw	x8,8(x2)
    40ec:	01212023          	sw	x18,0(x2)
    40f0:	00010797          	auipc	x15,0x10
    40f4:	b5c78793          	addi	x15,x15,-1188 # 13c4c <__init_array_start>
    40f8:	00010417          	auipc	x8,0x10
    40fc:	b5440413          	addi	x8,x8,-1196 # 13c4c <__init_array_start>
    4100:	00112623          	sw	x1,12(x2)
    4104:	00912223          	sw	x9,4(x2)
    4108:	40878933          	sub	x18,x15,x8
    410c:	02878063          	beq	x15,x8,412c <__libc_init_array+0x48>
    4110:	40295913          	srai	x18,x18,0x2
    4114:	00000493          	addi	x9,x0,0
    4118:	00042783          	lw	x15,0(x8)
    411c:	00148493          	addi	x9,x9,1
    4120:	00440413          	addi	x8,x8,4
    4124:	000780e7          	jalr	x1,0(x15)
    4128:	ff24e8e3          	bltu	x9,x18,4118 <__libc_init_array+0x34>
    412c:	00010797          	auipc	x15,0x10
    4130:	b2478793          	addi	x15,x15,-1244 # 13c50 <IRQ_ID_PRIORITY>
    4134:	00010417          	auipc	x8,0x10
    4138:	b1840413          	addi	x8,x8,-1256 # 13c4c <__init_array_start>
    413c:	40878933          	sub	x18,x15,x8
    4140:	40295913          	srai	x18,x18,0x2
    4144:	00878e63          	beq	x15,x8,4160 <__libc_init_array+0x7c>
    4148:	00000493          	addi	x9,x0,0
    414c:	00042783          	lw	x15,0(x8)
    4150:	00148493          	addi	x9,x9,1
    4154:	00440413          	addi	x8,x8,4
    4158:	000780e7          	jalr	x1,0(x15)
    415c:	ff24e8e3          	bltu	x9,x18,414c <__libc_init_array+0x68>
    4160:	00c12083          	lw	x1,12(x2)
    4164:	00812403          	lw	x8,8(x2)
    4168:	00412483          	lw	x9,4(x2)
    416c:	00012903          	lw	x18,0(x2)
    4170:	01010113          	addi	x2,x2,16
    4174:	00008067          	jalr	x0,0(x1)

00004178 <exit>:
    4178:	ff010113          	addi	x2,x2,-16
    417c:	00000593          	addi	x11,x0,0
    4180:	00812423          	sw	x8,8(x2)
    4184:	00112623          	sw	x1,12(x2)
    4188:	00050413          	addi	x8,x10,0
    418c:	768060ef          	jal	x1,a8f4 <__call_exitprocs>
    4190:	f801a783          	lw	x15,-128(x3) # 143d0 <__stdio_exit_handler>
    4194:	00078463          	beq	x15,x0,419c <exit+0x24>
    4198:	000780e7          	jalr	x1,0(x15)
    419c:	00040513          	addi	x10,x8,0
    41a0:	9abfd0ef          	jal	x1,1b4a <_exit>

000041a4 <atexit>:
    41a4:	00050593          	addi	x11,x10,0
    41a8:	00000693          	addi	x13,x0,0
    41ac:	00000613          	addi	x12,x0,0
    41b0:	00000513          	addi	x10,x0,0
    41b4:	0d50606f          	jal	x0,aa88 <__register_exitproc>

000041b8 <__swsetup_r>:
    41b8:	ff010113          	addi	x2,x2,-16
    41bc:	00812423          	sw	x8,8(x2)
    41c0:	00912223          	sw	x9,4(x2)
    41c4:	00112623          	sw	x1,12(x2)
    41c8:	f5c1a783          	lw	x15,-164(x3) # 143ac <_impure_ptr>
    41cc:	00050493          	addi	x9,x10,0
    41d0:	00058413          	addi	x8,x11,0
    41d4:	00078663          	beq	x15,x0,41e0 <__swsetup_r+0x28>
    41d8:	0347a703          	lw	x14,52(x15)
    41dc:	0e070c63          	beq	x14,x0,42d4 <__swsetup_r+0x11c>
    41e0:	00c41783          	lh	x15,12(x8)
    41e4:	0087f713          	andi	x14,x15,8
    41e8:	06070a63          	beq	x14,x0,425c <__swsetup_r+0xa4>
    41ec:	01042703          	lw	x14,16(x8)
    41f0:	08070663          	beq	x14,x0,427c <__swsetup_r+0xc4>
    41f4:	0017f693          	andi	x13,x15,1
    41f8:	02068863          	beq	x13,x0,4228 <__swsetup_r+0x70>
    41fc:	01442683          	lw	x13,20(x8)
    4200:	00042423          	sw	x0,8(x8)
    4204:	00000513          	addi	x10,x0,0
    4208:	40d006b3          	sub	x13,x0,x13
    420c:	00d42c23          	sw	x13,24(x8)
    4210:	02070a63          	beq	x14,x0,4244 <__swsetup_r+0x8c>
    4214:	00c12083          	lw	x1,12(x2)
    4218:	00812403          	lw	x8,8(x2)
    421c:	00412483          	lw	x9,4(x2)
    4220:	01010113          	addi	x2,x2,16
    4224:	00008067          	jalr	x0,0(x1)
    4228:	0027f693          	andi	x13,x15,2
    422c:	00000613          	addi	x12,x0,0
    4230:	00069463          	bne	x13,x0,4238 <__swsetup_r+0x80>
    4234:	01442603          	lw	x12,20(x8)
    4238:	00c42423          	sw	x12,8(x8)
    423c:	00000513          	addi	x10,x0,0
    4240:	fc071ae3          	bne	x14,x0,4214 <__swsetup_r+0x5c>
    4244:	0807f713          	andi	x14,x15,128
    4248:	fc0706e3          	beq	x14,x0,4214 <__swsetup_r+0x5c>
    424c:	0407e793          	ori	x15,x15,64
    4250:	00f41623          	sh	x15,12(x8)
    4254:	fff00513          	addi	x10,x0,-1
    4258:	fbdff06f          	jal	x0,4214 <__swsetup_r+0x5c>
    425c:	0107f713          	andi	x14,x15,16
    4260:	08070063          	beq	x14,x0,42e0 <__swsetup_r+0x128>
    4264:	0047f713          	andi	x14,x15,4
    4268:	02071c63          	bne	x14,x0,42a0 <__swsetup_r+0xe8>
    426c:	01042703          	lw	x14,16(x8)
    4270:	0087e793          	ori	x15,x15,8
    4274:	00f41623          	sh	x15,12(x8)
    4278:	f6071ee3          	bne	x14,x0,41f4 <__swsetup_r+0x3c>
    427c:	2807f693          	andi	x13,x15,640
    4280:	20000613          	addi	x12,x0,512
    4284:	f6c688e3          	beq	x13,x12,41f4 <__swsetup_r+0x3c>
    4288:	00040593          	addi	x11,x8,0
    428c:	00048513          	addi	x10,x9,0
    4290:	18d060ef          	jal	x1,ac1c <__smakebuf_r>
    4294:	00c41783          	lh	x15,12(x8)
    4298:	01042703          	lw	x14,16(x8)
    429c:	f59ff06f          	jal	x0,41f4 <__swsetup_r+0x3c>
    42a0:	03042583          	lw	x11,48(x8)
    42a4:	00058e63          	beq	x11,x0,42c0 <__swsetup_r+0x108>
    42a8:	04040713          	addi	x14,x8,64
    42ac:	00e58863          	beq	x11,x14,42bc <__swsetup_r+0x104>
    42b0:	00048513          	addi	x10,x9,0
    42b4:	fa9fe0ef          	jal	x1,325c <_free_r>
    42b8:	00c41783          	lh	x15,12(x8)
    42bc:	02042823          	sw	x0,48(x8)
    42c0:	01042703          	lw	x14,16(x8)
    42c4:	fdb7f793          	andi	x15,x15,-37
    42c8:	00042223          	sw	x0,4(x8)
    42cc:	00e42023          	sw	x14,0(x8)
    42d0:	fa1ff06f          	jal	x0,4270 <__swsetup_r+0xb8>
    42d4:	00078513          	addi	x10,x15,0
    42d8:	fa9fd0ef          	jal	x1,2280 <__sinit>
    42dc:	f05ff06f          	jal	x0,41e0 <__swsetup_r+0x28>
    42e0:	00900713          	addi	x14,x0,9
    42e4:	00e4a023          	sw	x14,0(x9)
    42e8:	0407e793          	ori	x15,x15,64
    42ec:	00f41623          	sh	x15,12(x8)
    42f0:	fff00513          	addi	x10,x0,-1
    42f4:	f21ff06f          	jal	x0,4214 <__swsetup_r+0x5c>

000042f8 <__sread>:
    42f8:	ff010113          	addi	x2,x2,-16
    42fc:	00812423          	sw	x8,8(x2)
    4300:	00058413          	addi	x8,x11,0
    4304:	00e59583          	lh	x11,14(x11)
    4308:	00112623          	sw	x1,12(x2)
    430c:	23c070ef          	jal	x1,b548 <_read_r>
    4310:	02054063          	blt	x10,x0,4330 <__sread+0x38>
    4314:	05042783          	lw	x15,80(x8)
    4318:	00c12083          	lw	x1,12(x2)
    431c:	00a787b3          	add	x15,x15,x10
    4320:	04f42823          	sw	x15,80(x8)
    4324:	00812403          	lw	x8,8(x2)
    4328:	01010113          	addi	x2,x2,16
    432c:	00008067          	jalr	x0,0(x1)
    4330:	00c45783          	lhu	x15,12(x8)
    4334:	fffff737          	lui	x14,0xfffff
    4338:	fff70713          	addi	x14,x14,-1 # ffffefff <__heap_end+0xffbfefff>
    433c:	00e7f7b3          	and	x15,x15,x14
    4340:	00c12083          	lw	x1,12(x2)
    4344:	00f41623          	sh	x15,12(x8)
    4348:	00812403          	lw	x8,8(x2)
    434c:	01010113          	addi	x2,x2,16
    4350:	00008067          	jalr	x0,0(x1)

00004354 <__seofread>:
    4354:	00000513          	addi	x10,x0,0
    4358:	00008067          	jalr	x0,0(x1)

0000435c <__swrite>:
    435c:	00c59783          	lh	x15,12(x11)
    4360:	fe010113          	addi	x2,x2,-32
    4364:	00812c23          	sw	x8,24(x2)
    4368:	00912a23          	sw	x9,20(x2)
    436c:	01212823          	sw	x18,16(x2)
    4370:	01312623          	sw	x19,12(x2)
    4374:	00112e23          	sw	x1,28(x2)
    4378:	1007f713          	andi	x14,x15,256
    437c:	00058413          	addi	x8,x11,0
    4380:	00050493          	addi	x9,x10,0
    4384:	00060913          	addi	x18,x12,0
    4388:	00068993          	addi	x19,x13,0
    438c:	04071063          	bne	x14,x0,43cc <__swrite+0x70>
    4390:	fffff737          	lui	x14,0xfffff
    4394:	fff70713          	addi	x14,x14,-1 # ffffefff <__heap_end+0xffbfefff>
    4398:	00e7f7b3          	and	x15,x15,x14
    439c:	00e41583          	lh	x11,14(x8)
    43a0:	00f41623          	sh	x15,12(x8)
    43a4:	01812403          	lw	x8,24(x2)
    43a8:	01c12083          	lw	x1,28(x2)
    43ac:	00098693          	addi	x13,x19,0
    43b0:	00090613          	addi	x12,x18,0
    43b4:	00c12983          	lw	x19,12(x2)
    43b8:	01012903          	lw	x18,16(x2)
    43bc:	00048513          	addi	x10,x9,0
    43c0:	01412483          	lw	x9,20(x2)
    43c4:	02010113          	addi	x2,x2,32
    43c8:	6640606f          	jal	x0,aa2c <_write_r>
    43cc:	00e59583          	lh	x11,14(x11)
    43d0:	00200693          	addi	x13,x0,2
    43d4:	00000613          	addi	x12,x0,0
    43d8:	5c9060ef          	jal	x1,b1a0 <_lseek_r>
    43dc:	00c41783          	lh	x15,12(x8)
    43e0:	fb1ff06f          	jal	x0,4390 <__swrite+0x34>

000043e4 <__sseek>:
    43e4:	ff010113          	addi	x2,x2,-16
    43e8:	00812423          	sw	x8,8(x2)
    43ec:	00058413          	addi	x8,x11,0
    43f0:	00e59583          	lh	x11,14(x11)
    43f4:	00112623          	sw	x1,12(x2)
    43f8:	5a9060ef          	jal	x1,b1a0 <_lseek_r>
    43fc:	fff00793          	addi	x15,x0,-1
    4400:	02f50863          	beq	x10,x15,4430 <__sseek+0x4c>
    4404:	00c45783          	lhu	x15,12(x8)
    4408:	00001737          	lui	x14,0x1
    440c:	00c12083          	lw	x1,12(x2)
    4410:	00e7e7b3          	or	x15,x15,x14
    4414:	01079793          	slli	x15,x15,0x10
    4418:	4107d793          	srai	x15,x15,0x10
    441c:	04a42823          	sw	x10,80(x8)
    4420:	00f41623          	sh	x15,12(x8)
    4424:	00812403          	lw	x8,8(x2)
    4428:	01010113          	addi	x2,x2,16
    442c:	00008067          	jalr	x0,0(x1)
    4430:	00c45783          	lhu	x15,12(x8)
    4434:	fffff737          	lui	x14,0xfffff
    4438:	fff70713          	addi	x14,x14,-1 # ffffefff <__heap_end+0xffbfefff>
    443c:	00e7f7b3          	and	x15,x15,x14
    4440:	01079793          	slli	x15,x15,0x10
    4444:	4107d793          	srai	x15,x15,0x10
    4448:	00c12083          	lw	x1,12(x2)
    444c:	00f41623          	sh	x15,12(x8)
    4450:	00812403          	lw	x8,8(x2)
    4454:	01010113          	addi	x2,x2,16
    4458:	00008067          	jalr	x0,0(x1)

0000445c <__sclose>:
    445c:	00e59583          	lh	x11,14(x11)
    4460:	6c00606f          	jal	x0,ab20 <_close_r>

00004464 <_vfprintf_r>:
    4464:	e3010113          	addi	x2,x2,-464
    4468:	1c112623          	sw	x1,460(x2)
    446c:	1c812423          	sw	x8,456(x2)
    4470:	1d212023          	sw	x18,448(x2)
    4474:	00b12023          	sw	x11,0(x2)
    4478:	00060913          	addi	x18,x12,0
    447c:	00d12623          	sw	x13,12(x2)
    4480:	00050413          	addi	x8,x10,0
    4484:	02a12023          	sw	x10,32(x2)
    4488:	0b0070ef          	jal	x1,b538 <_localeconv_r>
    448c:	00052703          	lw	x14,0(x10)
    4490:	00070513          	addi	x10,x14,0
    4494:	02e12423          	sw	x14,40(x2)
    4498:	8c8ff0ef          	jal	x1,3560 <strlen>
    449c:	02a12223          	sw	x10,36(x2)
    44a0:	0c012823          	sw	x0,208(x2)
    44a4:	0c012a23          	sw	x0,212(x2)
    44a8:	0c012c23          	sw	x0,216(x2)
    44ac:	0c012e23          	sw	x0,220(x2)
    44b0:	00040863          	beq	x8,x0,44c0 <_vfprintf_r+0x5c>
    44b4:	03442703          	lw	x14,52(x8)
    44b8:	00071463          	bne	x14,x0,44c0 <_vfprintf_r+0x5c>
    44bc:	2010106f          	jal	x0,5ebc <_vfprintf_r+0x1a58>
    44c0:	00012783          	lw	x15,0(x2)
    44c4:	00c79703          	lh	x14,12(x15)
    44c8:	01271693          	slli	x13,x14,0x12
    44cc:	0206c663          	blt	x13,x0,44f8 <_vfprintf_r+0x94>
    44d0:	0647a683          	lw	x13,100(x15)
    44d4:	000025b7          	lui	x11,0x2
    44d8:	ffffe637          	lui	x12,0xffffe
    44dc:	00b76733          	or	x14,x14,x11
    44e0:	fff60613          	addi	x12,x12,-1 # ffffdfff <__heap_end+0xffbfdfff>
    44e4:	01071713          	slli	x14,x14,0x10
    44e8:	41075713          	srai	x14,x14,0x10
    44ec:	00c6f6b3          	and	x13,x13,x12
    44f0:	00e79623          	sh	x14,12(x15)
    44f4:	06d7a223          	sw	x13,100(x15)
    44f8:	00877693          	andi	x13,x14,8
    44fc:	30068a63          	beq	x13,x0,4810 <_vfprintf_r+0x3ac>
    4500:	00012783          	lw	x15,0(x2)
    4504:	0107a683          	lw	x13,16(x15)
    4508:	30068463          	beq	x13,x0,4810 <_vfprintf_r+0x3ac>
    450c:	01a77713          	andi	x14,x14,26
    4510:	00a00693          	addi	x13,x0,10
    4514:	32d70263          	beq	x14,x13,4838 <_vfprintf_r+0x3d4>
    4518:	1c912223          	sw	x9,452(x2)
    451c:	1b512a23          	sw	x21,436(x2)
    4520:	1b812423          	sw	x24,424(x2)
    4524:	1ba12023          	sw	x26,416(x2)
    4528:	1b312e23          	sw	x19,444(x2)
    452c:	1b412c23          	sw	x20,440(x2)
    4530:	1b612823          	sw	x22,432(x2)
    4534:	1b712623          	sw	x23,428(x2)
    4538:	1b912223          	sw	x25,420(x2)
    453c:	19b12e23          	sw	x27,412(x2)
    4540:	00090d13          	addi	x26,x18,0
    4544:	000d4703          	lbu	x14,0(x26)
    4548:	0ec10c13          	addi	x24,x2,236
    454c:	0d812223          	sw	x24,196(x2)
    4550:	0c012623          	sw	x0,204(x2)
    4554:	0c012423          	sw	x0,200(x2)
    4558:	00012823          	sw	x0,16(x2)
    455c:	02012623          	sw	x0,44(x2)
    4560:	02012c23          	sw	x0,56(x2)
    4564:	02012a23          	sw	x0,52(x2)
    4568:	04012223          	sw	x0,68(x2)
    456c:	02012e23          	sw	x0,60(x2)
    4570:	00012223          	sw	x0,4(x2)
    4574:	02012a83          	lw	x21,32(x2)
    4578:	01000413          	addi	x8,x0,16
    457c:	000c0493          	addi	x9,x24,0
    4580:	22070863          	beq	x14,x0,47b0 <_vfprintf_r+0x34c>
    4584:	000d0993          	addi	x19,x26,0
    4588:	02500693          	addi	x13,x0,37
    458c:	32d70263          	beq	x14,x13,48b0 <_vfprintf_r+0x44c>
    4590:	0019c703          	lbu	x14,1(x19)
    4594:	00198993          	addi	x19,x19,1
    4598:	fe071ae3          	bne	x14,x0,458c <_vfprintf_r+0x128>
    459c:	41a98933          	sub	x18,x19,x26
    45a0:	21a98863          	beq	x19,x26,47b0 <_vfprintf_r+0x34c>
    45a4:	0cc12683          	lw	x13,204(x2)
    45a8:	0c812703          	lw	x14,200(x2)
    45ac:	01a4a023          	sw	x26,0(x9)
    45b0:	012686b3          	add	x13,x13,x18
    45b4:	00170713          	addi	x14,x14,1
    45b8:	0124a223          	sw	x18,4(x9)
    45bc:	0cd12623          	sw	x13,204(x2)
    45c0:	0ce12423          	sw	x14,200(x2)
    45c4:	00700693          	addi	x13,x0,7
    45c8:	00848493          	addi	x9,x9,8
    45cc:	2ee6ca63          	blt	x13,x14,48c0 <_vfprintf_r+0x45c>
    45d0:	00412783          	lw	x15,4(x2)
    45d4:	0009c703          	lbu	x14,0(x19)
    45d8:	012787b3          	add	x15,x15,x18
    45dc:	00f12223          	sw	x15,4(x2)
    45e0:	1c070863          	beq	x14,x0,47b0 <_vfprintf_r+0x34c>
    45e4:	00000e13          	addi	x28,x0,0
    45e8:	0019c883          	lbu	x17,1(x19)
    45ec:	0a0103a3          	sb	x0,167(x2)
    45f0:	00198993          	addi	x19,x19,1
    45f4:	fff00a13          	addi	x20,x0,-1
    45f8:	00000c93          	addi	x25,x0,0
    45fc:	05a00913          	addi	x18,x0,90
    4600:	000e0b13          	addi	x22,x28,0
    4604:	00198993          	addi	x19,x19,1
    4608:	fe088793          	addi	x15,x17,-32
    460c:	04f96a63          	bltu	x18,x15,4660 <_vfprintf_r+0x1fc>
    4610:	0000f717          	auipc	x14,0xf
    4614:	ea070713          	addi	x14,x14,-352 # 134b0 <no_exception_handler_msg+0xb4>
    4618:	00279793          	slli	x15,x15,0x2
    461c:	00e787b3          	add	x15,x15,x14
    4620:	0007a783          	lw	x15,0(x15)
    4624:	00e787b3          	add	x15,x15,x14
    4628:	00078067          	jalr	x0,0(x15)
    462c:	00000c93          	addi	x25,x0,0
    4630:	fd088793          	addi	x15,x17,-48
    4634:	00900693          	addi	x13,x0,9
    4638:	0009c883          	lbu	x17,0(x19)
    463c:	002c9713          	slli	x14,x25,0x2
    4640:	01970cb3          	add	x25,x14,x25
    4644:	001c9c93          	slli	x25,x25,0x1
    4648:	01978cb3          	add	x25,x15,x25
    464c:	fd088793          	addi	x15,x17,-48
    4650:	00198993          	addi	x19,x19,1
    4654:	fef6f2e3          	bgeu	x13,x15,4638 <_vfprintf_r+0x1d4>
    4658:	fe088793          	addi	x15,x17,-32
    465c:	faf97ae3          	bgeu	x18,x15,4610 <_vfprintf_r+0x1ac>
    4660:	000b0e13          	addi	x28,x22,0
    4664:	14088663          	beq	x17,x0,47b0 <_vfprintf_r+0x34c>
    4668:	13110623          	sb	x17,300(x2)
    466c:	0a0103a3          	sb	x0,167(x2)
    4670:	00100d93          	addi	x27,x0,1
    4674:	00100913          	addi	x18,x0,1
    4678:	12c10d13          	addi	x26,x2,300
    467c:	00012423          	sw	x0,8(x2)
    4680:	00000a13          	addi	x20,x0,0
    4684:	00012e23          	sw	x0,28(x2)
    4688:	00012c23          	sw	x0,24(x2)
    468c:	00012a23          	sw	x0,20(x2)
    4690:	002e7293          	andi	x5,x28,2
    4694:	00028463          	beq	x5,x0,469c <_vfprintf_r+0x238>
    4698:	002d8d93          	addi	x27,x27,2
    469c:	084e7f93          	andi	x31,x28,132
    46a0:	0cc12603          	lw	x12,204(x2)
    46a4:	000f9663          	bne	x31,x0,46b0 <_vfprintf_r+0x24c>
    46a8:	41bc8733          	sub	x14,x25,x27
    46ac:	42e042e3          	blt	x0,x14,52d0 <_vfprintf_r+0xe6c>
    46b0:	0a714703          	lbu	x14,167(x2)
    46b4:	02070a63          	beq	x14,x0,46e8 <_vfprintf_r+0x284>
    46b8:	0c812703          	lw	x14,200(x2)
    46bc:	0a710593          	addi	x11,x2,167
    46c0:	00b4a023          	sw	x11,0(x9)
    46c4:	00160613          	addi	x12,x12,1
    46c8:	00100593          	addi	x11,x0,1
    46cc:	00170713          	addi	x14,x14,1
    46d0:	00b4a223          	sw	x11,4(x9)
    46d4:	0cc12623          	sw	x12,204(x2)
    46d8:	0ce12423          	sw	x14,200(x2)
    46dc:	00700593          	addi	x11,x0,7
    46e0:	00848493          	addi	x9,x9,8
    46e4:	30e5c263          	blt	x11,x14,49e8 <_vfprintf_r+0x584>
    46e8:	02028a63          	beq	x5,x0,471c <_vfprintf_r+0x2b8>
    46ec:	0c812703          	lw	x14,200(x2)
    46f0:	00200593          	addi	x11,x0,2
    46f4:	00260613          	addi	x12,x12,2
    46f8:	00170713          	addi	x14,x14,1
    46fc:	0a810793          	addi	x15,x2,168
    4700:	00b4a223          	sw	x11,4(x9)
    4704:	00f4a023          	sw	x15,0(x9)
    4708:	0cc12623          	sw	x12,204(x2)
    470c:	0ce12423          	sw	x14,200(x2)
    4710:	00700593          	addi	x11,x0,7
    4714:	00848493          	addi	x9,x9,8
    4718:	4ce5cee3          	blt	x11,x14,53f4 <_vfprintf_r+0xf90>
    471c:	08000713          	addi	x14,x0,128
    4720:	18ef8ce3          	beq	x31,x14,50b8 <_vfprintf_r+0xc54>
    4724:	412a0a33          	sub	x20,x20,x18
    4728:	29404ae3          	blt	x0,x20,51bc <_vfprintf_r+0xd58>
    472c:	100e7713          	andi	x14,x28,256
    4730:	76071863          	bne	x14,x0,4ea0 <_vfprintf_r+0xa3c>
    4734:	0c812783          	lw	x15,200(x2)
    4738:	01260633          	add	x12,x12,x18
    473c:	01a4a023          	sw	x26,0(x9)
    4740:	00178793          	addi	x15,x15,1
    4744:	0124a223          	sw	x18,4(x9)
    4748:	0cc12623          	sw	x12,204(x2)
    474c:	0cf12423          	sw	x15,200(x2)
    4750:	00700713          	addi	x14,x0,7
    4754:	3ef74263          	blt	x14,x15,4b38 <_vfprintf_r+0x6d4>
    4758:	00848493          	addi	x9,x9,8
    475c:	004e7e13          	andi	x28,x28,4
    4760:	000e0663          	beq	x28,x0,476c <_vfprintf_r+0x308>
    4764:	41bc8933          	sub	x18,x25,x27
    4768:	4d2042e3          	blt	x0,x18,542c <_vfprintf_r+0xfc8>
    476c:	000c8313          	addi	x6,x25,0
    4770:	01bcd463          	bge	x25,x27,4778 <_vfprintf_r+0x314>
    4774:	000d8313          	addi	x6,x27,0
    4778:	00412783          	lw	x15,4(x2)
    477c:	006787b3          	add	x15,x15,x6
    4780:	00f12223          	sw	x15,4(x2)
    4784:	320612e3          	bne	x12,x0,52a8 <_vfprintf_r+0xe44>
    4788:	00812783          	lw	x15,8(x2)
    478c:	0c012423          	sw	x0,200(x2)
    4790:	00078863          	beq	x15,x0,47a0 <_vfprintf_r+0x33c>
    4794:	00812583          	lw	x11,8(x2)
    4798:	000a8513          	addi	x10,x21,0
    479c:	ac1fe0ef          	jal	x1,325c <_free_r>
    47a0:	000c0493          	addi	x9,x24,0
    47a4:	00098d13          	addi	x26,x19,0
    47a8:	000d4703          	lbu	x14,0(x26)
    47ac:	dc071ce3          	bne	x14,x0,4584 <_vfprintf_r+0x120>
    47b0:	0cc12783          	lw	x15,204(x2)
    47b4:	00078463          	beq	x15,x0,47bc <_vfprintf_r+0x358>
    47b8:	4a90106f          	jal	x0,6460 <_vfprintf_r+0x1ffc>
    47bc:	00012783          	lw	x15,0(x2)
    47c0:	1c412483          	lw	x9,452(x2)
    47c4:	1bc12983          	lw	x19,444(x2)
    47c8:	00c7d783          	lhu	x15,12(x15)
    47cc:	1b812a03          	lw	x20,440(x2)
    47d0:	1b412a83          	lw	x21,436(x2)
    47d4:	0407f793          	andi	x15,x15,64
    47d8:	1b012b03          	lw	x22,432(x2)
    47dc:	1ac12b83          	lw	x23,428(x2)
    47e0:	1a812c03          	lw	x24,424(x2)
    47e4:	1a412c83          	lw	x25,420(x2)
    47e8:	1a012d03          	lw	x26,416(x2)
    47ec:	19c12d83          	lw	x27,412(x2)
    47f0:	00078463          	beq	x15,x0,47f8 <_vfprintf_r+0x394>
    47f4:	4000206f          	jal	x0,6bf4 <_vfprintf_r+0x2790>
    47f8:	1cc12083          	lw	x1,460(x2)
    47fc:	1c812403          	lw	x8,456(x2)
    4800:	00412503          	lw	x10,4(x2)
    4804:	1c012903          	lw	x18,448(x2)
    4808:	1d010113          	addi	x2,x2,464
    480c:	00008067          	jalr	x0,0(x1)
    4810:	00012583          	lw	x11,0(x2)
    4814:	02012503          	lw	x10,32(x2)
    4818:	9a1ff0ef          	jal	x1,41b8 <__swsetup_r>
    481c:	00050463          	beq	x10,x0,4824 <_vfprintf_r+0x3c0>
    4820:	3d40206f          	jal	x0,6bf4 <_vfprintf_r+0x2790>
    4824:	00012783          	lw	x15,0(x2)
    4828:	00a00693          	addi	x13,x0,10
    482c:	00c79703          	lh	x14,12(x15)
    4830:	01a77713          	andi	x14,x14,26
    4834:	ced712e3          	bne	x14,x13,4518 <_vfprintf_r+0xb4>
    4838:	00012783          	lw	x15,0(x2)
    483c:	00e79703          	lh	x14,14(x15)
    4840:	cc074ce3          	blt	x14,x0,4518 <_vfprintf_r+0xb4>
    4844:	00c12683          	lw	x13,12(x2)
    4848:	02012503          	lw	x10,32(x2)
    484c:	00090613          	addi	x12,x18,0
    4850:	00078593          	addi	x11,x15,0
    4854:	6dc020ef          	jal	x1,6f30 <__sbprintf>
    4858:	00a12223          	sw	x10,4(x2)
    485c:	f9dff06f          	jal	x0,47f8 <_vfprintf_r+0x394>
    4860:	000a8513          	addi	x10,x21,0
    4864:	4d5060ef          	jal	x1,b538 <_localeconv_r>
    4868:	00452783          	lw	x15,4(x10)
    486c:	00078513          	addi	x10,x15,0
    4870:	02f12e23          	sw	x15,60(x2)
    4874:	cedfe0ef          	jal	x1,3560 <strlen>
    4878:	00050793          	addi	x15,x10,0
    487c:	000a8513          	addi	x10,x21,0
    4880:	00078b93          	addi	x23,x15,0
    4884:	04f12223          	sw	x15,68(x2)
    4888:	4b1060ef          	jal	x1,b538 <_localeconv_r>
    488c:	00852703          	lw	x14,8(x10)
    4890:	02e12a23          	sw	x14,52(x2)
    4894:	000b8463          	beq	x23,x0,489c <_vfprintf_r+0x438>
    4898:	0080106f          	jal	x0,58a0 <_vfprintf_r+0x143c>
    489c:	0009c883          	lbu	x17,0(x19)
    48a0:	d65ff06f          	jal	x0,4604 <_vfprintf_r+0x1a0>
    48a4:	0009c883          	lbu	x17,0(x19)
    48a8:	020b6b13          	ori	x22,x22,32
    48ac:	d59ff06f          	jal	x0,4604 <_vfprintf_r+0x1a0>
    48b0:	41a98933          	sub	x18,x19,x26
    48b4:	cfa998e3          	bne	x19,x26,45a4 <_vfprintf_r+0x140>
    48b8:	0009c703          	lbu	x14,0(x19)
    48bc:	d25ff06f          	jal	x0,45e0 <_vfprintf_r+0x17c>
    48c0:	00012583          	lw	x11,0(x2)
    48c4:	0c410613          	addi	x12,x2,196
    48c8:	000a8513          	addi	x10,x21,0
    48cc:	705020ef          	jal	x1,77d0 <__sprint_r>
    48d0:	ee0516e3          	bne	x10,x0,47bc <_vfprintf_r+0x358>
    48d4:	000c0493          	addi	x9,x24,0
    48d8:	cf9ff06f          	jal	x0,45d0 <_vfprintf_r+0x16c>
    48dc:	008b7713          	andi	x14,x22,8
    48e0:	000b0e13          	addi	x28,x22,0
    48e4:	740704e3          	beq	x14,x0,582c <_vfprintf_r+0x13c8>
    48e8:	00c12783          	lw	x15,12(x2)
    48ec:	0007a703          	lw	x14,0(x15)
    48f0:	00478793          	addi	x15,x15,4
    48f4:	00f12623          	sw	x15,12(x2)
    48f8:	00072583          	lw	x11,0(x14)
    48fc:	00472603          	lw	x12,4(x14)
    4900:	00872683          	lw	x13,8(x14)
    4904:	00c72703          	lw	x14,12(x14)
    4908:	0d010513          	addi	x10,x2,208
    490c:	01c12a23          	sw	x28,20(x2)
    4910:	01112423          	sw	x17,8(x2)
    4914:	0ce12e23          	sw	x14,220(x2)
    4918:	0cb12823          	sw	x11,208(x2)
    491c:	0cc12a23          	sw	x12,212(x2)
    4920:	0cd12c23          	sw	x13,216(x2)
    4924:	1b9020ef          	jal	x1,72dc <_ldcheck>
    4928:	0aa12623          	sw	x10,172(x2)
    492c:	00200713          	addi	x14,x0,2
    4930:	00812883          	lw	x17,8(x2)
    4934:	01412e03          	lw	x28,20(x2)
    4938:	00e51463          	bne	x10,x14,4940 <_vfprintf_r+0x4dc>
    493c:	5cc0106f          	jal	x0,5f08 <_vfprintf_r+0x1aa4>
    4940:	00100713          	addi	x14,x0,1
    4944:	00e51463          	bne	x10,x14,494c <_vfprintf_r+0x4e8>
    4948:	7300106f          	jal	x0,6078 <_vfprintf_r+0x1c14>
    494c:	06100713          	addi	x14,x0,97
    4950:	00e89463          	bne	x17,x14,4958 <_vfprintf_r+0x4f4>
    4954:	14c0106f          	jal	x0,5aa0 <_vfprintf_r+0x163c>
    4958:	04100713          	addi	x14,x0,65
    495c:	05800793          	addi	x15,x0,88
    4960:	00e89463          	bne	x17,x14,4968 <_vfprintf_r+0x504>
    4964:	1400106f          	jal	x0,5aa4 <_vfprintf_r+0x1640>
    4968:	fff00713          	addi	x14,x0,-1
    496c:	00ea1463          	bne	x20,x14,4974 <_vfprintf_r+0x510>
    4970:	3a00206f          	jal	x0,6d10 <_vfprintf_r+0x28ac>
    4974:	fdf8f713          	andi	x14,x17,-33
    4978:	04700693          	addi	x13,x0,71
    497c:	00012423          	sw	x0,8(x2)
    4980:	00d71663          	bne	x14,x13,498c <_vfprintf_r+0x528>
    4984:	000a1463          	bne	x20,x0,498c <_vfprintf_r+0x528>
    4988:	00100a13          	addi	x20,x0,1
    498c:	0dc12e83          	lw	x29,220(x2)
    4990:	100e6793          	ori	x15,x28,256
    4994:	04f12023          	sw	x15,64(x2)
    4998:	02012823          	sw	x0,48(x2)
    499c:	0d012f03          	lw	x30,208(x2)
    49a0:	0d412f83          	lw	x31,212(x2)
    49a4:	0d812283          	lw	x5,216(x2)
    49a8:	000eda63          	bge	x29,x0,49bc <_vfprintf_r+0x558>
    49ac:	80000737          	lui	x14,0x80000
    49b0:	02d00793          	addi	x15,x0,45
    49b4:	01d74eb3          	xor	x29,x14,x29
    49b8:	02f12823          	sw	x15,48(x2)
    49bc:	fbf88713          	addi	x14,x17,-65
    49c0:	02500693          	addi	x13,x0,37
    49c4:	00e6f463          	bgeu	x13,x14,49cc <_vfprintf_r+0x568>
    49c8:	1300106f          	jal	x0,5af8 <_vfprintf_r+0x1694>
    49cc:	0000f697          	auipc	x13,0xf
    49d0:	c5068693          	addi	x13,x13,-944 # 1361c <no_exception_handler_msg+0x220>
    49d4:	00271713          	slli	x14,x14,0x2
    49d8:	00d70733          	add	x14,x14,x13
    49dc:	00072703          	lw	x14,0(x14) # 80000000 <__heap_end+0x7fc00000>
    49e0:	00d70733          	add	x14,x14,x13
    49e4:	00070067          	jalr	x0,0(x14)
    49e8:	00012583          	lw	x11,0(x2)
    49ec:	0c410613          	addi	x12,x2,196
    49f0:	000a8513          	addi	x10,x21,0
    49f4:	05c12623          	sw	x28,76(x2)
    49f8:	05112423          	sw	x17,72(x2)
    49fc:	05f12023          	sw	x31,64(x2)
    4a00:	02512823          	sw	x5,48(x2)
    4a04:	5cd020ef          	jal	x1,77d0 <__sprint_r>
    4a08:	0a051ae3          	bne	x10,x0,52bc <_vfprintf_r+0xe58>
    4a0c:	0cc12603          	lw	x12,204(x2)
    4a10:	04c12e03          	lw	x28,76(x2)
    4a14:	04812883          	lw	x17,72(x2)
    4a18:	04012f83          	lw	x31,64(x2)
    4a1c:	03012283          	lw	x5,48(x2)
    4a20:	000c0493          	addi	x9,x24,0
    4a24:	cc5ff06f          	jal	x0,46e8 <_vfprintf_r+0x284>
    4a28:	0c812903          	lw	x18,200(x2)
    4a2c:	01012783          	lw	x15,16(x2)
    4a30:	00100713          	addi	x14,x0,1
    4a34:	01a4a023          	sw	x26,0(x9)
    4a38:	00160b93          	addi	x23,x12,1
    4a3c:	00190913          	addi	x18,x18,1
    4a40:	00848a13          	addi	x20,x9,8
    4a44:	3ef754e3          	bge	x14,x15,562c <_vfprintf_r+0x11c8>
    4a48:	00100713          	addi	x14,x0,1
    4a4c:	00e4a223          	sw	x14,4(x9)
    4a50:	0d712623          	sw	x23,204(x2)
    4a54:	0d212423          	sw	x18,200(x2)
    4a58:	00700713          	addi	x14,x0,7
    4a5c:	01275463          	bge	x14,x18,4a64 <_vfprintf_r+0x600>
    4a60:	2680106f          	jal	x0,5cc8 <_vfprintf_r+0x1864>
    4a64:	02412783          	lw	x15,36(x2)
    4a68:	02812703          	lw	x14,40(x2)
    4a6c:	00190913          	addi	x18,x18,1
    4a70:	00fb8bb3          	add	x23,x23,x15
    4a74:	00ea2023          	sw	x14,0(x20)
    4a78:	00fa2223          	sw	x15,4(x20)
    4a7c:	0d712623          	sw	x23,204(x2)
    4a80:	0d212423          	sw	x18,200(x2)
    4a84:	00700713          	addi	x14,x0,7
    4a88:	008a0a13          	addi	x20,x20,8
    4a8c:	01275463          	bge	x14,x18,4a94 <_vfprintf_r+0x630>
    4a90:	2640106f          	jal	x0,5cf4 <_vfprintf_r+0x1890>
    4a94:	0d012703          	lw	x14,208(x2)
    4a98:	01012783          	lw	x15,16(x2)
    4a9c:	08010593          	addi	x11,x2,128
    4aa0:	08e12823          	sw	x14,144(x2)
    4aa4:	0d412703          	lw	x14,212(x2)
    4aa8:	09010513          	addi	x10,x2,144
    4aac:	01c12a23          	sw	x28,20(x2)
    4ab0:	08e12a23          	sw	x14,148(x2)
    4ab4:	0d812703          	lw	x14,216(x2)
    4ab8:	08012023          	sw	x0,128(x2)
    4abc:	08012223          	sw	x0,132(x2)
    4ac0:	08e12c23          	sw	x14,152(x2)
    4ac4:	0dc12703          	lw	x14,220(x2)
    4ac8:	08012423          	sw	x0,136(x2)
    4acc:	08012623          	sw	x0,140(x2)
    4ad0:	08e12e23          	sw	x14,156(x2)
    4ad4:	fff78493          	addi	x9,x15,-1
    4ad8:	0340b0ef          	jal	x1,fb0c <__eqtf2>
    4adc:	01412e03          	lw	x28,20(x2)
    4ae0:	38050ae3          	beq	x10,x0,5674 <_vfprintf_r+0x1210>
    4ae4:	001d0793          	addi	x15,x26,1
    4ae8:	00190913          	addi	x18,x18,1
    4aec:	009b8bb3          	add	x23,x23,x9
    4af0:	00fa2023          	sw	x15,0(x20)
    4af4:	009a2223          	sw	x9,4(x20)
    4af8:	0d712623          	sw	x23,204(x2)
    4afc:	0d212423          	sw	x18,200(x2)
    4b00:	00700793          	addi	x15,x0,7
    4b04:	008a0a13          	addi	x20,x20,8
    4b08:	3527c0e3          	blt	x15,x18,5648 <_vfprintf_r+0x11e4>
    4b0c:	03812683          	lw	x13,56(x2)
    4b10:	0b410713          	addi	x14,x2,180
    4b14:	00190793          	addi	x15,x18,1
    4b18:	01768633          	add	x12,x13,x23
    4b1c:	00ea2023          	sw	x14,0(x20)
    4b20:	00da2223          	sw	x13,4(x20)
    4b24:	0cc12623          	sw	x12,204(x2)
    4b28:	0cf12423          	sw	x15,200(x2)
    4b2c:	00700713          	addi	x14,x0,7
    4b30:	008a0493          	addi	x9,x20,8
    4b34:	c2f754e3          	bge	x14,x15,475c <_vfprintf_r+0x2f8>
    4b38:	00012583          	lw	x11,0(x2)
    4b3c:	0c410613          	addi	x12,x2,196
    4b40:	000a8513          	addi	x10,x21,0
    4b44:	01c12a23          	sw	x28,20(x2)
    4b48:	489020ef          	jal	x1,77d0 <__sprint_r>
    4b4c:	76051863          	bne	x10,x0,52bc <_vfprintf_r+0xe58>
    4b50:	0cc12603          	lw	x12,204(x2)
    4b54:	01412e03          	lw	x28,20(x2)
    4b58:	000c0493          	addi	x9,x24,0
    4b5c:	c01ff06f          	jal	x0,475c <_vfprintf_r+0x2f8>
    4b60:	00c12703          	lw	x14,12(x2)
    4b64:	000b0e13          	addi	x28,x22,0
    4b68:	0a0103a3          	sb	x0,167(x2)
    4b6c:	00072783          	lw	x15,0(x14)
    4b70:	00470713          	addi	x14,x14,4
    4b74:	00e12623          	sw	x14,12(x2)
    4b78:	12f10623          	sb	x15,300(x2)
    4b7c:	00100d93          	addi	x27,x0,1
    4b80:	00100913          	addi	x18,x0,1
    4b84:	12c10d13          	addi	x26,x2,300
    4b88:	af5ff06f          	jal	x0,467c <_vfprintf_r+0x218>
    4b8c:	00c12783          	lw	x15,12(x2)
    4b90:	0a0103a3          	sb	x0,167(x2)
    4b94:	000b0e13          	addi	x28,x22,0
    4b98:	0007ad03          	lw	x26,0(x15)
    4b9c:	00478b93          	addi	x23,x15,4
    4ba0:	600d04e3          	beq	x26,x0,59a8 <_vfprintf_r+0x1544>
    4ba4:	000a5463          	bge	x20,x0,4bac <_vfprintf_r+0x748>
    4ba8:	4800106f          	jal	x0,6028 <_vfprintf_r+0x1bc4>
    4bac:	000a0613          	addi	x12,x20,0
    4bb0:	00000593          	addi	x11,x0,0
    4bb4:	000d0513          	addi	x10,x26,0
    4bb8:	01112623          	sw	x17,12(x2)
    4bbc:	01612a23          	sw	x22,20(x2)
    4bc0:	a2dfe0ef          	jal	x1,35ec <memchr>
    4bc4:	00a12423          	sw	x10,8(x2)
    4bc8:	00c12883          	lw	x17,12(x2)
    4bcc:	01412e03          	lw	x28,20(x2)
    4bd0:	00051463          	bne	x10,x0,4bd8 <_vfprintf_r+0x774>
    4bd4:	78d0106f          	jal	x0,6b60 <_vfprintf_r+0x26fc>
    4bd8:	00812783          	lw	x15,8(x2)
    4bdc:	0a714703          	lbu	x14,167(x2)
    4be0:	01712623          	sw	x23,12(x2)
    4be4:	41a78933          	sub	x18,x15,x26
    4be8:	fff94693          	xori	x13,x18,-1
    4bec:	41f6d693          	srai	x13,x13,0x1f
    4bf0:	00012423          	sw	x0,8(x2)
    4bf4:	00012e23          	sw	x0,28(x2)
    4bf8:	00012c23          	sw	x0,24(x2)
    4bfc:	00012a23          	sw	x0,20(x2)
    4c00:	00d97db3          	and	x27,x18,x13
    4c04:	00000a13          	addi	x20,x0,0
    4c08:	a80704e3          	beq	x14,x0,4690 <_vfprintf_r+0x22c>
    4c0c:	001d8d93          	addi	x27,x27,1
    4c10:	a81ff06f          	jal	x0,4690 <_vfprintf_r+0x22c>
    4c14:	00c12783          	lw	x15,12(x2)
    4c18:	0007ac83          	lw	x25,0(x15)
    4c1c:	00478793          	addi	x15,x15,4
    4c20:	3a0cdae3          	bge	x25,x0,57d4 <_vfprintf_r+0x1370>
    4c24:	41900cb3          	sub	x25,x0,x25
    4c28:	00f12623          	sw	x15,12(x2)
    4c2c:	0009c883          	lbu	x17,0(x19)
    4c30:	004b6b13          	ori	x22,x22,4
    4c34:	9d1ff06f          	jal	x0,4604 <_vfprintf_r+0x1a0>
    4c38:	02b00793          	addi	x15,x0,43
    4c3c:	0009c883          	lbu	x17,0(x19)
    4c40:	0af103a3          	sb	x15,167(x2)
    4c44:	9c1ff06f          	jal	x0,4604 <_vfprintf_r+0x1a0>
    4c48:	0009c883          	lbu	x17,0(x19)
    4c4c:	080b6b13          	ori	x22,x22,128
    4c50:	9b5ff06f          	jal	x0,4604 <_vfprintf_r+0x1a0>
    4c54:	0009c883          	lbu	x17,0(x19)
    4c58:	02a00793          	addi	x15,x0,42
    4c5c:	00198693          	addi	x13,x19,1
    4c60:	00f89463          	bne	x17,x15,4c68 <_vfprintf_r+0x804>
    4c64:	2580206f          	jal	x0,6ebc <_vfprintf_r+0x2a58>
    4c68:	fd088793          	addi	x15,x17,-48
    4c6c:	00900713          	addi	x14,x0,9
    4c70:	00000a13          	addi	x20,x0,0
    4c74:	00900613          	addi	x12,x0,9
    4c78:	02f76463          	bltu	x14,x15,4ca0 <_vfprintf_r+0x83c>
    4c7c:	0006c883          	lbu	x17,0(x13)
    4c80:	002a1713          	slli	x14,x20,0x2
    4c84:	01470a33          	add	x20,x14,x20
    4c88:	001a1a13          	slli	x20,x20,0x1
    4c8c:	00fa0a33          	add	x20,x20,x15
    4c90:	fd088793          	addi	x15,x17,-48
    4c94:	00168693          	addi	x13,x13,1
    4c98:	fef672e3          	bgeu	x12,x15,4c7c <_vfprintf_r+0x818>
    4c9c:	420a4ae3          	blt	x20,x0,58d0 <_vfprintf_r+0x146c>
    4ca0:	00068993          	addi	x19,x13,0
    4ca4:	965ff06f          	jal	x0,4608 <_vfprintf_r+0x1a4>
    4ca8:	0009c883          	lbu	x17,0(x19)
    4cac:	001b6b13          	ori	x22,x22,1
    4cb0:	955ff06f          	jal	x0,4604 <_vfprintf_r+0x1a0>
    4cb4:	0a714783          	lbu	x15,167(x2)
    4cb8:	0009c883          	lbu	x17,0(x19)
    4cbc:	940794e3          	bne	x15,x0,4604 <_vfprintf_r+0x1a0>
    4cc0:	02000793          	addi	x15,x0,32
    4cc4:	0af103a3          	sb	x15,167(x2)
    4cc8:	93dff06f          	jal	x0,4604 <_vfprintf_r+0x1a0>
    4ccc:	010b6e93          	ori	x29,x22,16
    4cd0:	020ef793          	andi	x15,x29,32
    4cd4:	2a0784e3          	beq	x15,x0,577c <_vfprintf_r+0x1318>
    4cd8:	00c12783          	lw	x15,12(x2)
    4cdc:	00778b93          	addi	x23,x15,7
    4ce0:	ff8bfb93          	andi	x23,x23,-8
    4ce4:	000ba903          	lw	x18,0(x23)
    4ce8:	004bad83          	lw	x27,4(x23)
    4cec:	008b8793          	addi	x15,x23,8
    4cf0:	00f12623          	sw	x15,12(x2)
    4cf4:	00100793          	addi	x15,x0,1
    4cf8:	00000713          	addi	x14,x0,0
    4cfc:	0ae103a3          	sb	x14,167(x2)
    4d00:	2e0a4863          	blt	x20,x0,4ff0 <_vfprintf_r+0xb8c>
    4d04:	01b96733          	or	x14,x18,x27
    4d08:	f7fefe13          	andi	x28,x29,-129
    4d0c:	2e071063          	bne	x14,x0,4fec <_vfprintf_r+0xb88>
    4d10:	340a1663          	bne	x20,x0,505c <_vfprintf_r+0xbf8>
    4d14:	28079ee3          	bne	x15,x0,57b0 <_vfprintf_r+0x134c>
    4d18:	001ef913          	andi	x18,x29,1
    4d1c:	19010d13          	addi	x26,x2,400
    4d20:	2c0910e3          	bne	x18,x0,57e0 <_vfprintf_r+0x137c>
    4d24:	0a714703          	lbu	x14,167(x2)
    4d28:	00090d93          	addi	x27,x18,0
    4d2c:	01495463          	bge	x18,x20,4d34 <_vfprintf_r+0x8d0>
    4d30:	000a0d93          	addi	x27,x20,0
    4d34:	00012423          	sw	x0,8(x2)
    4d38:	00012e23          	sw	x0,28(x2)
    4d3c:	00012c23          	sw	x0,24(x2)
    4d40:	00012a23          	sw	x0,20(x2)
    4d44:	ec0714e3          	bne	x14,x0,4c0c <_vfprintf_r+0x7a8>
    4d48:	949ff06f          	jal	x0,4690 <_vfprintf_r+0x22c>
    4d4c:	0009c883          	lbu	x17,0(x19)
    4d50:	008b6b13          	ori	x22,x22,8
    4d54:	8b1ff06f          	jal	x0,4604 <_vfprintf_r+0x1a0>
    4d58:	010b6e13          	ori	x28,x22,16
    4d5c:	020e7793          	andi	x15,x28,32
    4d60:	1c0784e3          	beq	x15,x0,5728 <_vfprintf_r+0x12c4>
    4d64:	00c12783          	lw	x15,12(x2)
    4d68:	00778b93          	addi	x23,x15,7
    4d6c:	ff8bfb93          	andi	x23,x23,-8
    4d70:	004ba783          	lw	x15,4(x23)
    4d74:	000ba903          	lw	x18,0(x23)
    4d78:	008b8713          	addi	x14,x23,8
    4d7c:	00e12623          	sw	x14,12(x2)
    4d80:	00078d93          	addi	x27,x15,0
    4d84:	1c07cce3          	blt	x15,x0,575c <_vfprintf_r+0x12f8>
    4d88:	000e0e93          	addi	x29,x28,0
    4d8c:	020a4263          	blt	x20,x0,4db0 <_vfprintf_r+0x94c>
    4d90:	01b967b3          	or	x15,x18,x27
    4d94:	f7fe7e93          	andi	x29,x28,-129
    4d98:	00079c63          	bne	x15,x0,4db0 <_vfprintf_r+0x94c>
    4d9c:	020a1063          	bne	x20,x0,4dbc <_vfprintf_r+0x958>
    4da0:	00000913          	addi	x18,x0,0
    4da4:	000e8e13          	addi	x28,x29,0
    4da8:	19010d13          	addi	x26,x2,400
    4dac:	f79ff06f          	jal	x0,4d24 <_vfprintf_r+0x8c0>
    4db0:	780d90e3          	bne	x27,x0,5d30 <_vfprintf_r+0x18cc>
    4db4:	00900793          	addi	x15,x0,9
    4db8:	7727ece3          	bltu	x15,x18,5d30 <_vfprintf_r+0x18cc>
    4dbc:	03090913          	addi	x18,x18,48
    4dc0:	192107a3          	sb	x18,399(x2)
    4dc4:	000e8e13          	addi	x28,x29,0
    4dc8:	00100913          	addi	x18,x0,1
    4dcc:	18f10d13          	addi	x26,x2,399
    4dd0:	f55ff06f          	jal	x0,4d24 <_vfprintf_r+0x8c0>
    4dd4:	010b6e13          	ori	x28,x22,16
    4dd8:	020e7793          	andi	x15,x28,32
    4ddc:	10078ee3          	beq	x15,x0,56f8 <_vfprintf_r+0x1294>
    4de0:	00c12783          	lw	x15,12(x2)
    4de4:	00778b93          	addi	x23,x15,7
    4de8:	ff8bfb93          	andi	x23,x23,-8
    4dec:	000ba903          	lw	x18,0(x23)
    4df0:	004bad83          	lw	x27,4(x23)
    4df4:	008b8793          	addi	x15,x23,8
    4df8:	00f12623          	sw	x15,12(x2)
    4dfc:	bffe7e93          	andi	x29,x28,-1025
    4e00:	00000793          	addi	x15,x0,0
    4e04:	ef5ff06f          	jal	x0,4cf8 <_vfprintf_r+0x894>
    4e08:	0009c883          	lbu	x17,0(x19)
    4e0c:	06800793          	addi	x15,x0,104
    4e10:	36f88ce3          	beq	x17,x15,5988 <_vfprintf_r+0x1524>
    4e14:	040b6b13          	ori	x22,x22,64
    4e18:	fecff06f          	jal	x0,4604 <_vfprintf_r+0x1a0>
    4e1c:	00c12703          	lw	x14,12(x2)
    4e20:	000087b7          	lui	x15,0x8
    4e24:	83078793          	addi	x15,x15,-2000 # 7830 <_vfiprintf_r+0x48>
    4e28:	0af11423          	sh	x15,168(x2)
    4e2c:	00470793          	addi	x15,x14,4
    4e30:	00f12623          	sw	x15,12(x2)
    4e34:	0000e797          	auipc	x15,0xe
    4e38:	42078793          	addi	x15,x15,1056 # 13254 <__clzsi2+0x4ec>
    4e3c:	02f12623          	sw	x15,44(x2)
    4e40:	00072903          	lw	x18,0(x14)
    4e44:	00000d93          	addi	x27,x0,0
    4e48:	002b6e93          	ori	x29,x22,2
    4e4c:	00200793          	addi	x15,x0,2
    4e50:	07800893          	addi	x17,x0,120
    4e54:	ea5ff06f          	jal	x0,4cf8 <_vfprintf_r+0x894>
    4e58:	020b7793          	andi	x15,x22,32
    4e5c:	20078ce3          	beq	x15,x0,5874 <_vfprintf_r+0x1410>
    4e60:	00c12783          	lw	x15,12(x2)
    4e64:	00412683          	lw	x13,4(x2)
    4e68:	0007a783          	lw	x15,0(x15)
    4e6c:	41f6d713          	srai	x14,x13,0x1f
    4e70:	00d7a023          	sw	x13,0(x15)
    4e74:	00e7a223          	sw	x14,4(x15)
    4e78:	00c12783          	lw	x15,12(x2)
    4e7c:	00098d13          	addi	x26,x19,0
    4e80:	00478793          	addi	x15,x15,4
    4e84:	00f12623          	sw	x15,12(x2)
    4e88:	921ff06f          	jal	x0,47a8 <_vfprintf_r+0x344>
    4e8c:	0009c883          	lbu	x17,0(x19)
    4e90:	06c00793          	addi	x15,x0,108
    4e94:	30f882e3          	beq	x17,x15,5998 <_vfprintf_r+0x1534>
    4e98:	010b6b13          	ori	x22,x22,16
    4e9c:	f68ff06f          	jal	x0,4604 <_vfprintf_r+0x1a0>
    4ea0:	06500713          	addi	x14,x0,101
    4ea4:	b91752e3          	bge	x14,x17,4a28 <_vfprintf_r+0x5c4>
    4ea8:	0d012703          	lw	x14,208(x2)
    4eac:	08010593          	addi	x11,x2,128
    4eb0:	09010513          	addi	x10,x2,144
    4eb4:	08e12823          	sw	x14,144(x2)
    4eb8:	0d412703          	lw	x14,212(x2)
    4ebc:	04c12023          	sw	x12,64(x2)
    4ec0:	03c12823          	sw	x28,48(x2)
    4ec4:	08e12a23          	sw	x14,148(x2)
    4ec8:	0d812703          	lw	x14,216(x2)
    4ecc:	08012023          	sw	x0,128(x2)
    4ed0:	08012223          	sw	x0,132(x2)
    4ed4:	08e12c23          	sw	x14,152(x2)
    4ed8:	0dc12703          	lw	x14,220(x2)
    4edc:	08012423          	sw	x0,136(x2)
    4ee0:	08012623          	sw	x0,140(x2)
    4ee4:	08e12e23          	sw	x14,156(x2)
    4ee8:	4250a0ef          	jal	x1,fb0c <__eqtf2>
    4eec:	03012e03          	lw	x28,48(x2)
    4ef0:	04012603          	lw	x12,64(x2)
    4ef4:	5e051463          	bne	x10,x0,54dc <_vfprintf_r+0x1078>
    4ef8:	0c812783          	lw	x15,200(x2)
    4efc:	0000e717          	auipc	x14,0xe
    4f00:	38870713          	addi	x14,x14,904 # 13284 <__clzsi2+0x51c>
    4f04:	00e4a023          	sw	x14,0(x9)
    4f08:	00160613          	addi	x12,x12,1
    4f0c:	00100713          	addi	x14,x0,1
    4f10:	00178793          	addi	x15,x15,1
    4f14:	00e4a223          	sw	x14,4(x9)
    4f18:	0cc12623          	sw	x12,204(x2)
    4f1c:	0cf12423          	sw	x15,200(x2)
    4f20:	00700713          	addi	x14,x0,7
    4f24:	00848493          	addi	x9,x9,8
    4f28:	00f75463          	bge	x14,x15,4f30 <_vfprintf_r+0xacc>
    4f2c:	79d0006f          	jal	x0,5ec8 <_vfprintf_r+0x1a64>
    4f30:	0ac12783          	lw	x15,172(x2)
    4f34:	01012703          	lw	x14,16(x2)
    4f38:	08e7d2e3          	bge	x15,x14,57bc <_vfprintf_r+0x1358>
    4f3c:	02812783          	lw	x15,40(x2)
    4f40:	02412703          	lw	x14,36(x2)
    4f44:	00848493          	addi	x9,x9,8
    4f48:	fef4ac23          	sw	x15,-8(x9)
    4f4c:	0c812783          	lw	x15,200(x2)
    4f50:	00e60633          	add	x12,x12,x14
    4f54:	fee4ae23          	sw	x14,-4(x9)
    4f58:	00178793          	addi	x15,x15,1
    4f5c:	0cc12623          	sw	x12,204(x2)
    4f60:	0cf12423          	sw	x15,200(x2)
    4f64:	00700713          	addi	x14,x0,7
    4f68:	1cf74ee3          	blt	x14,x15,5944 <_vfprintf_r+0x14e0>
    4f6c:	01012783          	lw	x15,16(x2)
    4f70:	fff78913          	addi	x18,x15,-1
    4f74:	ff205463          	bge	x0,x18,475c <_vfprintf_r+0x2f8>
    4f78:	01000713          	addi	x14,x0,16
    4f7c:	0c812783          	lw	x15,200(x2)
    4f80:	0000ee97          	auipc	x29,0xe
    4f84:	744e8e93          	addi	x29,x29,1860 # 136c4 <zeroes.0>
    4f88:	772758e3          	bge	x14,x18,5ef8 <_vfprintf_r+0x1a94>
    4f8c:	01000a13          	addi	x20,x0,16
    4f90:	00700b93          	addi	x23,x0,7
    4f94:	000e0d13          	addi	x26,x28,0
    4f98:	000e8b13          	addi	x22,x29,0
    4f9c:	00c0006f          	jal	x0,4fa8 <_vfprintf_r+0xb44>
    4fa0:	ff090913          	addi	x18,x18,-16
    4fa4:	752a56e3          	bge	x20,x18,5ef0 <_vfprintf_r+0x1a8c>
    4fa8:	01060613          	addi	x12,x12,16
    4fac:	00178793          	addi	x15,x15,1
    4fb0:	0164a023          	sw	x22,0(x9)
    4fb4:	0144a223          	sw	x20,4(x9)
    4fb8:	0cc12623          	sw	x12,204(x2)
    4fbc:	0cf12423          	sw	x15,200(x2)
    4fc0:	00848493          	addi	x9,x9,8
    4fc4:	fcfbdee3          	bge	x23,x15,4fa0 <_vfprintf_r+0xb3c>
    4fc8:	00012583          	lw	x11,0(x2)
    4fcc:	0c410613          	addi	x12,x2,196
    4fd0:	000a8513          	addi	x10,x21,0
    4fd4:	7fc020ef          	jal	x1,77d0 <__sprint_r>
    4fd8:	2e051263          	bne	x10,x0,52bc <_vfprintf_r+0xe58>
    4fdc:	0cc12603          	lw	x12,204(x2)
    4fe0:	0c812783          	lw	x15,200(x2)
    4fe4:	000c0493          	addi	x9,x24,0
    4fe8:	fb9ff06f          	jal	x0,4fa0 <_vfprintf_r+0xb3c>
    4fec:	000e0e93          	addi	x29,x28,0
    4ff0:	00100713          	addi	x14,x0,1
    4ff4:	dae78ee3          	beq	x15,x14,4db0 <_vfprintf_r+0x94c>
    4ff8:	00200713          	addi	x14,x0,2
    4ffc:	06e78c63          	beq	x15,x14,5074 <_vfprintf_r+0xc10>
    5000:	19010d13          	addi	x26,x2,400
    5004:	01dd9793          	slli	x15,x27,0x1d
    5008:	00797713          	andi	x14,x18,7
    500c:	00395913          	srli	x18,x18,0x3
    5010:	03070713          	addi	x14,x14,48
    5014:	0127e933          	or	x18,x15,x18
    5018:	003ddd93          	srli	x27,x27,0x3
    501c:	feed0fa3          	sb	x14,-1(x26)
    5020:	01b967b3          	or	x15,x18,x27
    5024:	000d0613          	addi	x12,x26,0
    5028:	fffd0d13          	addi	x26,x26,-1
    502c:	fc079ce3          	bne	x15,x0,5004 <_vfprintf_r+0xba0>
    5030:	001ef693          	andi	x13,x29,1
    5034:	06068a63          	beq	x13,x0,50a8 <_vfprintf_r+0xc44>
    5038:	03000693          	addi	x13,x0,48
    503c:	06d70663          	beq	x14,x13,50a8 <_vfprintf_r+0xc44>
    5040:	ffe60613          	addi	x12,x12,-2
    5044:	19010793          	addi	x15,x2,400
    5048:	fedd0fa3          	sb	x13,-1(x26)
    504c:	40c78933          	sub	x18,x15,x12
    5050:	000e8e13          	addi	x28,x29,0
    5054:	00060d13          	addi	x26,x12,0
    5058:	ccdff06f          	jal	x0,4d24 <_vfprintf_r+0x8c0>
    505c:	00100713          	addi	x14,x0,1
    5060:	00e79463          	bne	x15,x14,5068 <_vfprintf_r+0xc04>
    5064:	39d0106f          	jal	x0,6c00 <_vfprintf_r+0x279c>
    5068:	00200713          	addi	x14,x0,2
    506c:	000e0e93          	addi	x29,x28,0
    5070:	f8e798e3          	bne	x15,x14,5000 <_vfprintf_r+0xb9c>
    5074:	02c12683          	lw	x13,44(x2)
    5078:	19010d13          	addi	x26,x2,400
    507c:	00f97793          	andi	x15,x18,15
    5080:	00f687b3          	add	x15,x13,x15
    5084:	0007c703          	lbu	x14,0(x15)
    5088:	00495913          	srli	x18,x18,0x4
    508c:	01cd9793          	slli	x15,x27,0x1c
    5090:	0127e933          	or	x18,x15,x18
    5094:	004ddd93          	srli	x27,x27,0x4
    5098:	feed0fa3          	sb	x14,-1(x26)
    509c:	01b967b3          	or	x15,x18,x27
    50a0:	fffd0d13          	addi	x26,x26,-1
    50a4:	fc079ce3          	bne	x15,x0,507c <_vfprintf_r+0xc18>
    50a8:	19010793          	addi	x15,x2,400
    50ac:	41a78933          	sub	x18,x15,x26
    50b0:	000e8e13          	addi	x28,x29,0
    50b4:	c71ff06f          	jal	x0,4d24 <_vfprintf_r+0x8c0>
    50b8:	41bc8bb3          	sub	x23,x25,x27
    50bc:	e7705463          	bge	x0,x23,4724 <_vfprintf_r+0x2c0>
    50c0:	01000513          	addi	x10,x0,16
    50c4:	0c812583          	lw	x11,200(x2)
    50c8:	0000ee97          	auipc	x29,0xe
    50cc:	5fce8e93          	addi	x29,x29,1532 # 136c4 <zeroes.0>
    50d0:	09755c63          	bge	x10,x23,5168 <_vfprintf_r+0xd04>
    50d4:	000b8b13          	addi	x22,x23,0
    50d8:	00048793          	addi	x15,x9,0
    50dc:	00090b93          	addi	x23,x18,0
    50e0:	01000f13          	addi	x30,x0,16
    50e4:	00700f93          	addi	x31,x0,7
    50e8:	03112823          	sw	x17,48(x2)
    50ec:	000e0913          	addi	x18,x28,0
    50f0:	000e8493          	addi	x9,x29,0
    50f4:	00c0006f          	jal	x0,5100 <_vfprintf_r+0xc9c>
    50f8:	ff0b0b13          	addi	x22,x22,-16
    50fc:	056f5a63          	bge	x30,x22,5150 <_vfprintf_r+0xcec>
    5100:	01060613          	addi	x12,x12,16
    5104:	00158593          	addi	x11,x11,1 # 2001 <__fp_unlock+0x5>
    5108:	0097a023          	sw	x9,0(x15)
    510c:	01e7a223          	sw	x30,4(x15)
    5110:	0cc12623          	sw	x12,204(x2)
    5114:	0cb12423          	sw	x11,200(x2)
    5118:	00878793          	addi	x15,x15,8
    511c:	fcbfdee3          	bge	x31,x11,50f8 <_vfprintf_r+0xc94>
    5120:	00012583          	lw	x11,0(x2)
    5124:	0c410613          	addi	x12,x2,196
    5128:	000a8513          	addi	x10,x21,0
    512c:	6a4020ef          	jal	x1,77d0 <__sprint_r>
    5130:	18051663          	bne	x10,x0,52bc <_vfprintf_r+0xe58>
    5134:	01000f13          	addi	x30,x0,16
    5138:	ff0b0b13          	addi	x22,x22,-16
    513c:	0cc12603          	lw	x12,204(x2)
    5140:	0c812583          	lw	x11,200(x2)
    5144:	000c0793          	addi	x15,x24,0
    5148:	00700f93          	addi	x31,x0,7
    514c:	fb6f4ae3          	blt	x30,x22,5100 <_vfprintf_r+0xc9c>
    5150:	03012883          	lw	x17,48(x2)
    5154:	00090e13          	addi	x28,x18,0
    5158:	00048e93          	addi	x29,x9,0
    515c:	000b8913          	addi	x18,x23,0
    5160:	00078493          	addi	x9,x15,0
    5164:	000b0b93          	addi	x23,x22,0
    5168:	01760633          	add	x12,x12,x23
    516c:	00158593          	addi	x11,x11,1
    5170:	01d4a023          	sw	x29,0(x9)
    5174:	0174a223          	sw	x23,4(x9)
    5178:	0cc12623          	sw	x12,204(x2)
    517c:	0cb12423          	sw	x11,200(x2)
    5180:	00700713          	addi	x14,x0,7
    5184:	00848493          	addi	x9,x9,8
    5188:	d8b75e63          	bge	x14,x11,4724 <_vfprintf_r+0x2c0>
    518c:	00012583          	lw	x11,0(x2)
    5190:	0c410613          	addi	x12,x2,196
    5194:	000a8513          	addi	x10,x21,0
    5198:	05c12023          	sw	x28,64(x2)
    519c:	03112823          	sw	x17,48(x2)
    51a0:	630020ef          	jal	x1,77d0 <__sprint_r>
    51a4:	10051c63          	bne	x10,x0,52bc <_vfprintf_r+0xe58>
    51a8:	0cc12603          	lw	x12,204(x2)
    51ac:	04012e03          	lw	x28,64(x2)
    51b0:	03012883          	lw	x17,48(x2)
    51b4:	000c0493          	addi	x9,x24,0
    51b8:	d6cff06f          	jal	x0,4724 <_vfprintf_r+0x2c0>
    51bc:	0c812583          	lw	x11,200(x2)
    51c0:	0000ee97          	auipc	x29,0xe
    51c4:	504e8e93          	addi	x29,x29,1284 # 136c4 <zeroes.0>
    51c8:	09445663          	bge	x8,x20,5254 <_vfprintf_r+0xdf0>
    51cc:	00048793          	addi	x15,x9,0
    51d0:	00700b93          	addi	x23,x0,7
    51d4:	000a0493          	addi	x9,x20,0
    51d8:	00088b13          	addi	x22,x17,0
    51dc:	03c12823          	sw	x28,48(x2)
    51e0:	000e8a13          	addi	x20,x29,0
    51e4:	00c0006f          	jal	x0,51f0 <_vfprintf_r+0xd8c>
    51e8:	ff048493          	addi	x9,x9,-16
    51ec:	04945a63          	bge	x8,x9,5240 <_vfprintf_r+0xddc>
    51f0:	01060613          	addi	x12,x12,16
    51f4:	00158593          	addi	x11,x11,1
    51f8:	0000e717          	auipc	x14,0xe
    51fc:	4cc70713          	addi	x14,x14,1228 # 136c4 <zeroes.0>
    5200:	00e7a023          	sw	x14,0(x15)
    5204:	0087a223          	sw	x8,4(x15)
    5208:	0cc12623          	sw	x12,204(x2)
    520c:	0cb12423          	sw	x11,200(x2)
    5210:	00878793          	addi	x15,x15,8
    5214:	fcbbdae3          	bge	x23,x11,51e8 <_vfprintf_r+0xd84>
    5218:	00012583          	lw	x11,0(x2)
    521c:	0c410613          	addi	x12,x2,196
    5220:	000a8513          	addi	x10,x21,0
    5224:	5ac020ef          	jal	x1,77d0 <__sprint_r>
    5228:	08051a63          	bne	x10,x0,52bc <_vfprintf_r+0xe58>
    522c:	ff048493          	addi	x9,x9,-16
    5230:	0cc12603          	lw	x12,204(x2)
    5234:	0c812583          	lw	x11,200(x2)
    5238:	000c0793          	addi	x15,x24,0
    523c:	fa944ae3          	blt	x8,x9,51f0 <_vfprintf_r+0xd8c>
    5240:	03012e03          	lw	x28,48(x2)
    5244:	000a0e93          	addi	x29,x20,0
    5248:	000b0893          	addi	x17,x22,0
    524c:	00048a13          	addi	x20,x9,0
    5250:	00078493          	addi	x9,x15,0
    5254:	01460633          	add	x12,x12,x20
    5258:	00158593          	addi	x11,x11,1
    525c:	01d4a023          	sw	x29,0(x9)
    5260:	0144a223          	sw	x20,4(x9)
    5264:	0cc12623          	sw	x12,204(x2)
    5268:	0cb12423          	sw	x11,200(x2)
    526c:	00700713          	addi	x14,x0,7
    5270:	00848493          	addi	x9,x9,8
    5274:	cab75c63          	bge	x14,x11,472c <_vfprintf_r+0x2c8>
    5278:	00012583          	lw	x11,0(x2)
    527c:	0c410613          	addi	x12,x2,196
    5280:	000a8513          	addi	x10,x21,0
    5284:	05c12023          	sw	x28,64(x2)
    5288:	03112823          	sw	x17,48(x2)
    528c:	544020ef          	jal	x1,77d0 <__sprint_r>
    5290:	02051663          	bne	x10,x0,52bc <_vfprintf_r+0xe58>
    5294:	0cc12603          	lw	x12,204(x2)
    5298:	04012e03          	lw	x28,64(x2)
    529c:	03012883          	lw	x17,48(x2)
    52a0:	000c0493          	addi	x9,x24,0
    52a4:	c88ff06f          	jal	x0,472c <_vfprintf_r+0x2c8>
    52a8:	00012583          	lw	x11,0(x2)
    52ac:	0c410613          	addi	x12,x2,196
    52b0:	000a8513          	addi	x10,x21,0
    52b4:	51c020ef          	jal	x1,77d0 <__sprint_r>
    52b8:	cc050863          	beq	x10,x0,4788 <_vfprintf_r+0x324>
    52bc:	00812583          	lw	x11,8(x2)
    52c0:	ce058e63          	beq	x11,x0,47bc <_vfprintf_r+0x358>
    52c4:	02012503          	lw	x10,32(x2)
    52c8:	f95fd0ef          	jal	x1,325c <_free_r>
    52cc:	cf0ff06f          	jal	x0,47bc <_vfprintf_r+0x358>
    52d0:	01000513          	addi	x10,x0,16
    52d4:	0c812583          	lw	x11,200(x2)
    52d8:	0000eb97          	auipc	x23,0xe
    52dc:	3dcb8b93          	addi	x23,x23,988 # 136b4 <blanks.1>
    52e0:	0ae55863          	bge	x10,x14,5390 <_vfprintf_r+0xf2c>
    52e4:	00048793          	addi	x15,x9,0
    52e8:	00070493          	addi	x9,x14,0
    52ec:	000b8713          	addi	x14,x23,0
    52f0:	01000e93          	addi	x29,x0,16
    52f4:	00090b93          	addi	x23,x18,0
    52f8:	00700393          	addi	x7,x0,7
    52fc:	02512823          	sw	x5,48(x2)
    5300:	000f8b13          	addi	x22,x31,0
    5304:	05112023          	sw	x17,64(x2)
    5308:	05c12423          	sw	x28,72(x2)
    530c:	00070913          	addi	x18,x14,0
    5310:	00c0006f          	jal	x0,531c <_vfprintf_r+0xeb8>
    5314:	ff048493          	addi	x9,x9,-16
    5318:	049eda63          	bge	x29,x9,536c <_vfprintf_r+0xf08>
    531c:	01060613          	addi	x12,x12,16
    5320:	00158593          	addi	x11,x11,1
    5324:	0127a023          	sw	x18,0(x15)
    5328:	01d7a223          	sw	x29,4(x15)
    532c:	0cc12623          	sw	x12,204(x2)
    5330:	0cb12423          	sw	x11,200(x2)
    5334:	00878793          	addi	x15,x15,8
    5338:	fcb3dee3          	bge	x7,x11,5314 <_vfprintf_r+0xeb0>
    533c:	00012583          	lw	x11,0(x2)
    5340:	0c410613          	addi	x12,x2,196
    5344:	000a8513          	addi	x10,x21,0
    5348:	488020ef          	jal	x1,77d0 <__sprint_r>
    534c:	f60518e3          	bne	x10,x0,52bc <_vfprintf_r+0xe58>
    5350:	01000e93          	addi	x29,x0,16
    5354:	ff048493          	addi	x9,x9,-16
    5358:	0cc12603          	lw	x12,204(x2)
    535c:	0c812583          	lw	x11,200(x2)
    5360:	000c0793          	addi	x15,x24,0
    5364:	00700393          	addi	x7,x0,7
    5368:	fa9ecae3          	blt	x29,x9,531c <_vfprintf_r+0xeb8>
    536c:	03012283          	lw	x5,48(x2)
    5370:	04012883          	lw	x17,64(x2)
    5374:	04812e03          	lw	x28,72(x2)
    5378:	00048713          	addi	x14,x9,0
    537c:	00078493          	addi	x9,x15,0
    5380:	00090793          	addi	x15,x18,0
    5384:	000b0f93          	addi	x31,x22,0
    5388:	000b8913          	addi	x18,x23,0
    538c:	00078b93          	addi	x23,x15,0
    5390:	00e60633          	add	x12,x12,x14
    5394:	00158593          	addi	x11,x11,1
    5398:	00e4a223          	sw	x14,4(x9)
    539c:	0174a023          	sw	x23,0(x9)
    53a0:	0cc12623          	sw	x12,204(x2)
    53a4:	0cb12423          	sw	x11,200(x2)
    53a8:	00700713          	addi	x14,x0,7
    53ac:	00848493          	addi	x9,x9,8
    53b0:	b0b75063          	bge	x14,x11,46b0 <_vfprintf_r+0x24c>
    53b4:	00012583          	lw	x11,0(x2)
    53b8:	0c410613          	addi	x12,x2,196
    53bc:	000a8513          	addi	x10,x21,0
    53c0:	05c12623          	sw	x28,76(x2)
    53c4:	05112423          	sw	x17,72(x2)
    53c8:	05f12023          	sw	x31,64(x2)
    53cc:	02512823          	sw	x5,48(x2)
    53d0:	400020ef          	jal	x1,77d0 <__sprint_r>
    53d4:	ee0514e3          	bne	x10,x0,52bc <_vfprintf_r+0xe58>
    53d8:	0cc12603          	lw	x12,204(x2)
    53dc:	04c12e03          	lw	x28,76(x2)
    53e0:	04812883          	lw	x17,72(x2)
    53e4:	04012f83          	lw	x31,64(x2)
    53e8:	03012283          	lw	x5,48(x2)
    53ec:	000c0493          	addi	x9,x24,0
    53f0:	ac0ff06f          	jal	x0,46b0 <_vfprintf_r+0x24c>
    53f4:	00012583          	lw	x11,0(x2)
    53f8:	0c410613          	addi	x12,x2,196
    53fc:	000a8513          	addi	x10,x21,0
    5400:	05c12423          	sw	x28,72(x2)
    5404:	05112023          	sw	x17,64(x2)
    5408:	03f12823          	sw	x31,48(x2)
    540c:	3c4020ef          	jal	x1,77d0 <__sprint_r>
    5410:	ea0516e3          	bne	x10,x0,52bc <_vfprintf_r+0xe58>
    5414:	0cc12603          	lw	x12,204(x2)
    5418:	04812e03          	lw	x28,72(x2)
    541c:	04012883          	lw	x17,64(x2)
    5420:	03012f83          	lw	x31,48(x2)
    5424:	000c0493          	addi	x9,x24,0
    5428:	af4ff06f          	jal	x0,471c <_vfprintf_r+0x2b8>
    542c:	01000713          	addi	x14,x0,16
    5430:	0c812783          	lw	x15,200(x2)
    5434:	0000eb97          	auipc	x23,0xe
    5438:	280b8b93          	addi	x23,x23,640 # 136b4 <blanks.1>
    543c:	07275263          	bge	x14,x18,54a0 <_vfprintf_r+0x103c>
    5440:	00012d03          	lw	x26,0(x2)
    5444:	01000a13          	addi	x20,x0,16
    5448:	00700b13          	addi	x22,x0,7
    544c:	00c0006f          	jal	x0,5458 <_vfprintf_r+0xff4>
    5450:	ff090913          	addi	x18,x18,-16
    5454:	052a5663          	bge	x20,x18,54a0 <_vfprintf_r+0x103c>
    5458:	01060613          	addi	x12,x12,16
    545c:	00178793          	addi	x15,x15,1
    5460:	0174a023          	sw	x23,0(x9)
    5464:	0144a223          	sw	x20,4(x9)
    5468:	0cc12623          	sw	x12,204(x2)
    546c:	0cf12423          	sw	x15,200(x2)
    5470:	00848493          	addi	x9,x9,8
    5474:	fcfb5ee3          	bge	x22,x15,5450 <_vfprintf_r+0xfec>
    5478:	0c410613          	addi	x12,x2,196
    547c:	000d0593          	addi	x11,x26,0
    5480:	000a8513          	addi	x10,x21,0
    5484:	34c020ef          	jal	x1,77d0 <__sprint_r>
    5488:	e2051ae3          	bne	x10,x0,52bc <_vfprintf_r+0xe58>
    548c:	ff090913          	addi	x18,x18,-16
    5490:	0cc12603          	lw	x12,204(x2)
    5494:	0c812783          	lw	x15,200(x2)
    5498:	000c0493          	addi	x9,x24,0
    549c:	fb2a4ee3          	blt	x20,x18,5458 <_vfprintf_r+0xff4>
    54a0:	01260633          	add	x12,x12,x18
    54a4:	00178793          	addi	x15,x15,1
    54a8:	0174a023          	sw	x23,0(x9)
    54ac:	0124a223          	sw	x18,4(x9)
    54b0:	0cc12623          	sw	x12,204(x2)
    54b4:	0cf12423          	sw	x15,200(x2)
    54b8:	00700713          	addi	x14,x0,7
    54bc:	aaf75863          	bge	x14,x15,476c <_vfprintf_r+0x308>
    54c0:	00012583          	lw	x11,0(x2)
    54c4:	0c410613          	addi	x12,x2,196
    54c8:	000a8513          	addi	x10,x21,0
    54cc:	304020ef          	jal	x1,77d0 <__sprint_r>
    54d0:	de0516e3          	bne	x10,x0,52bc <_vfprintf_r+0xe58>
    54d4:	0cc12603          	lw	x12,204(x2)
    54d8:	a94ff06f          	jal	x0,476c <_vfprintf_r+0x308>
    54dc:	0ac12583          	lw	x11,172(x2)
    54e0:	14b05ee3          	bge	x0,x11,5e3c <_vfprintf_r+0x19d8>
    54e4:	01012783          	lw	x15,16(x2)
    54e8:	01412703          	lw	x14,20(x2)
    54ec:	00fd0b33          	add	x22,x26,x15
    54f0:	00070913          	addi	x18,x14,0
    54f4:	3ce7c863          	blt	x15,x14,58c4 <_vfprintf_r+0x1460>
    54f8:	03205663          	bge	x0,x18,5524 <_vfprintf_r+0x10c0>
    54fc:	0c812583          	lw	x11,200(x2)
    5500:	01260633          	add	x12,x12,x18
    5504:	01a4a023          	sw	x26,0(x9)
    5508:	00158593          	addi	x11,x11,1
    550c:	0124a223          	sw	x18,4(x9)
    5510:	0cc12623          	sw	x12,204(x2)
    5514:	0cb12423          	sw	x11,200(x2)
    5518:	00700513          	addi	x10,x0,7
    551c:	00848493          	addi	x9,x9,8
    5520:	6cb542e3          	blt	x10,x11,63e4 <_vfprintf_r+0x1f80>
    5524:	fff94593          	xori	x11,x18,-1
    5528:	01412783          	lw	x15,20(x2)
    552c:	41f5d593          	srai	x11,x11,0x1f
    5530:	00b97733          	and	x14,x18,x11
    5534:	40e78933          	sub	x18,x15,x14
    5538:	49204863          	blt	x0,x18,59c8 <_vfprintf_r+0x1564>
    553c:	01412783          	lw	x15,20(x2)
    5540:	400e7713          	andi	x14,x28,1024
    5544:	00fd0d33          	add	x26,x26,x15
    5548:	3a071ee3          	bne	x14,x0,6104 <_vfprintf_r+0x1ca0>
    554c:	0ac12903          	lw	x18,172(x2)
    5550:	01012783          	lw	x15,16(x2)
    5554:	4ef94863          	blt	x18,x15,5a44 <_vfprintf_r+0x15e0>
    5558:	001e7713          	andi	x14,x28,1
    555c:	4e071463          	bne	x14,x0,5a44 <_vfprintf_r+0x15e0>
    5560:	01012783          	lw	x15,16(x2)
    5564:	41ab0a33          	sub	x20,x22,x26
    5568:	41278933          	sub	x18,x15,x18
    556c:	01495463          	bge	x18,x20,5574 <_vfprintf_r+0x1110>
    5570:	00090a13          	addi	x20,x18,0
    5574:	03405863          	bge	x0,x20,55a4 <_vfprintf_r+0x1140>
    5578:	0c812783          	lw	x15,200(x2)
    557c:	01460633          	add	x12,x12,x20
    5580:	01a4a023          	sw	x26,0(x9)
    5584:	00178793          	addi	x15,x15,1
    5588:	0144a223          	sw	x20,4(x9)
    558c:	0cc12623          	sw	x12,204(x2)
    5590:	0cf12423          	sw	x15,200(x2)
    5594:	00700713          	addi	x14,x0,7
    5598:	00848493          	addi	x9,x9,8
    559c:	00f75463          	bge	x14,x15,55a4 <_vfprintf_r+0x1140>
    55a0:	5ec0106f          	jal	x0,6b8c <_vfprintf_r+0x2728>
    55a4:	fffa4713          	xori	x14,x20,-1
    55a8:	41f75713          	srai	x14,x14,0x1f
    55ac:	00ea77b3          	and	x15,x20,x14
    55b0:	40f90933          	sub	x18,x18,x15
    55b4:	9b205463          	bge	x0,x18,475c <_vfprintf_r+0x2f8>
    55b8:	01000713          	addi	x14,x0,16
    55bc:	0c812783          	lw	x15,200(x2)
    55c0:	0000ee97          	auipc	x29,0xe
    55c4:	104e8e93          	addi	x29,x29,260 # 136c4 <zeroes.0>
    55c8:	132758e3          	bge	x14,x18,5ef8 <_vfprintf_r+0x1a94>
    55cc:	01000a13          	addi	x20,x0,16
    55d0:	00700b93          	addi	x23,x0,7
    55d4:	000e0d13          	addi	x26,x28,0
    55d8:	000e8b13          	addi	x22,x29,0
    55dc:	00c0006f          	jal	x0,55e8 <_vfprintf_r+0x1184>
    55e0:	ff090913          	addi	x18,x18,-16
    55e4:	112a56e3          	bge	x20,x18,5ef0 <_vfprintf_r+0x1a8c>
    55e8:	01060613          	addi	x12,x12,16
    55ec:	00178793          	addi	x15,x15,1
    55f0:	0164a023          	sw	x22,0(x9)
    55f4:	0144a223          	sw	x20,4(x9)
    55f8:	0cc12623          	sw	x12,204(x2)
    55fc:	0cf12423          	sw	x15,200(x2)
    5600:	00848493          	addi	x9,x9,8
    5604:	fcfbdee3          	bge	x23,x15,55e0 <_vfprintf_r+0x117c>
    5608:	00012583          	lw	x11,0(x2)
    560c:	0c410613          	addi	x12,x2,196
    5610:	000a8513          	addi	x10,x21,0
    5614:	1bc020ef          	jal	x1,77d0 <__sprint_r>
    5618:	ca0512e3          	bne	x10,x0,52bc <_vfprintf_r+0xe58>
    561c:	0cc12603          	lw	x12,204(x2)
    5620:	0c812783          	lw	x15,200(x2)
    5624:	000c0493          	addi	x9,x24,0
    5628:	fb9ff06f          	jal	x0,55e0 <_vfprintf_r+0x117c>
    562c:	001e7593          	andi	x11,x28,1
    5630:	c0059c63          	bne	x11,x0,4a48 <_vfprintf_r+0x5e4>
    5634:	00e4a223          	sw	x14,4(x9)
    5638:	0d712623          	sw	x23,204(x2)
    563c:	0d212423          	sw	x18,200(x2)
    5640:	00700793          	addi	x15,x0,7
    5644:	cd27d463          	bge	x15,x18,4b0c <_vfprintf_r+0x6a8>
    5648:	00012583          	lw	x11,0(x2)
    564c:	0c410613          	addi	x12,x2,196
    5650:	000a8513          	addi	x10,x21,0
    5654:	01c12a23          	sw	x28,20(x2)
    5658:	178020ef          	jal	x1,77d0 <__sprint_r>
    565c:	c60510e3          	bne	x10,x0,52bc <_vfprintf_r+0xe58>
    5660:	0cc12b83          	lw	x23,204(x2)
    5664:	0c812903          	lw	x18,200(x2)
    5668:	01412e03          	lw	x28,20(x2)
    566c:	000c0a13          	addi	x20,x24,0
    5670:	c9cff06f          	jal	x0,4b0c <_vfprintf_r+0x6a8>
    5674:	01012703          	lw	x14,16(x2)
    5678:	00100793          	addi	x15,x0,1
    567c:	c8e7d863          	bge	x15,x14,4b0c <_vfprintf_r+0x6a8>
    5680:	01100793          	addi	x15,x0,17
    5684:	0000ee97          	auipc	x29,0xe
    5688:	040e8e93          	addi	x29,x29,64 # 136c4 <zeroes.0>
    568c:	18e7d6e3          	bge	x15,x14,6018 <_vfprintf_r+0x1bb4>
    5690:	00048b13          	addi	x22,x9,0
    5694:	01000793          	addi	x15,x0,16
    5698:	00700d13          	addi	x26,x0,7
    569c:	01c12a23          	sw	x28,20(x2)
    56a0:	000e8493          	addi	x9,x29,0
    56a4:	00c0006f          	jal	x0,56b0 <_vfprintf_r+0x124c>
    56a8:	ff0b0b13          	addi	x22,x22,-16
    56ac:	1767d0e3          	bge	x15,x22,600c <_vfprintf_r+0x1ba8>
    56b0:	010b8b93          	addi	x23,x23,16
    56b4:	00190913          	addi	x18,x18,1
    56b8:	009a2023          	sw	x9,0(x20)
    56bc:	00fa2223          	sw	x15,4(x20)
    56c0:	0d712623          	sw	x23,204(x2)
    56c4:	0d212423          	sw	x18,200(x2)
    56c8:	008a0a13          	addi	x20,x20,8
    56cc:	fd2d5ee3          	bge	x26,x18,56a8 <_vfprintf_r+0x1244>
    56d0:	00012583          	lw	x11,0(x2)
    56d4:	0c410613          	addi	x12,x2,196
    56d8:	000a8513          	addi	x10,x21,0
    56dc:	0f4020ef          	jal	x1,77d0 <__sprint_r>
    56e0:	bc051ee3          	bne	x10,x0,52bc <_vfprintf_r+0xe58>
    56e4:	0cc12b83          	lw	x23,204(x2)
    56e8:	0c812903          	lw	x18,200(x2)
    56ec:	000c0a13          	addi	x20,x24,0
    56f0:	01000793          	addi	x15,x0,16
    56f4:	fb5ff06f          	jal	x0,56a8 <_vfprintf_r+0x1244>
    56f8:	00c12703          	lw	x14,12(x2)
    56fc:	010e7793          	andi	x15,x28,16
    5700:	00072903          	lw	x18,0(x14)
    5704:	00470713          	addi	x14,x14,4
    5708:	00e12623          	sw	x14,12(x2)
    570c:	10079c63          	bne	x15,x0,5824 <_vfprintf_r+0x13c0>
    5710:	040e7793          	andi	x15,x28,64
    5714:	10078463          	beq	x15,x0,581c <_vfprintf_r+0x13b8>
    5718:	01091913          	slli	x18,x18,0x10
    571c:	01095913          	srli	x18,x18,0x10
    5720:	00000d93          	addi	x27,x0,0
    5724:	ed8ff06f          	jal	x0,4dfc <_vfprintf_r+0x998>
    5728:	00c12703          	lw	x14,12(x2)
    572c:	010e7793          	andi	x15,x28,16
    5730:	00072903          	lw	x18,0(x14)
    5734:	00470713          	addi	x14,x14,4
    5738:	00e12623          	sw	x14,12(x2)
    573c:	0c079a63          	bne	x15,x0,5810 <_vfprintf_r+0x13ac>
    5740:	040e7793          	andi	x15,x28,64
    5744:	0c078263          	beq	x15,x0,5808 <_vfprintf_r+0x13a4>
    5748:	01091913          	slli	x18,x18,0x10
    574c:	41095913          	srai	x18,x18,0x10
    5750:	41f95d93          	srai	x27,x18,0x1f
    5754:	000d8793          	addi	x15,x27,0
    5758:	e207d863          	bge	x15,x0,4d88 <_vfprintf_r+0x924>
    575c:	012037b3          	sltu	x15,x0,x18
    5760:	41b00db3          	sub	x27,x0,x27
    5764:	40fd8db3          	sub	x27,x27,x15
    5768:	41200933          	sub	x18,x0,x18
    576c:	000e0e93          	addi	x29,x28,0
    5770:	02d00713          	addi	x14,x0,45
    5774:	00100793          	addi	x15,x0,1
    5778:	d84ff06f          	jal	x0,4cfc <_vfprintf_r+0x898>
    577c:	00c12703          	lw	x14,12(x2)
    5780:	010ef793          	andi	x15,x29,16
    5784:	00072903          	lw	x18,0(x14)
    5788:	00470713          	addi	x14,x14,4
    578c:	00e12623          	sw	x14,12(x2)
    5790:	06079663          	bne	x15,x0,57fc <_vfprintf_r+0x1398>
    5794:	040ef793          	andi	x15,x29,64
    5798:	04078c63          	beq	x15,x0,57f0 <_vfprintf_r+0x138c>
    579c:	01091913          	slli	x18,x18,0x10
    57a0:	01095913          	srli	x18,x18,0x10
    57a4:	00000d93          	addi	x27,x0,0
    57a8:	00100793          	addi	x15,x0,1
    57ac:	d4cff06f          	jal	x0,4cf8 <_vfprintf_r+0x894>
    57b0:	00000913          	addi	x18,x0,0
    57b4:	19010d13          	addi	x26,x2,400
    57b8:	d6cff06f          	jal	x0,4d24 <_vfprintf_r+0x8c0>
    57bc:	001e7793          	andi	x15,x28,1
    57c0:	00079463          	bne	x15,x0,57c8 <_vfprintf_r+0x1364>
    57c4:	f99fe06f          	jal	x0,475c <_vfprintf_r+0x2f8>
    57c8:	f74ff06f          	jal	x0,4f3c <_vfprintf_r+0xad8>
    57cc:	000b0e13          	addi	x28,x22,0
    57d0:	d8cff06f          	jal	x0,4d5c <_vfprintf_r+0x8f8>
    57d4:	0009c883          	lbu	x17,0(x19)
    57d8:	00f12623          	sw	x15,12(x2)
    57dc:	e29fe06f          	jal	x0,4604 <_vfprintf_r+0x1a0>
    57e0:	03000793          	addi	x15,x0,48
    57e4:	18f107a3          	sb	x15,399(x2)
    57e8:	18f10d13          	addi	x26,x2,399
    57ec:	d38ff06f          	jal	x0,4d24 <_vfprintf_r+0x8c0>
    57f0:	200ef793          	andi	x15,x29,512
    57f4:	00078463          	beq	x15,x0,57fc <_vfprintf_r+0x1398>
    57f8:	0ff97913          	andi	x18,x18,255
    57fc:	00000d93          	addi	x27,x0,0
    5800:	00100793          	addi	x15,x0,1
    5804:	cf4ff06f          	jal	x0,4cf8 <_vfprintf_r+0x894>
    5808:	200e7793          	andi	x15,x28,512
    580c:	420796e3          	bne	x15,x0,6438 <_vfprintf_r+0x1fd4>
    5810:	41f95d93          	srai	x27,x18,0x1f
    5814:	000d8793          	addi	x15,x27,0
    5818:	d6cff06f          	jal	x0,4d84 <_vfprintf_r+0x920>
    581c:	200e7793          	andi	x15,x28,512
    5820:	420796e3          	bne	x15,x0,644c <_vfprintf_r+0x1fe8>
    5824:	00000d93          	addi	x27,x0,0
    5828:	dd4ff06f          	jal	x0,4dfc <_vfprintf_r+0x998>
    582c:	00c12783          	lw	x15,12(x2)
    5830:	09010513          	addi	x10,x2,144
    5834:	01112423          	sw	x17,8(x2)
    5838:	00778b93          	addi	x23,x15,7
    583c:	ff8bfb93          	andi	x23,x23,-8
    5840:	000ba583          	lw	x11,0(x23)
    5844:	004ba603          	lw	x12,4(x23)
    5848:	008b8793          	addi	x15,x23,8
    584c:	01612a23          	sw	x22,20(x2)
    5850:	00f12623          	sw	x15,12(x2)
    5854:	2cc0d0ef          	jal	x1,12b20 <__extenddftf2>
    5858:	09012583          	lw	x11,144(x2)
    585c:	09412603          	lw	x12,148(x2)
    5860:	09812683          	lw	x13,152(x2)
    5864:	09c12703          	lw	x14,156(x2)
    5868:	01412e03          	lw	x28,20(x2)
    586c:	00812883          	lw	x17,8(x2)
    5870:	898ff06f          	jal	x0,4908 <_vfprintf_r+0x4a4>
    5874:	010b7793          	andi	x15,x22,16
    5878:	72079063          	bne	x15,x0,5f98 <_vfprintf_r+0x1b34>
    587c:	040b7793          	andi	x15,x22,64
    5880:	38079ce3          	bne	x15,x0,6418 <_vfprintf_r+0x1fb4>
    5884:	200b7e13          	andi	x28,x22,512
    5888:	700e0863          	beq	x28,x0,5f98 <_vfprintf_r+0x1b34>
    588c:	00c12783          	lw	x15,12(x2)
    5890:	00412703          	lw	x14,4(x2)
    5894:	0007a783          	lw	x15,0(x15)
    5898:	00e78023          	sb	x14,0(x15)
    589c:	ddcff06f          	jal	x0,4e78 <_vfprintf_r+0xa14>
    58a0:	03412783          	lw	x15,52(x2)
    58a4:	0009c883          	lbu	x17,0(x19)
    58a8:	00079463          	bne	x15,x0,58b0 <_vfprintf_r+0x144c>
    58ac:	d59fe06f          	jal	x0,4604 <_vfprintf_r+0x1a0>
    58b0:	0007c783          	lbu	x15,0(x15)
    58b4:	00079463          	bne	x15,x0,58bc <_vfprintf_r+0x1458>
    58b8:	d4dfe06f          	jal	x0,4604 <_vfprintf_r+0x1a0>
    58bc:	400b6b13          	ori	x22,x22,1024
    58c0:	d45fe06f          	jal	x0,4604 <_vfprintf_r+0x1a0>
    58c4:	00078913          	addi	x18,x15,0
    58c8:	c3204ae3          	blt	x0,x18,54fc <_vfprintf_r+0x1098>
    58cc:	c59ff06f          	jal	x0,5524 <_vfprintf_r+0x10c0>
    58d0:	fff00a13          	addi	x20,x0,-1
    58d4:	00068993          	addi	x19,x13,0
    58d8:	d31fe06f          	jal	x0,4608 <_vfprintf_r+0x1a4>
    58dc:	0000e797          	auipc	x15,0xe
    58e0:	98c78793          	addi	x15,x15,-1652 # 13268 <__clzsi2+0x500>
    58e4:	000b0e13          	addi	x28,x22,0
    58e8:	02f12623          	sw	x15,44(x2)
    58ec:	020e7793          	andi	x15,x28,32
    58f0:	3a078463          	beq	x15,x0,5c98 <_vfprintf_r+0x1834>
    58f4:	00c12783          	lw	x15,12(x2)
    58f8:	00778b93          	addi	x23,x15,7
    58fc:	ff8bfb93          	andi	x23,x23,-8
    5900:	000ba903          	lw	x18,0(x23)
    5904:	004bad83          	lw	x27,4(x23)
    5908:	008b8793          	addi	x15,x23,8
    590c:	00f12623          	sw	x15,12(x2)
    5910:	001e7793          	andi	x15,x28,1
    5914:	00078e63          	beq	x15,x0,5930 <_vfprintf_r+0x14cc>
    5918:	01b967b3          	or	x15,x18,x27
    591c:	00078a63          	beq	x15,x0,5930 <_vfprintf_r+0x14cc>
    5920:	03000793          	addi	x15,x0,48
    5924:	0af10423          	sb	x15,168(x2)
    5928:	0b1104a3          	sb	x17,169(x2)
    592c:	002e6e13          	ori	x28,x28,2
    5930:	bffe7e93          	andi	x29,x28,-1025
    5934:	00200793          	addi	x15,x0,2
    5938:	bc0ff06f          	jal	x0,4cf8 <_vfprintf_r+0x894>
    593c:	000b0e93          	addi	x29,x22,0
    5940:	b90ff06f          	jal	x0,4cd0 <_vfprintf_r+0x86c>
    5944:	00012583          	lw	x11,0(x2)
    5948:	0c410613          	addi	x12,x2,196
    594c:	000a8513          	addi	x10,x21,0
    5950:	01c12a23          	sw	x28,20(x2)
    5954:	67d010ef          	jal	x1,77d0 <__sprint_r>
    5958:	960512e3          	bne	x10,x0,52bc <_vfprintf_r+0xe58>
    595c:	0cc12603          	lw	x12,204(x2)
    5960:	01412e03          	lw	x28,20(x2)
    5964:	000c0493          	addi	x9,x24,0
    5968:	e04ff06f          	jal	x0,4f6c <_vfprintf_r+0xb08>
    596c:	0000e797          	auipc	x15,0xe
    5970:	8e878793          	addi	x15,x15,-1816 # 13254 <__clzsi2+0x4ec>
    5974:	000b0e13          	addi	x28,x22,0
    5978:	02f12623          	sw	x15,44(x2)
    597c:	f71ff06f          	jal	x0,58ec <_vfprintf_r+0x1488>
    5980:	000b0e13          	addi	x28,x22,0
    5984:	c54ff06f          	jal	x0,4dd8 <_vfprintf_r+0x974>
    5988:	0019c883          	lbu	x17,1(x19)
    598c:	200b6b13          	ori	x22,x22,512
    5990:	00198993          	addi	x19,x19,1
    5994:	c71fe06f          	jal	x0,4604 <_vfprintf_r+0x1a0>
    5998:	0019c883          	lbu	x17,1(x19)
    599c:	020b6b13          	ori	x22,x22,32
    59a0:	00198993          	addi	x19,x19,1
    59a4:	c61fe06f          	jal	x0,4604 <_vfprintf_r+0x1a0>
    59a8:	00600793          	addi	x15,x0,6
    59ac:	000a0913          	addi	x18,x20,0
    59b0:	2747e0e3          	bltu	x15,x20,6410 <_vfprintf_r+0x1fac>
    59b4:	00090d93          	addi	x27,x18,0
    59b8:	01712623          	sw	x23,12(x2)
    59bc:	0000ed17          	auipc	x26,0xe
    59c0:	8c0d0d13          	addi	x26,x26,-1856 # 1327c <__clzsi2+0x514>
    59c4:	cb9fe06f          	jal	x0,467c <_vfprintf_r+0x218>
    59c8:	01000513          	addi	x10,x0,16
    59cc:	0c812583          	lw	x11,200(x2)
    59d0:	0000ee97          	auipc	x29,0xe
    59d4:	cf4e8e93          	addi	x29,x29,-780 # 136c4 <zeroes.0>
    59d8:	6f255063          	bge	x10,x18,60b8 <_vfprintf_r+0x1c54>
    59dc:	00048793          	addi	x15,x9,0
    59e0:	01000b93          	addi	x23,x0,16
    59e4:	00090493          	addi	x9,x18,0
    59e8:	00700a13          	addi	x20,x0,7
    59ec:	03c12823          	sw	x28,48(x2)
    59f0:	000e8913          	addi	x18,x29,0
    59f4:	00c0006f          	jal	x0,5a00 <_vfprintf_r+0x159c>
    59f8:	ff048493          	addi	x9,x9,-16
    59fc:	6a9bd663          	bge	x23,x9,60a8 <_vfprintf_r+0x1c44>
    5a00:	01060613          	addi	x12,x12,16
    5a04:	00158593          	addi	x11,x11,1
    5a08:	0127a023          	sw	x18,0(x15)
    5a0c:	0177a223          	sw	x23,4(x15)
    5a10:	0cc12623          	sw	x12,204(x2)
    5a14:	0cb12423          	sw	x11,200(x2)
    5a18:	00878793          	addi	x15,x15,8
    5a1c:	fcba5ee3          	bge	x20,x11,59f8 <_vfprintf_r+0x1594>
    5a20:	00012583          	lw	x11,0(x2)
    5a24:	0c410613          	addi	x12,x2,196
    5a28:	000a8513          	addi	x10,x21,0
    5a2c:	5a5010ef          	jal	x1,77d0 <__sprint_r>
    5a30:	880516e3          	bne	x10,x0,52bc <_vfprintf_r+0xe58>
    5a34:	0cc12603          	lw	x12,204(x2)
    5a38:	0c812583          	lw	x11,200(x2)
    5a3c:	000c0793          	addi	x15,x24,0
    5a40:	fb9ff06f          	jal	x0,59f8 <_vfprintf_r+0x1594>
    5a44:	02812703          	lw	x14,40(x2)
    5a48:	02412783          	lw	x15,36(x2)
    5a4c:	00700593          	addi	x11,x0,7
    5a50:	00e4a023          	sw	x14,0(x9)
    5a54:	0c812703          	lw	x14,200(x2)
    5a58:	00f60633          	add	x12,x12,x15
    5a5c:	00f4a223          	sw	x15,4(x9)
    5a60:	00170713          	addi	x14,x14,1
    5a64:	0cc12623          	sw	x12,204(x2)
    5a68:	0ce12423          	sw	x14,200(x2)
    5a6c:	00848493          	addi	x9,x9,8
    5a70:	aee5d8e3          	bge	x11,x14,5560 <_vfprintf_r+0x10fc>
    5a74:	00012583          	lw	x11,0(x2)
    5a78:	0c410613          	addi	x12,x2,196
    5a7c:	000a8513          	addi	x10,x21,0
    5a80:	01c12a23          	sw	x28,20(x2)
    5a84:	54d010ef          	jal	x1,77d0 <__sprint_r>
    5a88:	82051ae3          	bne	x10,x0,52bc <_vfprintf_r+0xe58>
    5a8c:	0ac12903          	lw	x18,172(x2)
    5a90:	0cc12603          	lw	x12,204(x2)
    5a94:	01412e03          	lw	x28,20(x2)
    5a98:	000c0493          	addi	x9,x24,0
    5a9c:	ac5ff06f          	jal	x0,5560 <_vfprintf_r+0x10fc>
    5aa0:	07800793          	addi	x15,x0,120
    5aa4:	03000713          	addi	x14,x0,48
    5aa8:	0ae10423          	sb	x14,168(x2)
    5aac:	0af104a3          	sb	x15,169(x2)
    5ab0:	06300713          	addi	x14,x0,99
    5ab4:	00012423          	sw	x0,8(x2)
    5ab8:	002e6e13          	ori	x28,x28,2
    5abc:	12c10d13          	addi	x26,x2,300
    5ac0:	01474463          	blt	x14,x20,5ac8 <_vfprintf_r+0x1664>
    5ac4:	ec9fe06f          	jal	x0,498c <_vfprintf_r+0x528>
    5ac8:	001a0593          	addi	x11,x20,1
    5acc:	000a8513          	addi	x10,x21,0
    5ad0:	01c12823          	sw	x28,16(x2)
    5ad4:	01112423          	sw	x17,8(x2)
    5ad8:	e29fc0ef          	jal	x1,2900 <_malloc_r>
    5adc:	00812883          	lw	x17,8(x2)
    5ae0:	01012e03          	lw	x28,16(x2)
    5ae4:	00050d13          	addi	x26,x10,0
    5ae8:	00051463          	bne	x10,x0,5af0 <_vfprintf_r+0x168c>
    5aec:	41c0106f          	jal	x0,6f08 <_vfprintf_r+0x2aa4>
    5af0:	00a12423          	sw	x10,8(x2)
    5af4:	e99fe06f          	jal	x0,498c <_vfprintf_r+0x528>
    5af8:	09010913          	addi	x18,x2,144
    5afc:	0ac10713          	addi	x14,x2,172
    5b00:	0bc10813          	addi	x16,x2,188
    5b04:	0b010793          	addi	x15,x2,176
    5b08:	000a0693          	addi	x13,x20,0
    5b0c:	00200613          	addi	x12,x0,2
    5b10:	00090593          	addi	x11,x18,0
    5b14:	000a8513          	addi	x10,x21,0
    5b18:	05c12623          	sw	x28,76(x2)
    5b1c:	05112423          	sw	x17,72(x2)
    5b20:	09e12823          	sw	x30,144(x2)
    5b24:	01e12e23          	sw	x30,28(x2)
    5b28:	09f12a23          	sw	x31,148(x2)
    5b2c:	01f12c23          	sw	x31,24(x2)
    5b30:	08512c23          	sw	x5,152(x2)
    5b34:	00512a23          	sw	x5,20(x2)
    5b38:	09d12e23          	sw	x29,156(x2)
    5b3c:	01d12823          	sw	x29,16(x2)
    5b40:	4bc010ef          	jal	x1,6ffc <_ldtoa_r>
    5b44:	04c12e03          	lw	x28,76(x2)
    5b48:	01012e83          	lw	x29,16(x2)
    5b4c:	01412283          	lw	x5,20(x2)
    5b50:	001e7713          	andi	x14,x28,1
    5b54:	01812f83          	lw	x31,24(x2)
    5b58:	01c12f03          	lw	x30,28(x2)
    5b5c:	04812883          	lw	x17,72(x2)
    5b60:	00050d13          	addi	x26,x10,0
    5b64:	140712e3          	bne	x14,x0,64a8 <_vfprintf_r+0x2044>
    5b68:	0bc12783          	lw	x15,188(x2)
    5b6c:	0ac12703          	lw	x14,172(x2)
    5b70:	40a787b3          	sub	x15,x15,x10
    5b74:	00f12823          	sw	x15,16(x2)
    5b78:	00e12a23          	sw	x14,20(x2)
    5b7c:	ffd00693          	addi	x13,x0,-3
    5b80:	00d74463          	blt	x14,x13,5b88 <_vfprintf_r+0x1724>
    5b84:	74ea58e3          	bge	x20,x14,6ad4 <_vfprintf_r+0x2670>
    5b88:	ffe88893          	addi	x17,x17,-2
    5b8c:	fff70713          	addi	x14,x14,-1
    5b90:	0ae12623          	sw	x14,172(x2)
    5b94:	0ff8f693          	andi	x13,x17,255
    5b98:	00000613          	addi	x12,x0,0
    5b9c:	0ad10a23          	sb	x13,180(x2)
    5ba0:	02b00693          	addi	x13,x0,43
    5ba4:	00075a63          	bge	x14,x0,5bb8 <_vfprintf_r+0x1754>
    5ba8:	01412783          	lw	x15,20(x2)
    5bac:	00100713          	addi	x14,x0,1
    5bb0:	02d00693          	addi	x13,x0,45
    5bb4:	40f70733          	sub	x14,x14,x15
    5bb8:	0ad10aa3          	sb	x13,181(x2)
    5bbc:	00900693          	addi	x13,x0,9
    5bc0:	00e6c463          	blt	x13,x14,5bc8 <_vfprintf_r+0x1764>
    5bc4:	11c0106f          	jal	x0,6ce0 <_vfprintf_r+0x287c>
    5bc8:	0c310813          	addi	x16,x2,195
    5bcc:	00080e93          	addi	x29,x16,0
    5bd0:	00a00613          	addi	x12,x0,10
    5bd4:	06300f13          	addi	x30,x0,99
    5bd8:	02c767b3          	rem	x15,x14,x12
    5bdc:	000e8513          	addi	x10,x29,0
    5be0:	00070693          	addi	x13,x14,0
    5be4:	fffe8e93          	addi	x29,x29,-1
    5be8:	03078793          	addi	x15,x15,48
    5bec:	fef50fa3          	sb	x15,-1(x10)
    5bf0:	02c74733          	div	x14,x14,x12
    5bf4:	fedf42e3          	blt	x30,x13,5bd8 <_vfprintf_r+0x1774>
    5bf8:	03070713          	addi	x14,x14,48
    5bfc:	ffe50693          	addi	x13,x10,-2
    5c00:	feee8fa3          	sb	x14,-1(x29)
    5c04:	0106e463          	bltu	x13,x16,5c0c <_vfprintf_r+0x17a8>
    5c08:	2d80106f          	jal	x0,6ee0 <_vfprintf_r+0x2a7c>
    5c0c:	0b610613          	addi	x12,x2,182
    5c10:	0006c783          	lbu	x15,0(x13)
    5c14:	00168693          	addi	x13,x13,1
    5c18:	00160613          	addi	x12,x12,1
    5c1c:	fef60fa3          	sb	x15,-1(x12)
    5c20:	ff0698e3          	bne	x13,x16,5c10 <_vfprintf_r+0x17ac>
    5c24:	19010793          	addi	x15,x2,400
    5c28:	40a78733          	sub	x14,x15,x10
    5c2c:	f3770793          	addi	x15,x14,-201
    5c30:	02f12c23          	sw	x15,56(x2)
    5c34:	01012783          	lw	x15,16(x2)
    5c38:	03812683          	lw	x13,56(x2)
    5c3c:	00100713          	addi	x14,x0,1
    5c40:	00d78933          	add	x18,x15,x13
    5c44:	00f74463          	blt	x14,x15,5c4c <_vfprintf_r+0x17e8>
    5c48:	0d40106f          	jal	x0,6d1c <_vfprintf_r+0x28b8>
    5c4c:	02412783          	lw	x15,36(x2)
    5c50:	00f90933          	add	x18,x18,x15
    5c54:	fff94693          	xori	x13,x18,-1
    5c58:	bffe7e13          	andi	x28,x28,-1025
    5c5c:	41f6d693          	srai	x13,x13,0x1f
    5c60:	100e6793          	ori	x15,x28,256
    5c64:	04f12023          	sw	x15,64(x2)
    5c68:	00d97db3          	and	x27,x18,x13
    5c6c:	00012e23          	sw	x0,28(x2)
    5c70:	00012c23          	sw	x0,24(x2)
    5c74:	00012a23          	sw	x0,20(x2)
    5c78:	03012783          	lw	x15,48(x2)
    5c7c:	640780e3          	beq	x15,x0,6abc <_vfprintf_r+0x2658>
    5c80:	02d00713          	addi	x14,x0,45
    5c84:	04012e03          	lw	x28,64(x2)
    5c88:	0ae103a3          	sb	x14,167(x2)
    5c8c:	00000a13          	addi	x20,x0,0
    5c90:	001d8d93          	addi	x27,x27,1
    5c94:	9fdfe06f          	jal	x0,4690 <_vfprintf_r+0x22c>
    5c98:	00c12703          	lw	x14,12(x2)
    5c9c:	010e7793          	andi	x15,x28,16
    5ca0:	00072903          	lw	x18,0(x14)
    5ca4:	00470713          	addi	x14,x14,4
    5ca8:	00e12623          	sw	x14,12(x2)
    5cac:	06079e63          	bne	x15,x0,5d28 <_vfprintf_r+0x18c4>
    5cb0:	040e7793          	andi	x15,x28,64
    5cb4:	06078663          	beq	x15,x0,5d20 <_vfprintf_r+0x18bc>
    5cb8:	01091913          	slli	x18,x18,0x10
    5cbc:	01095913          	srli	x18,x18,0x10
    5cc0:	00000d93          	addi	x27,x0,0
    5cc4:	c4dff06f          	jal	x0,5910 <_vfprintf_r+0x14ac>
    5cc8:	00012583          	lw	x11,0(x2)
    5ccc:	0c410613          	addi	x12,x2,196
    5cd0:	000a8513          	addi	x10,x21,0
    5cd4:	01c12a23          	sw	x28,20(x2)
    5cd8:	2f9010ef          	jal	x1,77d0 <__sprint_r>
    5cdc:	de051063          	bne	x10,x0,52bc <_vfprintf_r+0xe58>
    5ce0:	0cc12b83          	lw	x23,204(x2)
    5ce4:	0c812903          	lw	x18,200(x2)
    5ce8:	01412e03          	lw	x28,20(x2)
    5cec:	000c0a13          	addi	x20,x24,0
    5cf0:	d75fe06f          	jal	x0,4a64 <_vfprintf_r+0x600>
    5cf4:	00012583          	lw	x11,0(x2)
    5cf8:	0c410613          	addi	x12,x2,196
    5cfc:	000a8513          	addi	x10,x21,0
    5d00:	01c12a23          	sw	x28,20(x2)
    5d04:	2cd010ef          	jal	x1,77d0 <__sprint_r>
    5d08:	da051a63          	bne	x10,x0,52bc <_vfprintf_r+0xe58>
    5d0c:	0cc12b83          	lw	x23,204(x2)
    5d10:	0c812903          	lw	x18,200(x2)
    5d14:	01412e03          	lw	x28,20(x2)
    5d18:	000c0a13          	addi	x20,x24,0
    5d1c:	d79fe06f          	jal	x0,4a94 <_vfprintf_r+0x630>
    5d20:	200e7793          	andi	x15,x28,512
    5d24:	70079463          	bne	x15,x0,642c <_vfprintf_r+0x1fc8>
    5d28:	00000d93          	addi	x27,x0,0
    5d2c:	be5ff06f          	jal	x0,5910 <_vfprintf_r+0x14ac>
    5d30:	ccccd837          	lui	x16,0xccccd
    5d34:	ccccdbb7          	lui	x23,0xccccd
    5d38:	03412703          	lw	x14,52(x2)
    5d3c:	400eff13          	andi	x30,x29,1024
    5d40:	00000613          	addi	x12,x0,0
    5d44:	19010593          	addi	x11,x2,400
    5d48:	00500e13          	addi	x28,x0,5
    5d4c:	ccd80813          	addi	x16,x16,-819 # cccccccd <__heap_end+0xcc8ccccd>
    5d50:	cccb8b93          	addi	x23,x23,-820 # cccccccc <__heap_end+0xcc8ccccc>
    5d54:	0ff00b13          	addi	x22,x0,255
    5d58:	0540006f          	jal	x0,5dac <_vfprintf_r+0x1948>
    5d5c:	012d37b3          	sltu	x15,x26,x18
    5d60:	00fd07b3          	add	x15,x26,x15
    5d64:	03c7f7b3          	remu	x15,x15,x28
    5d68:	40f907b3          	sub	x15,x18,x15
    5d6c:	00f935b3          	sltu	x11,x18,x15
    5d70:	40bd85b3          	sub	x11,x27,x11
    5d74:	03778333          	mul	x6,x15,x23
    5d78:	030585b3          	mul	x11,x11,x16
    5d7c:	0307b533          	mulhu	x10,x15,x16
    5d80:	006585b3          	add	x11,x11,x6
    5d84:	030787b3          	mul	x15,x15,x16
    5d88:	00a585b3          	add	x11,x11,x10
    5d8c:	01f59513          	slli	x10,x11,0x1f
    5d90:	0015d593          	srli	x11,x11,0x1
    5d94:	0017d793          	srli	x15,x15,0x1
    5d98:	00f567b3          	or	x15,x10,x15
    5d9c:	5a0d84e3          	beq	x27,x0,6b44 <_vfprintf_r+0x26e0>
    5da0:	00058d93          	addi	x27,x11,0
    5da4:	00078913          	addi	x18,x15,0
    5da8:	00068593          	addi	x11,x13,0
    5dac:	01b90d33          	add	x26,x18,x27
    5db0:	012d37b3          	sltu	x15,x26,x18
    5db4:	00fd07b3          	add	x15,x26,x15
    5db8:	03c7f7b3          	remu	x15,x15,x28
    5dbc:	fff58693          	addi	x13,x11,-1
    5dc0:	00160613          	addi	x12,x12,1
    5dc4:	40f907b3          	sub	x15,x18,x15
    5dc8:	00f93533          	sltu	x10,x18,x15
    5dcc:	40ad8533          	sub	x10,x27,x10
    5dd0:	0307b333          	mulhu	x6,x15,x16
    5dd4:	03050533          	mul	x10,x10,x16
    5dd8:	030787b3          	mul	x15,x15,x16
    5ddc:	00650533          	add	x10,x10,x6
    5de0:	01f51513          	slli	x10,x10,0x1f
    5de4:	0017d793          	srli	x15,x15,0x1
    5de8:	00f567b3          	or	x15,x10,x15
    5dec:	00279513          	slli	x10,x15,0x2
    5df0:	00f507b3          	add	x15,x10,x15
    5df4:	00179793          	slli	x15,x15,0x1
    5df8:	40f907b3          	sub	x15,x18,x15
    5dfc:	03078793          	addi	x15,x15,48
    5e00:	fef58fa3          	sb	x15,-1(x11)
    5e04:	f40f0ce3          	beq	x30,x0,5d5c <_vfprintf_r+0x18f8>
    5e08:	00074783          	lbu	x15,0(x14)
    5e0c:	f4f618e3          	bne	x12,x15,5d5c <_vfprintf_r+0x18f8>
    5e10:	f56606e3          	beq	x12,x22,5d5c <_vfprintf_r+0x18f8>
    5e14:	4e0d9663          	bne	x27,x0,6300 <_vfprintf_r+0x1e9c>
    5e18:	00900793          	addi	x15,x0,9
    5e1c:	4f27e263          	bltu	x15,x18,6300 <_vfprintf_r+0x1e9c>
    5e20:	00068d13          	addi	x26,x13,0
    5e24:	19010793          	addi	x15,x2,400
    5e28:	00c12823          	sw	x12,16(x2)
    5e2c:	02e12a23          	sw	x14,52(x2)
    5e30:	41a78933          	sub	x18,x15,x26
    5e34:	000e8e13          	addi	x28,x29,0
    5e38:	eedfe06f          	jal	x0,4d24 <_vfprintf_r+0x8c0>
    5e3c:	0c812703          	lw	x14,200(x2)
    5e40:	0000d517          	auipc	x10,0xd
    5e44:	44450513          	addi	x10,x10,1092 # 13284 <__clzsi2+0x51c>
    5e48:	00a4a023          	sw	x10,0(x9)
    5e4c:	00160613          	addi	x12,x12,1
    5e50:	00100513          	addi	x10,x0,1
    5e54:	00170713          	addi	x14,x14,1
    5e58:	00a4a223          	sw	x10,4(x9)
    5e5c:	0cc12623          	sw	x12,204(x2)
    5e60:	0ce12423          	sw	x14,200(x2)
    5e64:	00700513          	addi	x10,x0,7
    5e68:	00848493          	addi	x9,x9,8
    5e6c:	54e54463          	blt	x10,x14,63b4 <_vfprintf_r+0x1f50>
    5e70:	12059e63          	bne	x11,x0,5fac <_vfprintf_r+0x1b48>
    5e74:	01012783          	lw	x15,16(x2)
    5e78:	001e7713          	andi	x14,x28,1
    5e7c:	00f76733          	or	x14,x14,x15
    5e80:	00071463          	bne	x14,x0,5e88 <_vfprintf_r+0x1a24>
    5e84:	8d9fe06f          	jal	x0,475c <_vfprintf_r+0x2f8>
    5e88:	02812703          	lw	x14,40(x2)
    5e8c:	02412783          	lw	x15,36(x2)
    5e90:	00700593          	addi	x11,x0,7
    5e94:	00e4a023          	sw	x14,0(x9)
    5e98:	0c812703          	lw	x14,200(x2)
    5e9c:	00c78633          	add	x12,x15,x12
    5ea0:	00f4a223          	sw	x15,4(x9)
    5ea4:	00170713          	addi	x14,x14,1
    5ea8:	0cc12623          	sw	x12,204(x2)
    5eac:	0ce12423          	sw	x14,200(x2)
    5eb0:	5ce5c263          	blt	x11,x14,6474 <_vfprintf_r+0x2010>
    5eb4:	00848493          	addi	x9,x9,8
    5eb8:	1280006f          	jal	x0,5fe0 <_vfprintf_r+0x1b7c>
    5ebc:	02012503          	lw	x10,32(x2)
    5ec0:	bc0fc0ef          	jal	x1,2280 <__sinit>
    5ec4:	dfcfe06f          	jal	x0,44c0 <_vfprintf_r+0x5c>
    5ec8:	00012583          	lw	x11,0(x2)
    5ecc:	0c410613          	addi	x12,x2,196
    5ed0:	000a8513          	addi	x10,x21,0
    5ed4:	01c12a23          	sw	x28,20(x2)
    5ed8:	0f9010ef          	jal	x1,77d0 <__sprint_r>
    5edc:	be051063          	bne	x10,x0,52bc <_vfprintf_r+0xe58>
    5ee0:	0cc12603          	lw	x12,204(x2)
    5ee4:	01412e03          	lw	x28,20(x2)
    5ee8:	000c0493          	addi	x9,x24,0
    5eec:	844ff06f          	jal	x0,4f30 <_vfprintf_r+0xacc>
    5ef0:	000d0e13          	addi	x28,x26,0
    5ef4:	000b0e93          	addi	x29,x22,0
    5ef8:	01260633          	add	x12,x12,x18
    5efc:	00178793          	addi	x15,x15,1
    5f00:	01d4a023          	sw	x29,0(x9)
    5f04:	841fe06f          	jal	x0,4744 <_vfprintf_r+0x2e0>
    5f08:	0d012783          	lw	x15,208(x2)
    5f0c:	08010593          	addi	x11,x2,128
    5f10:	09010513          	addi	x10,x2,144
    5f14:	08f12823          	sw	x15,144(x2)
    5f18:	0d412783          	lw	x15,212(x2)
    5f1c:	08012023          	sw	x0,128(x2)
    5f20:	08012223          	sw	x0,132(x2)
    5f24:	08f12a23          	sw	x15,148(x2)
    5f28:	0d812783          	lw	x15,216(x2)
    5f2c:	08012423          	sw	x0,136(x2)
    5f30:	08012623          	sw	x0,140(x2)
    5f34:	08f12c23          	sw	x15,152(x2)
    5f38:	0dc12783          	lw	x15,220(x2)
    5f3c:	08f12e23          	sw	x15,156(x2)
    5f40:	5fd090ef          	jal	x1,fd3c <__letf2>
    5f44:	00812883          	lw	x17,8(x2)
    5f48:	01412e03          	lw	x28,20(x2)
    5f4c:	400542e3          	blt	x10,x0,6b50 <_vfprintf_r+0x26ec>
    5f50:	0a714703          	lbu	x14,167(x2)
    5f54:	04700693          	addi	x13,x0,71
    5f58:	0000dd17          	auipc	x26,0xd
    5f5c:	2f0d0d13          	addi	x26,x26,752 # 13248 <__clzsi2+0x4e0>
    5f60:	0116c663          	blt	x13,x17,5f6c <_vfprintf_r+0x1b08>
    5f64:	0000dd17          	auipc	x26,0xd
    5f68:	2e0d0d13          	addi	x26,x26,736 # 13244 <__clzsi2+0x4dc>
    5f6c:	00012423          	sw	x0,8(x2)
    5f70:	00012e23          	sw	x0,28(x2)
    5f74:	00012c23          	sw	x0,24(x2)
    5f78:	00012a23          	sw	x0,20(x2)
    5f7c:	f7fe7e13          	andi	x28,x28,-129
    5f80:	00300d93          	addi	x27,x0,3
    5f84:	00300913          	addi	x18,x0,3
    5f88:	00000a13          	addi	x20,x0,0
    5f8c:	00070463          	beq	x14,x0,5f94 <_vfprintf_r+0x1b30>
    5f90:	c7dfe06f          	jal	x0,4c0c <_vfprintf_r+0x7a8>
    5f94:	efcfe06f          	jal	x0,4690 <_vfprintf_r+0x22c>
    5f98:	00c12783          	lw	x15,12(x2)
    5f9c:	00412703          	lw	x14,4(x2)
    5fa0:	0007a783          	lw	x15,0(x15)
    5fa4:	00e7a023          	sw	x14,0(x15)
    5fa8:	ed1fe06f          	jal	x0,4e78 <_vfprintf_r+0xa14>
    5fac:	02812703          	lw	x14,40(x2)
    5fb0:	02412783          	lw	x15,36(x2)
    5fb4:	00700513          	addi	x10,x0,7
    5fb8:	00e4a023          	sw	x14,0(x9)
    5fbc:	0c812703          	lw	x14,200(x2)
    5fc0:	00c78633          	add	x12,x15,x12
    5fc4:	00f4a223          	sw	x15,4(x9)
    5fc8:	00170713          	addi	x14,x14,1
    5fcc:	0cc12623          	sw	x12,204(x2)
    5fd0:	0ce12423          	sw	x14,200(x2)
    5fd4:	00848493          	addi	x9,x9,8
    5fd8:	48e54e63          	blt	x10,x14,6474 <_vfprintf_r+0x2010>
    5fdc:	4205c6e3          	blt	x11,x0,6c08 <_vfprintf_r+0x27a4>
    5fe0:	01012783          	lw	x15,16(x2)
    5fe4:	00170713          	addi	x14,x14,1
    5fe8:	01a4a023          	sw	x26,0(x9)
    5fec:	00c78633          	add	x12,x15,x12
    5ff0:	00f4a223          	sw	x15,4(x9)
    5ff4:	0cc12623          	sw	x12,204(x2)
    5ff8:	0ce12423          	sw	x14,200(x2)
    5ffc:	00700793          	addi	x15,x0,7
    6000:	00e7c463          	blt	x15,x14,6008 <_vfprintf_r+0x1ba4>
    6004:	f54fe06f          	jal	x0,4758 <_vfprintf_r+0x2f4>
    6008:	b31fe06f          	jal	x0,4b38 <_vfprintf_r+0x6d4>
    600c:	01412e03          	lw	x28,20(x2)
    6010:	00048e93          	addi	x29,x9,0
    6014:	000b0493          	addi	x9,x22,0
    6018:	009b8bb3          	add	x23,x23,x9
    601c:	00190913          	addi	x18,x18,1
    6020:	01da2023          	sw	x29,0(x20)
    6024:	ad1fe06f          	jal	x0,4af4 <_vfprintf_r+0x690>
    6028:	000d0513          	addi	x10,x26,0
    602c:	03112823          	sw	x17,48(x2)
    6030:	05612023          	sw	x22,64(x2)
    6034:	d2cfd0ef          	jal	x1,3560 <strlen>
    6038:	0a714703          	lbu	x14,167(x2)
    603c:	fff54693          	xori	x13,x10,-1
    6040:	41f6d693          	srai	x13,x13,0x1f
    6044:	01712623          	sw	x23,12(x2)
    6048:	00012423          	sw	x0,8(x2)
    604c:	00012e23          	sw	x0,28(x2)
    6050:	00012c23          	sw	x0,24(x2)
    6054:	00012a23          	sw	x0,20(x2)
    6058:	03012883          	lw	x17,48(x2)
    605c:	04012e03          	lw	x28,64(x2)
    6060:	00050913          	addi	x18,x10,0
    6064:	00d57db3          	and	x27,x10,x13
    6068:	00000a13          	addi	x20,x0,0
    606c:	00070463          	beq	x14,x0,6074 <_vfprintf_r+0x1c10>
    6070:	b9dfe06f          	jal	x0,4c0c <_vfprintf_r+0x7a8>
    6074:	e1cfe06f          	jal	x0,4690 <_vfprintf_r+0x22c>
    6078:	0dc12783          	lw	x15,220(x2)
    607c:	3c07de63          	bge	x15,x0,6458 <_vfprintf_r+0x1ff4>
    6080:	02d00793          	addi	x15,x0,45
    6084:	0af103a3          	sb	x15,167(x2)
    6088:	02d00713          	addi	x14,x0,45
    608c:	04700693          	addi	x13,x0,71
    6090:	0000dd17          	auipc	x26,0xd
    6094:	1c0d0d13          	addi	x26,x26,448 # 13250 <__clzsi2+0x4e8>
    6098:	ed16cae3          	blt	x13,x17,5f6c <_vfprintf_r+0x1b08>
    609c:	0000dd17          	auipc	x26,0xd
    60a0:	1b0d0d13          	addi	x26,x26,432 # 1324c <__clzsi2+0x4e4>
    60a4:	ec9ff06f          	jal	x0,5f6c <_vfprintf_r+0x1b08>
    60a8:	03012e03          	lw	x28,48(x2)
    60ac:	00090e93          	addi	x29,x18,0
    60b0:	00048913          	addi	x18,x9,0
    60b4:	00078493          	addi	x9,x15,0
    60b8:	01260633          	add	x12,x12,x18
    60bc:	00158593          	addi	x11,x11,1
    60c0:	01d4a023          	sw	x29,0(x9)
    60c4:	0124a223          	sw	x18,4(x9)
    60c8:	0cc12623          	sw	x12,204(x2)
    60cc:	0cb12423          	sw	x11,200(x2)
    60d0:	00700713          	addi	x14,x0,7
    60d4:	00848493          	addi	x9,x9,8
    60d8:	c6b75263          	bge	x14,x11,553c <_vfprintf_r+0x10d8>
    60dc:	00012583          	lw	x11,0(x2)
    60e0:	0c410613          	addi	x12,x2,196
    60e4:	000a8513          	addi	x10,x21,0
    60e8:	03c12823          	sw	x28,48(x2)
    60ec:	6e4010ef          	jal	x1,77d0 <__sprint_r>
    60f0:	9c051663          	bne	x10,x0,52bc <_vfprintf_r+0xe58>
    60f4:	0cc12603          	lw	x12,204(x2)
    60f8:	03012e03          	lw	x28,48(x2)
    60fc:	000c0493          	addi	x9,x24,0
    6100:	c3cff06f          	jal	x0,553c <_vfprintf_r+0x10d8>
    6104:	00048693          	addi	x13,x9,0
    6108:	01812483          	lw	x9,24(x2)
    610c:	03312823          	sw	x19,48(x2)
    6110:	05912423          	sw	x25,72(x2)
    6114:	01b12c23          	sw	x27,24(x2)
    6118:	05c12023          	sw	x28,64(x2)
    611c:	000d0d93          	addi	x27,x26,0
    6120:	04412c83          	lw	x25,68(x2)
    6124:	01c12983          	lw	x19,28(x2)
    6128:	03412d03          	lw	x26,52(x2)
    612c:	00700893          	addi	x17,x0,7
    6130:	01000a13          	addi	x20,x0,16
    6134:	0000db97          	auipc	x23,0xd
    6138:	590b8b93          	addi	x23,x23,1424 # 136c4 <zeroes.0>
    613c:	08905663          	bge	x0,x9,61c8 <_vfprintf_r+0x1d64>
    6140:	17305063          	bge	x0,x19,62a0 <_vfprintf_r+0x1e3c>
    6144:	fff98993          	addi	x19,x19,-1
    6148:	03c12783          	lw	x15,60(x2)
    614c:	01960633          	add	x12,x12,x25
    6150:	0196a223          	sw	x25,4(x13)
    6154:	00f6a023          	sw	x15,0(x13)
    6158:	0c812783          	lw	x15,200(x2)
    615c:	0cc12623          	sw	x12,204(x2)
    6160:	00868693          	addi	x13,x13,8
    6164:	00178793          	addi	x15,x15,1
    6168:	0cf12423          	sw	x15,200(x2)
    616c:	14f8c063          	blt	x17,x15,62ac <_vfprintf_r+0x1e48>
    6170:	000d4703          	lbu	x14,0(x26)
    6174:	41bb0933          	sub	x18,x22,x27
    6178:	01275463          	bge	x14,x18,6180 <_vfprintf_r+0x1d1c>
    617c:	00070913          	addi	x18,x14,0
    6180:	03205663          	bge	x0,x18,61ac <_vfprintf_r+0x1d48>
    6184:	0c812703          	lw	x14,200(x2)
    6188:	01260633          	add	x12,x12,x18
    618c:	01b6a023          	sw	x27,0(x13)
    6190:	00170713          	addi	x14,x14,1
    6194:	0126a223          	sw	x18,4(x13)
    6198:	0cc12623          	sw	x12,204(x2)
    619c:	0ce12423          	sw	x14,200(x2)
    61a0:	12e8ca63          	blt	x17,x14,62d4 <_vfprintf_r+0x1e70>
    61a4:	000d4703          	lbu	x14,0(x26)
    61a8:	00868693          	addi	x13,x13,8
    61ac:	fff94593          	xori	x11,x18,-1
    61b0:	41f5d593          	srai	x11,x11,0x1f
    61b4:	00b977b3          	and	x15,x18,x11
    61b8:	40f70933          	sub	x18,x14,x15
    61bc:	03204c63          	blt	x0,x18,61f4 <_vfprintf_r+0x1d90>
    61c0:	00ed8db3          	add	x27,x27,x14
    61c4:	f6904ee3          	blt	x0,x9,6140 <_vfprintf_r+0x1cdc>
    61c8:	f7304ee3          	blt	x0,x19,6144 <_vfprintf_r+0x1ce0>
    61cc:	03a12a23          	sw	x26,52(x2)
    61d0:	000d8d13          	addi	x26,x27,0
    61d4:	03012983          	lw	x19,48(x2)
    61d8:	04012e03          	lw	x28,64(x2)
    61dc:	04812c83          	lw	x25,72(x2)
    61e0:	01812d83          	lw	x27,24(x2)
    61e4:	00068493          	addi	x9,x13,0
    61e8:	b7ab7263          	bgeu	x22,x26,554c <_vfprintf_r+0x10e8>
    61ec:	000b0d13          	addi	x26,x22,0
    61f0:	b5cff06f          	jal	x0,554c <_vfprintf_r+0x10e8>
    61f4:	0c812703          	lw	x14,200(x2)
    61f8:	0000d597          	auipc	x11,0xd
    61fc:	4cc58593          	addi	x11,x11,1228 # 136c4 <zeroes.0>
    6200:	072a5a63          	bge	x20,x18,6274 <_vfprintf_r+0x1e10>
    6204:	00912a23          	sw	x9,20(x2)
    6208:	00090493          	addi	x9,x18,0
    620c:	000b8913          	addi	x18,x23,0
    6210:	00c0006f          	jal	x0,621c <_vfprintf_r+0x1db8>
    6214:	ff048493          	addi	x9,x9,-16
    6218:	049a5863          	bge	x20,x9,6268 <_vfprintf_r+0x1e04>
    621c:	01060613          	addi	x12,x12,16
    6220:	00170713          	addi	x14,x14,1
    6224:	0176a023          	sw	x23,0(x13)
    6228:	0146a223          	sw	x20,4(x13)
    622c:	0cc12623          	sw	x12,204(x2)
    6230:	0ce12423          	sw	x14,200(x2)
    6234:	00868693          	addi	x13,x13,8
    6238:	fce8dee3          	bge	x17,x14,6214 <_vfprintf_r+0x1db0>
    623c:	00012583          	lw	x11,0(x2)
    6240:	0c410613          	addi	x12,x2,196
    6244:	000a8513          	addi	x10,x21,0
    6248:	588010ef          	jal	x1,77d0 <__sprint_r>
    624c:	86051863          	bne	x10,x0,52bc <_vfprintf_r+0xe58>
    6250:	ff048493          	addi	x9,x9,-16
    6254:	0cc12603          	lw	x12,204(x2)
    6258:	0c812703          	lw	x14,200(x2)
    625c:	000c0693          	addi	x13,x24,0
    6260:	00700893          	addi	x17,x0,7
    6264:	fa9a4ce3          	blt	x20,x9,621c <_vfprintf_r+0x1db8>
    6268:	00090593          	addi	x11,x18,0
    626c:	00048913          	addi	x18,x9,0
    6270:	01412483          	lw	x9,20(x2)
    6274:	01260633          	add	x12,x12,x18
    6278:	00170713          	addi	x14,x14,1
    627c:	00b6a023          	sw	x11,0(x13)
    6280:	0126a223          	sw	x18,4(x13)
    6284:	0cc12623          	sw	x12,204(x2)
    6288:	0ce12423          	sw	x14,200(x2)
    628c:	08e8c4e3          	blt	x17,x14,6b14 <_vfprintf_r+0x26b0>
    6290:	000d4703          	lbu	x14,0(x26)
    6294:	00868693          	addi	x13,x13,8
    6298:	00ed8db3          	add	x27,x27,x14
    629c:	f29ff06f          	jal	x0,61c4 <_vfprintf_r+0x1d60>
    62a0:	fffd0d13          	addi	x26,x26,-1
    62a4:	fff48493          	addi	x9,x9,-1
    62a8:	ea1ff06f          	jal	x0,6148 <_vfprintf_r+0x1ce4>
    62ac:	00012583          	lw	x11,0(x2)
    62b0:	0c410613          	addi	x12,x2,196
    62b4:	000a8513          	addi	x10,x21,0
    62b8:	518010ef          	jal	x1,77d0 <__sprint_r>
    62bc:	00050463          	beq	x10,x0,62c4 <_vfprintf_r+0x1e60>
    62c0:	ffdfe06f          	jal	x0,52bc <_vfprintf_r+0xe58>
    62c4:	0cc12603          	lw	x12,204(x2)
    62c8:	000c0693          	addi	x13,x24,0
    62cc:	00700893          	addi	x17,x0,7
    62d0:	ea1ff06f          	jal	x0,6170 <_vfprintf_r+0x1d0c>
    62d4:	00012583          	lw	x11,0(x2)
    62d8:	0c410613          	addi	x12,x2,196
    62dc:	000a8513          	addi	x10,x21,0
    62e0:	4f0010ef          	jal	x1,77d0 <__sprint_r>
    62e4:	00050463          	beq	x10,x0,62ec <_vfprintf_r+0x1e88>
    62e8:	fd5fe06f          	jal	x0,52bc <_vfprintf_r+0xe58>
    62ec:	000d4703          	lbu	x14,0(x26)
    62f0:	0cc12603          	lw	x12,204(x2)
    62f4:	000c0693          	addi	x13,x24,0
    62f8:	00700893          	addi	x17,x0,7
    62fc:	eb1ff06f          	jal	x0,61ac <_vfprintf_r+0x1d48>
    6300:	04412783          	lw	x15,68(x2)
    6304:	03c12583          	lw	x11,60(x2)
    6308:	03012823          	sw	x16,48(x2)
    630c:	40f686b3          	sub	x13,x13,x15
    6310:	00078613          	addi	x12,x15,0
    6314:	00068513          	addi	x10,x13,0
    6318:	01e12e23          	sw	x30,28(x2)
    631c:	01d12c23          	sw	x29,24(x2)
    6320:	01112a23          	sw	x17,20(x2)
    6324:	00e12823          	sw	x14,16(x2)
    6328:	00d12423          	sw	x13,8(x2)
    632c:	045040ef          	jal	x1,ab70 <strncpy>
    6330:	012d37b3          	sltu	x15,x26,x18
    6334:	00500613          	addi	x12,x0,5
    6338:	00fd07b3          	add	x15,x26,x15
    633c:	02c7f7b3          	remu	x15,x15,x12
    6340:	01012703          	lw	x14,16(x2)
    6344:	ccccd337          	lui	x6,0xccccd
    6348:	ccccd537          	lui	x10,0xccccd
    634c:	00174583          	lbu	x11,1(x14)
    6350:	ccd30313          	addi	x6,x6,-819 # cccccccd <__heap_end+0xcc8ccccd>
    6354:	ccc50513          	addi	x10,x10,-820 # cccccccc <__heap_end+0xcc8ccccc>
    6358:	00b035b3          	sltu	x11,x0,x11
    635c:	00b70733          	add	x14,x14,x11
    6360:	00812683          	lw	x13,8(x2)
    6364:	01412883          	lw	x17,20(x2)
    6368:	01812e83          	lw	x29,24(x2)
    636c:	01c12f03          	lw	x30,28(x2)
    6370:	03012803          	lw	x16,48(x2)
    6374:	00000613          	addi	x12,x0,0
    6378:	00500e13          	addi	x28,x0,5
    637c:	40f907b3          	sub	x15,x18,x15
    6380:	00f935b3          	sltu	x11,x18,x15
    6384:	40bd85b3          	sub	x11,x27,x11
    6388:	02a78533          	mul	x10,x15,x10
    638c:	026585b3          	mul	x11,x11,x6
    6390:	0267bfb3          	mulhu	x31,x15,x6
    6394:	00a585b3          	add	x11,x11,x10
    6398:	02678533          	mul	x10,x15,x6
    639c:	01f585b3          	add	x11,x11,x31
    63a0:	01f59793          	slli	x15,x11,0x1f
    63a4:	0015d593          	srli	x11,x11,0x1
    63a8:	00155513          	srli	x10,x10,0x1
    63ac:	00a7e7b3          	or	x15,x15,x10
    63b0:	9f1ff06f          	jal	x0,5da0 <_vfprintf_r+0x193c>
    63b4:	00012583          	lw	x11,0(x2)
    63b8:	0c410613          	addi	x12,x2,196
    63bc:	000a8513          	addi	x10,x21,0
    63c0:	01c12a23          	sw	x28,20(x2)
    63c4:	40c010ef          	jal	x1,77d0 <__sprint_r>
    63c8:	00050463          	beq	x10,x0,63d0 <_vfprintf_r+0x1f6c>
    63cc:	ef1fe06f          	jal	x0,52bc <_vfprintf_r+0xe58>
    63d0:	0ac12583          	lw	x11,172(x2)
    63d4:	0cc12603          	lw	x12,204(x2)
    63d8:	01412e03          	lw	x28,20(x2)
    63dc:	000c0493          	addi	x9,x24,0
    63e0:	a91ff06f          	jal	x0,5e70 <_vfprintf_r+0x1a0c>
    63e4:	00012583          	lw	x11,0(x2)
    63e8:	0c410613          	addi	x12,x2,196
    63ec:	000a8513          	addi	x10,x21,0
    63f0:	03c12823          	sw	x28,48(x2)
    63f4:	3dc010ef          	jal	x1,77d0 <__sprint_r>
    63f8:	00050463          	beq	x10,x0,6400 <_vfprintf_r+0x1f9c>
    63fc:	ec1fe06f          	jal	x0,52bc <_vfprintf_r+0xe58>
    6400:	0cc12603          	lw	x12,204(x2)
    6404:	03012e03          	lw	x28,48(x2)
    6408:	000c0493          	addi	x9,x24,0
    640c:	918ff06f          	jal	x0,5524 <_vfprintf_r+0x10c0>
    6410:	00600913          	addi	x18,x0,6
    6414:	da0ff06f          	jal	x0,59b4 <_vfprintf_r+0x1550>
    6418:	00c12783          	lw	x15,12(x2)
    641c:	00412703          	lw	x14,4(x2)
    6420:	0007a783          	lw	x15,0(x15)
    6424:	00e79023          	sh	x14,0(x15)
    6428:	a51fe06f          	jal	x0,4e78 <_vfprintf_r+0xa14>
    642c:	0ff97913          	andi	x18,x18,255
    6430:	00000d93          	addi	x27,x0,0
    6434:	cdcff06f          	jal	x0,5910 <_vfprintf_r+0x14ac>
    6438:	01891913          	slli	x18,x18,0x18
    643c:	41895913          	srai	x18,x18,0x18
    6440:	41f95d93          	srai	x27,x18,0x1f
    6444:	000d8793          	addi	x15,x27,0
    6448:	93dfe06f          	jal	x0,4d84 <_vfprintf_r+0x920>
    644c:	0ff97913          	andi	x18,x18,255
    6450:	00000d93          	addi	x27,x0,0
    6454:	9a9fe06f          	jal	x0,4dfc <_vfprintf_r+0x998>
    6458:	0a714703          	lbu	x14,167(x2)
    645c:	c31ff06f          	jal	x0,608c <_vfprintf_r+0x1c28>
    6460:	00012583          	lw	x11,0(x2)
    6464:	02012503          	lw	x10,32(x2)
    6468:	0c410613          	addi	x12,x2,196
    646c:	364010ef          	jal	x1,77d0 <__sprint_r>
    6470:	b4cfe06f          	jal	x0,47bc <_vfprintf_r+0x358>
    6474:	00012583          	lw	x11,0(x2)
    6478:	0c410613          	addi	x12,x2,196
    647c:	000a8513          	addi	x10,x21,0
    6480:	01c12a23          	sw	x28,20(x2)
    6484:	34c010ef          	jal	x1,77d0 <__sprint_r>
    6488:	00050463          	beq	x10,x0,6490 <_vfprintf_r+0x202c>
    648c:	e31fe06f          	jal	x0,52bc <_vfprintf_r+0xe58>
    6490:	0ac12583          	lw	x11,172(x2)
    6494:	0cc12603          	lw	x12,204(x2)
    6498:	0c812703          	lw	x14,200(x2)
    649c:	01412e03          	lw	x28,20(x2)
    64a0:	000c0493          	addi	x9,x24,0
    64a4:	b39ff06f          	jal	x0,5fdc <_vfprintf_r+0x1b78>
    64a8:	014506b3          	add	x13,x10,x20
    64ac:	08010593          	addi	x11,x2,128
    64b0:	00090513          	addi	x10,x18,0
    64b4:	01c12c23          	sw	x28,24(x2)
    64b8:	01112a23          	sw	x17,20(x2)
    64bc:	00d12823          	sw	x13,16(x2)
    64c0:	09e12823          	sw	x30,144(x2)
    64c4:	09f12a23          	sw	x31,148(x2)
    64c8:	08512c23          	sw	x5,152(x2)
    64cc:	09d12e23          	sw	x29,156(x2)
    64d0:	08012023          	sw	x0,128(x2)
    64d4:	08012223          	sw	x0,132(x2)
    64d8:	08012423          	sw	x0,136(x2)
    64dc:	08012623          	sw	x0,140(x2)
    64e0:	62c090ef          	jal	x1,fb0c <__eqtf2>
    64e4:	01012683          	lw	x13,16(x2)
    64e8:	01412883          	lw	x17,20(x2)
    64ec:	01812e03          	lw	x28,24(x2)
    64f0:	04700613          	addi	x12,x0,71
    64f4:	56051e63          	bne	x10,x0,6a70 <_vfprintf_r+0x260c>
    64f8:	41a687b3          	sub	x15,x13,x26
    64fc:	0ac12703          	lw	x14,172(x2)
    6500:	00f12823          	sw	x15,16(x2)
    6504:	e74ff06f          	jal	x0,5b78 <_vfprintf_r+0x1714>
    6508:	001a0793          	addi	x15,x20,1
    650c:	00f12823          	sw	x15,16(x2)
    6510:	00200613          	addi	x12,x0,2
    6514:	01012b03          	lw	x22,16(x2)
    6518:	09010913          	addi	x18,x2,144
    651c:	0ac10713          	addi	x14,x2,172
    6520:	000b0693          	addi	x13,x22,0
    6524:	0bc10813          	addi	x16,x2,188
    6528:	0b010793          	addi	x15,x2,176
    652c:	00090593          	addi	x11,x18,0
    6530:	000a8513          	addi	x10,x21,0
    6534:	05c12823          	sw	x28,80(x2)
    6538:	05112623          	sw	x17,76(x2)
    653c:	09e12823          	sw	x30,144(x2)
    6540:	05e12423          	sw	x30,72(x2)
    6544:	09f12a23          	sw	x31,148(x2)
    6548:	01f12e23          	sw	x31,28(x2)
    654c:	08512c23          	sw	x5,152(x2)
    6550:	00512c23          	sw	x5,24(x2)
    6554:	09d12e23          	sw	x29,156(x2)
    6558:	01d12a23          	sw	x29,20(x2)
    655c:	2a1000ef          	jal	x1,6ffc <_ldtoa_r>
    6560:	04c12883          	lw	x17,76(x2)
    6564:	04600713          	addi	x14,x0,70
    6568:	01412e83          	lw	x29,20(x2)
    656c:	fdf8f613          	andi	x12,x17,-33
    6570:	01812283          	lw	x5,24(x2)
    6574:	01c12f83          	lw	x31,28(x2)
    6578:	04812f03          	lw	x30,72(x2)
    657c:	05012e03          	lw	x28,80(x2)
    6580:	00050d13          	addi	x26,x10,0
    6584:	016506b3          	add	x13,x10,x22
    6588:	48e61e63          	bne	x12,x14,6a24 <_vfprintf_r+0x25c0>
    658c:	000d4583          	lbu	x11,0(x26)
    6590:	03000713          	addi	x14,x0,48
    6594:	78e58c63          	beq	x11,x14,6d2c <_vfprintf_r+0x28c8>
    6598:	08010b93          	addi	x23,x2,128
    659c:	0ac12703          	lw	x14,172(x2)
    65a0:	00e686b3          	add	x13,x13,x14
    65a4:	000b8593          	addi	x11,x23,0
    65a8:	00090513          	addi	x10,x18,0
    65ac:	01c12e23          	sw	x28,28(x2)
    65b0:	01112c23          	sw	x17,24(x2)
    65b4:	00c12a23          	sw	x12,20(x2)
    65b8:	00d12823          	sw	x13,16(x2)
    65bc:	09e12823          	sw	x30,144(x2)
    65c0:	09f12a23          	sw	x31,148(x2)
    65c4:	08512c23          	sw	x5,152(x2)
    65c8:	09d12e23          	sw	x29,156(x2)
    65cc:	08012023          	sw	x0,128(x2)
    65d0:	08012223          	sw	x0,132(x2)
    65d4:	08012423          	sw	x0,136(x2)
    65d8:	08012623          	sw	x0,140(x2)
    65dc:	530090ef          	jal	x1,fb0c <__eqtf2>
    65e0:	01012683          	lw	x13,16(x2)
    65e4:	01412603          	lw	x12,20(x2)
    65e8:	01812883          	lw	x17,24(x2)
    65ec:	01c12e03          	lw	x28,28(x2)
    65f0:	48051063          	bne	x10,x0,6a70 <_vfprintf_r+0x260c>
    65f4:	0ac12783          	lw	x15,172(x2)
    65f8:	00f12a23          	sw	x15,20(x2)
    65fc:	41a687b3          	sub	x15,x13,x26
    6600:	00f12823          	sw	x15,16(x2)
    6604:	01412783          	lw	x15,20(x2)
    6608:	001e7713          	andi	x14,x28,1
    660c:	01476733          	or	x14,x14,x20
    6610:	06f05ce3          	bge	x0,x15,6e88 <_vfprintf_r+0x2a24>
    6614:	060710e3          	bne	x14,x0,6e74 <_vfprintf_r+0x2a10>
    6618:	01412903          	lw	x18,20(x2)
    661c:	06600893          	addi	x17,x0,102
    6620:	400e7e13          	andi	x28,x28,1024
    6624:	780e1a63          	bne	x28,x0,6db8 <_vfprintf_r+0x2954>
    6628:	fff94693          	xori	x13,x18,-1
    662c:	41f6d693          	srai	x13,x13,0x1f
    6630:	00d97db3          	and	x27,x18,x13
    6634:	00012e23          	sw	x0,28(x2)
    6638:	00012c23          	sw	x0,24(x2)
    663c:	e3cff06f          	jal	x0,5c78 <_vfprintf_r+0x1814>
    6640:	09010913          	addi	x18,x2,144
    6644:	08010b93          	addi	x23,x2,128
    6648:	0ac10613          	addi	x12,x2,172
    664c:	000b8593          	addi	x11,x23,0
    6650:	00090513          	addi	x10,x18,0
    6654:	05c12023          	sw	x28,64(x2)
    6658:	03112c23          	sw	x17,56(x2)
    665c:	09e12023          	sw	x30,128(x2)
    6660:	09f12223          	sw	x31,132(x2)
    6664:	08512423          	sw	x5,136(x2)
    6668:	09d12623          	sw	x29,140(x2)
    666c:	52d040ef          	jal	x1,b398 <frexpl>
    6670:	09012503          	lw	x10,144(x2)
    6674:	0000d717          	auipc	x14,0xd
    6678:	06c70713          	addi	x14,x14,108 # 136e0 <zeroes.0+0x1c>
    667c:	00072583          	lw	x11,0(x14)
    6680:	08a12023          	sw	x10,128(x2)
    6684:	09412503          	lw	x10,148(x2)
    6688:	00472603          	lw	x12,4(x14)
    668c:	00872683          	lw	x13,8(x14)
    6690:	08a12223          	sw	x10,132(x2)
    6694:	09812503          	lw	x10,152(x2)
    6698:	00c72703          	lw	x14,12(x14)
    669c:	06b12823          	sw	x11,112(x2)
    66a0:	08a12423          	sw	x10,136(x2)
    66a4:	09c12503          	lw	x10,156(x2)
    66a8:	06c12a23          	sw	x12,116(x2)
    66ac:	000b8593          	addi	x11,x23,0
    66b0:	08a12623          	sw	x10,140(x2)
    66b4:	07010613          	addi	x12,x2,112
    66b8:	00090513          	addi	x10,x18,0
    66bc:	06d12c23          	sw	x13,120(x2)
    66c0:	06e12e23          	sw	x14,124(x2)
    66c4:	7d8090ef          	jal	x1,fe9c <__multf3>
    66c8:	09012f03          	lw	x30,144(x2)
    66cc:	09412e83          	lw	x29,148(x2)
    66d0:	09812803          	lw	x16,152(x2)
    66d4:	09c12603          	lw	x12,156(x2)
    66d8:	000b8593          	addi	x11,x23,0
    66dc:	00090513          	addi	x10,x18,0
    66e0:	01e12e23          	sw	x30,28(x2)
    66e4:	01d12c23          	sw	x29,24(x2)
    66e8:	01012a23          	sw	x16,20(x2)
    66ec:	00c12823          	sw	x12,16(x2)
    66f0:	08012023          	sw	x0,128(x2)
    66f4:	08012223          	sw	x0,132(x2)
    66f8:	08012423          	sw	x0,136(x2)
    66fc:	08012623          	sw	x0,140(x2)
    6700:	40c090ef          	jal	x1,fb0c <__eqtf2>
    6704:	01012603          	lw	x12,16(x2)
    6708:	01412803          	lw	x16,20(x2)
    670c:	01812e83          	lw	x29,24(x2)
    6710:	01c12f03          	lw	x30,28(x2)
    6714:	03812883          	lw	x17,56(x2)
    6718:	04012e03          	lw	x28,64(x2)
    671c:	00051663          	bne	x10,x0,6728 <_vfprintf_r+0x22c4>
    6720:	00100713          	addi	x14,x0,1
    6724:	0ae12623          	sw	x14,172(x2)
    6728:	0000d797          	auipc	x15,0xd
    672c:	b4078793          	addi	x15,x15,-1216 # 13268 <__clzsi2+0x500>
    6730:	06100713          	addi	x14,x0,97
    6734:	00f12823          	sw	x15,16(x2)
    6738:	00e89863          	bne	x17,x14,6748 <_vfprintf_r+0x22e4>
    673c:	0000d797          	auipc	x15,0xd
    6740:	b1878793          	addi	x15,x15,-1256 # 13254 <__clzsi2+0x4ec>
    6744:	00f12823          	sw	x15,16(x2)
    6748:	0000d717          	auipc	x14,0xd
    674c:	fa870713          	addi	x14,x14,-88 # 136f0 <zeroes.0+0x2c>
    6750:	00072783          	lw	x15,0(x14)
    6754:	03312c23          	sw	x19,56(x2)
    6758:	04912823          	sw	x9,80(x2)
    675c:	00f12a23          	sw	x15,20(x2)
    6760:	00472783          	lw	x15,4(x14)
    6764:	000d0993          	addi	x19,x26,0
    6768:	05512a23          	sw	x21,84(x2)
    676c:	00f12c23          	sw	x15,24(x2)
    6770:	00872783          	lw	x15,8(x14)
    6774:	05a12c23          	sw	x26,88(x2)
    6778:	fffa0a13          	addi	x20,x20,-1
    677c:	00f12e23          	sw	x15,28(x2)
    6780:	00c72783          	lw	x15,12(x14)
    6784:	05112023          	sw	x17,64(x2)
    6788:	05c12423          	sw	x28,72(x2)
    678c:	05912623          	sw	x25,76(x2)
    6790:	00078d13          	addi	x26,x15,0
    6794:	000f0d93          	addi	x27,x30,0
    6798:	000e8493          	addi	x9,x29,0
    679c:	00080a93          	addi	x21,x16,0
    67a0:	00060b13          	addi	x22,x12,0
    67a4:	03c0006f          	jal	x0,67e0 <_vfprintf_r+0x237c>
    67a8:	000b8593          	addi	x11,x23,0
    67ac:	00090513          	addi	x10,x18,0
    67b0:	09b12823          	sw	x27,144(x2)
    67b4:	08912a23          	sw	x9,148(x2)
    67b8:	09512c23          	sw	x21,152(x2)
    67bc:	09612e23          	sw	x22,156(x2)
    67c0:	08012023          	sw	x0,128(x2)
    67c4:	08012223          	sw	x0,132(x2)
    67c8:	08012423          	sw	x0,136(x2)
    67cc:	08012623          	sw	x0,140(x2)
    67d0:	fffa0c93          	addi	x25,x20,-1
    67d4:	338090ef          	jal	x1,fb0c <__eqtf2>
    67d8:	64050e63          	beq	x10,x0,6e34 <_vfprintf_r+0x29d0>
    67dc:	000c8a13          	addi	x20,x25,0
    67e0:	01412783          	lw	x15,20(x2)
    67e4:	07010613          	addi	x12,x2,112
    67e8:	000b8593          	addi	x11,x23,0
    67ec:	06f12823          	sw	x15,112(x2)
    67f0:	01812783          	lw	x15,24(x2)
    67f4:	00090513          	addi	x10,x18,0
    67f8:	09b12023          	sw	x27,128(x2)
    67fc:	06f12a23          	sw	x15,116(x2)
    6800:	01c12783          	lw	x15,28(x2)
    6804:	08912223          	sw	x9,132(x2)
    6808:	09512423          	sw	x21,136(x2)
    680c:	06f12c23          	sw	x15,120(x2)
    6810:	09612623          	sw	x22,140(x2)
    6814:	07a12e23          	sw	x26,124(x2)
    6818:	684090ef          	jal	x1,fe9c <__multf3>
    681c:	00090513          	addi	x10,x18,0
    6820:	0680c0ef          	jal	x1,12888 <__fixtfsi>
    6824:	00050593          	addi	x11,x10,0
    6828:	00050c93          	addi	x25,x10,0
    682c:	00090513          	addi	x10,x18,0
    6830:	09012d83          	lw	x27,144(x2)
    6834:	09412b03          	lw	x22,148(x2)
    6838:	09812a83          	lw	x21,152(x2)
    683c:	09c12483          	lw	x9,156(x2)
    6840:	1480c0ef          	jal	x1,12988 <__floatsitf>
    6844:	09012683          	lw	x13,144(x2)
    6848:	06010613          	addi	x12,x2,96
    684c:	07010593          	addi	x11,x2,112
    6850:	06d12023          	sw	x13,96(x2)
    6854:	09412683          	lw	x13,148(x2)
    6858:	000b8513          	addi	x10,x23,0
    685c:	07b12823          	sw	x27,112(x2)
    6860:	06d12223          	sw	x13,100(x2)
    6864:	09812683          	lw	x13,152(x2)
    6868:	07612a23          	sw	x22,116(x2)
    686c:	07512c23          	sw	x21,120(x2)
    6870:	06d12423          	sw	x13,104(x2)
    6874:	09c12683          	lw	x13,156(x2)
    6878:	06912e23          	sw	x9,124(x2)
    687c:	06d12623          	sw	x13,108(x2)
    6880:	7d00a0ef          	jal	x1,11050 <__subtf3>
    6884:	01012783          	lw	x15,16(x2)
    6888:	00098f93          	addi	x31,x19,0
    688c:	00198993          	addi	x19,x19,1
    6890:	019786b3          	add	x13,x15,x25
    6894:	0006c683          	lbu	x13,0(x13)
    6898:	08012d83          	lw	x27,128(x2)
    689c:	08412483          	lw	x9,132(x2)
    68a0:	08812a83          	lw	x21,136(x2)
    68a4:	08c12b03          	lw	x22,140(x2)
    68a8:	fff00793          	addi	x15,x0,-1
    68ac:	fed98fa3          	sb	x13,-1(x19)
    68b0:	eefa1ce3          	bne	x20,x15,67a8 <_vfprintf_r+0x2344>
    68b4:	0000d597          	auipc	x11,0xd
    68b8:	e4c58593          	addi	x11,x11,-436 # 13700 <zeroes.0+0x3c>
    68bc:	04012883          	lw	x17,64(x2)
    68c0:	04812e03          	lw	x28,72(x2)
    68c4:	0045a283          	lw	x5,4(x11)
    68c8:	0085a383          	lw	x7,8(x11)
    68cc:	00c5a783          	lw	x15,12(x11)
    68d0:	0005aa03          	lw	x20,0(x11)
    68d4:	000d8f13          	addi	x30,x27,0
    68d8:	00048e93          	addi	x29,x9,0
    68dc:	000a8813          	addi	x16,x21,0
    68e0:	000b8593          	addi	x11,x23,0
    68e4:	00090513          	addi	x10,x18,0
    68e8:	05812d03          	lw	x26,88(x2)
    68ec:	05012483          	lw	x9,80(x2)
    68f0:	05412a83          	lw	x21,84(x2)
    68f4:	01112e23          	sw	x17,28(x2)
    68f8:	01c12c23          	sw	x28,24(x2)
    68fc:	01f12a23          	sw	x31,20(x2)
    6900:	05912e23          	sw	x25,92(x2)
    6904:	00098d93          	addi	x27,x19,0
    6908:	04c12c83          	lw	x25,76(x2)
    690c:	03812983          	lw	x19,56(x2)
    6910:	09e12823          	sw	x30,144(x2)
    6914:	05e12c23          	sw	x30,88(x2)
    6918:	09d12a23          	sw	x29,148(x2)
    691c:	05d12a23          	sw	x29,84(x2)
    6920:	09012c23          	sw	x16,152(x2)
    6924:	05012823          	sw	x16,80(x2)
    6928:	09612e23          	sw	x22,156(x2)
    692c:	05612623          	sw	x22,76(x2)
    6930:	09412023          	sw	x20,128(x2)
    6934:	08512223          	sw	x5,132(x2)
    6938:	04512423          	sw	x5,72(x2)
    693c:	08712423          	sw	x7,136(x2)
    6940:	04712023          	sw	x7,64(x2)
    6944:	08f12623          	sw	x15,140(x2)
    6948:	02f12c23          	sw	x15,56(x2)
    694c:	290090ef          	jal	x1,fbdc <__getf2>
    6950:	01412f83          	lw	x31,20(x2)
    6954:	01812e03          	lw	x28,24(x2)
    6958:	01c12883          	lw	x17,28(x2)
    695c:	02a04a63          	blt	x0,x10,6990 <_vfprintf_r+0x252c>
    6960:	000b8593          	addi	x11,x23,0
    6964:	00090513          	addi	x10,x18,0
    6968:	01112a23          	sw	x17,20(x2)
    696c:	01f12e23          	sw	x31,28(x2)
    6970:	19c090ef          	jal	x1,fb0c <__eqtf2>
    6974:	01412883          	lw	x17,20(x2)
    6978:	01812e03          	lw	x28,24(x2)
    697c:	04051e63          	bne	x10,x0,69d8 <_vfprintf_r+0x2574>
    6980:	05c12703          	lw	x14,92(x2)
    6984:	01c12f83          	lw	x31,28(x2)
    6988:	00177693          	andi	x13,x14,1
    698c:	04068663          	beq	x13,x0,69d8 <_vfprintf_r+0x2574>
    6990:	01012783          	lw	x15,16(x2)
    6994:	0bf12e23          	sw	x31,188(x2)
    6998:	fffdc603          	lbu	x12,-1(x27)
    699c:	00f7c583          	lbu	x11,15(x15)
    69a0:	000d8693          	addi	x13,x27,0
    69a4:	02c59063          	bne	x11,x12,69c4 <_vfprintf_r+0x2560>
    69a8:	03000513          	addi	x10,x0,48
    69ac:	fea68fa3          	sb	x10,-1(x13)
    69b0:	0bc12683          	lw	x13,188(x2)
    69b4:	fff68793          	addi	x15,x13,-1
    69b8:	0af12e23          	sw	x15,188(x2)
    69bc:	fff6c603          	lbu	x12,-1(x13)
    69c0:	fec586e3          	beq	x11,x12,69ac <_vfprintf_r+0x2548>
    69c4:	00160593          	addi	x11,x12,1
    69c8:	03900513          	addi	x10,x0,57
    69cc:	0ff5f593          	andi	x11,x11,255
    69d0:	04a60463          	beq	x12,x10,6a18 <_vfprintf_r+0x25b4>
    69d4:	feb68fa3          	sb	x11,-1(x13)
    69d8:	0ac12783          	lw	x15,172(x2)
    69dc:	41ad8733          	sub	x14,x27,x26
    69e0:	00e12823          	sw	x14,16(x2)
    69e4:	fff78713          	addi	x14,x15,-1
    69e8:	00f12a23          	sw	x15,20(x2)
    69ec:	06100613          	addi	x12,x0,97
    69f0:	0ae12623          	sw	x14,172(x2)
    69f4:	07000693          	addi	x13,x0,112
    69f8:	00c88663          	beq	x17,x12,6a04 <_vfprintf_r+0x25a0>
    69fc:	05000693          	addi	x13,x0,80
    6a00:	04100893          	addi	x17,x0,65
    6a04:	00100613          	addi	x12,x0,1
    6a08:	994ff06f          	jal	x0,5b9c <_vfprintf_r+0x1738>
    6a0c:	01412823          	sw	x20,16(x2)
    6a10:	00300613          	addi	x12,x0,3
    6a14:	b01ff06f          	jal	x0,6514 <_vfprintf_r+0x20b0>
    6a18:	01012783          	lw	x15,16(x2)
    6a1c:	00a7c583          	lbu	x11,10(x15)
    6a20:	fb5ff06f          	jal	x0,69d4 <_vfprintf_r+0x2570>
    6a24:	08010593          	addi	x11,x2,128
    6a28:	00090513          	addi	x10,x18,0
    6a2c:	01c12e23          	sw	x28,28(x2)
    6a30:	01112c23          	sw	x17,24(x2)
    6a34:	00d12a23          	sw	x13,20(x2)
    6a38:	09e12823          	sw	x30,144(x2)
    6a3c:	09f12a23          	sw	x31,148(x2)
    6a40:	08512c23          	sw	x5,152(x2)
    6a44:	09d12e23          	sw	x29,156(x2)
    6a48:	08012023          	sw	x0,128(x2)
    6a4c:	08012223          	sw	x0,132(x2)
    6a50:	08012423          	sw	x0,136(x2)
    6a54:	08012623          	sw	x0,140(x2)
    6a58:	0b4090ef          	jal	x1,fb0c <__eqtf2>
    6a5c:	01812883          	lw	x17,24(x2)
    6a60:	01c12e03          	lw	x28,28(x2)
    6a64:	48050a63          	beq	x10,x0,6ef8 <_vfprintf_r+0x2a94>
    6a68:	01412683          	lw	x13,20(x2)
    6a6c:	04500613          	addi	x12,x0,69
    6a70:	0bc12783          	lw	x15,188(x2)
    6a74:	00d7fe63          	bgeu	x15,x13,6a90 <_vfprintf_r+0x262c>
    6a78:	03000593          	addi	x11,x0,48
    6a7c:	00178713          	addi	x14,x15,1
    6a80:	0ae12e23          	sw	x14,188(x2)
    6a84:	00b78023          	sb	x11,0(x15)
    6a88:	0bc12783          	lw	x15,188(x2)
    6a8c:	fed7e8e3          	bltu	x15,x13,6a7c <_vfprintf_r+0x2618>
    6a90:	0ac12703          	lw	x14,172(x2)
    6a94:	41a787b3          	sub	x15,x15,x26
    6a98:	04700693          	addi	x13,x0,71
    6a9c:	00f12823          	sw	x15,16(x2)
    6aa0:	00e12a23          	sw	x14,20(x2)
    6aa4:	8cd60a63          	beq	x12,x13,5b78 <_vfprintf_r+0x1714>
    6aa8:	04600713          	addi	x14,x0,70
    6aac:	b4e60ce3          	beq	x12,x14,6604 <_vfprintf_r+0x21a0>
    6ab0:	01412783          	lw	x15,20(x2)
    6ab4:	fff78713          	addi	x14,x15,-1
    6ab8:	8d8ff06f          	jal	x0,5b90 <_vfprintf_r+0x172c>
    6abc:	0a714703          	lbu	x14,167(x2)
    6ac0:	04012e03          	lw	x28,64(x2)
    6ac4:	00000a13          	addi	x20,x0,0
    6ac8:	00070463          	beq	x14,x0,6ad0 <_vfprintf_r+0x266c>
    6acc:	940fe06f          	jal	x0,4c0c <_vfprintf_r+0x7a8>
    6ad0:	bc1fd06f          	jal	x0,4690 <_vfprintf_r+0x22c>
    6ad4:	01412783          	lw	x15,20(x2)
    6ad8:	01012683          	lw	x13,16(x2)
    6adc:	0ed7c463          	blt	x15,x13,6bc4 <_vfprintf_r+0x2760>
    6ae0:	001e7693          	andi	x13,x28,1
    6ae4:	00070913          	addi	x18,x14,0
    6ae8:	00068663          	beq	x13,x0,6af4 <_vfprintf_r+0x2690>
    6aec:	02412783          	lw	x15,36(x2)
    6af0:	00f70933          	add	x18,x14,x15
    6af4:	400e7e13          	andi	x28,x28,1024
    6af8:	000e0463          	beq	x28,x0,6b00 <_vfprintf_r+0x269c>
    6afc:	2ae04c63          	blt	x0,x14,6db4 <_vfprintf_r+0x2950>
    6b00:	fff94693          	xori	x13,x18,-1
    6b04:	41f6d693          	srai	x13,x13,0x1f
    6b08:	00d97db3          	and	x27,x18,x13
    6b0c:	06700893          	addi	x17,x0,103
    6b10:	b25ff06f          	jal	x0,6634 <_vfprintf_r+0x21d0>
    6b14:	00012583          	lw	x11,0(x2)
    6b18:	0c410613          	addi	x12,x2,196
    6b1c:	000a8513          	addi	x10,x21,0
    6b20:	4b1000ef          	jal	x1,77d0 <__sprint_r>
    6b24:	00050463          	beq	x10,x0,6b2c <_vfprintf_r+0x26c8>
    6b28:	f94fe06f          	jal	x0,52bc <_vfprintf_r+0xe58>
    6b2c:	000d4703          	lbu	x14,0(x26)
    6b30:	0cc12603          	lw	x12,204(x2)
    6b34:	000c0693          	addi	x13,x24,0
    6b38:	00700893          	addi	x17,x0,7
    6b3c:	00ed8db3          	add	x27,x27,x14
    6b40:	e84ff06f          	jal	x0,61c4 <_vfprintf_r+0x1d60>
    6b44:	00900513          	addi	x10,x0,9
    6b48:	a5256c63          	bltu	x10,x18,5da0 <_vfprintf_r+0x193c>
    6b4c:	ad4ff06f          	jal	x0,5e20 <_vfprintf_r+0x19bc>
    6b50:	02d00793          	addi	x15,x0,45
    6b54:	0af103a3          	sb	x15,167(x2)
    6b58:	02d00713          	addi	x14,x0,45
    6b5c:	bf8ff06f          	jal	x0,5f54 <_vfprintf_r+0x1af0>
    6b60:	0a714703          	lbu	x14,167(x2)
    6b64:	01712623          	sw	x23,12(x2)
    6b68:	00012e23          	sw	x0,28(x2)
    6b6c:	00012c23          	sw	x0,24(x2)
    6b70:	00012a23          	sw	x0,20(x2)
    6b74:	000a0d93          	addi	x27,x20,0
    6b78:	000a0913          	addi	x18,x20,0
    6b7c:	00000a13          	addi	x20,x0,0
    6b80:	00070463          	beq	x14,x0,6b88 <_vfprintf_r+0x2724>
    6b84:	888fe06f          	jal	x0,4c0c <_vfprintf_r+0x7a8>
    6b88:	b09fd06f          	jal	x0,4690 <_vfprintf_r+0x22c>
    6b8c:	00012583          	lw	x11,0(x2)
    6b90:	0c410613          	addi	x12,x2,196
    6b94:	000a8513          	addi	x10,x21,0
    6b98:	01c12a23          	sw	x28,20(x2)
    6b9c:	435000ef          	jal	x1,77d0 <__sprint_r>
    6ba0:	00050463          	beq	x10,x0,6ba8 <_vfprintf_r+0x2744>
    6ba4:	f18fe06f          	jal	x0,52bc <_vfprintf_r+0xe58>
    6ba8:	0ac12903          	lw	x18,172(x2)
    6bac:	01012783          	lw	x15,16(x2)
    6bb0:	0cc12603          	lw	x12,204(x2)
    6bb4:	01412e03          	lw	x28,20(x2)
    6bb8:	000c0493          	addi	x9,x24,0
    6bbc:	41278933          	sub	x18,x15,x18
    6bc0:	9e5fe06f          	jal	x0,55a4 <_vfprintf_r+0x1140>
    6bc4:	01012783          	lw	x15,16(x2)
    6bc8:	02412703          	lw	x14,36(x2)
    6bcc:	06700893          	addi	x17,x0,103
    6bd0:	00e78933          	add	x18,x15,x14
    6bd4:	01412783          	lw	x15,20(x2)
    6bd8:	a4f044e3          	blt	x0,x15,6620 <_vfprintf_r+0x21bc>
    6bdc:	40f90833          	sub	x16,x18,x15
    6be0:	00180913          	addi	x18,x16,1
    6be4:	fff94693          	xori	x13,x18,-1
    6be8:	41f6d693          	srai	x13,x13,0x1f
    6bec:	00d97db3          	and	x27,x18,x13
    6bf0:	a45ff06f          	jal	x0,6634 <_vfprintf_r+0x21d0>
    6bf4:	fff00793          	addi	x15,x0,-1
    6bf8:	00f12223          	sw	x15,4(x2)
    6bfc:	bfdfd06f          	jal	x0,47f8 <_vfprintf_r+0x394>
    6c00:	000e0e93          	addi	x29,x28,0
    6c04:	9b8fe06f          	jal	x0,4dbc <_vfprintf_r+0x958>
    6c08:	ff000513          	addi	x10,x0,-16
    6c0c:	40b00933          	sub	x18,x0,x11
    6c10:	0000de97          	auipc	x29,0xd
    6c14:	ab4e8e93          	addi	x29,x29,-1356 # 136c4 <zeroes.0>
    6c18:	06a5dc63          	bge	x11,x10,6c90 <_vfprintf_r+0x282c>
    6c1c:	01312a23          	sw	x19,20(x2)
    6c20:	01000a13          	addi	x20,x0,16
    6c24:	00700b93          	addi	x23,x0,7
    6c28:	000e0b13          	addi	x22,x28,0
    6c2c:	000e8993          	addi	x19,x29,0
    6c30:	00c0006f          	jal	x0,6c3c <_vfprintf_r+0x27d8>
    6c34:	ff090913          	addi	x18,x18,-16
    6c38:	052a5663          	bge	x20,x18,6c84 <_vfprintf_r+0x2820>
    6c3c:	01060613          	addi	x12,x12,16
    6c40:	00170713          	addi	x14,x14,1
    6c44:	0134a023          	sw	x19,0(x9)
    6c48:	0144a223          	sw	x20,4(x9)
    6c4c:	0cc12623          	sw	x12,204(x2)
    6c50:	0ce12423          	sw	x14,200(x2)
    6c54:	00848493          	addi	x9,x9,8
    6c58:	fcebdee3          	bge	x23,x14,6c34 <_vfprintf_r+0x27d0>
    6c5c:	00012583          	lw	x11,0(x2)
    6c60:	0c410613          	addi	x12,x2,196
    6c64:	000a8513          	addi	x10,x21,0
    6c68:	369000ef          	jal	x1,77d0 <__sprint_r>
    6c6c:	00050463          	beq	x10,x0,6c74 <_vfprintf_r+0x2810>
    6c70:	e4cfe06f          	jal	x0,52bc <_vfprintf_r+0xe58>
    6c74:	0cc12603          	lw	x12,204(x2)
    6c78:	0c812703          	lw	x14,200(x2)
    6c7c:	000c0493          	addi	x9,x24,0
    6c80:	fb5ff06f          	jal	x0,6c34 <_vfprintf_r+0x27d0>
    6c84:	00098e93          	addi	x29,x19,0
    6c88:	01412983          	lw	x19,20(x2)
    6c8c:	000b0e13          	addi	x28,x22,0
    6c90:	01260633          	add	x12,x12,x18
    6c94:	00170713          	addi	x14,x14,1
    6c98:	01d4a023          	sw	x29,0(x9)
    6c9c:	0124a223          	sw	x18,4(x9)
    6ca0:	0cc12623          	sw	x12,204(x2)
    6ca4:	0ce12423          	sw	x14,200(x2)
    6ca8:	00700593          	addi	x11,x0,7
    6cac:	a0e5d463          	bge	x11,x14,5eb4 <_vfprintf_r+0x1a50>
    6cb0:	00012583          	lw	x11,0(x2)
    6cb4:	0c410613          	addi	x12,x2,196
    6cb8:	000a8513          	addi	x10,x21,0
    6cbc:	01c12a23          	sw	x28,20(x2)
    6cc0:	311000ef          	jal	x1,77d0 <__sprint_r>
    6cc4:	00050463          	beq	x10,x0,6ccc <_vfprintf_r+0x2868>
    6cc8:	df4fe06f          	jal	x0,52bc <_vfprintf_r+0xe58>
    6ccc:	0cc12603          	lw	x12,204(x2)
    6cd0:	0c812703          	lw	x14,200(x2)
    6cd4:	01412e03          	lw	x28,20(x2)
    6cd8:	000c0493          	addi	x9,x24,0
    6cdc:	b04ff06f          	jal	x0,5fe0 <_vfprintf_r+0x1b7c>
    6ce0:	0b610693          	addi	x13,x2,182
    6ce4:	00061863          	bne	x12,x0,6cf4 <_vfprintf_r+0x2890>
    6ce8:	03000693          	addi	x13,x0,48
    6cec:	0ad10b23          	sb	x13,182(x2)
    6cf0:	0b710693          	addi	x13,x2,183
    6cf4:	19010793          	addi	x15,x2,400
    6cf8:	40f68633          	sub	x12,x13,x15
    6cfc:	03070713          	addi	x14,x14,48
    6d00:	0dd60793          	addi	x15,x12,221
    6d04:	00e68023          	sb	x14,0(x13)
    6d08:	02f12c23          	sw	x15,56(x2)
    6d0c:	f29fe06f          	jal	x0,5c34 <_vfprintf_r+0x17d0>
    6d10:	00012423          	sw	x0,8(x2)
    6d14:	00600a13          	addi	x20,x0,6
    6d18:	c75fd06f          	jal	x0,498c <_vfprintf_r+0x528>
    6d1c:	001e7713          	andi	x14,x28,1
    6d20:	00071463          	bne	x14,x0,6d28 <_vfprintf_r+0x28c4>
    6d24:	f31fe06f          	jal	x0,5c54 <_vfprintf_r+0x17f0>
    6d28:	f25fe06f          	jal	x0,5c4c <_vfprintf_r+0x17e8>
    6d2c:	08010b93          	addi	x23,x2,128
    6d30:	000b8593          	addi	x11,x23,0
    6d34:	00090513          	addi	x10,x18,0
    6d38:	05c12c23          	sw	x28,88(x2)
    6d3c:	05112a23          	sw	x17,84(x2)
    6d40:	04d12823          	sw	x13,80(x2)
    6d44:	04c12623          	sw	x12,76(x2)
    6d48:	09e12823          	sw	x30,144(x2)
    6d4c:	05e12423          	sw	x30,72(x2)
    6d50:	09f12a23          	sw	x31,148(x2)
    6d54:	01f12e23          	sw	x31,28(x2)
    6d58:	08512c23          	sw	x5,152(x2)
    6d5c:	00512c23          	sw	x5,24(x2)
    6d60:	09d12e23          	sw	x29,156(x2)
    6d64:	01d12a23          	sw	x29,20(x2)
    6d68:	08012023          	sw	x0,128(x2)
    6d6c:	08012223          	sw	x0,132(x2)
    6d70:	08012423          	sw	x0,136(x2)
    6d74:	08012623          	sw	x0,140(x2)
    6d78:	595080ef          	jal	x1,fb0c <__eqtf2>
    6d7c:	01412e83          	lw	x29,20(x2)
    6d80:	01812283          	lw	x5,24(x2)
    6d84:	01c12f83          	lw	x31,28(x2)
    6d88:	04812f03          	lw	x30,72(x2)
    6d8c:	04c12603          	lw	x12,76(x2)
    6d90:	05012683          	lw	x13,80(x2)
    6d94:	05412883          	lw	x17,84(x2)
    6d98:	05812e03          	lw	x28,88(x2)
    6d9c:	800500e3          	beq	x10,x0,659c <_vfprintf_r+0x2138>
    6da0:	01012783          	lw	x15,16(x2)
    6da4:	00100713          	addi	x14,x0,1
    6da8:	40f70733          	sub	x14,x14,x15
    6dac:	0ae12623          	sw	x14,172(x2)
    6db0:	ff0ff06f          	jal	x0,65a0 <_vfprintf_r+0x213c>
    6db4:	06700893          	addi	x17,x0,103
    6db8:	03412603          	lw	x12,52(x2)
    6dbc:	0ff00693          	addi	x13,x0,255
    6dc0:	00064703          	lbu	x14,0(x12)
    6dc4:	12d70463          	beq	x14,x13,6eec <_vfprintf_r+0x2a88>
    6dc8:	01412783          	lw	x15,20(x2)
    6dcc:	00000513          	addi	x10,x0,0
    6dd0:	00000593          	addi	x11,x0,0
    6dd4:	00f75e63          	bge	x14,x15,6df0 <_vfprintf_r+0x298c>
    6dd8:	40e787b3          	sub	x15,x15,x14
    6ddc:	00164703          	lbu	x14,1(x12)
    6de0:	04070463          	beq	x14,x0,6e28 <_vfprintf_r+0x29c4>
    6de4:	00158593          	addi	x11,x11,1
    6de8:	00160613          	addi	x12,x12,1
    6dec:	fed714e3          	bne	x14,x13,6dd4 <_vfprintf_r+0x2970>
    6df0:	02c12a23          	sw	x12,52(x2)
    6df4:	00f12a23          	sw	x15,20(x2)
    6df8:	00b12c23          	sw	x11,24(x2)
    6dfc:	00a12e23          	sw	x10,28(x2)
    6e00:	01812783          	lw	x15,24(x2)
    6e04:	01c12703          	lw	x14,28(x2)
    6e08:	00e78733          	add	x14,x15,x14
    6e0c:	04412783          	lw	x15,68(x2)
    6e10:	02f70733          	mul	x14,x14,x15
    6e14:	01270933          	add	x18,x14,x18
    6e18:	fff94693          	xori	x13,x18,-1
    6e1c:	41f6d693          	srai	x13,x13,0x1f
    6e20:	00d97db3          	and	x27,x18,x13
    6e24:	e55fe06f          	jal	x0,5c78 <_vfprintf_r+0x1814>
    6e28:	00064703          	lbu	x14,0(x12)
    6e2c:	00150513          	addi	x10,x10,1
    6e30:	fbdff06f          	jal	x0,6dec <_vfprintf_r+0x2988>
    6e34:	00098d93          	addi	x27,x19,0
    6e38:	001a0693          	addi	x13,x20,1
    6e3c:	04012883          	lw	x17,64(x2)
    6e40:	04812e03          	lw	x28,72(x2)
    6e44:	04c12c83          	lw	x25,76(x2)
    6e48:	05012483          	lw	x9,80(x2)
    6e4c:	03812983          	lw	x19,56(x2)
    6e50:	05412a83          	lw	x21,84(x2)
    6e54:	05812d03          	lw	x26,88(x2)
    6e58:	00dd86b3          	add	x13,x27,x13
    6e5c:	03000613          	addi	x12,x0,48
    6e60:	b60a4ce3          	blt	x20,x0,69d8 <_vfprintf_r+0x2574>
    6e64:	001d8d93          	addi	x27,x27,1
    6e68:	fecd8fa3          	sb	x12,-1(x27)
    6e6c:	fedd9ce3          	bne	x27,x13,6e64 <_vfprintf_r+0x2a00>
    6e70:	b69ff06f          	jal	x0,69d8 <_vfprintf_r+0x2574>
    6e74:	02412703          	lw	x14,36(x2)
    6e78:	06600893          	addi	x17,x0,102
    6e7c:	00e78833          	add	x16,x15,x14
    6e80:	01480933          	add	x18,x16,x20
    6e84:	f9cff06f          	jal	x0,6620 <_vfprintf_r+0x21bc>
    6e88:	00071a63          	bne	x14,x0,6e9c <_vfprintf_r+0x2a38>
    6e8c:	00100d93          	addi	x27,x0,1
    6e90:	06600893          	addi	x17,x0,102
    6e94:	00100913          	addi	x18,x0,1
    6e98:	f9cff06f          	jal	x0,6634 <_vfprintf_r+0x21d0>
    6e9c:	02412783          	lw	x15,36(x2)
    6ea0:	06600893          	addi	x17,x0,102
    6ea4:	00178813          	addi	x16,x15,1
    6ea8:	01480933          	add	x18,x16,x20
    6eac:	fff94693          	xori	x13,x18,-1
    6eb0:	41f6d693          	srai	x13,x13,0x1f
    6eb4:	00d97db3          	and	x27,x18,x13
    6eb8:	f7cff06f          	jal	x0,6634 <_vfprintf_r+0x21d0>
    6ebc:	00c12783          	lw	x15,12(x2)
    6ec0:	0007aa03          	lw	x20,0(x15)
    6ec4:	00478793          	addi	x15,x15,4
    6ec8:	000a5463          	bge	x20,x0,6ed0 <_vfprintf_r+0x2a6c>
    6ecc:	fff00a13          	addi	x20,x0,-1
    6ed0:	0019c883          	lbu	x17,1(x19)
    6ed4:	00f12623          	sw	x15,12(x2)
    6ed8:	00068993          	addi	x19,x13,0
    6edc:	f28fd06f          	jal	x0,4604 <_vfprintf_r+0x1a0>
    6ee0:	00200793          	addi	x15,x0,2
    6ee4:	02f12c23          	sw	x15,56(x2)
    6ee8:	d4dfe06f          	jal	x0,5c34 <_vfprintf_r+0x17d0>
    6eec:	00012e23          	sw	x0,28(x2)
    6ef0:	00012c23          	sw	x0,24(x2)
    6ef4:	f0dff06f          	jal	x0,6e00 <_vfprintf_r+0x299c>
    6ef8:	0ac12783          	lw	x15,172(x2)
    6efc:	04500613          	addi	x12,x0,69
    6f00:	00f12a23          	sw	x15,20(x2)
    6f04:	ba5ff06f          	jal	x0,6aa8 <_vfprintf_r+0x2644>
    6f08:	00012703          	lw	x14,0(x2)
    6f0c:	00c75783          	lhu	x15,12(x14)
    6f10:	0407e793          	ori	x15,x15,64
    6f14:	00f71623          	sh	x15,12(x14)
    6f18:	8a5fd06f          	jal	x0,47bc <_vfprintf_r+0x358>

00006f1c <vfprintf>:
    6f1c:	00060693          	addi	x13,x12,0
    6f20:	00058613          	addi	x12,x11,0
    6f24:	00050593          	addi	x11,x10,0
    6f28:	f5c1a503          	lw	x10,-164(x3) # 143ac <_impure_ptr>
    6f2c:	d38fd06f          	jal	x0,4464 <_vfprintf_r>

00006f30 <__sbprintf>:
    6f30:	b8010113          	addi	x2,x2,-1152
    6f34:	00c59783          	lh	x15,12(x11)
    6f38:	00e5d703          	lhu	x14,14(x11)
    6f3c:	46812c23          	sw	x8,1144(x2)
    6f40:	00058413          	addi	x8,x11,0
    6f44:	000105b7          	lui	x11,0x10
    6f48:	ffd58593          	addi	x11,x11,-3 # fffd <__multf3+0x161>
    6f4c:	06442e03          	lw	x28,100(x8)
    6f50:	01c42303          	lw	x6,28(x8)
    6f54:	02442883          	lw	x17,36(x8)
    6f58:	01071713          	slli	x14,x14,0x10
    6f5c:	00b7f7b3          	and	x15,x15,x11
    6f60:	00e7e7b3          	or	x15,x15,x14
    6f64:	40000813          	addi	x16,x0,1024
    6f68:	00f12a23          	sw	x15,20(x2)
    6f6c:	00810593          	addi	x11,x2,8
    6f70:	07010793          	addi	x15,x2,112
    6f74:	46912a23          	sw	x9,1140(x2)
    6f78:	47212823          	sw	x18,1136(x2)
    6f7c:	46112e23          	sw	x1,1148(x2)
    6f80:	00050913          	addi	x18,x10,0
    6f84:	07c12623          	sw	x28,108(x2)
    6f88:	02612223          	sw	x6,36(x2)
    6f8c:	03112623          	sw	x17,44(x2)
    6f90:	00f12423          	sw	x15,8(x2)
    6f94:	00f12c23          	sw	x15,24(x2)
    6f98:	01012823          	sw	x16,16(x2)
    6f9c:	01012e23          	sw	x16,28(x2)
    6fa0:	02012023          	sw	x0,32(x2)
    6fa4:	cc0fd0ef          	jal	x1,4464 <_vfprintf_r>
    6fa8:	00050493          	addi	x9,x10,0
    6fac:	02055c63          	bge	x10,x0,6fe4 <__sbprintf+0xb4>
    6fb0:	01415783          	lhu	x15,20(x2)
    6fb4:	0407f793          	andi	x15,x15,64
    6fb8:	00078863          	beq	x15,x0,6fc8 <__sbprintf+0x98>
    6fbc:	00c45783          	lhu	x15,12(x8)
    6fc0:	0407e793          	ori	x15,x15,64
    6fc4:	00f41623          	sh	x15,12(x8)
    6fc8:	47c12083          	lw	x1,1148(x2)
    6fcc:	47812403          	lw	x8,1144(x2)
    6fd0:	47012903          	lw	x18,1136(x2)
    6fd4:	00048513          	addi	x10,x9,0
    6fd8:	47412483          	lw	x9,1140(x2)
    6fdc:	48010113          	addi	x2,x2,1152
    6fe0:	00008067          	jalr	x0,0(x1)
    6fe4:	00810593          	addi	x11,x2,8
    6fe8:	00090513          	addi	x10,x18,0
    6fec:	810fd0ef          	jal	x1,3ffc <_fflush_r>
    6ff0:	fc0500e3          	beq	x10,x0,6fb0 <__sbprintf+0x80>
    6ff4:	fff00493          	addi	x9,x0,-1
    6ff8:	fb9ff06f          	jal	x0,6fb0 <__sbprintf+0x80>

00006ffc <_ldtoa_r>:
    6ffc:	0000c897          	auipc	x17,0xc
    7000:	74488893          	addi	x17,x17,1860 # 13740 <zeroes.0+0x7c>
    7004:	0008af83          	lw	x31,0(x17)
    7008:	0048af03          	lw	x30,4(x17)
    700c:	0088ae83          	lw	x29,8(x17)
    7010:	00c8ae03          	lw	x28,12(x17)
    7014:	0108a303          	lw	x6,16(x17)
    7018:	03852883          	lw	x17,56(x10)
    701c:	f4010113          	addi	x2,x2,-192
    7020:	0b212823          	sw	x18,176(x2)
    7024:	0b312623          	sw	x19,172(x2)
    7028:	0b412423          	sw	x20,168(x2)
    702c:	0b612023          	sw	x22,160(x2)
    7030:	09712e23          	sw	x23,156(x2)
    7034:	09812c23          	sw	x24,152(x2)
    7038:	09912a23          	sw	x25,148(x2)
    703c:	09a12823          	sw	x26,144(x2)
    7040:	0a112e23          	sw	x1,188(x2)
    7044:	0a812c23          	sw	x8,184(x2)
    7048:	0a912a23          	sw	x9,180(x2)
    704c:	0b512223          	sw	x21,164(x2)
    7050:	09b12623          	sw	x27,140(x2)
    7054:	07f12623          	sw	x31,108(x2)
    7058:	07e12823          	sw	x30,112(x2)
    705c:	07d12a23          	sw	x29,116(x2)
    7060:	07c12c23          	sw	x28,120(x2)
    7064:	06612e23          	sw	x6,124(x2)
    7068:	02c12023          	sw	x12,32(x2)
    706c:	02d12223          	sw	x13,36(x2)
    7070:	0005aa03          	lw	x20,0(x11)
    7074:	0045a983          	lw	x19,4(x11)
    7078:	0085a903          	lw	x18,8(x11)
    707c:	00c5ac03          	lw	x24,12(x11)
    7080:	00050b13          	addi	x22,x10,0
    7084:	00070b93          	addi	x23,x14,0
    7088:	00078c93          	addi	x25,x15,0
    708c:	00080d13          	addi	x26,x16,0
    7090:	02088263          	beq	x17,x0,70b4 <_ldtoa_r+0xb8>
    7094:	03c52683          	lw	x13,60(x10)
    7098:	00100713          	addi	x14,x0,1
    709c:	00088593          	addi	x11,x17,0
    70a0:	00d71733          	sll	x14,x14,x13
    70a4:	00d8a223          	sw	x13,4(x17)
    70a8:	00e8a423          	sw	x14,8(x17)
    70ac:	5ac040ef          	jal	x1,b658 <_Bfree>
    70b0:	020b2c23          	sw	x0,56(x22)
    70b4:	07812603          	lw	x12,120(x2)
    70b8:	01fc5693          	srli	x13,x24,0x1f
    70bc:	001c1a93          	slli	x21,x24,0x1
    70c0:	40165713          	srai	x14,x12,0x1
    70c4:	ffffc4b7          	lui	x9,0xffffc
    70c8:	001c1413          	slli	x8,x24,0x1
    70cc:	00d77733          	and	x14,x14,x13
    70d0:	011ada93          	srli	x21,x21,0x11
    70d4:	f9148493          	addi	x9,x9,-111 # ffffbf91 <__heap_end+0xffbfbf91>
    70d8:	010c1d93          	slli	x27,x24,0x10
    70dc:	00dca023          	sw	x13,0(x25)
    70e0:	00145413          	srli	x8,x8,0x1
    70e4:	00c74733          	xor	x14,x14,x12
    70e8:	010ddd93          	srli	x27,x27,0x10
    70ec:	009a87b3          	add	x15,x21,x9
    70f0:	03010593          	addi	x11,x2,48
    70f4:	04010513          	addi	x10,x2,64
    70f8:	05412023          	sw	x20,64(x2)
    70fc:	05312223          	sw	x19,68(x2)
    7100:	05212423          	sw	x18,72(x2)
    7104:	04812623          	sw	x8,76(x2)
    7108:	03412823          	sw	x20,48(x2)
    710c:	03312a23          	sw	x19,52(x2)
    7110:	03212c23          	sw	x18,56(x2)
    7114:	02812e23          	sw	x8,60(x2)
    7118:	06e12c23          	sw	x14,120(x2)
    711c:	00f12e23          	sw	x15,28(x2)
    7120:	05412e23          	sw	x20,92(x2)
    7124:	07312023          	sw	x19,96(x2)
    7128:	07212223          	sw	x18,100(x2)
    712c:	07b12423          	sw	x27,104(x2)
    7130:	6c40b0ef          	jal	x1,127f4 <__unordtf2>
    7134:	18051e63          	bne	x10,x0,72d0 <_ldtoa_r+0x2d4>
    7138:	0000c797          	auipc	x15,0xc
    713c:	5d878793          	addi	x15,x15,1496 # 13710 <zeroes.0+0x4c>
    7140:	0007a603          	lw	x12,0(x15)
    7144:	0047a683          	lw	x13,4(x15)
    7148:	0087a483          	lw	x9,8(x15)
    714c:	00c7ac83          	lw	x25,12(x15)
    7150:	03010593          	addi	x11,x2,48
    7154:	04010513          	addi	x10,x2,64
    7158:	05412023          	sw	x20,64(x2)
    715c:	05312223          	sw	x19,68(x2)
    7160:	05212423          	sw	x18,72(x2)
    7164:	04812623          	sw	x8,76(x2)
    7168:	02c12823          	sw	x12,48(x2)
    716c:	02c12623          	sw	x12,44(x2)
    7170:	02d12a23          	sw	x13,52(x2)
    7174:	02d12423          	sw	x13,40(x2)
    7178:	02912c23          	sw	x9,56(x2)
    717c:	03912e23          	sw	x25,60(x2)
    7180:	6740b0ef          	jal	x1,127f4 <__unordtf2>
    7184:	08051c63          	bne	x10,x0,721c <_ldtoa_r+0x220>
    7188:	03010593          	addi	x11,x2,48
    718c:	04010513          	addi	x10,x2,64
    7190:	3ad080ef          	jal	x1,fd3c <__letf2>
    7194:	08a05463          	bge	x0,x10,721c <_ldtoa_r+0x220>
    7198:	00300793          	addi	x15,x0,3
    719c:	04f12c23          	sw	x15,88(x2)
    71a0:	02012783          	lw	x15,32(x2)
    71a4:	02412803          	lw	x16,36(x2)
    71a8:	01c12603          	lw	x12,28(x2)
    71ac:	05810713          	addi	x14,x2,88
    71b0:	01a12023          	sw	x26,0(x2)
    71b4:	000b8893          	addi	x17,x23,0
    71b8:	05c10693          	addi	x13,x2,92
    71bc:	06c10593          	addi	x11,x2,108
    71c0:	000b0513          	addi	x10,x22,0
    71c4:	2b5010ef          	jal	x1,8c78 <__gdtoa>
    71c8:	000ba703          	lw	x14,0(x23)
    71cc:	ffff87b7          	lui	x15,0xffff8
    71d0:	00f71863          	bne	x14,x15,71e0 <_ldtoa_r+0x1e4>
    71d4:	800007b7          	lui	x15,0x80000
    71d8:	fff78793          	addi	x15,x15,-1 # 7fffffff <__heap_end+0x7fbfffff>
    71dc:	00fba023          	sw	x15,0(x23)
    71e0:	0bc12083          	lw	x1,188(x2)
    71e4:	0b812403          	lw	x8,184(x2)
    71e8:	0b412483          	lw	x9,180(x2)
    71ec:	0b012903          	lw	x18,176(x2)
    71f0:	0ac12983          	lw	x19,172(x2)
    71f4:	0a812a03          	lw	x20,168(x2)
    71f8:	0a412a83          	lw	x21,164(x2)
    71fc:	0a012b03          	lw	x22,160(x2)
    7200:	09c12b83          	lw	x23,156(x2)
    7204:	09812c03          	lw	x24,152(x2)
    7208:	09412c83          	lw	x25,148(x2)
    720c:	09012d03          	lw	x26,144(x2)
    7210:	08c12d83          	lw	x27,140(x2)
    7214:	0c010113          	addi	x2,x2,192
    7218:	00008067          	jalr	x0,0(x1)
    721c:	0000c797          	auipc	x15,0xc
    7220:	50478793          	addi	x15,x15,1284 # 13720 <zeroes.0+0x5c>
    7224:	0007a603          	lw	x12,0(x15)
    7228:	0047a683          	lw	x13,4(x15)
    722c:	0087a703          	lw	x14,8(x15)
    7230:	00c7a783          	lw	x15,12(x15)
    7234:	03010593          	addi	x11,x2,48
    7238:	04010513          	addi	x10,x2,64
    723c:	05412023          	sw	x20,64(x2)
    7240:	05312223          	sw	x19,68(x2)
    7244:	05212423          	sw	x18,72(x2)
    7248:	04812623          	sw	x8,76(x2)
    724c:	02c12823          	sw	x12,48(x2)
    7250:	02d12a23          	sw	x13,52(x2)
    7254:	02e12c23          	sw	x14,56(x2)
    7258:	02f12e23          	sw	x15,60(x2)
    725c:	181080ef          	jal	x1,fbdc <__getf2>
    7260:	00054e63          	blt	x10,x0,727c <_ldtoa_r+0x280>
    7264:	000107b7          	lui	x15,0x10
    7268:	00fdedb3          	or	x27,x27,x15
    726c:	00100793          	addi	x15,x0,1
    7270:	04f12c23          	sw	x15,88(x2)
    7274:	07b12423          	sw	x27,104(x2)
    7278:	f29ff06f          	jal	x0,71a0 <_ldtoa_r+0x1a4>
    727c:	03010593          	addi	x11,x2,48
    7280:	04010513          	addi	x10,x2,64
    7284:	05412023          	sw	x20,64(x2)
    7288:	05312223          	sw	x19,68(x2)
    728c:	05212423          	sw	x18,72(x2)
    7290:	05812623          	sw	x24,76(x2)
    7294:	02012823          	sw	x0,48(x2)
    7298:	02012a23          	sw	x0,52(x2)
    729c:	02012c23          	sw	x0,56(x2)
    72a0:	02012e23          	sw	x0,60(x2)
    72a4:	069080ef          	jal	x1,fb0c <__eqtf2>
    72a8:	00051663          	bne	x10,x0,72b4 <_ldtoa_r+0x2b8>
    72ac:	04012c23          	sw	x0,88(x2)
    72b0:	ef1ff06f          	jal	x0,71a0 <_ldtoa_r+0x1a4>
    72b4:	ffffc4b7          	lui	x9,0xffffc
    72b8:	00200793          	addi	x15,x0,2
    72bc:	f9248493          	addi	x9,x9,-110 # ffffbf92 <__heap_end+0xffbfbf92>
    72c0:	04f12c23          	sw	x15,88(x2)
    72c4:	009a87b3          	add	x15,x21,x9
    72c8:	00f12e23          	sw	x15,28(x2)
    72cc:	ed5ff06f          	jal	x0,71a0 <_ldtoa_r+0x1a4>
    72d0:	00400793          	addi	x15,x0,4
    72d4:	04f12c23          	sw	x15,88(x2)
    72d8:	ec9ff06f          	jal	x0,71a0 <_ldtoa_r+0x1a4>

000072dc <_ldcheck>:
    72dc:	fb010113          	addi	x2,x2,-80
    72e0:	04912223          	sw	x9,68(x2)
    72e4:	00c52483          	lw	x9,12(x10)
    72e8:	05212023          	sw	x18,64(x2)
    72ec:	03312e23          	sw	x19,60(x2)
    72f0:	00852903          	lw	x18,8(x10)
    72f4:	00452983          	lw	x19,4(x10)
    72f8:	03412c23          	sw	x20,56(x2)
    72fc:	00052a03          	lw	x20,0(x10)
    7300:	00149493          	slli	x9,x9,0x1
    7304:	0014d493          	srli	x9,x9,0x1
    7308:	00010593          	addi	x11,x2,0
    730c:	01010513          	addi	x10,x2,16
    7310:	04112623          	sw	x1,76(x2)
    7314:	01412823          	sw	x20,16(x2)
    7318:	01312a23          	sw	x19,20(x2)
    731c:	01212c23          	sw	x18,24(x2)
    7320:	00912e23          	sw	x9,28(x2)
    7324:	01412023          	sw	x20,0(x2)
    7328:	01312223          	sw	x19,4(x2)
    732c:	01212423          	sw	x18,8(x2)
    7330:	00912623          	sw	x9,12(x2)
    7334:	4c00b0ef          	jal	x1,127f4 <__unordtf2>
    7338:	0a051263          	bne	x10,x0,73dc <_ldcheck+0x100>
    733c:	0000c797          	auipc	x15,0xc
    7340:	3d478793          	addi	x15,x15,980 # 13710 <zeroes.0+0x4c>
    7344:	03512a23          	sw	x21,52(x2)
    7348:	03612823          	sw	x22,48(x2)
    734c:	03712623          	sw	x23,44(x2)
    7350:	03812423          	sw	x24,40(x2)
    7354:	0047ab83          	lw	x23,4(x15)
    7358:	0007ac03          	lw	x24,0(x15)
    735c:	0087ab03          	lw	x22,8(x15)
    7360:	00c7aa83          	lw	x21,12(x15)
    7364:	00010593          	addi	x11,x2,0
    7368:	01010513          	addi	x10,x2,16
    736c:	04812423          	sw	x8,72(x2)
    7370:	01812023          	sw	x24,0(x2)
    7374:	01712223          	sw	x23,4(x2)
    7378:	01612423          	sw	x22,8(x2)
    737c:	01512623          	sw	x21,12(x2)
    7380:	00100413          	addi	x8,x0,1
    7384:	4700b0ef          	jal	x1,127f4 <__unordtf2>
    7388:	04050063          	beq	x10,x0,73c8 <_ldcheck+0xec>
    738c:	04c12083          	lw	x1,76(x2)
    7390:	00144513          	xori	x10,x8,1
    7394:	04812403          	lw	x8,72(x2)
    7398:	0ff57513          	andi	x10,x10,255
    739c:	03412a83          	lw	x21,52(x2)
    73a0:	03012b03          	lw	x22,48(x2)
    73a4:	02c12b83          	lw	x23,44(x2)
    73a8:	02812c03          	lw	x24,40(x2)
    73ac:	04412483          	lw	x9,68(x2)
    73b0:	04012903          	lw	x18,64(x2)
    73b4:	03c12983          	lw	x19,60(x2)
    73b8:	03812a03          	lw	x20,56(x2)
    73bc:	00151513          	slli	x10,x10,0x1
    73c0:	05010113          	addi	x2,x2,80
    73c4:	00008067          	jalr	x0,0(x1)
    73c8:	00010593          	addi	x11,x2,0
    73cc:	01010513          	addi	x10,x2,16
    73d0:	16d080ef          	jal	x1,fd3c <__letf2>
    73d4:	00152413          	slti	x8,x10,1
    73d8:	fb5ff06f          	jal	x0,738c <_ldcheck+0xb0>
    73dc:	04c12083          	lw	x1,76(x2)
    73e0:	04412483          	lw	x9,68(x2)
    73e4:	04012903          	lw	x18,64(x2)
    73e8:	03c12983          	lw	x19,60(x2)
    73ec:	03812a03          	lw	x20,56(x2)
    73f0:	00100513          	addi	x10,x0,1
    73f4:	05010113          	addi	x2,x2,80
    73f8:	00008067          	jalr	x0,0(x1)

000073fc <memcpy>:
    73fc:	00a5c7b3          	xor	x15,x11,x10
    7400:	0037f793          	andi	x15,x15,3
    7404:	00c508b3          	add	x17,x10,x12
    7408:	06079463          	bne	x15,x0,7470 <memcpy+0x74>
    740c:	00300793          	addi	x15,x0,3
    7410:	06c7f063          	bgeu	x15,x12,7470 <memcpy+0x74>
    7414:	00357793          	andi	x15,x10,3
    7418:	00050713          	addi	x14,x10,0
    741c:	06079a63          	bne	x15,x0,7490 <memcpy+0x94>
    7420:	ffc8f613          	andi	x12,x17,-4
    7424:	40e606b3          	sub	x13,x12,x14
    7428:	02000793          	addi	x15,x0,32
    742c:	08d7ce63          	blt	x15,x13,74c8 <memcpy+0xcc>
    7430:	00058693          	addi	x13,x11,0
    7434:	00070793          	addi	x15,x14,0
    7438:	02c77863          	bgeu	x14,x12,7468 <memcpy+0x6c>
    743c:	0006a803          	lw	x16,0(x13)
    7440:	00478793          	addi	x15,x15,4
    7444:	00468693          	addi	x13,x13,4
    7448:	ff07ae23          	sw	x16,-4(x15)
    744c:	fec7e8e3          	bltu	x15,x12,743c <memcpy+0x40>
    7450:	fff60793          	addi	x15,x12,-1
    7454:	40e787b3          	sub	x15,x15,x14
    7458:	ffc7f793          	andi	x15,x15,-4
    745c:	00478793          	addi	x15,x15,4
    7460:	00f70733          	add	x14,x14,x15
    7464:	00f585b3          	add	x11,x11,x15
    7468:	01176863          	bltu	x14,x17,7478 <memcpy+0x7c>
    746c:	00008067          	jalr	x0,0(x1)
    7470:	00050713          	addi	x14,x10,0
    7474:	05157863          	bgeu	x10,x17,74c4 <memcpy+0xc8>
    7478:	0005c783          	lbu	x15,0(x11)
    747c:	00170713          	addi	x14,x14,1
    7480:	00158593          	addi	x11,x11,1
    7484:	fef70fa3          	sb	x15,-1(x14)
    7488:	fee898e3          	bne	x17,x14,7478 <memcpy+0x7c>
    748c:	00008067          	jalr	x0,0(x1)
    7490:	0005c683          	lbu	x13,0(x11)
    7494:	00170713          	addi	x14,x14,1
    7498:	00377793          	andi	x15,x14,3
    749c:	fed70fa3          	sb	x13,-1(x14)
    74a0:	00158593          	addi	x11,x11,1
    74a4:	f6078ee3          	beq	x15,x0,7420 <memcpy+0x24>
    74a8:	0005c683          	lbu	x13,0(x11)
    74ac:	00170713          	addi	x14,x14,1
    74b0:	00377793          	andi	x15,x14,3
    74b4:	fed70fa3          	sb	x13,-1(x14)
    74b8:	00158593          	addi	x11,x11,1
    74bc:	fc079ae3          	bne	x15,x0,7490 <memcpy+0x94>
    74c0:	f61ff06f          	jal	x0,7420 <memcpy+0x24>
    74c4:	00008067          	jalr	x0,0(x1)
    74c8:	ff010113          	addi	x2,x2,-16
    74cc:	00812623          	sw	x8,12(x2)
    74d0:	02000413          	addi	x8,x0,32
    74d4:	0005a383          	lw	x7,0(x11)
    74d8:	0045a283          	lw	x5,4(x11)
    74dc:	0085af83          	lw	x31,8(x11)
    74e0:	00c5af03          	lw	x30,12(x11)
    74e4:	0105ae83          	lw	x29,16(x11)
    74e8:	0145ae03          	lw	x28,20(x11)
    74ec:	0185a303          	lw	x6,24(x11)
    74f0:	01c5a803          	lw	x16,28(x11)
    74f4:	0205a683          	lw	x13,32(x11)
    74f8:	02470713          	addi	x14,x14,36
    74fc:	40e607b3          	sub	x15,x12,x14
    7500:	fc772e23          	sw	x7,-36(x14)
    7504:	fe572023          	sw	x5,-32(x14)
    7508:	fff72223          	sw	x31,-28(x14)
    750c:	ffe72423          	sw	x30,-24(x14)
    7510:	ffd72623          	sw	x29,-20(x14)
    7514:	ffc72823          	sw	x28,-16(x14)
    7518:	fe672a23          	sw	x6,-12(x14)
    751c:	ff072c23          	sw	x16,-8(x14)
    7520:	fed72e23          	sw	x13,-4(x14)
    7524:	02458593          	addi	x11,x11,36
    7528:	faf446e3          	blt	x8,x15,74d4 <memcpy+0xd8>
    752c:	00058693          	addi	x13,x11,0
    7530:	00070793          	addi	x15,x14,0
    7534:	02c77863          	bgeu	x14,x12,7564 <memcpy+0x168>
    7538:	0006a803          	lw	x16,0(x13)
    753c:	00478793          	addi	x15,x15,4
    7540:	00468693          	addi	x13,x13,4
    7544:	ff07ae23          	sw	x16,-4(x15)
    7548:	fec7e8e3          	bltu	x15,x12,7538 <memcpy+0x13c>
    754c:	fff60793          	addi	x15,x12,-1
    7550:	40e787b3          	sub	x15,x15,x14
    7554:	ffc7f793          	andi	x15,x15,-4
    7558:	00478793          	addi	x15,x15,4
    755c:	00f70733          	add	x14,x14,x15
    7560:	00f585b3          	add	x11,x11,x15
    7564:	01176863          	bltu	x14,x17,7574 <memcpy+0x178>
    7568:	00c12403          	lw	x8,12(x2)
    756c:	01010113          	addi	x2,x2,16
    7570:	00008067          	jalr	x0,0(x1)
    7574:	0005c783          	lbu	x15,0(x11)
    7578:	00170713          	addi	x14,x14,1
    757c:	00158593          	addi	x11,x11,1
    7580:	fef70fa3          	sb	x15,-1(x14)
    7584:	fee882e3          	beq	x17,x14,7568 <memcpy+0x16c>
    7588:	0005c783          	lbu	x15,0(x11)
    758c:	00170713          	addi	x14,x14,1
    7590:	00158593          	addi	x11,x11,1
    7594:	fef70fa3          	sb	x15,-1(x14)
    7598:	fce89ee3          	bne	x17,x14,7574 <memcpy+0x178>
    759c:	fcdff06f          	jal	x0,7568 <memcpy+0x16c>

000075a0 <memmove>:
    75a0:	02a5f663          	bgeu	x11,x10,75cc <memmove+0x2c>
    75a4:	00c58733          	add	x14,x11,x12
    75a8:	02e57263          	bgeu	x10,x14,75cc <memmove+0x2c>
    75ac:	00c507b3          	add	x15,x10,x12
    75b0:	04060663          	beq	x12,x0,75fc <memmove+0x5c>
    75b4:	fff74683          	lbu	x13,-1(x14)
    75b8:	fff78793          	addi	x15,x15,-1
    75bc:	fff70713          	addi	x14,x14,-1
    75c0:	00d78023          	sb	x13,0(x15)
    75c4:	fef518e3          	bne	x10,x15,75b4 <memmove+0x14>
    75c8:	00008067          	jalr	x0,0(x1)
    75cc:	00f00793          	addi	x15,x0,15
    75d0:	02c7e863          	bltu	x15,x12,7600 <memmove+0x60>
    75d4:	00050793          	addi	x15,x10,0
    75d8:	fff60693          	addi	x13,x12,-1
    75dc:	0c060263          	beq	x12,x0,76a0 <memmove+0x100>
    75e0:	00168693          	addi	x13,x13,1
    75e4:	00d786b3          	add	x13,x15,x13
    75e8:	0005c703          	lbu	x14,0(x11)
    75ec:	00178793          	addi	x15,x15,1
    75f0:	00158593          	addi	x11,x11,1
    75f4:	fee78fa3          	sb	x14,-1(x15)
    75f8:	fed798e3          	bne	x15,x13,75e8 <memmove+0x48>
    75fc:	00008067          	jalr	x0,0(x1)
    7600:	00b567b3          	or	x15,x10,x11
    7604:	0037f793          	andi	x15,x15,3
    7608:	08079663          	bne	x15,x0,7694 <memmove+0xf4>
    760c:	ff060893          	addi	x17,x12,-16
    7610:	ff08f893          	andi	x17,x17,-16
    7614:	01088893          	addi	x17,x17,16
    7618:	011506b3          	add	x13,x10,x17
    761c:	00058713          	addi	x14,x11,0
    7620:	00050793          	addi	x15,x10,0
    7624:	00072803          	lw	x16,0(x14)
    7628:	01070713          	addi	x14,x14,16
    762c:	01078793          	addi	x15,x15,16
    7630:	ff07a823          	sw	x16,-16(x15)
    7634:	ff472803          	lw	x16,-12(x14)
    7638:	ff07aa23          	sw	x16,-12(x15)
    763c:	ff872803          	lw	x16,-8(x14)
    7640:	ff07ac23          	sw	x16,-8(x15)
    7644:	ffc72803          	lw	x16,-4(x14)
    7648:	ff07ae23          	sw	x16,-4(x15)
    764c:	fcd79ce3          	bne	x15,x13,7624 <memmove+0x84>
    7650:	00c67813          	andi	x16,x12,12
    7654:	011585b3          	add	x11,x11,x17
    7658:	00f67713          	andi	x14,x12,15
    765c:	04080463          	beq	x16,x0,76a4 <memmove+0x104>
    7660:	ffc70813          	addi	x16,x14,-4
    7664:	ffc87813          	andi	x16,x16,-4
    7668:	00480813          	addi	x16,x16,4
    766c:	010687b3          	add	x15,x13,x16
    7670:	00058713          	addi	x14,x11,0
    7674:	00072883          	lw	x17,0(x14)
    7678:	00468693          	addi	x13,x13,4
    767c:	00470713          	addi	x14,x14,4
    7680:	ff16ae23          	sw	x17,-4(x13)
    7684:	fef698e3          	bne	x13,x15,7674 <memmove+0xd4>
    7688:	00367613          	andi	x12,x12,3
    768c:	010585b3          	add	x11,x11,x16
    7690:	f49ff06f          	jal	x0,75d8 <memmove+0x38>
    7694:	fff60693          	addi	x13,x12,-1
    7698:	00050793          	addi	x15,x10,0
    769c:	f45ff06f          	jal	x0,75e0 <memmove+0x40>
    76a0:	00008067          	jalr	x0,0(x1)
    76a4:	00070613          	addi	x12,x14,0
    76a8:	f31ff06f          	jal	x0,75d8 <memmove+0x38>

000076ac <__sprint_r.part.0>:
    76ac:	0645a783          	lw	x15,100(x11)
    76b0:	fd010113          	addi	x2,x2,-48
    76b4:	01612823          	sw	x22,16(x2)
    76b8:	02112623          	sw	x1,44(x2)
    76bc:	01279713          	slli	x14,x15,0x12
    76c0:	00060b13          	addi	x22,x12,0
    76c4:	0e075863          	bge	x14,x0,77b4 <__sprint_r.part.0+0x108>
    76c8:	00862783          	lw	x15,8(x12)
    76cc:	03212023          	sw	x18,32(x2)
    76d0:	01312e23          	sw	x19,28(x2)
    76d4:	01512a23          	sw	x21,20(x2)
    76d8:	01712623          	sw	x23,12(x2)
    76dc:	00058913          	addi	x18,x11,0
    76e0:	00062b83          	lw	x23,0(x12)
    76e4:	00050993          	addi	x19,x10,0
    76e8:	fff00a93          	addi	x21,x0,-1
    76ec:	0a078863          	beq	x15,x0,779c <__sprint_r.part.0+0xf0>
    76f0:	02812423          	sw	x8,40(x2)
    76f4:	02912223          	sw	x9,36(x2)
    76f8:	01412c23          	sw	x20,24(x2)
    76fc:	01812423          	sw	x24,8(x2)
    7700:	004bac03          	lw	x24,4(x23)
    7704:	000ba403          	lw	x8,0(x23)
    7708:	002c5a13          	srli	x20,x24,0x2
    770c:	060a0663          	beq	x20,x0,7778 <__sprint_r.part.0+0xcc>
    7710:	00000493          	addi	x9,x0,0
    7714:	00c0006f          	jal	x0,7720 <__sprint_r.part.0+0x74>
    7718:	00440413          	addi	x8,x8,4
    771c:	049a0c63          	beq	x20,x9,7774 <__sprint_r.part.0+0xc8>
    7720:	00042583          	lw	x11,0(x8)
    7724:	00090613          	addi	x12,x18,0
    7728:	00098513          	addi	x10,x19,0
    772c:	3c5030ef          	jal	x1,b2f0 <_fputwc_r>
    7730:	00148493          	addi	x9,x9,1
    7734:	ff5512e3          	bne	x10,x21,7718 <__sprint_r.part.0+0x6c>
    7738:	02812403          	lw	x8,40(x2)
    773c:	02412483          	lw	x9,36(x2)
    7740:	02012903          	lw	x18,32(x2)
    7744:	01c12983          	lw	x19,28(x2)
    7748:	01812a03          	lw	x20,24(x2)
    774c:	01412a83          	lw	x21,20(x2)
    7750:	00c12b83          	lw	x23,12(x2)
    7754:	00812c03          	lw	x24,8(x2)
    7758:	fff00513          	addi	x10,x0,-1
    775c:	02c12083          	lw	x1,44(x2)
    7760:	000b2423          	sw	x0,8(x22)
    7764:	000b2223          	sw	x0,4(x22)
    7768:	01012b03          	lw	x22,16(x2)
    776c:	03010113          	addi	x2,x2,48
    7770:	00008067          	jalr	x0,0(x1)
    7774:	008b2783          	lw	x15,8(x22)
    7778:	ffcc7c13          	andi	x24,x24,-4
    777c:	418787b3          	sub	x15,x15,x24
    7780:	00fb2423          	sw	x15,8(x22)
    7784:	008b8b93          	addi	x23,x23,8
    7788:	f6079ce3          	bne	x15,x0,7700 <__sprint_r.part.0+0x54>
    778c:	02812403          	lw	x8,40(x2)
    7790:	02412483          	lw	x9,36(x2)
    7794:	01812a03          	lw	x20,24(x2)
    7798:	00812c03          	lw	x24,8(x2)
    779c:	02012903          	lw	x18,32(x2)
    77a0:	01c12983          	lw	x19,28(x2)
    77a4:	01412a83          	lw	x21,20(x2)
    77a8:	00c12b83          	lw	x23,12(x2)
    77ac:	00000513          	addi	x10,x0,0
    77b0:	fadff06f          	jal	x0,775c <__sprint_r.part.0+0xb0>
    77b4:	b29fa0ef          	jal	x1,22dc <__sfvwrite_r>
    77b8:	02c12083          	lw	x1,44(x2)
    77bc:	000b2423          	sw	x0,8(x22)
    77c0:	000b2223          	sw	x0,4(x22)
    77c4:	01012b03          	lw	x22,16(x2)
    77c8:	03010113          	addi	x2,x2,48
    77cc:	00008067          	jalr	x0,0(x1)

000077d0 <__sprint_r>:
    77d0:	00862703          	lw	x14,8(x12)
    77d4:	00070463          	beq	x14,x0,77dc <__sprint_r+0xc>
    77d8:	ed5ff06f          	jal	x0,76ac <__sprint_r.part.0>
    77dc:	00062223          	sw	x0,4(x12)
    77e0:	00000513          	addi	x10,x0,0
    77e4:	00008067          	jalr	x0,0(x1)

000077e8 <_vfiprintf_r>:
    77e8:	ed010113          	addi	x2,x2,-304
    77ec:	11312e23          	sw	x19,284(x2)
    77f0:	11612823          	sw	x22,272(x2)
    77f4:	11712623          	sw	x23,268(x2)
    77f8:	11812423          	sw	x24,264(x2)
    77fc:	12112623          	sw	x1,300(x2)
    7800:	0fb12e23          	sw	x27,252(x2)
    7804:	00050c13          	addi	x24,x10,0
    7808:	00058b13          	addi	x22,x11,0
    780c:	00060993          	addi	x19,x12,0
    7810:	00068b93          	addi	x23,x13,0
    7814:	00050863          	beq	x10,x0,7824 <_vfiprintf_r+0x3c>
    7818:	03452783          	lw	x15,52(x10)
    781c:	00079463          	bne	x15,x0,7824 <_vfiprintf_r+0x3c>
    7820:	1e80106f          	jal	x0,8a08 <_vfiprintf_r+0x1220>
    7824:	00cb1783          	lh	x15,12(x22)
    7828:	01279713          	slli	x14,x15,0x12
    782c:	02074663          	blt	x14,x0,7858 <_vfiprintf_r+0x70>
    7830:	064b2703          	lw	x14,100(x22)
    7834:	00002637          	lui	x12,0x2
    7838:	ffffe6b7          	lui	x13,0xffffe
    783c:	00c7e7b3          	or	x15,x15,x12
    7840:	fff68693          	addi	x13,x13,-1 # ffffdfff <__heap_end+0xffbfdfff>
    7844:	01079793          	slli	x15,x15,0x10
    7848:	4107d793          	srai	x15,x15,0x10
    784c:	00d77733          	and	x14,x14,x13
    7850:	00fb1623          	sh	x15,12(x22)
    7854:	06eb2223          	sw	x14,100(x22)
    7858:	0087f713          	andi	x14,x15,8
    785c:	12070e63          	beq	x14,x0,7998 <_vfiprintf_r+0x1b0>
    7860:	010b2703          	lw	x14,16(x22)
    7864:	12070a63          	beq	x14,x0,7998 <_vfiprintf_r+0x1b0>
    7868:	01a7f793          	andi	x15,x15,26
    786c:	00a00713          	addi	x14,x0,10
    7870:	14e78663          	beq	x15,x14,79bc <_vfiprintf_r+0x1d4>
    7874:	11512a23          	sw	x21,276(x2)
    7878:	00000d93          	addi	x27,x0,0
    787c:	04c10a93          	addi	x21,x2,76
    7880:	12812423          	sw	x8,296(x2)
    7884:	11412c23          	sw	x20,280(x2)
    7888:	11912223          	sw	x25,260(x2)
    788c:	11a12023          	sw	x26,256(x2)
    7890:	01812023          	sw	x24,0(x2)
    7894:	12912223          	sw	x9,292(x2)
    7898:	13212023          	sw	x18,288(x2)
    789c:	05512023          	sw	x21,64(x2)
    78a0:	04012423          	sw	x0,72(x2)
    78a4:	04012223          	sw	x0,68(x2)
    78a8:	000a8413          	addi	x8,x21,0
    78ac:	00012223          	sw	x0,4(x2)
    78b0:	00012a23          	sw	x0,20(x2)
    78b4:	00012c23          	sw	x0,24(x2)
    78b8:	00012e23          	sw	x0,28(x2)
    78bc:	0000cd17          	auipc	x26,0xc
    78c0:	e98d0d13          	addi	x26,x26,-360 # 13754 <zeroes.0+0x90>
    78c4:	01000a13          	addi	x20,x0,16
    78c8:	0000cc97          	auipc	x25,0xc
    78cc:	008c8c93          	addi	x25,x25,8 # 138d0 <zeroes.0>
    78d0:	000d8c13          	addi	x24,x27,0
    78d4:	000b8813          	addi	x16,x23,0
    78d8:	0009c783          	lbu	x15,0(x19)
    78dc:	32078863          	beq	x15,x0,7c0c <_vfiprintf_r+0x424>
    78e0:	00098493          	addi	x9,x19,0
    78e4:	02500713          	addi	x14,x0,37
    78e8:	3ce78863          	beq	x15,x14,7cb8 <_vfiprintf_r+0x4d0>
    78ec:	0014c783          	lbu	x15,1(x9)
    78f0:	00148493          	addi	x9,x9,1
    78f4:	fe079ae3          	bne	x15,x0,78e8 <_vfiprintf_r+0x100>
    78f8:	41348933          	sub	x18,x9,x19
    78fc:	31348863          	beq	x9,x19,7c0c <_vfiprintf_r+0x424>
    7900:	04812703          	lw	x14,72(x2)
    7904:	04412783          	lw	x15,68(x2)
    7908:	01342023          	sw	x19,0(x8)
    790c:	00e90733          	add	x14,x18,x14
    7910:	00178793          	addi	x15,x15,1
    7914:	01242223          	sw	x18,4(x8)
    7918:	04e12423          	sw	x14,72(x2)
    791c:	04f12223          	sw	x15,68(x2)
    7920:	00700693          	addi	x13,x0,7
    7924:	00840413          	addi	x8,x8,8
    7928:	02f6d463          	bge	x13,x15,7950 <_vfiprintf_r+0x168>
    792c:	4e070ce3          	beq	x14,x0,8624 <_vfiprintf_r+0xe3c>
    7930:	00012503          	lw	x10,0(x2)
    7934:	04010613          	addi	x12,x2,64
    7938:	000b0593          	addi	x11,x22,0
    793c:	01012423          	sw	x16,8(x2)
    7940:	d6dff0ef          	jal	x1,76ac <__sprint_r.part.0>
    7944:	00812803          	lw	x16,8(x2)
    7948:	0c051463          	bne	x10,x0,7a10 <_vfiprintf_r+0x228>
    794c:	000a8413          	addi	x8,x21,0
    7950:	0004c783          	lbu	x15,0(x9)
    7954:	012c0c33          	add	x24,x24,x18
    7958:	2a078a63          	beq	x15,x0,7c0c <_vfiprintf_r+0x424>
    795c:	0014c703          	lbu	x14,1(x9)
    7960:	00148993          	addi	x19,x9,1
    7964:	02010da3          	sb	x0,59(x2)
    7968:	fff00493          	addi	x9,x0,-1
    796c:	00000b93          	addi	x23,x0,0
    7970:	00000d93          	addi	x27,x0,0
    7974:	05a00913          	addi	x18,x0,90
    7978:	00198993          	addi	x19,x19,1
    797c:	fe070793          	addi	x15,x14,-32
    7980:	10f96c63          	bltu	x18,x15,7a98 <_vfiprintf_r+0x2b0>
    7984:	00279793          	slli	x15,x15,0x2
    7988:	01a787b3          	add	x15,x15,x26
    798c:	0007a783          	lw	x15,0(x15)
    7990:	01a787b3          	add	x15,x15,x26
    7994:	00078067          	jalr	x0,0(x15)
    7998:	000b0593          	addi	x11,x22,0
    799c:	000c0513          	addi	x10,x24,0
    79a0:	819fc0ef          	jal	x1,41b8 <__swsetup_r>
    79a4:	00050463          	beq	x10,x0,79ac <_vfiprintf_r+0x1c4>
    79a8:	16c0106f          	jal	x0,8b14 <_vfiprintf_r+0x132c>
    79ac:	00cb1783          	lh	x15,12(x22)
    79b0:	00a00713          	addi	x14,x0,10
    79b4:	01a7f793          	andi	x15,x15,26
    79b8:	eae79ee3          	bne	x15,x14,7874 <_vfiprintf_r+0x8c>
    79bc:	00eb1783          	lh	x15,14(x22)
    79c0:	ea07cae3          	blt	x15,x0,7874 <_vfiprintf_r+0x8c>
    79c4:	12c12083          	lw	x1,300(x2)
    79c8:	0fc12d83          	lw	x27,252(x2)
    79cc:	000b8693          	addi	x13,x23,0
    79d0:	00098613          	addi	x12,x19,0
    79d4:	10c12b83          	lw	x23,268(x2)
    79d8:	11c12983          	lw	x19,284(x2)
    79dc:	000b0593          	addi	x11,x22,0
    79e0:	000c0513          	addi	x10,x24,0
    79e4:	11012b03          	lw	x22,272(x2)
    79e8:	10812c03          	lw	x24,264(x2)
    79ec:	13010113          	addi	x2,x2,304
    79f0:	16c0106f          	jal	x0,8b5c <__sbprintf>
    79f4:	00012503          	lw	x10,0(x2)
    79f8:	04010613          	addi	x12,x2,64
    79fc:	000b0593          	addi	x11,x22,0
    7a00:	01012423          	sw	x16,8(x2)
    7a04:	ca9ff0ef          	jal	x1,76ac <__sprint_r.part.0>
    7a08:	00812803          	lw	x16,8(x2)
    7a0c:	1e050863          	beq	x10,x0,7bfc <_vfiprintf_r+0x414>
    7a10:	000c0d93          	addi	x27,x24,0
    7a14:	00cb5783          	lhu	x15,12(x22)
    7a18:	12812403          	lw	x8,296(x2)
    7a1c:	12412483          	lw	x9,292(x2)
    7a20:	0407f793          	andi	x15,x15,64
    7a24:	12012903          	lw	x18,288(x2)
    7a28:	11812a03          	lw	x20,280(x2)
    7a2c:	11412a83          	lw	x21,276(x2)
    7a30:	10412c83          	lw	x25,260(x2)
    7a34:	10012d03          	lw	x26,256(x2)
    7a38:	00078463          	beq	x15,x0,7a40 <_vfiprintf_r+0x258>
    7a3c:	0d80106f          	jal	x0,8b14 <_vfiprintf_r+0x132c>
    7a40:	12c12083          	lw	x1,300(x2)
    7a44:	11c12983          	lw	x19,284(x2)
    7a48:	11012b03          	lw	x22,272(x2)
    7a4c:	10c12b83          	lw	x23,268(x2)
    7a50:	10812c03          	lw	x24,264(x2)
    7a54:	000d8513          	addi	x10,x27,0
    7a58:	0fc12d83          	lw	x27,252(x2)
    7a5c:	13010113          	addi	x2,x2,304
    7a60:	00008067          	jalr	x0,0(x1)
    7a64:	00000b93          	addi	x23,x0,0
    7a68:	fd070793          	addi	x15,x14,-48
    7a6c:	00900613          	addi	x12,x0,9
    7a70:	0009c703          	lbu	x14,0(x19)
    7a74:	002b9693          	slli	x13,x23,0x2
    7a78:	01768bb3          	add	x23,x13,x23
    7a7c:	001b9b93          	slli	x23,x23,0x1
    7a80:	01778bb3          	add	x23,x15,x23
    7a84:	fd070793          	addi	x15,x14,-48
    7a88:	00198993          	addi	x19,x19,1
    7a8c:	fef672e3          	bgeu	x12,x15,7a70 <_vfiprintf_r+0x288>
    7a90:	fe070793          	addi	x15,x14,-32
    7a94:	eef978e3          	bgeu	x18,x15,7984 <_vfiprintf_r+0x19c>
    7a98:	16070a63          	beq	x14,x0,7c0c <_vfiprintf_r+0x424>
    7a9c:	08e10623          	sb	x14,140(x2)
    7aa0:	02010da3          	sb	x0,59(x2)
    7aa4:	00100693          	addi	x13,x0,1
    7aa8:	00100893          	addi	x17,x0,1
    7aac:	08c10913          	addi	x18,x2,140
    7ab0:	00000493          	addi	x9,x0,0
    7ab4:	00000f13          	addi	x30,x0,0
    7ab8:	04412603          	lw	x12,68(x2)
    7abc:	084dff93          	andi	x31,x27,132
    7ac0:	04812783          	lw	x15,72(x2)
    7ac4:	00160593          	addi	x11,x12,1 # 2001 <__fp_unlock+0x5>
    7ac8:	00058e13          	addi	x28,x11,0
    7acc:	000f9663          	bne	x31,x0,7ad8 <_vfiprintf_r+0x2f0>
    7ad0:	40db8733          	sub	x14,x23,x13
    7ad4:	1ee04ae3          	blt	x0,x14,84c8 <_vfiprintf_r+0xce0>
    7ad8:	03b14703          	lbu	x14,59(x2)
    7adc:	02070a63          	beq	x14,x0,7b10 <_vfiprintf_r+0x328>
    7ae0:	03b10713          	addi	x14,x2,59
    7ae4:	00178793          	addi	x15,x15,1
    7ae8:	00e42023          	sw	x14,0(x8)
    7aec:	00100713          	addi	x14,x0,1
    7af0:	00e42223          	sw	x14,4(x8)
    7af4:	04f12423          	sw	x15,72(x2)
    7af8:	05c12223          	sw	x28,68(x2)
    7afc:	00700713          	addi	x14,x0,7
    7b00:	0fc748e3          	blt	x14,x28,83f0 <_vfiprintf_r+0xc08>
    7b04:	000e0613          	addi	x12,x28,0
    7b08:	00840413          	addi	x8,x8,8
    7b0c:	001e0e13          	addi	x28,x28,1
    7b10:	060f0863          	beq	x30,x0,7b80 <_vfiprintf_r+0x398>
    7b14:	03c10713          	addi	x14,x2,60
    7b18:	00278793          	addi	x15,x15,2
    7b1c:	00e42023          	sw	x14,0(x8)
    7b20:	00200713          	addi	x14,x0,2
    7b24:	00e42223          	sw	x14,4(x8)
    7b28:	04f12423          	sw	x15,72(x2)
    7b2c:	05c12223          	sw	x28,68(x2)
    7b30:	00700713          	addi	x14,x0,7
    7b34:	13c756e3          	bge	x14,x28,8460 <_vfiprintf_r+0xc78>
    7b38:	34078ce3          	beq	x15,x0,8690 <_vfiprintf_r+0xea8>
    7b3c:	00012503          	lw	x10,0(x2)
    7b40:	04010613          	addi	x12,x2,64
    7b44:	000b0593          	addi	x11,x22,0
    7b48:	03012023          	sw	x16,32(x2)
    7b4c:	00d12823          	sw	x13,16(x2)
    7b50:	01112623          	sw	x17,12(x2)
    7b54:	01f12423          	sw	x31,8(x2)
    7b58:	b55ff0ef          	jal	x1,76ac <__sprint_r.part.0>
    7b5c:	ea051ae3          	bne	x10,x0,7a10 <_vfiprintf_r+0x228>
    7b60:	04412603          	lw	x12,68(x2)
    7b64:	04812783          	lw	x15,72(x2)
    7b68:	02012803          	lw	x16,32(x2)
    7b6c:	01012683          	lw	x13,16(x2)
    7b70:	00c12883          	lw	x17,12(x2)
    7b74:	00812f83          	lw	x31,8(x2)
    7b78:	000a8413          	addi	x8,x21,0
    7b7c:	00160e13          	addi	x28,x12,1
    7b80:	08000713          	addi	x14,x0,128
    7b84:	64ef8a63          	beq	x31,x14,81d8 <_vfiprintf_r+0x9f0>
    7b88:	411484b3          	sub	x9,x9,x17
    7b8c:	76904a63          	blt	x0,x9,8300 <_vfiprintf_r+0xb18>
    7b90:	00f887b3          	add	x15,x17,x15
    7b94:	01242023          	sw	x18,0(x8)
    7b98:	01142223          	sw	x17,4(x8)
    7b9c:	04f12423          	sw	x15,72(x2)
    7ba0:	05c12223          	sw	x28,68(x2)
    7ba4:	00700713          	addi	x14,x0,7
    7ba8:	61c75c63          	bge	x14,x28,81c0 <_vfiprintf_r+0x9d8>
    7bac:	10078e63          	beq	x15,x0,7cc8 <_vfiprintf_r+0x4e0>
    7bb0:	00012503          	lw	x10,0(x2)
    7bb4:	04010613          	addi	x12,x2,64
    7bb8:	000b0593          	addi	x11,x22,0
    7bbc:	01012623          	sw	x16,12(x2)
    7bc0:	00d12423          	sw	x13,8(x2)
    7bc4:	ae9ff0ef          	jal	x1,76ac <__sprint_r.part.0>
    7bc8:	e40514e3          	bne	x10,x0,7a10 <_vfiprintf_r+0x228>
    7bcc:	04812783          	lw	x15,72(x2)
    7bd0:	00c12803          	lw	x16,12(x2)
    7bd4:	00812683          	lw	x13,8(x2)
    7bd8:	000a8413          	addi	x8,x21,0
    7bdc:	004dfd93          	andi	x27,x27,4
    7be0:	000d8663          	beq	x27,x0,7bec <_vfiprintf_r+0x404>
    7be4:	40db84b3          	sub	x9,x23,x13
    7be8:	0e904c63          	blt	x0,x9,7ce0 <_vfiprintf_r+0x4f8>
    7bec:	00dbd463          	bge	x23,x13,7bf4 <_vfiprintf_r+0x40c>
    7bf0:	00068b93          	addi	x23,x13,0
    7bf4:	017c0c33          	add	x24,x24,x23
    7bf8:	de079ee3          	bne	x15,x0,79f4 <_vfiprintf_r+0x20c>
    7bfc:	0009c783          	lbu	x15,0(x19)
    7c00:	04012223          	sw	x0,68(x2)
    7c04:	000a8413          	addi	x8,x21,0
    7c08:	cc079ce3          	bne	x15,x0,78e0 <_vfiprintf_r+0xf8>
    7c0c:	04812783          	lw	x15,72(x2)
    7c10:	000c0d93          	addi	x27,x24,0
    7c14:	00012c03          	lw	x24,0(x2)
    7c18:	de078ee3          	beq	x15,x0,7a14 <_vfiprintf_r+0x22c>
    7c1c:	04010613          	addi	x12,x2,64
    7c20:	000b0593          	addi	x11,x22,0
    7c24:	000c0513          	addi	x10,x24,0
    7c28:	a85ff0ef          	jal	x1,76ac <__sprint_r.part.0>
    7c2c:	de9ff06f          	jal	x0,7a14 <_vfiprintf_r+0x22c>
    7c30:	00082b83          	lw	x23,0(x16)
    7c34:	00480813          	addi	x16,x16,4
    7c38:	2a0bc663          	blt	x23,x0,7ee4 <_vfiprintf_r+0x6fc>
    7c3c:	0009c703          	lbu	x14,0(x19)
    7c40:	d39ff06f          	jal	x0,7978 <_vfiprintf_r+0x190>
    7c44:	0009c703          	lbu	x14,0(x19)
    7c48:	020ded93          	ori	x27,x27,32
    7c4c:	d2dff06f          	jal	x0,7978 <_vfiprintf_r+0x190>
    7c50:	010ded93          	ori	x27,x27,16
    7c54:	020df793          	andi	x15,x27,32
    7c58:	16078e63          	beq	x15,x0,7dd4 <_vfiprintf_r+0x5ec>
    7c5c:	00780813          	addi	x16,x16,7
    7c60:	ff887813          	andi	x16,x16,-8
    7c64:	00482703          	lw	x14,4(x16)
    7c68:	00082783          	lw	x15,0(x16)
    7c6c:	00880813          	addi	x16,x16,8
    7c70:	00070893          	addi	x17,x14,0
    7c74:	18074663          	blt	x14,x0,7e00 <_vfiprintf_r+0x618>
    7c78:	1a04c463          	blt	x9,x0,7e20 <_vfiprintf_r+0x638>
    7c7c:	0117e733          	or	x14,x15,x17
    7c80:	f7fdfd93          	andi	x27,x27,-129
    7c84:	18071e63          	bne	x14,x0,7e20 <_vfiprintf_r+0x638>
    7c88:	660492e3          	bne	x9,x0,8aec <_vfiprintf_r+0x1304>
    7c8c:	03b14783          	lbu	x15,59(x2)
    7c90:	00000693          	addi	x13,x0,0
    7c94:	00000893          	addi	x17,x0,0
    7c98:	0f010913          	addi	x18,x2,240
    7c9c:	00078463          	beq	x15,x0,7ca4 <_vfiprintf_r+0x4bc>
    7ca0:	00168693          	addi	x13,x13,1
    7ca4:	002dff13          	andi	x30,x27,2
    7ca8:	e00f08e3          	beq	x30,x0,7ab8 <_vfiprintf_r+0x2d0>
    7cac:	00268693          	addi	x13,x13,2
    7cb0:	00200f13          	addi	x30,x0,2
    7cb4:	e05ff06f          	jal	x0,7ab8 <_vfiprintf_r+0x2d0>
    7cb8:	41348933          	sub	x18,x9,x19
    7cbc:	c53492e3          	bne	x9,x19,7900 <_vfiprintf_r+0x118>
    7cc0:	0004c783          	lbu	x15,0(x9)
    7cc4:	c95ff06f          	jal	x0,7958 <_vfiprintf_r+0x170>
    7cc8:	04012223          	sw	x0,68(x2)
    7ccc:	004dfd93          	andi	x27,x27,4
    7cd0:	100d80e3          	beq	x27,x0,85d0 <_vfiprintf_r+0xde8>
    7cd4:	40db84b3          	sub	x9,x23,x13
    7cd8:	0e905ce3          	bge	x0,x9,85d0 <_vfiprintf_r+0xde8>
    7cdc:	000a8413          	addi	x8,x21,0
    7ce0:	01000713          	addi	x14,x0,16
    7ce4:	04412603          	lw	x12,68(x2)
    7ce8:	60975ee3          	bge	x14,x9,8b04 <_vfiprintf_r+0x131c>
    7cec:	0000ce17          	auipc	x28,0xc
    7cf0:	bd4e0e13          	addi	x28,x28,-1068 # 138c0 <blanks.1>
    7cf4:	00d12423          	sw	x13,8(x2)
    7cf8:	01000913          	addi	x18,x0,16
    7cfc:	00040693          	addi	x13,x8,0
    7d00:	00700d93          	addi	x27,x0,7
    7d04:	00048413          	addi	x8,x9,0
    7d08:	01012623          	sw	x16,12(x2)
    7d0c:	000e0493          	addi	x9,x28,0
    7d10:	0180006f          	jal	x0,7d28 <_vfiprintf_r+0x540>
    7d14:	00260593          	addi	x11,x12,2
    7d18:	00868693          	addi	x13,x13,8
    7d1c:	00070613          	addi	x12,x14,0
    7d20:	ff040413          	addi	x8,x8,-16
    7d24:	04895863          	bge	x18,x8,7d74 <_vfiprintf_r+0x58c>
    7d28:	01078793          	addi	x15,x15,16
    7d2c:	00160713          	addi	x14,x12,1
    7d30:	0096a023          	sw	x9,0(x13)
    7d34:	0126a223          	sw	x18,4(x13)
    7d38:	04f12423          	sw	x15,72(x2)
    7d3c:	04e12223          	sw	x14,68(x2)
    7d40:	fceddae3          	bge	x27,x14,7d14 <_vfiprintf_r+0x52c>
    7d44:	48078263          	beq	x15,x0,81c8 <_vfiprintf_r+0x9e0>
    7d48:	00012503          	lw	x10,0(x2)
    7d4c:	04010613          	addi	x12,x2,64
    7d50:	000b0593          	addi	x11,x22,0
    7d54:	959ff0ef          	jal	x1,76ac <__sprint_r.part.0>
    7d58:	ca051ce3          	bne	x10,x0,7a10 <_vfiprintf_r+0x228>
    7d5c:	04412603          	lw	x12,68(x2)
    7d60:	ff040413          	addi	x8,x8,-16
    7d64:	04812783          	lw	x15,72(x2)
    7d68:	000a8693          	addi	x13,x21,0
    7d6c:	00160593          	addi	x11,x12,1
    7d70:	fa894ce3          	blt	x18,x8,7d28 <_vfiprintf_r+0x540>
    7d74:	00048e13          	addi	x28,x9,0
    7d78:	00c12803          	lw	x16,12(x2)
    7d7c:	00040493          	addi	x9,x8,0
    7d80:	00068413          	addi	x8,x13,0
    7d84:	00812683          	lw	x13,8(x2)
    7d88:	009787b3          	add	x15,x15,x9
    7d8c:	01c42023          	sw	x28,0(x8)
    7d90:	00942223          	sw	x9,4(x8)
    7d94:	04f12423          	sw	x15,72(x2)
    7d98:	04b12223          	sw	x11,68(x2)
    7d9c:	00700713          	addi	x14,x0,7
    7da0:	e4b756e3          	bge	x14,x11,7bec <_vfiprintf_r+0x404>
    7da4:	020786e3          	beq	x15,x0,85d0 <_vfiprintf_r+0xde8>
    7da8:	00012503          	lw	x10,0(x2)
    7dac:	04010613          	addi	x12,x2,64
    7db0:	000b0593          	addi	x11,x22,0
    7db4:	01012623          	sw	x16,12(x2)
    7db8:	00d12423          	sw	x13,8(x2)
    7dbc:	8f1ff0ef          	jal	x1,76ac <__sprint_r.part.0>
    7dc0:	c40518e3          	bne	x10,x0,7a10 <_vfiprintf_r+0x228>
    7dc4:	04812783          	lw	x15,72(x2)
    7dc8:	00c12803          	lw	x16,12(x2)
    7dcc:	00812683          	lw	x13,8(x2)
    7dd0:	e1dff06f          	jal	x0,7bec <_vfiprintf_r+0x404>
    7dd4:	010df713          	andi	x14,x27,16
    7dd8:	00082783          	lw	x15,0(x16)
    7ddc:	00480813          	addi	x16,x16,4
    7de0:	0e071c63          	bne	x14,x0,7ed8 <_vfiprintf_r+0x6f0>
    7de4:	040df713          	andi	x14,x27,64
    7de8:	0e070463          	beq	x14,x0,7ed0 <_vfiprintf_r+0x6e8>
    7dec:	01079793          	slli	x15,x15,0x10
    7df0:	4107d793          	srai	x15,x15,0x10
    7df4:	41f7d893          	srai	x17,x15,0x1f
    7df8:	00088713          	addi	x14,x17,0
    7dfc:	e6075ee3          	bge	x14,x0,7c78 <_vfiprintf_r+0x490>
    7e00:	02d00693          	addi	x13,x0,45
    7e04:	00f03733          	sltu	x14,x0,x15
    7e08:	411008b3          	sub	x17,x0,x17
    7e0c:	02d10da3          	sb	x13,59(x2)
    7e10:	40e888b3          	sub	x17,x17,x14
    7e14:	40f007b3          	sub	x15,x0,x15
    7e18:	0004c463          	blt	x9,x0,7e20 <_vfiprintf_r+0x638>
    7e1c:	f7fdfd93          	andi	x27,x27,-129
    7e20:	0c089ae3          	bne	x17,x0,86f4 <_vfiprintf_r+0xf0c>
    7e24:	00900713          	addi	x14,x0,9
    7e28:	0cf766e3          	bltu	x14,x15,86f4 <_vfiprintf_r+0xf0c>
    7e2c:	03078793          	addi	x15,x15,48
    7e30:	0ff7f793          	andi	x15,x15,255
    7e34:	0ef107a3          	sb	x15,239(x2)
    7e38:	00048693          	addi	x13,x9,0
    7e3c:	00904463          	blt	x0,x9,7e44 <_vfiprintf_r+0x65c>
    7e40:	00100693          	addi	x13,x0,1
    7e44:	00100893          	addi	x17,x0,1
    7e48:	0ef10913          	addi	x18,x2,239
    7e4c:	03b14783          	lbu	x15,59(x2)
    7e50:	e40798e3          	bne	x15,x0,7ca0 <_vfiprintf_r+0x4b8>
    7e54:	e51ff06f          	jal	x0,7ca4 <_vfiprintf_r+0x4bc>
    7e58:	00082903          	lw	x18,0(x16)
    7e5c:	02010da3          	sb	x0,59(x2)
    7e60:	00480813          	addi	x16,x16,4
    7e64:	3c090ee3          	beq	x18,x0,8a40 <_vfiprintf_r+0x1258>
    7e68:	01012423          	sw	x16,8(x2)
    7e6c:	2604cee3          	blt	x9,x0,88e8 <_vfiprintf_r+0x1100>
    7e70:	00048613          	addi	x12,x9,0
    7e74:	00000593          	addi	x11,x0,0
    7e78:	00090513          	addi	x10,x18,0
    7e7c:	f70fb0ef          	jal	x1,35ec <memchr>
    7e80:	00812803          	lw	x16,8(x2)
    7e84:	00048893          	addi	x17,x9,0
    7e88:	00050463          	beq	x10,x0,7e90 <_vfiprintf_r+0x6a8>
    7e8c:	412508b3          	sub	x17,x10,x18
    7e90:	03b14783          	lbu	x15,59(x2)
    7e94:	fff8c693          	xori	x13,x17,-1
    7e98:	41f6d693          	srai	x13,x13,0x1f
    7e9c:	00d8f6b3          	and	x13,x17,x13
    7ea0:	00000493          	addi	x9,x0,0
    7ea4:	00000f13          	addi	x30,x0,0
    7ea8:	de079ce3          	bne	x15,x0,7ca0 <_vfiprintf_r+0x4b8>
    7eac:	c0dff06f          	jal	x0,7ab8 <_vfiprintf_r+0x2d0>
    7eb0:	00082783          	lw	x15,0(x16)
    7eb4:	02010da3          	sb	x0,59(x2)
    7eb8:	00480813          	addi	x16,x16,4
    7ebc:	08f10623          	sb	x15,140(x2)
    7ec0:	00100693          	addi	x13,x0,1
    7ec4:	00100893          	addi	x17,x0,1
    7ec8:	08c10913          	addi	x18,x2,140
    7ecc:	be5ff06f          	jal	x0,7ab0 <_vfiprintf_r+0x2c8>
    7ed0:	200df713          	andi	x14,x27,512
    7ed4:	3e0716e3          	bne	x14,x0,8ac0 <_vfiprintf_r+0x12d8>
    7ed8:	41f7d893          	srai	x17,x15,0x1f
    7edc:	00088713          	addi	x14,x17,0
    7ee0:	d95ff06f          	jal	x0,7c74 <_vfiprintf_r+0x48c>
    7ee4:	41700bb3          	sub	x23,x0,x23
    7ee8:	0009c703          	lbu	x14,0(x19)
    7eec:	004ded93          	ori	x27,x27,4
    7ef0:	a89ff06f          	jal	x0,7978 <_vfiprintf_r+0x190>
    7ef4:	02b00793          	addi	x15,x0,43
    7ef8:	0009c703          	lbu	x14,0(x19)
    7efc:	02f10da3          	sb	x15,59(x2)
    7f00:	a79ff06f          	jal	x0,7978 <_vfiprintf_r+0x190>
    7f04:	0009c703          	lbu	x14,0(x19)
    7f08:	080ded93          	ori	x27,x27,128
    7f0c:	a6dff06f          	jal	x0,7978 <_vfiprintf_r+0x190>
    7f10:	0009c703          	lbu	x14,0(x19)
    7f14:	02a00793          	addi	x15,x0,42
    7f18:	00198613          	addi	x12,x19,1
    7f1c:	40f708e3          	beq	x14,x15,8b2c <_vfiprintf_r+0x1344>
    7f20:	fd070793          	addi	x15,x14,-48
    7f24:	00900693          	addi	x13,x0,9
    7f28:	00000493          	addi	x9,x0,0
    7f2c:	00900593          	addi	x11,x0,9
    7f30:	02f6e463          	bltu	x13,x15,7f58 <_vfiprintf_r+0x770>
    7f34:	00064703          	lbu	x14,0(x12)
    7f38:	00249693          	slli	x13,x9,0x2
    7f3c:	009684b3          	add	x9,x13,x9
    7f40:	00149493          	slli	x9,x9,0x1
    7f44:	00f484b3          	add	x9,x9,x15
    7f48:	fd070793          	addi	x15,x14,-48
    7f4c:	00160613          	addi	x12,x12,1
    7f50:	fef5f2e3          	bgeu	x11,x15,7f34 <_vfiprintf_r+0x74c>
    7f54:	0e04c6e3          	blt	x9,x0,8840 <_vfiprintf_r+0x1058>
    7f58:	00060993          	addi	x19,x12,0
    7f5c:	a21ff06f          	jal	x0,797c <_vfiprintf_r+0x194>
    7f60:	00012503          	lw	x10,0(x2)
    7f64:	01012423          	sw	x16,8(x2)
    7f68:	5d0030ef          	jal	x1,b538 <_localeconv_r>
    7f6c:	00452783          	lw	x15,4(x10)
    7f70:	00078513          	addi	x10,x15,0
    7f74:	00f12e23          	sw	x15,28(x2)
    7f78:	de8fb0ef          	jal	x1,3560 <strlen>
    7f7c:	00050793          	addi	x15,x10,0
    7f80:	00012503          	lw	x10,0(x2)
    7f84:	00f12c23          	sw	x15,24(x2)
    7f88:	5b0030ef          	jal	x1,b538 <_localeconv_r>
    7f8c:	00852703          	lw	x14,8(x10)
    7f90:	01812783          	lw	x15,24(x2)
    7f94:	00812803          	lw	x16,8(x2)
    7f98:	00e12a23          	sw	x14,20(x2)
    7f9c:	ca0780e3          	beq	x15,x0,7c3c <_vfiprintf_r+0x454>
    7fa0:	01412783          	lw	x15,20(x2)
    7fa4:	0009c703          	lbu	x14,0(x19)
    7fa8:	9c0788e3          	beq	x15,x0,7978 <_vfiprintf_r+0x190>
    7fac:	0007c783          	lbu	x15,0(x15)
    7fb0:	9c0784e3          	beq	x15,x0,7978 <_vfiprintf_r+0x190>
    7fb4:	400ded93          	ori	x27,x27,1024
    7fb8:	9c1ff06f          	jal	x0,7978 <_vfiprintf_r+0x190>
    7fbc:	0009c703          	lbu	x14,0(x19)
    7fc0:	001ded93          	ori	x27,x27,1
    7fc4:	9b5ff06f          	jal	x0,7978 <_vfiprintf_r+0x190>
    7fc8:	03b14783          	lbu	x15,59(x2)
    7fcc:	0009c703          	lbu	x14,0(x19)
    7fd0:	9a0794e3          	bne	x15,x0,7978 <_vfiprintf_r+0x190>
    7fd4:	02000793          	addi	x15,x0,32
    7fd8:	02f10da3          	sb	x15,59(x2)
    7fdc:	99dff06f          	jal	x0,7978 <_vfiprintf_r+0x190>
    7fe0:	010de713          	ori	x14,x27,16
    7fe4:	02077793          	andi	x15,x14,32
    7fe8:	66078863          	beq	x15,x0,8658 <_vfiprintf_r+0xe70>
    7fec:	00780813          	addi	x16,x16,7
    7ff0:	ff887813          	andi	x16,x16,-8
    7ff4:	00082783          	lw	x15,0(x16)
    7ff8:	00482603          	lw	x12,4(x16)
    7ffc:	00880813          	addi	x16,x16,8
    8000:	02010da3          	sb	x0,59(x2)
    8004:	bff77d93          	andi	x27,x14,-1025
    8008:	0c04c063          	blt	x9,x0,80c8 <_vfiprintf_r+0x8e0>
    800c:	00c7e6b3          	or	x13,x15,x12
    8010:	b7f77713          	andi	x14,x14,-1153
    8014:	1e0692e3          	bne	x13,x0,89f8 <_vfiprintf_r+0x1210>
    8018:	000d8693          	addi	x13,x27,0
    801c:	00000793          	addi	x15,x0,0
    8020:	00070d93          	addi	x27,x14,0
    8024:	08049663          	bne	x9,x0,80b0 <_vfiprintf_r+0x8c8>
    8028:	c60792e3          	bne	x15,x0,7c8c <_vfiprintf_r+0x4a4>
    802c:	0016f893          	andi	x17,x13,1
    8030:	7c088063          	beq	x17,x0,87f0 <_vfiprintf_r+0x1008>
    8034:	03000793          	addi	x15,x0,48
    8038:	0ef107a3          	sb	x15,239(x2)
    803c:	00088693          	addi	x13,x17,0
    8040:	0ef10913          	addi	x18,x2,239
    8044:	e09ff06f          	jal	x0,7e4c <_vfiprintf_r+0x664>
    8048:	0009c703          	lbu	x14,0(x19)
    804c:	06c00793          	addi	x15,x0,108
    8050:	1cf708e3          	beq	x14,x15,8a20 <_vfiprintf_r+0x1238>
    8054:	010ded93          	ori	x27,x27,16
    8058:	921ff06f          	jal	x0,7978 <_vfiprintf_r+0x190>
    805c:	0009c703          	lbu	x14,0(x19)
    8060:	06800793          	addi	x15,x0,104
    8064:	1af706e3          	beq	x14,x15,8a10 <_vfiprintf_r+0x1228>
    8068:	040ded93          	ori	x27,x27,64
    806c:	90dff06f          	jal	x0,7978 <_vfiprintf_r+0x190>
    8070:	010de693          	ori	x13,x27,16
    8074:	0206f793          	andi	x15,x13,32
    8078:	5a078c63          	beq	x15,x0,8630 <_vfiprintf_r+0xe48>
    807c:	00780813          	addi	x16,x16,7
    8080:	ff887813          	andi	x16,x16,-8
    8084:	00082783          	lw	x15,0(x16)
    8088:	00482883          	lw	x17,4(x16)
    808c:	00880813          	addi	x16,x16,8
    8090:	02010da3          	sb	x0,59(x2)
    8094:	00068d93          	addi	x27,x13,0
    8098:	d804c4e3          	blt	x9,x0,7e20 <_vfiprintf_r+0x638>
    809c:	0117e733          	or	x14,x15,x17
    80a0:	f7f6fd93          	andi	x27,x13,-129
    80a4:	d6071ee3          	bne	x14,x0,7e20 <_vfiprintf_r+0x638>
    80a8:	00100793          	addi	x15,x0,1
    80ac:	f6048ee3          	beq	x9,x0,8028 <_vfiprintf_r+0x840>
    80b0:	00100713          	addi	x14,x0,1
    80b4:	22e78ce3          	beq	x15,x14,8aec <_vfiprintf_r+0x1304>
    80b8:	00200713          	addi	x14,x0,2
    80bc:	1ae78ae3          	beq	x15,x14,8a70 <_vfiprintf_r+0x1288>
    80c0:	00000793          	addi	x15,x0,0
    80c4:	00000613          	addi	x12,x0,0
    80c8:	0f010913          	addi	x18,x2,240
    80cc:	01d61693          	slli	x13,x12,0x1d
    80d0:	0077f713          	andi	x14,x15,7
    80d4:	0037d793          	srli	x15,x15,0x3
    80d8:	03070713          	addi	x14,x14,48
    80dc:	00f6e7b3          	or	x15,x13,x15
    80e0:	00365613          	srli	x12,x12,0x3
    80e4:	fee90fa3          	sb	x14,-1(x18)
    80e8:	00c7e6b3          	or	x13,x15,x12
    80ec:	00090593          	addi	x11,x18,0
    80f0:	fff90913          	addi	x18,x18,-1
    80f4:	fc069ce3          	bne	x13,x0,80cc <_vfiprintf_r+0x8e4>
    80f8:	001df793          	andi	x15,x27,1
    80fc:	3a078a63          	beq	x15,x0,84b0 <_vfiprintf_r+0xcc8>
    8100:	03000793          	addi	x15,x0,48
    8104:	3af70663          	beq	x14,x15,84b0 <_vfiprintf_r+0xcc8>
    8108:	ffe58593          	addi	x11,x11,-2
    810c:	fef90fa3          	sb	x15,-1(x18)
    8110:	0f010793          	addi	x15,x2,240
    8114:	40b788b3          	sub	x17,x15,x11
    8118:	00048693          	addi	x13,x9,0
    811c:	7114cc63          	blt	x9,x17,8834 <_vfiprintf_r+0x104c>
    8120:	00058913          	addi	x18,x11,0
    8124:	d29ff06f          	jal	x0,7e4c <_vfiprintf_r+0x664>
    8128:	00008737          	lui	x14,0x8
    812c:	83070713          	addi	x14,x14,-2000 # 7830 <_vfiprintf_r+0x48>
    8130:	02e11e23          	sh	x14,60(x2)
    8134:	0000b717          	auipc	x14,0xb
    8138:	12070713          	addi	x14,x14,288 # 13254 <__clzsi2+0x4ec>
    813c:	00082783          	lw	x15,0(x16)
    8140:	00000613          	addi	x12,x0,0
    8144:	002ded93          	ori	x27,x27,2
    8148:	00480813          	addi	x16,x16,4
    814c:	00e12223          	sw	x14,4(x2)
    8150:	02010da3          	sb	x0,59(x2)
    8154:	3204c463          	blt	x9,x0,847c <_vfiprintf_r+0xc94>
    8158:	00c7e733          	or	x14,x15,x12
    815c:	f7fdf593          	andi	x11,x27,-129
    8160:	30071863          	bne	x14,x0,8470 <_vfiprintf_r+0xc88>
    8164:	000d8693          	addi	x13,x27,0
    8168:	00200793          	addi	x15,x0,2
    816c:	00058d93          	addi	x27,x11,0
    8170:	eb5ff06f          	jal	x0,8024 <_vfiprintf_r+0x83c>
    8174:	020df793          	andi	x15,x27,32
    8178:	68079a63          	bne	x15,x0,880c <_vfiprintf_r+0x1024>
    817c:	010df793          	andi	x15,x27,16
    8180:	0a0798e3          	bne	x15,x0,8a30 <_vfiprintf_r+0x1248>
    8184:	040df793          	andi	x15,x27,64
    8188:	120794e3          	bne	x15,x0,8ab0 <_vfiprintf_r+0x12c8>
    818c:	200dfd93          	andi	x27,x27,512
    8190:	0a0d80e3          	beq	x27,x0,8a30 <_vfiprintf_r+0x1248>
    8194:	00082783          	lw	x15,0(x16)
    8198:	00480813          	addi	x16,x16,4
    819c:	01878023          	sb	x24,0(x15)
    81a0:	f38ff06f          	jal	x0,78d8 <_vfiprintf_r+0xf0>
    81a4:	00100713          	addi	x14,x0,1
    81a8:	00088793          	addi	x15,x17,0
    81ac:	05212623          	sw	x18,76(x2)
    81b0:	05112823          	sw	x17,80(x2)
    81b4:	05112423          	sw	x17,72(x2)
    81b8:	04e12223          	sw	x14,68(x2)
    81bc:	000a8413          	addi	x8,x21,0
    81c0:	00840413          	addi	x8,x8,8
    81c4:	a19ff06f          	jal	x0,7bdc <_vfiprintf_r+0x3f4>
    81c8:	00100593          	addi	x11,x0,1
    81cc:	00000613          	addi	x12,x0,0
    81d0:	000a8693          	addi	x13,x21,0
    81d4:	b4dff06f          	jal	x0,7d20 <_vfiprintf_r+0x538>
    81d8:	40db8f33          	sub	x30,x23,x13
    81dc:	9be056e3          	bge	x0,x30,7b88 <_vfiprintf_r+0x3a0>
    81e0:	01000713          	addi	x14,x0,16
    81e4:	13e75ce3          	bge	x14,x30,8b1c <_vfiprintf_r+0x1334>
    81e8:	0000be97          	auipc	x29,0xb
    81ec:	6e8e8e93          	addi	x29,x29,1768 # 138d0 <zeroes.0>
    81f0:	00912623          	sw	x9,12(x2)
    81f4:	00d12823          	sw	x13,16(x2)
    81f8:	01000e13          	addi	x28,x0,16
    81fc:	00040693          	addi	x13,x8,0
    8200:	00700f93          	addi	x31,x0,7
    8204:	01112423          	sw	x17,8(x2)
    8208:	000f0413          	addi	x8,x30,0
    820c:	03012023          	sw	x16,32(x2)
    8210:	000e8493          	addi	x9,x29,0
    8214:	0180006f          	jal	x0,822c <_vfiprintf_r+0xa44>
    8218:	00260593          	addi	x11,x12,2
    821c:	00868693          	addi	x13,x13,8
    8220:	00070613          	addi	x12,x14,0
    8224:	ff040413          	addi	x8,x8,-16
    8228:	048e5c63          	bge	x28,x8,8280 <_vfiprintf_r+0xa98>
    822c:	01078793          	addi	x15,x15,16
    8230:	00160713          	addi	x14,x12,1
    8234:	0096a023          	sw	x9,0(x13)
    8238:	01c6a223          	sw	x28,4(x13)
    823c:	04f12423          	sw	x15,72(x2)
    8240:	04e12223          	sw	x14,68(x2)
    8244:	fcefdae3          	bge	x31,x14,8218 <_vfiprintf_r+0xa30>
    8248:	18078c63          	beq	x15,x0,83e0 <_vfiprintf_r+0xbf8>
    824c:	00012503          	lw	x10,0(x2)
    8250:	04010613          	addi	x12,x2,64
    8254:	000b0593          	addi	x11,x22,0
    8258:	c54ff0ef          	jal	x1,76ac <__sprint_r.part.0>
    825c:	fa051a63          	bne	x10,x0,7a10 <_vfiprintf_r+0x228>
    8260:	04412603          	lw	x12,68(x2)
    8264:	01000e13          	addi	x28,x0,16
    8268:	ff040413          	addi	x8,x8,-16
    826c:	04812783          	lw	x15,72(x2)
    8270:	000a8693          	addi	x13,x21,0
    8274:	00160593          	addi	x11,x12,1
    8278:	00700f93          	addi	x31,x0,7
    827c:	fa8e48e3          	blt	x28,x8,822c <_vfiprintf_r+0xa44>
    8280:	00040f13          	addi	x30,x8,0
    8284:	00048e93          	addi	x29,x9,0
    8288:	00068413          	addi	x8,x13,0
    828c:	00812883          	lw	x17,8(x2)
    8290:	01012683          	lw	x13,16(x2)
    8294:	02012803          	lw	x16,32(x2)
    8298:	00c12483          	lw	x9,12(x2)
    829c:	01e787b3          	add	x15,x15,x30
    82a0:	01d42023          	sw	x29,0(x8)
    82a4:	01e42223          	sw	x30,4(x8)
    82a8:	04f12423          	sw	x15,72(x2)
    82ac:	04b12223          	sw	x11,68(x2)
    82b0:	00700713          	addi	x14,x0,7
    82b4:	54b75463          	bge	x14,x11,87fc <_vfiprintf_r+0x1014>
    82b8:	7c078263          	beq	x15,x0,8a7c <_vfiprintf_r+0x1294>
    82bc:	00012503          	lw	x10,0(x2)
    82c0:	04010613          	addi	x12,x2,64
    82c4:	000b0593          	addi	x11,x22,0
    82c8:	01012823          	sw	x16,16(x2)
    82cc:	00d12623          	sw	x13,12(x2)
    82d0:	01112423          	sw	x17,8(x2)
    82d4:	bd8ff0ef          	jal	x1,76ac <__sprint_r.part.0>
    82d8:	f2051c63          	bne	x10,x0,7a10 <_vfiprintf_r+0x228>
    82dc:	00812883          	lw	x17,8(x2)
    82e0:	04412603          	lw	x12,68(x2)
    82e4:	04812783          	lw	x15,72(x2)
    82e8:	411484b3          	sub	x9,x9,x17
    82ec:	01012803          	lw	x16,16(x2)
    82f0:	00c12683          	lw	x13,12(x2)
    82f4:	000a8413          	addi	x8,x21,0
    82f8:	00160e13          	addi	x28,x12,1
    82fc:	88905ae3          	bge	x0,x9,7b90 <_vfiprintf_r+0x3a8>
    8300:	0000be97          	auipc	x29,0xb
    8304:	5d0e8e93          	addi	x29,x29,1488 # 138d0 <zeroes.0>
    8308:	0a9a5063          	bge	x20,x9,83a8 <_vfiprintf_r+0xbc0>
    830c:	00d12623          	sw	x13,12(x2)
    8310:	00700f13          	addi	x30,x0,7
    8314:	00040693          	addi	x13,x8,0
    8318:	01112423          	sw	x17,8(x2)
    831c:	00048413          	addi	x8,x9,0
    8320:	01012823          	sw	x16,16(x2)
    8324:	000c8493          	addi	x9,x25,0
    8328:	0180006f          	jal	x0,8340 <_vfiprintf_r+0xb58>
    832c:	00260e13          	addi	x28,x12,2
    8330:	00868693          	addi	x13,x13,8
    8334:	00070613          	addi	x12,x14,0
    8338:	ff040413          	addi	x8,x8,-16
    833c:	048a5a63          	bge	x20,x8,8390 <_vfiprintf_r+0xba8>
    8340:	01078793          	addi	x15,x15,16
    8344:	00160713          	addi	x14,x12,1
    8348:	0196a023          	sw	x25,0(x13)
    834c:	0146a223          	sw	x20,4(x13)
    8350:	04f12423          	sw	x15,72(x2)
    8354:	04e12223          	sw	x14,68(x2)
    8358:	fcef5ae3          	bge	x30,x14,832c <_vfiprintf_r+0xb44>
    835c:	06078a63          	beq	x15,x0,83d0 <_vfiprintf_r+0xbe8>
    8360:	00012503          	lw	x10,0(x2)
    8364:	04010613          	addi	x12,x2,64
    8368:	000b0593          	addi	x11,x22,0
    836c:	b40ff0ef          	jal	x1,76ac <__sprint_r.part.0>
    8370:	ea051063          	bne	x10,x0,7a10 <_vfiprintf_r+0x228>
    8374:	04412603          	lw	x12,68(x2)
    8378:	ff040413          	addi	x8,x8,-16
    837c:	04812783          	lw	x15,72(x2)
    8380:	000a8693          	addi	x13,x21,0
    8384:	00160e13          	addi	x28,x12,1
    8388:	00700f13          	addi	x30,x0,7
    838c:	fa8a4ae3          	blt	x20,x8,8340 <_vfiprintf_r+0xb58>
    8390:	00048e93          	addi	x29,x9,0
    8394:	00812883          	lw	x17,8(x2)
    8398:	00040493          	addi	x9,x8,0
    839c:	01012803          	lw	x16,16(x2)
    83a0:	00068413          	addi	x8,x13,0
    83a4:	00c12683          	lw	x13,12(x2)
    83a8:	009787b3          	add	x15,x15,x9
    83ac:	01d42023          	sw	x29,0(x8)
    83b0:	00942223          	sw	x9,4(x8)
    83b4:	04f12423          	sw	x15,72(x2)
    83b8:	05c12223          	sw	x28,68(x2)
    83bc:	00700713          	addi	x14,x0,7
    83c0:	23c74063          	blt	x14,x28,85e0 <_vfiprintf_r+0xdf8>
    83c4:	00840413          	addi	x8,x8,8
    83c8:	001e0e13          	addi	x28,x28,1
    83cc:	fc4ff06f          	jal	x0,7b90 <_vfiprintf_r+0x3a8>
    83d0:	00100e13          	addi	x28,x0,1
    83d4:	00000613          	addi	x12,x0,0
    83d8:	000a8693          	addi	x13,x21,0
    83dc:	f5dff06f          	jal	x0,8338 <_vfiprintf_r+0xb50>
    83e0:	00100593          	addi	x11,x0,1
    83e4:	00000613          	addi	x12,x0,0
    83e8:	000a8693          	addi	x13,x21,0
    83ec:	e39ff06f          	jal	x0,8224 <_vfiprintf_r+0xa3c>
    83f0:	04078a63          	beq	x15,x0,8444 <_vfiprintf_r+0xc5c>
    83f4:	00012503          	lw	x10,0(x2)
    83f8:	04010613          	addi	x12,x2,64
    83fc:	000b0593          	addi	x11,x22,0
    8400:	03012223          	sw	x16,36(x2)
    8404:	02d12023          	sw	x13,32(x2)
    8408:	01112823          	sw	x17,16(x2)
    840c:	01f12623          	sw	x31,12(x2)
    8410:	01e12423          	sw	x30,8(x2)
    8414:	a98ff0ef          	jal	x1,76ac <__sprint_r.part.0>
    8418:	de051c63          	bne	x10,x0,7a10 <_vfiprintf_r+0x228>
    841c:	04412603          	lw	x12,68(x2)
    8420:	04812783          	lw	x15,72(x2)
    8424:	02412803          	lw	x16,36(x2)
    8428:	02012683          	lw	x13,32(x2)
    842c:	01012883          	lw	x17,16(x2)
    8430:	00c12f83          	lw	x31,12(x2)
    8434:	00812f03          	lw	x30,8(x2)
    8438:	000a8413          	addi	x8,x21,0
    843c:	00160e13          	addi	x28,x12,1
    8440:	ed0ff06f          	jal	x0,7b10 <_vfiprintf_r+0x328>
    8444:	3e0f0063          	beq	x30,x0,8824 <_vfiprintf_r+0x103c>
    8448:	03c10793          	addi	x15,x2,60
    844c:	04f12623          	sw	x15,76(x2)
    8450:	00200793          	addi	x15,x0,2
    8454:	04f12823          	sw	x15,80(x2)
    8458:	00100e13          	addi	x28,x0,1
    845c:	000a8413          	addi	x8,x21,0
    8460:	000e0613          	addi	x12,x28,0
    8464:	00840413          	addi	x8,x8,8
    8468:	001e0e13          	addi	x28,x28,1
    846c:	f14ff06f          	jal	x0,7b80 <_vfiprintf_r+0x398>
    8470:	00200713          	addi	x14,x0,2
    8474:	00058d93          	addi	x27,x11,0
    8478:	c40708e3          	beq	x14,x0,80c8 <_vfiprintf_r+0x8e0>
    847c:	00412583          	lw	x11,4(x2)
    8480:	0f010913          	addi	x18,x2,240
    8484:	00f7f713          	andi	x14,x15,15
    8488:	00e58733          	add	x14,x11,x14
    848c:	00074683          	lbu	x13,0(x14)
    8490:	0047d793          	srli	x15,x15,0x4
    8494:	01c61713          	slli	x14,x12,0x1c
    8498:	00f767b3          	or	x15,x14,x15
    849c:	00465613          	srli	x12,x12,0x4
    84a0:	fed90fa3          	sb	x13,-1(x18)
    84a4:	00c7e733          	or	x14,x15,x12
    84a8:	fff90913          	addi	x18,x18,-1
    84ac:	fc071ce3          	bne	x14,x0,8484 <_vfiprintf_r+0xc9c>
    84b0:	0f010793          	addi	x15,x2,240
    84b4:	412788b3          	sub	x17,x15,x18
    84b8:	00048693          	addi	x13,x9,0
    84bc:	9914d8e3          	bge	x9,x17,7e4c <_vfiprintf_r+0x664>
    84c0:	00088693          	addi	x13,x17,0
    84c4:	989ff06f          	jal	x0,7e4c <_vfiprintf_r+0x664>
    84c8:	01000513          	addi	x10,x0,16
    84cc:	62e55463          	bge	x10,x14,8af4 <_vfiprintf_r+0x130c>
    84d0:	0000be17          	auipc	x28,0xb
    84d4:	3f0e0e13          	addi	x28,x28,1008 # 138c0 <blanks.1>
    84d8:	02912023          	sw	x9,32(x2)
    84dc:	02d12223          	sw	x13,36(x2)
    84e0:	01000e93          	addi	x29,x0,16
    84e4:	00040693          	addi	x13,x8,0
    84e8:	00700293          	addi	x5,x0,7
    84ec:	01e12423          	sw	x30,8(x2)
    84f0:	01f12623          	sw	x31,12(x2)
    84f4:	01112823          	sw	x17,16(x2)
    84f8:	00070413          	addi	x8,x14,0
    84fc:	03012423          	sw	x16,40(x2)
    8500:	000e0493          	addi	x9,x28,0
    8504:	01c0006f          	jal	x0,8520 <_vfiprintf_r+0xd38>
    8508:	00260513          	addi	x10,x12,2
    850c:	00868693          	addi	x13,x13,8
    8510:	00058613          	addi	x12,x11,0
    8514:	ff040413          	addi	x8,x8,-16
    8518:	048edc63          	bge	x29,x8,8570 <_vfiprintf_r+0xd88>
    851c:	00160593          	addi	x11,x12,1
    8520:	01078793          	addi	x15,x15,16
    8524:	0096a023          	sw	x9,0(x13)
    8528:	01d6a223          	sw	x29,4(x13)
    852c:	04f12423          	sw	x15,72(x2)
    8530:	04b12223          	sw	x11,68(x2)
    8534:	fcb2dae3          	bge	x5,x11,8508 <_vfiprintf_r+0xd20>
    8538:	08078463          	beq	x15,x0,85c0 <_vfiprintf_r+0xdd8>
    853c:	00012503          	lw	x10,0(x2)
    8540:	04010613          	addi	x12,x2,64
    8544:	000b0593          	addi	x11,x22,0
    8548:	964ff0ef          	jal	x1,76ac <__sprint_r.part.0>
    854c:	cc051263          	bne	x10,x0,7a10 <_vfiprintf_r+0x228>
    8550:	04412603          	lw	x12,68(x2)
    8554:	01000e93          	addi	x29,x0,16
    8558:	ff040413          	addi	x8,x8,-16
    855c:	04812783          	lw	x15,72(x2)
    8560:	000a8693          	addi	x13,x21,0
    8564:	00160513          	addi	x10,x12,1
    8568:	00700293          	addi	x5,x0,7
    856c:	fa8ec8e3          	blt	x29,x8,851c <_vfiprintf_r+0xd34>
    8570:	00040713          	addi	x14,x8,0
    8574:	00048e13          	addi	x28,x9,0
    8578:	00068413          	addi	x8,x13,0
    857c:	00812f03          	lw	x30,8(x2)
    8580:	00c12f83          	lw	x31,12(x2)
    8584:	01012883          	lw	x17,16(x2)
    8588:	02412683          	lw	x13,36(x2)
    858c:	02812803          	lw	x16,40(x2)
    8590:	02012483          	lw	x9,32(x2)
    8594:	00e787b3          	add	x15,x15,x14
    8598:	00e42223          	sw	x14,4(x8)
    859c:	01c42023          	sw	x28,0(x8)
    85a0:	04f12423          	sw	x15,72(x2)
    85a4:	04a12223          	sw	x10,68(x2)
    85a8:	00700713          	addi	x14,x0,7
    85ac:	0ea74a63          	blt	x14,x10,86a0 <_vfiprintf_r+0xeb8>
    85b0:	00840413          	addi	x8,x8,8
    85b4:	00150e13          	addi	x28,x10,1
    85b8:	00050613          	addi	x12,x10,0
    85bc:	d1cff06f          	jal	x0,7ad8 <_vfiprintf_r+0x2f0>
    85c0:	00000613          	addi	x12,x0,0
    85c4:	00100513          	addi	x10,x0,1
    85c8:	000a8693          	addi	x13,x21,0
    85cc:	f49ff06f          	jal	x0,8514 <_vfiprintf_r+0xd2c>
    85d0:	00dbd463          	bge	x23,x13,85d8 <_vfiprintf_r+0xdf0>
    85d4:	00068b93          	addi	x23,x13,0
    85d8:	017c0c33          	add	x24,x24,x23
    85dc:	e20ff06f          	jal	x0,7bfc <_vfiprintf_r+0x414>
    85e0:	bc0782e3          	beq	x15,x0,81a4 <_vfiprintf_r+0x9bc>
    85e4:	00012503          	lw	x10,0(x2)
    85e8:	04010613          	addi	x12,x2,64
    85ec:	000b0593          	addi	x11,x22,0
    85f0:	01012823          	sw	x16,16(x2)
    85f4:	00d12623          	sw	x13,12(x2)
    85f8:	01112423          	sw	x17,8(x2)
    85fc:	8b0ff0ef          	jal	x1,76ac <__sprint_r.part.0>
    8600:	c0051863          	bne	x10,x0,7a10 <_vfiprintf_r+0x228>
    8604:	04412e03          	lw	x28,68(x2)
    8608:	04812783          	lw	x15,72(x2)
    860c:	01012803          	lw	x16,16(x2)
    8610:	00c12683          	lw	x13,12(x2)
    8614:	00812883          	lw	x17,8(x2)
    8618:	000a8413          	addi	x8,x21,0
    861c:	001e0e13          	addi	x28,x28,1
    8620:	d70ff06f          	jal	x0,7b90 <_vfiprintf_r+0x3a8>
    8624:	04012223          	sw	x0,68(x2)
    8628:	000a8413          	addi	x8,x21,0
    862c:	b24ff06f          	jal	x0,7950 <_vfiprintf_r+0x168>
    8630:	0106f713          	andi	x14,x13,16
    8634:	00082783          	lw	x15,0(x16)
    8638:	00480813          	addi	x16,x16,4
    863c:	00071a63          	bne	x14,x0,8650 <_vfiprintf_r+0xe68>
    8640:	0406f713          	andi	x14,x13,64
    8644:	40070c63          	beq	x14,x0,8a5c <_vfiprintf_r+0x1274>
    8648:	01079793          	slli	x15,x15,0x10
    864c:	0107d793          	srli	x15,x15,0x10
    8650:	00000893          	addi	x17,x0,0
    8654:	a3dff06f          	jal	x0,8090 <_vfiprintf_r+0x8a8>
    8658:	01077693          	andi	x13,x14,16
    865c:	00082783          	lw	x15,0(x16)
    8660:	00480813          	addi	x16,x16,4
    8664:	02069263          	bne	x13,x0,8688 <_vfiprintf_r+0xea0>
    8668:	04077693          	andi	x13,x14,64
    866c:	00068a63          	beq	x13,x0,8680 <_vfiprintf_r+0xe98>
    8670:	01079793          	slli	x15,x15,0x10
    8674:	0107d793          	srli	x15,x15,0x10
    8678:	00000613          	addi	x12,x0,0
    867c:	985ff06f          	jal	x0,8000 <_vfiprintf_r+0x818>
    8680:	20077693          	andi	x13,x14,512
    8684:	44069863          	bne	x13,x0,8ad4 <_vfiprintf_r+0x12ec>
    8688:	00000613          	addi	x12,x0,0
    868c:	975ff06f          	jal	x0,8000 <_vfiprintf_r+0x818>
    8690:	00100e13          	addi	x28,x0,1
    8694:	00000613          	addi	x12,x0,0
    8698:	000a8413          	addi	x8,x21,0
    869c:	ce4ff06f          	jal	x0,7b80 <_vfiprintf_r+0x398>
    86a0:	24078e63          	beq	x15,x0,88fc <_vfiprintf_r+0x1114>
    86a4:	00012503          	lw	x10,0(x2)
    86a8:	04010613          	addi	x12,x2,64
    86ac:	000b0593          	addi	x11,x22,0
    86b0:	03012223          	sw	x16,36(x2)
    86b4:	02d12023          	sw	x13,32(x2)
    86b8:	01112823          	sw	x17,16(x2)
    86bc:	01f12623          	sw	x31,12(x2)
    86c0:	01e12423          	sw	x30,8(x2)
    86c4:	fe9fe0ef          	jal	x1,76ac <__sprint_r.part.0>
    86c8:	b4051463          	bne	x10,x0,7a10 <_vfiprintf_r+0x228>
    86cc:	04412603          	lw	x12,68(x2)
    86d0:	04812783          	lw	x15,72(x2)
    86d4:	02412803          	lw	x16,36(x2)
    86d8:	02012683          	lw	x13,32(x2)
    86dc:	01012883          	lw	x17,16(x2)
    86e0:	00c12f83          	lw	x31,12(x2)
    86e4:	00812f03          	lw	x30,8(x2)
    86e8:	000a8413          	addi	x8,x21,0
    86ec:	00160e13          	addi	x28,x12,1
    86f0:	be8ff06f          	jal	x0,7ad8 <_vfiprintf_r+0x2f0>
    86f4:	ccccde37          	lui	x28,0xccccd
    86f8:	ccccd3b7          	lui	x7,0xccccd
    86fc:	01412303          	lw	x6,20(x2)
    8700:	400dff13          	andi	x30,x27,1024
    8704:	00000513          	addi	x10,x0,0
    8708:	0f010593          	addi	x11,x2,240
    870c:	00500e93          	addi	x29,x0,5
    8710:	ccde0e13          	addi	x28,x28,-819 # cccccccd <__heap_end+0xcc8ccccd>
    8714:	ccc38393          	addi	x7,x7,-820 # cccccccc <__heap_end+0xcc8ccccc>
    8718:	0ff00f93          	addi	x31,x0,255
    871c:	0540006f          	jal	x0,8770 <_vfiprintf_r+0xf88>
    8720:	00f93733          	sltu	x14,x18,x15
    8724:	00e90733          	add	x14,x18,x14
    8728:	03d77733          	remu	x14,x14,x29
    872c:	40e78733          	sub	x14,x15,x14
    8730:	00e7b633          	sltu	x12,x15,x14
    8734:	40c88633          	sub	x12,x17,x12
    8738:	027702b3          	mul	x5,x14,x7
    873c:	03c60633          	mul	x12,x12,x28
    8740:	03c735b3          	mulhu	x11,x14,x28
    8744:	00560633          	add	x12,x12,x5
    8748:	03c70733          	mul	x14,x14,x28
    874c:	00b60633          	add	x12,x12,x11
    8750:	01f61593          	slli	x11,x12,0x1f
    8754:	00165613          	srli	x12,x12,0x1
    8758:	00175713          	srli	x14,x14,0x1
    875c:	00e5e733          	or	x14,x11,x14
    8760:	32088663          	beq	x17,x0,8a8c <_vfiprintf_r+0x12a4>
    8764:	00070793          	addi	x15,x14,0
    8768:	00060893          	addi	x17,x12,0
    876c:	00068593          	addi	x11,x13,0
    8770:	01178933          	add	x18,x15,x17
    8774:	00f93733          	sltu	x14,x18,x15
    8778:	00e90733          	add	x14,x18,x14
    877c:	03d77733          	remu	x14,x14,x29
    8780:	fff58693          	addi	x13,x11,-1
    8784:	00150513          	addi	x10,x10,1
    8788:	40e78733          	sub	x14,x15,x14
    878c:	00e7b2b3          	sltu	x5,x15,x14
    8790:	405882b3          	sub	x5,x17,x5
    8794:	03c73633          	mulhu	x12,x14,x28
    8798:	03c282b3          	mul	x5,x5,x28
    879c:	03c70733          	mul	x14,x14,x28
    87a0:	00c282b3          	add	x5,x5,x12
    87a4:	01f29293          	slli	x5,x5,0x1f
    87a8:	00175613          	srli	x12,x14,0x1
    87ac:	00c2e633          	or	x12,x5,x12
    87b0:	00261713          	slli	x14,x12,0x2
    87b4:	00c70733          	add	x14,x14,x12
    87b8:	00171713          	slli	x14,x14,0x1
    87bc:	40e78733          	sub	x14,x15,x14
    87c0:	03070713          	addi	x14,x14,48
    87c4:	fee58fa3          	sb	x14,-1(x11)
    87c8:	f40f0ce3          	beq	x30,x0,8720 <_vfiprintf_r+0xf38>
    87cc:	00034703          	lbu	x14,0(x6)
    87d0:	f4a718e3          	bne	x14,x10,8720 <_vfiprintf_r+0xf38>
    87d4:	f5f506e3          	beq	x10,x31,8720 <_vfiprintf_r+0xf38>
    87d8:	14089463          	bne	x17,x0,8920 <_vfiprintf_r+0x1138>
    87dc:	00900713          	addi	x14,x0,9
    87e0:	14f76063          	bltu	x14,x15,8920 <_vfiprintf_r+0x1138>
    87e4:	00612a23          	sw	x6,20(x2)
    87e8:	00068913          	addi	x18,x13,0
    87ec:	cc5ff06f          	jal	x0,84b0 <_vfiprintf_r+0xcc8>
    87f0:	00000693          	addi	x13,x0,0
    87f4:	0f010913          	addi	x18,x2,240
    87f8:	e54ff06f          	jal	x0,7e4c <_vfiprintf_r+0x664>
    87fc:	00840413          	addi	x8,x8,8
    8800:	00158e13          	addi	x28,x11,1
    8804:	00058613          	addi	x12,x11,0
    8808:	b80ff06f          	jal	x0,7b88 <_vfiprintf_r+0x3a0>
    880c:	00082783          	lw	x15,0(x16)
    8810:	41fc5713          	srai	x14,x24,0x1f
    8814:	00480813          	addi	x16,x16,4
    8818:	0187a023          	sw	x24,0(x15)
    881c:	00e7a223          	sw	x14,4(x15)
    8820:	8b8ff06f          	jal	x0,78d8 <_vfiprintf_r+0xf0>
    8824:	00000613          	addi	x12,x0,0
    8828:	00100e13          	addi	x28,x0,1
    882c:	000a8413          	addi	x8,x21,0
    8830:	b50ff06f          	jal	x0,7b80 <_vfiprintf_r+0x398>
    8834:	00088693          	addi	x13,x17,0
    8838:	00058913          	addi	x18,x11,0
    883c:	e10ff06f          	jal	x0,7e4c <_vfiprintf_r+0x664>
    8840:	fff00493          	addi	x9,x0,-1
    8844:	00060993          	addi	x19,x12,0
    8848:	934ff06f          	jal	x0,797c <_vfiprintf_r+0x194>
    884c:	000d8693          	addi	x13,x27,0
    8850:	825ff06f          	jal	x0,8074 <_vfiprintf_r+0x88c>
    8854:	000d8713          	addi	x14,x27,0
    8858:	f8cff06f          	jal	x0,7fe4 <_vfiprintf_r+0x7fc>
    885c:	0000b797          	auipc	x15,0xb
    8860:	a0c78793          	addi	x15,x15,-1524 # 13268 <__clzsi2+0x500>
    8864:	00f12223          	sw	x15,4(x2)
    8868:	020df793          	andi	x15,x27,32
    886c:	04078a63          	beq	x15,x0,88c0 <_vfiprintf_r+0x10d8>
    8870:	00780813          	addi	x16,x16,7
    8874:	ff887813          	andi	x16,x16,-8
    8878:	00082783          	lw	x15,0(x16)
    887c:	00482603          	lw	x12,4(x16)
    8880:	00880813          	addi	x16,x16,8
    8884:	001df693          	andi	x13,x27,1
    8888:	00068e63          	beq	x13,x0,88a4 <_vfiprintf_r+0x10bc>
    888c:	00c7e6b3          	or	x13,x15,x12
    8890:	00068a63          	beq	x13,x0,88a4 <_vfiprintf_r+0x10bc>
    8894:	03000693          	addi	x13,x0,48
    8898:	02d10e23          	sb	x13,60(x2)
    889c:	02e10ea3          	sb	x14,61(x2)
    88a0:	002ded93          	ori	x27,x27,2
    88a4:	bffdfd93          	andi	x27,x27,-1025
    88a8:	8a9ff06f          	jal	x0,8150 <_vfiprintf_r+0x968>
    88ac:	0000b797          	auipc	x15,0xb
    88b0:	9a878793          	addi	x15,x15,-1624 # 13254 <__clzsi2+0x4ec>
    88b4:	00f12223          	sw	x15,4(x2)
    88b8:	020df793          	andi	x15,x27,32
    88bc:	fa079ae3          	bne	x15,x0,8870 <_vfiprintf_r+0x1088>
    88c0:	010df693          	andi	x13,x27,16
    88c4:	00082783          	lw	x15,0(x16)
    88c8:	00480813          	addi	x16,x16,4
    88cc:	12069263          	bne	x13,x0,89f0 <_vfiprintf_r+0x1208>
    88d0:	040df693          	andi	x13,x27,64
    88d4:	10068a63          	beq	x13,x0,89e8 <_vfiprintf_r+0x1200>
    88d8:	01079793          	slli	x15,x15,0x10
    88dc:	0107d793          	srli	x15,x15,0x10
    88e0:	00000613          	addi	x12,x0,0
    88e4:	fa1ff06f          	jal	x0,8884 <_vfiprintf_r+0x109c>
    88e8:	00090513          	addi	x10,x18,0
    88ec:	c75fa0ef          	jal	x1,3560 <strlen>
    88f0:	00812803          	lw	x16,8(x2)
    88f4:	00050893          	addi	x17,x10,0
    88f8:	d98ff06f          	jal	x0,7e90 <_vfiprintf_r+0x6a8>
    88fc:	03b14703          	lbu	x14,59(x2)
    8900:	1a070063          	beq	x14,x0,8aa0 <_vfiprintf_r+0x12b8>
    8904:	03b10793          	addi	x15,x2,59
    8908:	04f12623          	sw	x15,76(x2)
    890c:	00100793          	addi	x15,x0,1
    8910:	04f12823          	sw	x15,80(x2)
    8914:	00100e13          	addi	x28,x0,1
    8918:	000a8413          	addi	x8,x21,0
    891c:	9e8ff06f          	jal	x0,7b04 <_vfiprintf_r+0x31c>
    8920:	02f12423          	sw	x15,40(x2)
    8924:	01812783          	lw	x15,24(x2)
    8928:	01c12583          	lw	x11,28(x2)
    892c:	03112623          	sw	x17,44(x2)
    8930:	40f686b3          	sub	x13,x13,x15
    8934:	00078613          	addi	x12,x15,0
    8938:	00068513          	addi	x10,x13,0
    893c:	02712223          	sw	x7,36(x2)
    8940:	03c12023          	sw	x28,32(x2)
    8944:	01012a23          	sw	x16,20(x2)
    8948:	01e12823          	sw	x30,16(x2)
    894c:	00612623          	sw	x6,12(x2)
    8950:	00d12423          	sw	x13,8(x2)
    8954:	21c020ef          	jal	x1,ab70 <strncpy>
    8958:	02812783          	lw	x15,40(x2)
    895c:	00500613          	addi	x12,x0,5
    8960:	00c12303          	lw	x6,12(x2)
    8964:	00f93733          	sltu	x14,x18,x15
    8968:	00e90733          	add	x14,x18,x14
    896c:	02c77733          	remu	x14,x14,x12
    8970:	00134603          	lbu	x12,1(x6)
    8974:	02c12883          	lw	x17,44(x2)
    8978:	ccccd5b7          	lui	x11,0xccccd
    897c:	00c03633          	sltu	x12,x0,x12
    8980:	ccccd2b7          	lui	x5,0xccccd
    8984:	00c30333          	add	x6,x6,x12
    8988:	ccd58593          	addi	x11,x11,-819 # cccccccd <__heap_end+0xcc8ccccd>
    898c:	ccc28293          	addi	x5,x5,-820 # cccccccc <__heap_end+0xcc8ccccc>
    8990:	00812683          	lw	x13,8(x2)
    8994:	01012f03          	lw	x30,16(x2)
    8998:	01412803          	lw	x16,20(x2)
    899c:	02012e03          	lw	x28,32(x2)
    89a0:	02412383          	lw	x7,36(x2)
    89a4:	00000513          	addi	x10,x0,0
    89a8:	00500e93          	addi	x29,x0,5
    89ac:	0ff00f93          	addi	x31,x0,255
    89b0:	40e78733          	sub	x14,x15,x14
    89b4:	00e7b633          	sltu	x12,x15,x14
    89b8:	40c88633          	sub	x12,x17,x12
    89bc:	025702b3          	mul	x5,x14,x5
    89c0:	02b60633          	mul	x12,x12,x11
    89c4:	02b738b3          	mulhu	x17,x14,x11
    89c8:	00560633          	add	x12,x12,x5
    89cc:	02b707b3          	mul	x15,x14,x11
    89d0:	01160633          	add	x12,x12,x17
    89d4:	01f61713          	slli	x14,x12,0x1f
    89d8:	00165613          	srli	x12,x12,0x1
    89dc:	0017d793          	srli	x15,x15,0x1
    89e0:	00f76733          	or	x14,x14,x15
    89e4:	d81ff06f          	jal	x0,8764 <_vfiprintf_r+0xf7c>
    89e8:	200df693          	andi	x13,x27,512
    89ec:	0e069a63          	bne	x13,x0,8ae0 <_vfiprintf_r+0x12f8>
    89f0:	00000613          	addi	x12,x0,0
    89f4:	e91ff06f          	jal	x0,8884 <_vfiprintf_r+0x109c>
    89f8:	00070d93          	addi	x27,x14,0
    89fc:	00000713          	addi	x14,x0,0
    8a00:	ec070463          	beq	x14,x0,80c8 <_vfiprintf_r+0x8e0>
    8a04:	a79ff06f          	jal	x0,847c <_vfiprintf_r+0xc94>
    8a08:	879f90ef          	jal	x1,2280 <__sinit>
    8a0c:	e19fe06f          	jal	x0,7824 <_vfiprintf_r+0x3c>
    8a10:	0019c703          	lbu	x14,1(x19)
    8a14:	200ded93          	ori	x27,x27,512
    8a18:	00198993          	addi	x19,x19,1
    8a1c:	f5dfe06f          	jal	x0,7978 <_vfiprintf_r+0x190>
    8a20:	0019c703          	lbu	x14,1(x19)
    8a24:	020ded93          	ori	x27,x27,32
    8a28:	00198993          	addi	x19,x19,1
    8a2c:	f4dfe06f          	jal	x0,7978 <_vfiprintf_r+0x190>
    8a30:	00082783          	lw	x15,0(x16)
    8a34:	00480813          	addi	x16,x16,4
    8a38:	0187a023          	sw	x24,0(x15)
    8a3c:	e9dfe06f          	jal	x0,78d8 <_vfiprintf_r+0xf0>
    8a40:	00600793          	addi	x15,x0,6
    8a44:	00048893          	addi	x17,x9,0
    8a48:	0497e863          	bltu	x15,x9,8a98 <_vfiprintf_r+0x12b0>
    8a4c:	00088693          	addi	x13,x17,0
    8a50:	0000b917          	auipc	x18,0xb
    8a54:	82c90913          	addi	x18,x18,-2004 # 1327c <__clzsi2+0x514>
    8a58:	858ff06f          	jal	x0,7ab0 <_vfiprintf_r+0x2c8>
    8a5c:	2006f713          	andi	x14,x13,512
    8a60:	be0708e3          	beq	x14,x0,8650 <_vfiprintf_r+0xe68>
    8a64:	0ff7f793          	andi	x15,x15,255
    8a68:	00000893          	addi	x17,x0,0
    8a6c:	e24ff06f          	jal	x0,8090 <_vfiprintf_r+0x8a8>
    8a70:	00000793          	addi	x15,x0,0
    8a74:	00000613          	addi	x12,x0,0
    8a78:	a05ff06f          	jal	x0,847c <_vfiprintf_r+0xc94>
    8a7c:	00100e13          	addi	x28,x0,1
    8a80:	00000613          	addi	x12,x0,0
    8a84:	000a8413          	addi	x8,x21,0
    8a88:	900ff06f          	jal	x0,7b88 <_vfiprintf_r+0x3a0>
    8a8c:	00900593          	addi	x11,x0,9
    8a90:	ccf5eae3          	bltu	x11,x15,8764 <_vfiprintf_r+0xf7c>
    8a94:	d51ff06f          	jal	x0,87e4 <_vfiprintf_r+0xffc>
    8a98:	00600893          	addi	x17,x0,6
    8a9c:	fb1ff06f          	jal	x0,8a4c <_vfiprintf_r+0x1264>
    8aa0:	00000613          	addi	x12,x0,0
    8aa4:	00100e13          	addi	x28,x0,1
    8aa8:	000a8413          	addi	x8,x21,0
    8aac:	864ff06f          	jal	x0,7b10 <_vfiprintf_r+0x328>
    8ab0:	00082783          	lw	x15,0(x16)
    8ab4:	00480813          	addi	x16,x16,4
    8ab8:	01879023          	sh	x24,0(x15)
    8abc:	e1dfe06f          	jal	x0,78d8 <_vfiprintf_r+0xf0>
    8ac0:	01879793          	slli	x15,x15,0x18
    8ac4:	4187d793          	srai	x15,x15,0x18
    8ac8:	41f7d893          	srai	x17,x15,0x1f
    8acc:	00088713          	addi	x14,x17,0
    8ad0:	9a4ff06f          	jal	x0,7c74 <_vfiprintf_r+0x48c>
    8ad4:	0ff7f793          	andi	x15,x15,255
    8ad8:	00000613          	addi	x12,x0,0
    8adc:	d24ff06f          	jal	x0,8000 <_vfiprintf_r+0x818>
    8ae0:	0ff7f793          	andi	x15,x15,255
    8ae4:	00000613          	addi	x12,x0,0
    8ae8:	d9dff06f          	jal	x0,8884 <_vfiprintf_r+0x109c>
    8aec:	03000793          	addi	x15,x0,48
    8af0:	b44ff06f          	jal	x0,7e34 <_vfiprintf_r+0x64c>
    8af4:	00058513          	addi	x10,x11,0
    8af8:	0000be17          	auipc	x28,0xb
    8afc:	dc8e0e13          	addi	x28,x28,-568 # 138c0 <blanks.1>
    8b00:	a95ff06f          	jal	x0,8594 <_vfiprintf_r+0xdac>
    8b04:	00160593          	addi	x11,x12,1
    8b08:	0000be17          	auipc	x28,0xb
    8b0c:	db8e0e13          	addi	x28,x28,-584 # 138c0 <blanks.1>
    8b10:	a78ff06f          	jal	x0,7d88 <_vfiprintf_r+0x5a0>
    8b14:	fff00d93          	addi	x27,x0,-1
    8b18:	f29fe06f          	jal	x0,7a40 <_vfiprintf_r+0x258>
    8b1c:	000e0593          	addi	x11,x28,0
    8b20:	0000be97          	auipc	x29,0xb
    8b24:	db0e8e93          	addi	x29,x29,-592 # 138d0 <zeroes.0>
    8b28:	f74ff06f          	jal	x0,829c <_vfiprintf_r+0xab4>
    8b2c:	00082483          	lw	x9,0(x16)
    8b30:	00480813          	addi	x16,x16,4
    8b34:	0004d463          	bge	x9,x0,8b3c <_vfiprintf_r+0x1354>
    8b38:	fff00493          	addi	x9,x0,-1
    8b3c:	0019c703          	lbu	x14,1(x19)
    8b40:	00060993          	addi	x19,x12,0
    8b44:	e35fe06f          	jal	x0,7978 <_vfiprintf_r+0x190>

00008b48 <vfiprintf>:
    8b48:	00060693          	addi	x13,x12,0
    8b4c:	00058613          	addi	x12,x11,0
    8b50:	00050593          	addi	x11,x10,0
    8b54:	f5c1a503          	lw	x10,-164(x3) # 143ac <_impure_ptr>
    8b58:	c91fe06f          	jal	x0,77e8 <_vfiprintf_r>

00008b5c <__sbprintf>:
    8b5c:	b8010113          	addi	x2,x2,-1152
    8b60:	00c59783          	lh	x15,12(x11)
    8b64:	00e5d703          	lhu	x14,14(x11)
    8b68:	46812c23          	sw	x8,1144(x2)
    8b6c:	00058413          	addi	x8,x11,0
    8b70:	000105b7          	lui	x11,0x10
    8b74:	ffd58593          	addi	x11,x11,-3 # fffd <__multf3+0x161>
    8b78:	06442e03          	lw	x28,100(x8)
    8b7c:	01c42303          	lw	x6,28(x8)
    8b80:	02442883          	lw	x17,36(x8)
    8b84:	01071713          	slli	x14,x14,0x10
    8b88:	00b7f7b3          	and	x15,x15,x11
    8b8c:	00e7e7b3          	or	x15,x15,x14
    8b90:	40000813          	addi	x16,x0,1024
    8b94:	00f12a23          	sw	x15,20(x2)
    8b98:	00810593          	addi	x11,x2,8
    8b9c:	07010793          	addi	x15,x2,112
    8ba0:	46912a23          	sw	x9,1140(x2)
    8ba4:	47212823          	sw	x18,1136(x2)
    8ba8:	46112e23          	sw	x1,1148(x2)
    8bac:	00050913          	addi	x18,x10,0
    8bb0:	07c12623          	sw	x28,108(x2)
    8bb4:	02612223          	sw	x6,36(x2)
    8bb8:	03112623          	sw	x17,44(x2)
    8bbc:	00f12423          	sw	x15,8(x2)
    8bc0:	00f12c23          	sw	x15,24(x2)
    8bc4:	01012823          	sw	x16,16(x2)
    8bc8:	01012e23          	sw	x16,28(x2)
    8bcc:	02012023          	sw	x0,32(x2)
    8bd0:	c19fe0ef          	jal	x1,77e8 <_vfiprintf_r>
    8bd4:	00050493          	addi	x9,x10,0
    8bd8:	02055c63          	bge	x10,x0,8c10 <__sbprintf+0xb4>
    8bdc:	01415783          	lhu	x15,20(x2)
    8be0:	0407f793          	andi	x15,x15,64
    8be4:	00078863          	beq	x15,x0,8bf4 <__sbprintf+0x98>
    8be8:	00c45783          	lhu	x15,12(x8)
    8bec:	0407e793          	ori	x15,x15,64
    8bf0:	00f41623          	sh	x15,12(x8)
    8bf4:	47c12083          	lw	x1,1148(x2)
    8bf8:	47812403          	lw	x8,1144(x2)
    8bfc:	47012903          	lw	x18,1136(x2)
    8c00:	00048513          	addi	x10,x9,0
    8c04:	47412483          	lw	x9,1140(x2)
    8c08:	48010113          	addi	x2,x2,1152
    8c0c:	00008067          	jalr	x0,0(x1)
    8c10:	00810593          	addi	x11,x2,8
    8c14:	00090513          	addi	x10,x18,0
    8c18:	be4fb0ef          	jal	x1,3ffc <_fflush_r>
    8c1c:	fc0500e3          	beq	x10,x0,8bdc <__sbprintf+0x80>
    8c20:	fff00493          	addi	x9,x0,-1
    8c24:	fb9ff06f          	jal	x0,8bdc <__sbprintf+0x80>

00008c28 <_sbrk_r>:
    8c28:	ff010113          	addi	x2,x2,-16
    8c2c:	00812423          	sw	x8,8(x2)
    8c30:	00050413          	addi	x8,x10,0
    8c34:	00058513          	addi	x10,x11,0
    8c38:	f601ae23          	sw	x0,-132(x3) # 143cc <errno>
    8c3c:	00112623          	sw	x1,12(x2)
    8c40:	80af90ef          	jal	x1,1c4a <_sbrk>
    8c44:	fff00793          	addi	x15,x0,-1
    8c48:	00f50a63          	beq	x10,x15,8c5c <_sbrk_r+0x34>
    8c4c:	00c12083          	lw	x1,12(x2)
    8c50:	00812403          	lw	x8,8(x2)
    8c54:	01010113          	addi	x2,x2,16
    8c58:	00008067          	jalr	x0,0(x1)
    8c5c:	f7c1a783          	lw	x15,-132(x3) # 143cc <errno>
    8c60:	fe0786e3          	beq	x15,x0,8c4c <_sbrk_r+0x24>
    8c64:	00c12083          	lw	x1,12(x2)
    8c68:	00f42023          	sw	x15,0(x8)
    8c6c:	00812403          	lw	x8,8(x2)
    8c70:	01010113          	addi	x2,x2,16
    8c74:	00008067          	jalr	x0,0(x1)

00008c78 <__gdtoa>:
    8c78:	f4010113          	addi	x2,x2,-192
    8c7c:	0b612023          	sw	x22,160(x2)
    8c80:	00072b03          	lw	x22,0(x14)
    8c84:	0b212823          	sw	x18,176(x2)
    8c88:	0a112e23          	sw	x1,188(x2)
    8c8c:	fcfb7313          	andi	x6,x22,-49
    8c90:	00672023          	sw	x6,0(x14)
    8c94:	00070913          	addi	x18,x14,0
    8c98:	0c012703          	lw	x14,192(x2)
    8c9c:	00fb7313          	andi	x6,x22,15
    8ca0:	00300e13          	addi	x28,x0,3
    8ca4:	00e12423          	sw	x14,8(x2)
    8ca8:	00a12023          	sw	x10,0(x2)
    8cac:	00c12823          	sw	x12,16(x2)
    8cb0:	01012a23          	sw	x16,20(x2)
    8cb4:	01112223          	sw	x17,4(x2)
    8cb8:	7fc30663          	beq	x6,x28,94a4 <__gdtoa+0x82c>
    8cbc:	09812c23          	sw	x24,152(x2)
    8cc0:	00cb7c13          	andi	x24,x22,12
    8cc4:	720c1e63          	bne	x24,x0,9400 <__gdtoa+0x788>
    8cc8:	78030c63          	beq	x6,x0,9460 <__gdtoa+0x7e8>
    8ccc:	0b512223          	sw	x21,164(x2)
    8cd0:	0005aa83          	lw	x21,0(x11)
    8cd4:	0b312623          	sw	x19,172(x2)
    8cd8:	09a12823          	sw	x26,144(x2)
    8cdc:	09b12623          	sw	x27,140(x2)
    8ce0:	00068993          	addi	x19,x13,0
    8ce4:	02000693          	addi	x13,x0,32
    8ce8:	00058d93          	addi	x27,x11,0
    8cec:	00078d13          	addi	x26,x15,0
    8cf0:	00000593          	addi	x11,x0,0
    8cf4:	02000793          	addi	x15,x0,32
    8cf8:	0156d863          	bge	x13,x21,8d08 <__gdtoa+0x90>
    8cfc:	00179793          	slli	x15,x15,0x1
    8d00:	00158593          	addi	x11,x11,1
    8d04:	ff57cce3          	blt	x15,x21,8cfc <__gdtoa+0x84>
    8d08:	00012503          	lw	x10,0(x2)
    8d0c:	099020ef          	jal	x1,b5a4 <_Balloc>
    8d10:	00a12623          	sw	x10,12(x2)
    8d14:	3c0508e3          	beq	x10,x0,98e4 <__gdtoa+0xc6c>
    8d18:	00c12783          	lw	x15,12(x2)
    8d1c:	fffa8513          	addi	x10,x21,-1
    8d20:	40555513          	srai	x10,x10,0x5
    8d24:	00251593          	slli	x11,x10,0x2
    8d28:	01478693          	addi	x13,x15,20
    8d2c:	0b412423          	sw	x20,168(x2)
    8d30:	09912a23          	sw	x25,148(x2)
    8d34:	00b985b3          	add	x11,x19,x11
    8d38:	00098793          	addi	x15,x19,0
    8d3c:	0007a703          	lw	x14,0(x15)
    8d40:	00478793          	addi	x15,x15,4
    8d44:	00468693          	addi	x13,x13,4
    8d48:	fee6ae23          	sw	x14,-4(x13)
    8d4c:	fef5f8e3          	bgeu	x11,x15,8d3c <__gdtoa+0xc4>
    8d50:	00158593          	addi	x11,x11,1
    8d54:	00198793          	addi	x15,x19,1
    8d58:	00400693          	addi	x13,x0,4
    8d5c:	00f5e663          	bltu	x11,x15,8d68 <__gdtoa+0xf0>
    8d60:	00251513          	slli	x10,x10,0x2
    8d64:	00450693          	addi	x13,x10,4
    8d68:	00c12783          	lw	x15,12(x2)
    8d6c:	4026dc93          	srai	x25,x13,0x2
    8d70:	00d786b3          	add	x13,x15,x13
    8d74:	00c0006f          	jal	x0,8d80 <__gdtoa+0x108>
    8d78:	ffc68693          	addi	x13,x13,-4
    8d7c:	7a0c8063          	beq	x25,x0,951c <__gdtoa+0x8a4>
    8d80:	0106a783          	lw	x15,16(x13)
    8d84:	000c8a13          	addi	x20,x25,0
    8d88:	fffc8c93          	addi	x25,x25,-1
    8d8c:	fe0786e3          	beq	x15,x0,8d78 <__gdtoa+0x100>
    8d90:	00c12703          	lw	x14,12(x2)
    8d94:	004c8793          	addi	x15,x25,4
    8d98:	00279793          	slli	x15,x15,0x2
    8d9c:	00f707b3          	add	x15,x14,x15
    8da0:	0047a503          	lw	x10,4(x15)
    8da4:	01472823          	sw	x20,16(x14)
    8da8:	005a1a13          	slli	x20,x20,0x5
    8dac:	355020ef          	jal	x1,b900 <__hi0bits>
    8db0:	40aa0cb3          	sub	x25,x20,x10
    8db4:	00c12503          	lw	x10,12(x2)
    8db8:	2f5030ef          	jal	x1,c8ac <__trailz_D2A>
    8dbc:	01012783          	lw	x15,16(x2)
    8dc0:	06a12e23          	sw	x10,124(x2)
    8dc4:	02f12023          	sw	x15,32(x2)
    8dc8:	78051e63          	bne	x10,x0,9564 <__gdtoa+0x8ec>
    8dcc:	00c12783          	lw	x15,12(x2)
    8dd0:	0107a683          	lw	x13,16(x15)
    8dd4:	66068463          	beq	x13,x0,943c <__gdtoa+0x7c4>
    8dd8:	00c12503          	lw	x10,12(x2)
    8ddc:	07c10593          	addi	x11,x2,124
    8de0:	0a812c23          	sw	x8,184(x2)
    8de4:	0a912a23          	sw	x9,180(x2)
    8de8:	09712e23          	sw	x23,156(x2)
    8dec:	550030ef          	jal	x1,c33c <__b2d>
    8df0:	00c59a13          	slli	x20,x11,0xc
    8df4:	00ca5a13          	srli	x20,x20,0xc
    8df8:	3ff006b7          	lui	x13,0x3ff00
    8dfc:	00da64b3          	or	x9,x20,x13
    8e00:	02012703          	lw	x14,32(x2)
    8e04:	0000b697          	auipc	x13,0xb
    8e08:	53c68693          	addi	x13,x13,1340 # 14340 <__SDATA_BEGIN__>
    8e0c:	0006a603          	lw	x12,0(x13)
    8e10:	0046a683          	lw	x13,4(x13)
    8e14:	01970733          	add	x14,x14,x25
    8e18:	00050793          	addi	x15,x10,0
    8e1c:	00048593          	addi	x11,x9,0
    8e20:	fff70a13          	addi	x20,x14,-1
    8e24:	04f12423          	sw	x15,72(x2)
    8e28:	00e12e23          	sw	x14,28(x2)
    8e2c:	02a12c23          	sw	x10,56(x2)
    8e30:	298060ef          	jal	x1,f0c8 <__subdf3>
    8e34:	0000b697          	auipc	x13,0xb
    8e38:	51468693          	addi	x13,x13,1300 # 14348 <__SDATA_BEGIN__+0x8>
    8e3c:	0006a603          	lw	x12,0(x13)
    8e40:	0046a683          	lw	x13,4(x13)
    8e44:	3ad050ef          	jal	x1,e9f0 <__muldf3>
    8e48:	0000b697          	auipc	x13,0xb
    8e4c:	50868693          	addi	x13,x13,1288 # 14350 <__SDATA_BEGIN__+0x10>
    8e50:	0006a603          	lw	x12,0(x13)
    8e54:	0046a683          	lw	x13,4(x13)
    8e58:	0b1040ef          	jal	x1,d708 <__adddf3>
    8e5c:	00050b93          	addi	x23,x10,0
    8e60:	000a0513          	addi	x10,x20,0
    8e64:	00058413          	addi	x8,x11,0
    8e68:	3ed060ef          	jal	x1,fa54 <__floatsidf>
    8e6c:	0000b697          	auipc	x13,0xb
    8e70:	4ec68693          	addi	x13,x13,1260 # 14358 <__SDATA_BEGIN__+0x18>
    8e74:	0006a603          	lw	x12,0(x13)
    8e78:	0046a683          	lw	x13,4(x13)
    8e7c:	375050ef          	jal	x1,e9f0 <__muldf3>
    8e80:	00050613          	addi	x12,x10,0
    8e84:	00058693          	addi	x13,x11,0
    8e88:	000b8513          	addi	x10,x23,0
    8e8c:	00040593          	addi	x11,x8,0
    8e90:	079040ef          	jal	x1,d708 <__adddf3>
    8e94:	00050b93          	addi	x23,x10,0
    8e98:	00058413          	addi	x8,x11,0
    8e9c:	000a0513          	addi	x10,x20,0
    8ea0:	000a5863          	bge	x20,x0,8eb0 <__gdtoa+0x238>
    8ea4:	01c12703          	lw	x14,28(x2)
    8ea8:	00100513          	addi	x10,x0,1
    8eac:	40e50533          	sub	x10,x10,x14
    8eb0:	bcb50513          	addi	x10,x10,-1077
    8eb4:	02a05c63          	bge	x0,x10,8eec <__gdtoa+0x274>
    8eb8:	39d060ef          	jal	x1,fa54 <__floatsidf>
    8ebc:	0000b697          	auipc	x13,0xb
    8ec0:	4a468693          	addi	x13,x13,1188 # 14360 <__SDATA_BEGIN__+0x20>
    8ec4:	0006a603          	lw	x12,0(x13)
    8ec8:	0046a683          	lw	x13,4(x13)
    8ecc:	325050ef          	jal	x1,e9f0 <__muldf3>
    8ed0:	00050613          	addi	x12,x10,0
    8ed4:	00058693          	addi	x13,x11,0
    8ed8:	000b8513          	addi	x10,x23,0
    8edc:	00040593          	addi	x11,x8,0
    8ee0:	029040ef          	jal	x1,d708 <__adddf3>
    8ee4:	00050b93          	addi	x23,x10,0
    8ee8:	00058413          	addi	x8,x11,0
    8eec:	00040593          	addi	x11,x8,0
    8ef0:	000b8513          	addi	x10,x23,0
    8ef4:	2dd060ef          	jal	x1,f9d0 <__fixdfsi>
    8ef8:	00050813          	addi	x16,x10,0
    8efc:	00040593          	addi	x11,x8,0
    8f00:	000b8513          	addi	x10,x23,0
    8f04:	00000613          	addi	x12,x0,0
    8f08:	00000693          	addi	x13,x0,0
    8f0c:	01012c23          	sw	x16,24(x2)
    8f10:	1d9050ef          	jal	x1,e8e8 <__ledf2>
    8f14:	02055463          	bge	x10,x0,8f3c <__gdtoa+0x2c4>
    8f18:	01812503          	lw	x10,24(x2)
    8f1c:	339060ef          	jal	x1,fa54 <__floatsidf>
    8f20:	000b8613          	addi	x12,x23,0
    8f24:	00040693          	addi	x13,x8,0
    8f28:	035050ef          	jal	x1,e75c <__eqdf2>
    8f2c:	01812783          	lw	x15,24(x2)
    8f30:	00a03533          	sltu	x10,x0,x10
    8f34:	40a787b3          	sub	x15,x15,x10
    8f38:	00f12c23          	sw	x15,24(x2)
    8f3c:	014a1613          	slli	x12,x20,0x14
    8f40:	01812783          	lw	x15,24(x2)
    8f44:	00960833          	add	x16,x12,x9
    8f48:	414c8433          	sub	x8,x25,x20
    8f4c:	01600693          	addi	x13,x0,22
    8f50:	05012023          	sw	x16,64(x2)
    8f54:	fff40b93          	addi	x23,x8,-1
    8f58:	5cf6e863          	bltu	x13,x15,9528 <__gdtoa+0x8b0>
    8f5c:	0000b317          	auipc	x6,0xb
    8f60:	99430313          	addi	x6,x6,-1644 # 138f0 <__mprec_tens>
    8f64:	00379693          	slli	x13,x15,0x3
    8f68:	00d306b3          	add	x13,x6,x13
    8f6c:	03812883          	lw	x17,56(x2)
    8f70:	0006a503          	lw	x10,0(x13)
    8f74:	0046a583          	lw	x11,4(x13)
    8f78:	00088613          	addi	x12,x17,0
    8f7c:	00080693          	addi	x13,x16,0
    8f80:	069050ef          	jal	x1,e7e8 <__gedf2>
    8f84:	1aa044e3          	blt	x0,x10,992c <__gdtoa+0xcb4>
    8f88:	02012e23          	sw	x0,60(x2)
    8f8c:	02012223          	sw	x0,36(x2)
    8f90:	00804a63          	blt	x0,x8,8fa4 <__gdtoa+0x32c>
    8f94:	00100693          	addi	x13,x0,1
    8f98:	408687b3          	sub	x15,x13,x8
    8f9c:	02f12223          	sw	x15,36(x2)
    8fa0:	00000b93          	addi	x23,x0,0
    8fa4:	01812783          	lw	x15,24(x2)
    8fa8:	02012623          	sw	x0,44(x2)
    8fac:	00fb8bb3          	add	x23,x23,x15
    8fb0:	02f12823          	sw	x15,48(x2)
    8fb4:	00900693          	addi	x13,x0,9
    8fb8:	5da6e863          	bltu	x13,x26,9588 <__gdtoa+0x910>
    8fbc:	00500693          	addi	x13,x0,5
    8fc0:	19a6c0e3          	blt	x13,x26,9940 <__gdtoa+0xcc8>
    8fc4:	01c12783          	lw	x15,28(x2)
    8fc8:	00400613          	addi	x12,x0,4
    8fcc:	3fd78a13          	addi	x20,x15,1021
    8fd0:	7f8a3a13          	sltiu	x20,x20,2040
    8fd4:	00cd1463          	bne	x26,x12,8fdc <__gdtoa+0x364>
    8fd8:	0a00106f          	jal	x0,a078 <__gdtoa+0x1400>
    8fdc:	00dd1463          	bne	x26,x13,8fe4 <__gdtoa+0x36c>
    8fe0:	08c0106f          	jal	x0,a06c <__gdtoa+0x13f4>
    8fe4:	00200693          	addi	x13,x0,2
    8fe8:	00dd1463          	bne	x26,x13,8ff0 <__gdtoa+0x378>
    8fec:	0980106f          	jal	x0,a084 <__gdtoa+0x140c>
    8ff0:	00300693          	addi	x13,x0,3
    8ff4:	02012a23          	sw	x0,52(x2)
    8ff8:	5add1063          	bne	x26,x13,9598 <__gdtoa+0x920>
    8ffc:	03012783          	lw	x15,48(x2)
    9000:	01412703          	lw	x14,20(x2)
    9004:	00e787b3          	add	x15,x15,x14
    9008:	04f12623          	sw	x15,76(x2)
    900c:	00178793          	addi	x15,x15,1
    9010:	00f12e23          	sw	x15,28(x2)
    9014:	62f058e3          	bge	x0,x15,9e44 <__gdtoa+0x11cc>
    9018:	00078693          	addi	x13,x15,0
    901c:	00078593          	addi	x11,x15,0
    9020:	00012503          	lw	x10,0(x2)
    9024:	06d12e23          	sw	x13,124(x2)
    9028:	665010ef          	jal	x1,ae8c <__rv_alloc_D2A>
    902c:	00050f13          	addi	x30,x10,0
    9030:	4c050063          	beq	x10,x0,94f0 <__gdtoa+0x878>
    9034:	00cda783          	lw	x15,12(x27)
    9038:	fff78793          	addi	x15,x15,-1
    903c:	02f12423          	sw	x15,40(x2)
    9040:	5a078663          	beq	x15,x0,95ec <__gdtoa+0x974>
    9044:	0c07cee3          	blt	x15,x0,9920 <__gdtoa+0xca8>
    9048:	100b7e93          	andi	x29,x22,256
    904c:	580e9863          	bne	x29,x0,95dc <__gdtoa+0x964>
    9050:	02012783          	lw	x15,32(x2)
    9054:	0007c863          	blt	x15,x0,9064 <__gdtoa+0x3ec>
    9058:	03012783          	lw	x15,48(x2)
    905c:	00e00693          	addi	x13,x0,14
    9060:	10f6d4e3          	bge	x13,x15,9968 <__gdtoa+0xcf0>
    9064:	03412783          	lw	x15,52(x2)
    9068:	0a0784e3          	beq	x15,x0,9910 <__gdtoa+0xc98>
    906c:	02012783          	lw	x15,32(x2)
    9070:	419a8e33          	sub	x28,x21,x25
    9074:	004da683          	lw	x13,4(x27)
    9078:	001e0613          	addi	x12,x28,1
    907c:	06c12e23          	sw	x12,124(x2)
    9080:	41c78e33          	sub	x28,x15,x28
    9084:	62de52e3          	bge	x28,x13,9ea8 <__gdtoa+0x1230>
    9088:	ffdd0613          	addi	x12,x26,-3
    908c:	ffd67613          	andi	x12,x12,-3
    9090:	500604e3          	beq	x12,x0,9d98 <__gdtoa+0x1120>
    9094:	40d786b3          	sub	x13,x15,x13
    9098:	00168693          	addi	x13,x13,1
    909c:	06d12e23          	sw	x13,124(x2)
    90a0:	00100613          	addi	x12,x0,1
    90a4:	01a65c63          	bge	x12,x26,90bc <__gdtoa+0x444>
    90a8:	01c12783          	lw	x15,28(x2)
    90ac:	00f05863          	bge	x0,x15,90bc <__gdtoa+0x444>
    90b0:	01c12783          	lw	x15,28(x2)
    90b4:	00d7d463          	bge	x15,x13,90bc <__gdtoa+0x444>
    90b8:	6400106f          	jal	x0,a6f8 <__gdtoa+0x1a80>
    90bc:	02412783          	lw	x15,36(x2)
    90c0:	02c12483          	lw	x9,44(x2)
    90c4:	00db8bb3          	add	x23,x23,x13
    90c8:	00078a93          	addi	x21,x15,0
    90cc:	00f687b3          	add	x15,x13,x15
    90d0:	02f12223          	sw	x15,36(x2)
    90d4:	00012503          	lw	x10,0(x2)
    90d8:	00100593          	addi	x11,x0,1
    90dc:	03e12023          	sw	x30,32(x2)
    90e0:	179020ef          	jal	x1,ba58 <__i2b>
    90e4:	02012f03          	lw	x30,32(x2)
    90e8:	00050a13          	addi	x20,x10,0
    90ec:	40050263          	beq	x10,x0,94f0 <__gdtoa+0x878>
    90f0:	020a8663          	beq	x21,x0,911c <__gdtoa+0x4a4>
    90f4:	03705463          	bge	x0,x23,911c <__gdtoa+0x4a4>
    90f8:	000a8693          	addi	x13,x21,0
    90fc:	015bd463          	bge	x23,x21,9104 <__gdtoa+0x48c>
    9100:	000b8693          	addi	x13,x23,0
    9104:	02412783          	lw	x15,36(x2)
    9108:	06d12e23          	sw	x13,124(x2)
    910c:	40da8ab3          	sub	x21,x21,x13
    9110:	40d787b3          	sub	x15,x15,x13
    9114:	02f12223          	sw	x15,36(x2)
    9118:	40db8bb3          	sub	x23,x23,x13
    911c:	02c12783          	lw	x15,44(x2)
    9120:	02078863          	beq	x15,x0,9150 <__gdtoa+0x4d8>
    9124:	03412783          	lw	x15,52(x2)
    9128:	00078463          	beq	x15,x0,9130 <__gdtoa+0x4b8>
    912c:	660490e3          	bne	x9,x0,9f8c <__gdtoa+0x1314>
    9130:	02c12603          	lw	x12,44(x2)
    9134:	00c12583          	lw	x11,12(x2)
    9138:	00012503          	lw	x10,0(x2)
    913c:	03e12023          	sw	x30,32(x2)
    9140:	3fd020ef          	jal	x1,bd3c <__pow5mult>
    9144:	00a12623          	sw	x10,12(x2)
    9148:	02012f03          	lw	x30,32(x2)
    914c:	3a050263          	beq	x10,x0,94f0 <__gdtoa+0x878>
    9150:	00012503          	lw	x10,0(x2)
    9154:	00100593          	addi	x11,x0,1
    9158:	03e12023          	sw	x30,32(x2)
    915c:	0fd020ef          	jal	x1,ba58 <__i2b>
    9160:	00050313          	addi	x6,x10,0
    9164:	38050663          	beq	x10,x0,94f0 <__gdtoa+0x878>
    9168:	01812783          	lw	x15,24(x2)
    916c:	02012f03          	lw	x30,32(x2)
    9170:	4e0790e3          	bne	x15,x0,9e50 <__gdtoa+0x11d8>
    9174:	00100693          	addi	x13,x0,1
    9178:	1da6d0e3          	bge	x13,x26,9b38 <__gdtoa+0xec0>
    917c:	01f00b13          	addi	x22,x0,31
    9180:	02412783          	lw	x15,36(x2)
    9184:	417b0b33          	sub	x22,x22,x23
    9188:	ffcb0b13          	addi	x22,x22,-4
    918c:	01fb7b13          	andi	x22,x22,31
    9190:	00fb0633          	add	x12,x22,x15
    9194:	07612e23          	sw	x22,124(x2)
    9198:	000b0793          	addi	x15,x22,0
    919c:	2ac044e3          	blt	x0,x12,9c44 <__gdtoa+0xfcc>
    91a0:	00fb8633          	add	x12,x23,x15
    91a4:	32c04863          	blt	x0,x12,94d4 <__gdtoa+0x85c>
    91a8:	03c12783          	lw	x15,60(x2)
    91ac:	2c0792e3          	bne	x15,x0,9c70 <__gdtoa+0xff8>
    91b0:	01c12783          	lw	x15,28(x2)
    91b4:	40f058e3          	bge	x0,x15,9dc4 <__gdtoa+0x114c>
    91b8:	03412783          	lw	x15,52(x2)
    91bc:	30078ee3          	beq	x15,x0,9cd8 <__gdtoa+0x1060>
    91c0:	015b0633          	add	x12,x22,x21
    91c4:	66c048e3          	blt	x0,x12,a034 <__gdtoa+0x13bc>
    91c8:	01812783          	lw	x15,24(x2)
    91cc:	000a0a93          	addi	x21,x20,0
    91d0:	00078463          	beq	x15,x0,91d8 <__gdtoa+0x560>
    91d4:	6e50006f          	jal	x0,a0b8 <__gdtoa+0x1440>
    91d8:	01212a23          	sw	x18,20(x2)
    91dc:	00c12483          	lw	x9,12(x2)
    91e0:	00012903          	lw	x18,0(x2)
    91e4:	000f0d93          	addi	x27,x30,0
    91e8:	00100793          	addi	x15,x0,1
    91ec:	00200413          	addi	x8,x0,2
    91f0:	00030c13          	addi	x24,x6,0
    91f4:	01e12823          	sw	x30,16(x2)
    91f8:	0b00006f          	jal	x0,92a8 <__gdtoa+0x630>
    91fc:	00090513          	addi	x10,x18,0
    9200:	458020ef          	jal	x1,b658 <_Bfree>
    9204:	000b5463          	bge	x22,x0,920c <__gdtoa+0x594>
    9208:	06c0106f          	jal	x0,a274 <__gdtoa+0x15fc>
    920c:	016d6b33          	or	x22,x26,x22
    9210:	000b1a63          	bne	x22,x0,9224 <__gdtoa+0x5ac>
    9214:	0009a783          	lw	x15,0(x19)
    9218:	0017f793          	andi	x15,x15,1
    921c:	00079463          	bne	x15,x0,9224 <__gdtoa+0x5ac>
    9220:	0540106f          	jal	x0,a274 <__gdtoa+0x15fc>
    9224:	02812783          	lw	x15,40(x2)
    9228:	00878463          	beq	x15,x8,9230 <__gdtoa+0x5b8>
    922c:	3c80106f          	jal	x0,a5f4 <__gdtoa+0x197c>
    9230:	019d8023          	sb	x25,0(x27)
    9234:	07c12783          	lw	x15,124(x2)
    9238:	01c12703          	lw	x14,28(x2)
    923c:	001d8d93          	addi	x27,x27,1
    9240:	00f71463          	bne	x14,x15,9248 <__gdtoa+0x5d0>
    9244:	2d40106f          	jal	x0,a518 <__gdtoa+0x18a0>
    9248:	00048593          	addi	x11,x9,0
    924c:	00000693          	addi	x13,x0,0
    9250:	00a00613          	addi	x12,x0,10
    9254:	00090513          	addi	x10,x18,0
    9258:	424020ef          	jal	x1,b67c <__multadd>
    925c:	00050493          	addi	x9,x10,0
    9260:	28050863          	beq	x10,x0,94f0 <__gdtoa+0x878>
    9264:	00000693          	addi	x13,x0,0
    9268:	00a00613          	addi	x12,x0,10
    926c:	000a0593          	addi	x11,x20,0
    9270:	00090513          	addi	x10,x18,0
    9274:	135a00e3          	beq	x20,x21,9b94 <__gdtoa+0xf1c>
    9278:	404020ef          	jal	x1,b67c <__multadd>
    927c:	00050a13          	addi	x20,x10,0
    9280:	26050863          	beq	x10,x0,94f0 <__gdtoa+0x878>
    9284:	000a8593          	addi	x11,x21,0
    9288:	00000693          	addi	x13,x0,0
    928c:	00a00613          	addi	x12,x0,10
    9290:	00090513          	addi	x10,x18,0
    9294:	3e8020ef          	jal	x1,b67c <__multadd>
    9298:	00050a93          	addi	x21,x10,0
    929c:	24050a63          	beq	x10,x0,94f0 <__gdtoa+0x878>
    92a0:	07c12783          	lw	x15,124(x2)
    92a4:	00178793          	addi	x15,x15,1
    92a8:	000c0593          	addi	x11,x24,0
    92ac:	00048513          	addi	x10,x9,0
    92b0:	06f12e23          	sw	x15,124(x2)
    92b4:	4f5010ef          	jal	x1,afa8 <__quorem_D2A>
    92b8:	00050b93          	addi	x23,x10,0
    92bc:	000a0593          	addi	x11,x20,0
    92c0:	00048513          	addi	x10,x9,0
    92c4:	559020ef          	jal	x1,c01c <__mcmp>
    92c8:	000c0593          	addi	x11,x24,0
    92cc:	00050b13          	addi	x22,x10,0
    92d0:	000a8613          	addi	x12,x21,0
    92d4:	00090513          	addi	x10,x18,0
    92d8:	59d020ef          	jal	x1,c074 <__mdiff>
    92dc:	030b8c93          	addi	x25,x23,48
    92e0:	00050593          	addi	x11,x10,0
    92e4:	20050663          	beq	x10,x0,94f0 <__gdtoa+0x878>
    92e8:	00c52783          	lw	x15,12(x10)
    92ec:	f00798e3          	bne	x15,x0,91fc <__gdtoa+0x584>
    92f0:	00a12623          	sw	x10,12(x2)
    92f4:	00048513          	addi	x10,x9,0
    92f8:	525020ef          	jal	x1,c01c <__mcmp>
    92fc:	00c12583          	lw	x11,12(x2)
    9300:	00050693          	addi	x13,x10,0
    9304:	00090513          	addi	x10,x18,0
    9308:	00d12623          	sw	x13,12(x2)
    930c:	34c020ef          	jal	x1,b658 <_Bfree>
    9310:	00c12683          	lw	x13,12(x2)
    9314:	00dd6733          	or	x14,x26,x13
    9318:	00070463          	beq	x14,x0,9320 <__gdtoa+0x6a8>
    931c:	5680106f          	jal	x0,a884 <__gdtoa+0x1c0c>
    9320:	0009a783          	lw	x15,0(x19)
    9324:	0017f793          	andi	x15,x15,1
    9328:	080790e3          	bne	x15,x0,9ba8 <__gdtoa+0xf30>
    932c:	02812783          	lw	x15,40(x2)
    9330:	00079463          	bne	x15,x0,9338 <__gdtoa+0x6c0>
    9334:	4280106f          	jal	x0,a75c <__gdtoa+0x1ae4>
    9338:	ef604ce3          	blt	x0,x22,9230 <__gdtoa+0x5b8>
    933c:	0104a603          	lw	x12,16(x9)
    9340:	00912623          	sw	x9,12(x2)
    9344:	00100693          	addi	x13,x0,1
    9348:	000c0313          	addi	x6,x24,0
    934c:	01012f03          	lw	x30,16(x2)
    9350:	01412903          	lw	x18,20(x2)
    9354:	00070c13          	addi	x24,x14,0
    9358:	00048793          	addi	x15,x9,0
    935c:	00c6c463          	blt	x13,x12,9364 <__gdtoa+0x6ec>
    9360:	4ec0106f          	jal	x0,a84c <__gdtoa+0x1bd4>
    9364:	02812783          	lw	x15,40(x2)
    9368:	00200693          	addi	x13,x0,2
    936c:	00d79463          	bne	x15,x13,9374 <__gdtoa+0x6fc>
    9370:	4ac0106f          	jal	x0,a81c <__gdtoa+0x1ba4>
    9374:	00c12483          	lw	x9,12(x2)
    9378:	00012b83          	lw	x23,0(x2)
    937c:	00030b13          	addi	x22,x6,0
    9380:	000f0c13          	addi	x24,x30,0
    9384:	0240006f          	jal	x0,93a8 <__gdtoa+0x730>
    9388:	2f4020ef          	jal	x1,b67c <__multadd>
    938c:	000b0593          	addi	x11,x22,0
    9390:	00050493          	addi	x9,x10,0
    9394:	14050e63          	beq	x10,x0,94f0 <__gdtoa+0x878>
    9398:	411010ef          	jal	x1,afa8 <__quorem_D2A>
    939c:	03050c93          	addi	x25,x10,48
    93a0:	00098d93          	addi	x27,x19,0
    93a4:	00040a93          	addi	x21,x8,0
    93a8:	000a8593          	addi	x11,x21,0
    93ac:	000b0513          	addi	x10,x22,0
    93b0:	46d020ef          	jal	x1,c01c <__mcmp>
    93b4:	00050793          	addi	x15,x10,0
    93b8:	00000693          	addi	x13,x0,0
    93bc:	00a00613          	addi	x12,x0,10
    93c0:	000a8593          	addi	x11,x21,0
    93c4:	000b8513          	addi	x10,x23,0
    93c8:	001d8993          	addi	x19,x27,1
    93cc:	00f04463          	blt	x0,x15,93d4 <__gdtoa+0x75c>
    93d0:	42c0106f          	jal	x0,a7fc <__gdtoa+0x1b84>
    93d4:	ff998fa3          	sb	x25,-1(x19)
    93d8:	2a4020ef          	jal	x1,b67c <__multadd>
    93dc:	00050413          	addi	x8,x10,0
    93e0:	00000693          	addi	x13,x0,0
    93e4:	00a00613          	addi	x12,x0,10
    93e8:	00048593          	addi	x11,x9,0
    93ec:	000b8513          	addi	x10,x23,0
    93f0:	10040063          	beq	x8,x0,94f0 <__gdtoa+0x878>
    93f4:	f95a1ae3          	bne	x20,x21,9388 <__gdtoa+0x710>
    93f8:	00040a13          	addi	x20,x8,0
    93fc:	f8dff06f          	jal	x0,9388 <__gdtoa+0x710>
    9400:	00400793          	addi	x15,x0,4
    9404:	10f31863          	bne	x6,x15,9514 <__gdtoa+0x89c>
    9408:	00412703          	lw	x14,4(x2)
    940c:	00812603          	lw	x12,8(x2)
    9410:	09812c03          	lw	x24,152(x2)
    9414:	0bc12083          	lw	x1,188(x2)
    9418:	0b012903          	lw	x18,176(x2)
    941c:	0a012b03          	lw	x22,160(x2)
    9420:	ffff87b7          	lui	x15,0xffff8
    9424:	00f72023          	sw	x15,0(x14)
    9428:	00300693          	addi	x13,x0,3
    942c:	0000a597          	auipc	x11,0xa
    9430:	e6858593          	addi	x11,x11,-408 # 13294 <__clzsi2+0x52c>
    9434:	0c010113          	addi	x2,x2,192
    9438:	2a50106f          	jal	x0,aedc <__nrv_alloc_D2A>
    943c:	00012503          	lw	x10,0(x2)
    9440:	00078593          	addi	x11,x15,0 # ffff8000 <__heap_end+0xffbf8000>
    9444:	214020ef          	jal	x1,b658 <_Bfree>
    9448:	0ac12983          	lw	x19,172(x2)
    944c:	0a812a03          	lw	x20,168(x2)
    9450:	0a412a83          	lw	x21,164(x2)
    9454:	09412c83          	lw	x25,148(x2)
    9458:	09012d03          	lw	x26,144(x2)
    945c:	08c12d83          	lw	x27,140(x2)
    9460:	00412703          	lw	x14,4(x2)
    9464:	00812603          	lw	x12,8(x2)
    9468:	00012503          	lw	x10,0(x2)
    946c:	00100793          	addi	x15,x0,1
    9470:	00f72023          	sw	x15,0(x14)
    9474:	00100693          	addi	x13,x0,1
    9478:	0000a597          	auipc	x11,0xa
    947c:	e0c58593          	addi	x11,x11,-500 # 13284 <__clzsi2+0x51c>
    9480:	25d010ef          	jal	x1,aedc <__nrv_alloc_D2A>
    9484:	00050f13          	addi	x30,x10,0
    9488:	0bc12083          	lw	x1,188(x2)
    948c:	09812c03          	lw	x24,152(x2)
    9490:	0b012903          	lw	x18,176(x2)
    9494:	0a012b03          	lw	x22,160(x2)
    9498:	000f0513          	addi	x10,x30,0
    949c:	0c010113          	addi	x2,x2,192
    94a0:	00008067          	jalr	x0,0(x1)
    94a4:	00412703          	lw	x14,4(x2)
    94a8:	00812603          	lw	x12,8(x2)
    94ac:	0bc12083          	lw	x1,188(x2)
    94b0:	0b012903          	lw	x18,176(x2)
    94b4:	0a012b03          	lw	x22,160(x2)
    94b8:	ffff87b7          	lui	x15,0xffff8
    94bc:	00f72023          	sw	x15,0(x14)
    94c0:	00800693          	addi	x13,x0,8
    94c4:	0000a597          	auipc	x11,0xa
    94c8:	dc458593          	addi	x11,x11,-572 # 13288 <__clzsi2+0x520>
    94cc:	0c010113          	addi	x2,x2,192
    94d0:	20d0106f          	jal	x0,aedc <__nrv_alloc_D2A>
    94d4:	00012503          	lw	x10,0(x2)
    94d8:	00030593          	addi	x11,x6,0
    94dc:	01e12823          	sw	x30,16(x2)
    94e0:	1ad020ef          	jal	x1,be8c <__lshift>
    94e4:	01012f03          	lw	x30,16(x2)
    94e8:	00050313          	addi	x6,x10,0
    94ec:	ca051ee3          	bne	x10,x0,91a8 <__gdtoa+0x530>
    94f0:	0b812403          	lw	x8,184(x2)
    94f4:	0b412483          	lw	x9,180(x2)
    94f8:	0ac12983          	lw	x19,172(x2)
    94fc:	0a812a03          	lw	x20,168(x2)
    9500:	0a412a83          	lw	x21,164(x2)
    9504:	09c12b83          	lw	x23,156(x2)
    9508:	09412c83          	lw	x25,148(x2)
    950c:	09012d03          	lw	x26,144(x2)
    9510:	08c12d83          	lw	x27,140(x2)
    9514:	00000f13          	addi	x30,x0,0
    9518:	f71ff06f          	jal	x0,9488 <__gdtoa+0x810>
    951c:	00c12783          	lw	x15,12(x2)
    9520:	0007a823          	sw	x0,16(x15) # ffff8010 <__heap_end+0xffbf8010>
    9524:	891ff06f          	jal	x0,8db4 <__gdtoa+0x13c>
    9528:	00100793          	addi	x15,x0,1
    952c:	02f12e23          	sw	x15,60(x2)
    9530:	02012223          	sw	x0,36(x2)
    9534:	3c0bc463          	blt	x23,x0,98fc <__gdtoa+0xc84>
    9538:	01812783          	lw	x15,24(x2)
    953c:	a607d4e3          	bge	x15,x0,8fa4 <__gdtoa+0x32c>
    9540:	01812783          	lw	x15,24(x2)
    9544:	02412703          	lw	x14,36(x2)
    9548:	00012c23          	sw	x0,24(x2)
    954c:	02f12823          	sw	x15,48(x2)
    9550:	40f70733          	sub	x14,x14,x15
    9554:	02e12223          	sw	x14,36(x2)
    9558:	40f00733          	sub	x14,x0,x15
    955c:	02e12623          	sw	x14,44(x2)
    9560:	a55ff06f          	jal	x0,8fb4 <__gdtoa+0x33c>
    9564:	00050593          	addi	x11,x10,0
    9568:	00c12503          	lw	x10,12(x2)
    956c:	25c030ef          	jal	x1,c7c8 <__rshift_D2A>
    9570:	07c12683          	lw	x13,124(x2)
    9574:	01012783          	lw	x15,16(x2)
    9578:	40dc8cb3          	sub	x25,x25,x13
    957c:	00f687b3          	add	x15,x13,x15
    9580:	02f12023          	sw	x15,32(x2)
    9584:	849ff06f          	jal	x0,8dcc <__gdtoa+0x154>
    9588:	01c12783          	lw	x15,28(x2)
    958c:	00000d13          	addi	x26,x0,0
    9590:	3fd78793          	addi	x15,x15,1021
    9594:	7f87ba13          	sltiu	x20,x15,2040
    9598:	000a8513          	addi	x10,x21,0
    959c:	4b8060ef          	jal	x1,fa54 <__floatsidf>
    95a0:	0000b697          	auipc	x13,0xb
    95a4:	dc868693          	addi	x13,x13,-568 # 14368 <__SDATA_BEGIN__+0x28>
    95a8:	0006a603          	lw	x12,0(x13)
    95ac:	0046a683          	lw	x13,4(x13)
    95b0:	440050ef          	jal	x1,e9f0 <__muldf3>
    95b4:	41c060ef          	jal	x1,f9d0 <__fixdfsi>
    95b8:	00100793          	addi	x15,x0,1
    95bc:	00350593          	addi	x11,x10,3
    95c0:	02f12a23          	sw	x15,52(x2)
    95c4:	fff00793          	addi	x15,x0,-1
    95c8:	00058693          	addi	x13,x11,0
    95cc:	00012a23          	sw	x0,20(x2)
    95d0:	04f12623          	sw	x15,76(x2)
    95d4:	00f12e23          	sw	x15,28(x2)
    95d8:	a49ff06f          	jal	x0,9020 <__gdtoa+0x3a8>
    95dc:	02812783          	lw	x15,40(x2)
    95e0:	00300693          	addi	x13,x0,3
    95e4:	40f687b3          	sub	x15,x13,x15
    95e8:	02f12423          	sw	x15,40(x2)
    95ec:	01c12483          	lw	x9,28(x2)
    95f0:	00e00693          	addi	x13,x0,14
    95f4:	a496eee3          	bltu	x13,x9,9050 <__gdtoa+0x3d8>
    95f8:	a40a0ce3          	beq	x20,x0,9050 <__gdtoa+0x3d8>
    95fc:	03012783          	lw	x15,48(x2)
    9600:	02812703          	lw	x14,40(x2)
    9604:	00e7e6b3          	or	x13,x15,x14
    9608:	a40694e3          	bne	x13,x0,9050 <__gdtoa+0x3d8>
    960c:	03812403          	lw	x8,56(x2)
    9610:	04012a03          	lw	x20,64(x2)
    9614:	03c12783          	lw	x15,60(x2)
    9618:	06012e23          	sw	x0,124(x2)
    961c:	02812423          	sw	x8,40(x2)
    9620:	03412c23          	sw	x20,56(x2)
    9624:	02078863          	beq	x15,x0,9654 <__gdtoa+0x9dc>
    9628:	0000b697          	auipc	x13,0xb
    962c:	d4868693          	addi	x13,x13,-696 # 14370 <__SDATA_BEGIN__+0x30>
    9630:	0006a603          	lw	x12,0(x13)
    9634:	0046a683          	lw	x13,4(x13)
    9638:	00040513          	addi	x10,x8,0
    963c:	000a0593          	addi	x11,x20,0
    9640:	05e12823          	sw	x30,80(x2)
    9644:	2a4050ef          	jal	x1,e8e8 <__ledf2>
    9648:	05012f03          	lw	x30,80(x2)
    964c:	00055463          	bge	x10,x0,9654 <__gdtoa+0x9dc>
    9650:	6ed0006f          	jal	x0,a53c <__gdtoa+0x18c4>
    9654:	02812783          	lw	x15,40(x2)
    9658:	05e12823          	sw	x30,80(x2)
    965c:	00078613          	addi	x12,x15,0
    9660:	00078513          	addi	x10,x15,0
    9664:	03812783          	lw	x15,56(x2)
    9668:	00078693          	addi	x13,x15,0
    966c:	00078593          	addi	x11,x15,0
    9670:	098040ef          	jal	x1,d708 <__adddf3>
    9674:	0000b697          	auipc	x13,0xb
    9678:	d1468693          	addi	x13,x13,-748 # 14388 <__SDATA_BEGIN__+0x48>
    967c:	0006a603          	lw	x12,0(x13)
    9680:	0046a683          	lw	x13,4(x13)
    9684:	084040ef          	jal	x1,d708 <__adddf3>
    9688:	01c12783          	lw	x15,28(x2)
    968c:	fcc00737          	lui	x14,0xfcc00
    9690:	05012f03          	lw	x30,80(x2)
    9694:	00050b13          	addi	x22,x10,0
    9698:	00b70a33          	add	x20,x14,x11
    969c:	2a078ce3          	beq	x15,x0,a154 <__gdtoa+0x14dc>
    96a0:	01c12783          	lw	x15,28(x2)
    96a4:	02812e83          	lw	x29,40(x2)
    96a8:	03812803          	lw	x16,56(x2)
    96ac:	04012a23          	sw	x0,84(x2)
    96b0:	04f12823          	sw	x15,80(x2)
    96b4:	05012783          	lw	x15,80(x2)
    96b8:	03412703          	lw	x14,52(x2)
    96bc:	0000a317          	auipc	x6,0xa
    96c0:	23430313          	addi	x6,x6,564 # 138f0 <__mprec_tens>
    96c4:	fff78693          	addi	x13,x15,-1
    96c8:	00369693          	slli	x13,x13,0x3
    96cc:	00d306b3          	add	x13,x6,x13
    96d0:	05012e23          	sw	x16,92(x2)
    96d4:	05d12c23          	sw	x29,88(x2)
    96d8:	0006a603          	lw	x12,0(x13)
    96dc:	000b0493          	addi	x9,x22,0
    96e0:	0046a683          	lw	x13,4(x13)
    96e4:	480704e3          	beq	x14,x0,a36c <__gdtoa+0x16f4>
    96e8:	0000b597          	auipc	x11,0xb
    96ec:	cb058593          	addi	x11,x11,-848 # 14398 <__SDATA_BEGIN__+0x58>
    96f0:	0005a503          	lw	x10,0(x11)
    96f4:	0045a583          	lw	x11,4(x11)
    96f8:	06612423          	sw	x6,104(x2)
    96fc:	001f0b13          	addi	x22,x30,1
    9700:	07e12023          	sw	x30,96(x2)
    9704:	0cd040ef          	jal	x1,dfd0 <__divdf3>
    9708:	00048613          	addi	x12,x9,0
    970c:	000a0693          	addi	x13,x20,0
    9710:	1b9050ef          	jal	x1,f0c8 <__subdf3>
    9714:	05812e83          	lw	x29,88(x2)
    9718:	05c12803          	lw	x16,92(x2)
    971c:	00050613          	addi	x12,x10,0
    9720:	00058693          	addi	x13,x11,0
    9724:	000e8513          	addi	x10,x29,0
    9728:	00080593          	addi	x11,x16,0
    972c:	05d12423          	sw	x29,72(x2)
    9730:	05012023          	sw	x16,64(x2)
    9734:	04c12c23          	sw	x12,88(x2)
    9738:	04d12e23          	sw	x13,92(x2)
    973c:	294060ef          	jal	x1,f9d0 <__fixdfsi>
    9740:	00050413          	addi	x8,x10,0
    9744:	310060ef          	jal	x1,fa54 <__floatsidf>
    9748:	04012803          	lw	x16,64(x2)
    974c:	04812e83          	lw	x29,72(x2)
    9750:	00050613          	addi	x12,x10,0
    9754:	00058693          	addi	x13,x11,0
    9758:	000e8513          	addi	x10,x29,0
    975c:	00080593          	addi	x11,x16,0
    9760:	169050ef          	jal	x1,f0c8 <__subdf3>
    9764:	06012f03          	lw	x30,96(x2)
    9768:	00050613          	addi	x12,x10,0
    976c:	00058693          	addi	x13,x11,0
    9770:	00050493          	addi	x9,x10,0
    9774:	00058a13          	addi	x20,x11,0
    9778:	05812503          	lw	x10,88(x2)
    977c:	05c12583          	lw	x11,92(x2)
    9780:	03040793          	addi	x15,x8,48
    9784:	00ff0023          	sb	x15,0(x30)
    9788:	05e12023          	sw	x30,64(x2)
    978c:	05c050ef          	jal	x1,e7e8 <__gedf2>
    9790:	04012f03          	lw	x30,64(x2)
    9794:	00a05463          	bge	x0,x10,979c <__gdtoa+0xb24>
    9798:	71d0006f          	jal	x0,a6b4 <__gdtoa+0x1a3c>
    979c:	0000b697          	auipc	x13,0xb
    97a0:	bd468693          	addi	x13,x13,-1068 # 14370 <__SDATA_BEGIN__+0x30>
    97a4:	0006a783          	lw	x15,0(x13)
    97a8:	0046a803          	lw	x16,4(x13)
    97ac:	07712023          	sw	x23,96(x2)
    97b0:	07512223          	sw	x21,100(x2)
    97b4:	05012b83          	lw	x23,80(x2)
    97b8:	05812403          	lw	x8,88(x2)
    97bc:	05c12a83          	lw	x21,92(x2)
    97c0:	04f12023          	sw	x15,64(x2)
    97c4:	05012223          	sw	x16,68(x2)
    97c8:	05e12423          	sw	x30,72(x2)
    97cc:	05212823          	sw	x18,80(x2)
    97d0:	0940006f          	jal	x0,9864 <__gdtoa+0xbec>
    97d4:	07c12783          	lw	x15,124(x2)
    97d8:	00178793          	addi	x15,x15,1
    97dc:	06f12e23          	sw	x15,124(x2)
    97e0:	0177c463          	blt	x15,x23,97e8 <__gdtoa+0xb70>
    97e4:	7450006f          	jal	x0,a728 <__gdtoa+0x1ab0>
    97e8:	0000b917          	auipc	x18,0xb
    97ec:	b9090913          	addi	x18,x18,-1136 # 14378 <__SDATA_BEGIN__+0x38>
    97f0:	00092603          	lw	x12,0(x18)
    97f4:	00492683          	lw	x13,4(x18)
    97f8:	001b0b13          	addi	x22,x22,1
    97fc:	1f4050ef          	jal	x1,e9f0 <__muldf3>
    9800:	00092603          	lw	x12,0(x18)
    9804:	00492683          	lw	x13,4(x18)
    9808:	00050413          	addi	x8,x10,0
    980c:	00058a93          	addi	x21,x11,0
    9810:	00048513          	addi	x10,x9,0
    9814:	000a0593          	addi	x11,x20,0
    9818:	1d8050ef          	jal	x1,e9f0 <__muldf3>
    981c:	00058a13          	addi	x20,x11,0
    9820:	00050913          	addi	x18,x10,0
    9824:	1ac060ef          	jal	x1,f9d0 <__fixdfsi>
    9828:	00050493          	addi	x9,x10,0
    982c:	228060ef          	jal	x1,fa54 <__floatsidf>
    9830:	00050613          	addi	x12,x10,0
    9834:	00058693          	addi	x13,x11,0
    9838:	00090513          	addi	x10,x18,0
    983c:	000a0593          	addi	x11,x20,0
    9840:	089050ef          	jal	x1,f0c8 <__subdf3>
    9844:	03048793          	addi	x15,x9,48
    9848:	00040613          	addi	x12,x8,0
    984c:	000a8693          	addi	x13,x21,0
    9850:	fefb0fa3          	sb	x15,-1(x22)
    9854:	00050493          	addi	x9,x10,0
    9858:	00058a13          	addi	x20,x11,0
    985c:	08c050ef          	jal	x1,e8e8 <__ledf2>
    9860:	640546e3          	blt	x10,x0,a6ac <__gdtoa+0x1a34>
    9864:	04012503          	lw	x10,64(x2)
    9868:	04412583          	lw	x11,68(x2)
    986c:	00048613          	addi	x12,x9,0
    9870:	000a0693          	addi	x13,x20,0
    9874:	055050ef          	jal	x1,f0c8 <__subdf3>
    9878:	00050613          	addi	x12,x10,0
    987c:	00058693          	addi	x13,x11,0
    9880:	00040513          	addi	x10,x8,0
    9884:	000a8593          	addi	x11,x21,0
    9888:	761040ef          	jal	x1,e7e8 <__gedf2>
    988c:	00050793          	addi	x15,x10,0
    9890:	000a8593          	addi	x11,x21,0
    9894:	00040513          	addi	x10,x8,0
    9898:	f2f05ee3          	bge	x0,x15,97d4 <__gdtoa+0xb5c>
    989c:	05412783          	lw	x15,84(x2)
    98a0:	04812f03          	lw	x30,72(x2)
    98a4:	05012903          	lw	x18,80(x2)
    98a8:	fffb4703          	lbu	x14,-1(x22)
    98ac:	00178413          	addi	x8,x15,1
    98b0:	03900693          	addi	x13,x0,57
    98b4:	0100006f          	jal	x0,98c4 <__gdtoa+0xc4c>
    98b8:	2aff04e3          	beq	x30,x15,a360 <__gdtoa+0x16e8>
    98bc:	fff7c703          	lbu	x14,-1(x15)
    98c0:	00078b13          	addi	x22,x15,0
    98c4:	fffb0793          	addi	x15,x22,-1
    98c8:	fed708e3          	beq	x14,x13,98b8 <__gdtoa+0xc40>
    98cc:	00170693          	addi	x13,x14,1 # fcc00001 <__heap_end+0xfc800001>
    98d0:	0ff6f693          	andi	x13,x13,255
    98d4:	00d78023          	sb	x13,0(x15)
    98d8:	00040493          	addi	x9,x8,0
    98dc:	02000c13          	addi	x24,x0,32
    98e0:	1f80006f          	jal	x0,9ad8 <__gdtoa+0xe60>
    98e4:	0ac12983          	lw	x19,172(x2)
    98e8:	0a412a83          	lw	x21,164(x2)
    98ec:	09012d03          	lw	x26,144(x2)
    98f0:	08c12d83          	lw	x27,140(x2)
    98f4:	00000f13          	addi	x30,x0,0
    98f8:	b91ff06f          	jal	x0,9488 <__gdtoa+0x810>
    98fc:	00100693          	addi	x13,x0,1
    9900:	408687b3          	sub	x15,x13,x8
    9904:	02f12223          	sw	x15,36(x2)
    9908:	00000b93          	addi	x23,x0,0
    990c:	c2dff06f          	jal	x0,9538 <__gdtoa+0x8c0>
    9910:	02c12483          	lw	x9,44(x2)
    9914:	02412a83          	lw	x21,36(x2)
    9918:	00000a13          	addi	x20,x0,0
    991c:	fd4ff06f          	jal	x0,90f0 <__gdtoa+0x478>
    9920:	00200793          	addi	x15,x0,2
    9924:	02f12423          	sw	x15,40(x2)
    9928:	f20ff06f          	jal	x0,9048 <__gdtoa+0x3d0>
    992c:	01812783          	lw	x15,24(x2)
    9930:	02012e23          	sw	x0,60(x2)
    9934:	fff78793          	addi	x15,x15,-1
    9938:	00f12c23          	sw	x15,24(x2)
    993c:	bf5ff06f          	jal	x0,9530 <__gdtoa+0x8b8>
    9940:	ffcd0d13          	addi	x26,x26,-4
    9944:	00400613          	addi	x12,x0,4
    9948:	22cd0063          	beq	x26,x12,9b68 <__gdtoa+0xef0>
    994c:	70dd0863          	beq	x26,x13,a05c <__gdtoa+0x13e4>
    9950:	00200693          	addi	x13,x0,2
    9954:	02012a23          	sw	x0,52(x2)
    9958:	00000a13          	addi	x20,x0,0
    995c:	20dd0c63          	beq	x26,x13,9b74 <__gdtoa+0xefc>
    9960:	00300d13          	addi	x26,x0,3
    9964:	e98ff06f          	jal	x0,8ffc <__gdtoa+0x384>
    9968:	00379693          	slli	x13,x15,0x3
    996c:	0000a797          	auipc	x15,0xa
    9970:	f8478793          	addi	x15,x15,-124 # 138f0 <__mprec_tens>
    9974:	00d787b3          	add	x15,x15,x13
    9978:	0007ad03          	lw	x26,0(x15)
    997c:	0047ad83          	lw	x27,4(x15)
    9980:	01412783          	lw	x15,20(x2)
    9984:	5607c463          	blt	x15,x0,9eec <__gdtoa+0x1274>
    9988:	04812403          	lw	x8,72(x2)
    998c:	04012a03          	lw	x20,64(x2)
    9990:	00100793          	addi	x15,x0,1
    9994:	000d0613          	addi	x12,x26,0
    9998:	000d8693          	addi	x13,x27,0
    999c:	00040513          	addi	x10,x8,0
    99a0:	000a0593          	addi	x11,x20,0
    99a4:	01e12823          	sw	x30,16(x2)
    99a8:	06f12e23          	sw	x15,124(x2)
    99ac:	624040ef          	jal	x1,dfd0 <__divdf3>
    99b0:	020060ef          	jal	x1,f9d0 <__fixdfsi>
    99b4:	00050993          	addi	x19,x10,0
    99b8:	09c060ef          	jal	x1,fa54 <__floatsidf>
    99bc:	000d0613          	addi	x12,x26,0
    99c0:	000d8693          	addi	x13,x27,0
    99c4:	02c050ef          	jal	x1,e9f0 <__muldf3>
    99c8:	00050613          	addi	x12,x10,0
    99cc:	00058693          	addi	x13,x11,0
    99d0:	00040513          	addi	x10,x8,0
    99d4:	000a0593          	addi	x11,x20,0
    99d8:	6f0050ef          	jal	x1,f0c8 <__subdf3>
    99dc:	01012f03          	lw	x30,16(x2)
    99e0:	03012703          	lw	x14,48(x2)
    99e4:	03098793          	addi	x15,x19,48
    99e8:	00ff0023          	sb	x15,0(x30)
    99ec:	00000613          	addi	x12,x0,0
    99f0:	00000693          	addi	x13,x0,0
    99f4:	00170413          	addi	x8,x14,1
    99f8:	001f0b13          	addi	x22,x30,1
    99fc:	00050a93          	addi	x21,x10,0
    9a00:	00058a13          	addi	x20,x11,0
    9a04:	559040ef          	jal	x1,e75c <__eqdf2>
    9a08:	01012f03          	lw	x30,16(x2)
    9a0c:	00040493          	addi	x9,x8,0
    9a10:	0c050463          	beq	x10,x0,9ad8 <__gdtoa+0xe60>
    9a14:	01812823          	sw	x24,16(x2)
    9a18:	01c12c83          	lw	x25,28(x2)
    9a1c:	000a0c13          	addi	x24,x20,0
    9a20:	0000bb97          	auipc	x23,0xb
    9a24:	958b8b93          	addi	x23,x23,-1704 # 14378 <__SDATA_BEGIN__+0x38>
    9a28:	00040a13          	addi	x20,x8,0
    9a2c:	000f0413          	addi	x8,x30,0
    9a30:	0780006f          	jal	x0,9aa8 <__gdtoa+0xe30>
    9a34:	000ba603          	lw	x12,0(x23)
    9a38:	004ba683          	lw	x13,4(x23)
    9a3c:	07012e23          	sw	x16,124(x2)
    9a40:	001b0b13          	addi	x22,x22,1
    9a44:	7ad040ef          	jal	x1,e9f0 <__muldf3>
    9a48:	000d0613          	addi	x12,x26,0
    9a4c:	000d8693          	addi	x13,x27,0
    9a50:	00050c13          	addi	x24,x10,0
    9a54:	00058a93          	addi	x21,x11,0
    9a58:	578040ef          	jal	x1,dfd0 <__divdf3>
    9a5c:	775050ef          	jal	x1,f9d0 <__fixdfsi>
    9a60:	00050993          	addi	x19,x10,0
    9a64:	7f1050ef          	jal	x1,fa54 <__floatsidf>
    9a68:	000d0613          	addi	x12,x26,0
    9a6c:	000d8693          	addi	x13,x27,0
    9a70:	781040ef          	jal	x1,e9f0 <__muldf3>
    9a74:	00050613          	addi	x12,x10,0
    9a78:	00058693          	addi	x13,x11,0
    9a7c:	000c0513          	addi	x10,x24,0
    9a80:	000a8593          	addi	x11,x21,0
    9a84:	644050ef          	jal	x1,f0c8 <__subdf3>
    9a88:	03098793          	addi	x15,x19,48
    9a8c:	fefb0fa3          	sb	x15,-1(x22)
    9a90:	00000613          	addi	x12,x0,0
    9a94:	00000693          	addi	x13,x0,0
    9a98:	00050a93          	addi	x21,x10,0
    9a9c:	00058c13          	addi	x24,x11,0
    9aa0:	4bd040ef          	jal	x1,e75c <__eqdf2>
    9aa4:	42050e63          	beq	x10,x0,9ee0 <__gdtoa+0x1268>
    9aa8:	07c12703          	lw	x14,124(x2)
    9aac:	000a8513          	addi	x10,x21,0
    9ab0:	000c0593          	addi	x11,x24,0
    9ab4:	00170813          	addi	x16,x14,1
    9ab8:	f7971ee3          	bne	x14,x25,9a34 <__gdtoa+0xdbc>
    9abc:	02812703          	lw	x14,40(x2)
    9ac0:	00040f13          	addi	x30,x8,0
    9ac4:	000a0413          	addi	x8,x20,0
    9ac8:	02070ae3          	beq	x14,x0,a2fc <__gdtoa+0x1684>
    9acc:	00100793          	addi	x15,x0,1
    9ad0:	01000c13          	addi	x24,x0,16
    9ad4:	26f700e3          	beq	x14,x15,a534 <__gdtoa+0x18bc>
    9ad8:	00c12583          	lw	x11,12(x2)
    9adc:	00012503          	lw	x10,0(x2)
    9ae0:	01e12823          	sw	x30,16(x2)
    9ae4:	375010ef          	jal	x1,b658 <_Bfree>
    9ae8:	00412783          	lw	x15,4(x2)
    9aec:	000b0023          	sb	x0,0(x22)
    9af0:	01012f03          	lw	x30,16(x2)
    9af4:	0097a023          	sw	x9,0(x15)
    9af8:	00812783          	lw	x15,8(x2)
    9afc:	00078463          	beq	x15,x0,9b04 <__gdtoa+0xe8c>
    9b00:	0167a023          	sw	x22,0(x15)
    9b04:	00092783          	lw	x15,0(x18)
    9b08:	0b812403          	lw	x8,184(x2)
    9b0c:	0b412483          	lw	x9,180(x2)
    9b10:	0187e7b3          	or	x15,x15,x24
    9b14:	0ac12983          	lw	x19,172(x2)
    9b18:	0a812a03          	lw	x20,168(x2)
    9b1c:	0a412a83          	lw	x21,164(x2)
    9b20:	09c12b83          	lw	x23,156(x2)
    9b24:	09412c83          	lw	x25,148(x2)
    9b28:	09012d03          	lw	x26,144(x2)
    9b2c:	08c12d83          	lw	x27,140(x2)
    9b30:	00f92023          	sw	x15,0(x18)
    9b34:	955ff06f          	jal	x0,9488 <__gdtoa+0x810>
    9b38:	e4dc9263          	bne	x25,x13,917c <__gdtoa+0x504>
    9b3c:	004da783          	lw	x15,4(x27)
    9b40:	01012703          	lw	x14,16(x2)
    9b44:	00178793          	addi	x15,x15,1
    9b48:	e2e7da63          	bge	x15,x14,917c <__gdtoa+0x504>
    9b4c:	02412783          	lw	x15,36(x2)
    9b50:	001b8b93          	addi	x23,x23,1
    9b54:	00178793          	addi	x15,x15,1
    9b58:	02f12223          	sw	x15,36(x2)
    9b5c:	00100793          	addi	x15,x0,1
    9b60:	00f12c23          	sw	x15,24(x2)
    9b64:	e18ff06f          	jal	x0,917c <__gdtoa+0x504>
    9b68:	00100793          	addi	x15,x0,1
    9b6c:	00000a13          	addi	x20,x0,0
    9b70:	02f12a23          	sw	x15,52(x2)
    9b74:	01412583          	lw	x11,20(x2)
    9b78:	00b04463          	blt	x0,x11,9b80 <__gdtoa+0xf08>
    9b7c:	00100593          	addi	x11,x0,1
    9b80:	00058693          	addi	x13,x11,0
    9b84:	04b12623          	sw	x11,76(x2)
    9b88:	00b12e23          	sw	x11,28(x2)
    9b8c:	00b12a23          	sw	x11,20(x2)
    9b90:	c90ff06f          	jal	x0,9020 <__gdtoa+0x3a8>
    9b94:	2e9010ef          	jal	x1,b67c <__multadd>
    9b98:	00050a13          	addi	x20,x10,0
    9b9c:	94050ae3          	beq	x10,x0,94f0 <__gdtoa+0x878>
    9ba0:	00050a93          	addi	x21,x10,0
    9ba4:	efcff06f          	jal	x0,92a0 <__gdtoa+0x628>
    9ba8:	e80b5463          	bge	x22,x0,9230 <__gdtoa+0x5b8>
    9bac:	02812783          	lw	x15,40(x2)
    9bb0:	00912623          	sw	x9,12(x2)
    9bb4:	000c0313          	addi	x6,x24,0
    9bb8:	01012f03          	lw	x30,16(x2)
    9bbc:	01412903          	lw	x18,20(x2)
    9bc0:	00070c13          	addi	x24,x14,0
    9bc4:	46079ae3          	bne	x15,x0,a838 <__gdtoa+0x1bc0>
    9bc8:	00c12783          	lw	x15,12(x2)
    9bcc:	00100693          	addi	x13,x0,1
    9bd0:	01000c13          	addi	x24,x0,16
    9bd4:	0107a603          	lw	x12,16(x15)
    9bd8:	001d8993          	addi	x19,x27,1
    9bdc:	3ec6d6e3          	bge	x13,x12,a7c8 <__gdtoa+0x1b50>
    9be0:	000a0413          	addi	x8,x20,0
    9be4:	00098b13          	addi	x22,x19,0
    9be8:	019d8023          	sb	x25,0(x27)
    9bec:	000a8a13          	addi	x20,x21,0
    9bf0:	00012983          	lw	x19,0(x2)
    9bf4:	00030593          	addi	x11,x6,0
    9bf8:	01e12823          	sw	x30,16(x2)
    9bfc:	00098513          	addi	x10,x19,0
    9c00:	259010ef          	jal	x1,b658 <_Bfree>
    9c04:	03012783          	lw	x15,48(x2)
    9c08:	01012f03          	lw	x30,16(x2)
    9c0c:	00178493          	addi	x9,x15,1
    9c10:	ec0a04e3          	beq	x20,x0,9ad8 <__gdtoa+0xe60>
    9c14:	00040c63          	beq	x8,x0,9c2c <__gdtoa+0xfb4>
    9c18:	01440a63          	beq	x8,x20,9c2c <__gdtoa+0xfb4>
    9c1c:	00040593          	addi	x11,x8,0
    9c20:	00098513          	addi	x10,x19,0
    9c24:	235010ef          	jal	x1,b658 <_Bfree>
    9c28:	01012f03          	lw	x30,16(x2)
    9c2c:	00012503          	lw	x10,0(x2)
    9c30:	000a0593          	addi	x11,x20,0
    9c34:	01e12823          	sw	x30,16(x2)
    9c38:	221010ef          	jal	x1,b658 <_Bfree>
    9c3c:	01012f03          	lw	x30,16(x2)
    9c40:	e99ff06f          	jal	x0,9ad8 <__gdtoa+0xe60>
    9c44:	00c12583          	lw	x11,12(x2)
    9c48:	00012503          	lw	x10,0(x2)
    9c4c:	03e12023          	sw	x30,32(x2)
    9c50:	00612823          	sw	x6,16(x2)
    9c54:	238020ef          	jal	x1,be8c <__lshift>
    9c58:	00a12623          	sw	x10,12(x2)
    9c5c:	88050ae3          	beq	x10,x0,94f0 <__gdtoa+0x878>
    9c60:	07c12783          	lw	x15,124(x2)
    9c64:	02012f03          	lw	x30,32(x2)
    9c68:	01012303          	lw	x6,16(x2)
    9c6c:	d34ff06f          	jal	x0,91a0 <__gdtoa+0x528>
    9c70:	00c12503          	lw	x10,12(x2)
    9c74:	00030593          	addi	x11,x6,0
    9c78:	03e12023          	sw	x30,32(x2)
    9c7c:	00612823          	sw	x6,16(x2)
    9c80:	39c020ef          	jal	x1,c01c <__mcmp>
    9c84:	01012303          	lw	x6,16(x2)
    9c88:	02012f03          	lw	x30,32(x2)
    9c8c:	d2055263          	bge	x10,x0,91b0 <__gdtoa+0x538>
    9c90:	03012783          	lw	x15,48(x2)
    9c94:	00c12583          	lw	x11,12(x2)
    9c98:	00012503          	lw	x10,0(x2)
    9c9c:	fff78793          	addi	x15,x15,-1
    9ca0:	00000693          	addi	x13,x0,0
    9ca4:	00a00613          	addi	x12,x0,10
    9ca8:	01e12e23          	sw	x30,28(x2)
    9cac:	02f12823          	sw	x15,48(x2)
    9cb0:	1cd010ef          	jal	x1,b67c <__multadd>
    9cb4:	00a12623          	sw	x10,12(x2)
    9cb8:	82050ce3          	beq	x10,x0,94f0 <__gdtoa+0x878>
    9cbc:	03412783          	lw	x15,52(x2)
    9cc0:	01012303          	lw	x6,16(x2)
    9cc4:	01c12f03          	lw	x30,28(x2)
    9cc8:	18079ce3          	bne	x15,x0,a660 <__gdtoa+0x19e8>
    9ccc:	04c12783          	lw	x15,76(x2)
    9cd0:	1ef05e63          	bge	x0,x15,9ecc <__gdtoa+0x1254>
    9cd4:	00f12e23          	sw	x15,28(x2)
    9cd8:	01c12483          	lw	x9,28(x2)
    9cdc:	00c12403          	lw	x8,12(x2)
    9ce0:	00012a83          	lw	x21,0(x2)
    9ce4:	000f0d93          	addi	x27,x30,0
    9ce8:	00100793          	addi	x15,x0,1
    9cec:	00030993          	addi	x19,x6,0
    9cf0:	000f0b13          	addi	x22,x30,0
    9cf4:	0180006f          	jal	x0,9d0c <__gdtoa+0x1094>
    9cf8:	185010ef          	jal	x1,b67c <__multadd>
    9cfc:	00050413          	addi	x8,x10,0
    9d00:	fe050863          	beq	x10,x0,94f0 <__gdtoa+0x878>
    9d04:	07c12783          	lw	x15,124(x2)
    9d08:	00178793          	addi	x15,x15,1
    9d0c:	00098593          	addi	x11,x19,0
    9d10:	00040513          	addi	x10,x8,0
    9d14:	06f12e23          	sw	x15,124(x2)
    9d18:	290010ef          	jal	x1,afa8 <__quorem_D2A>
    9d1c:	03050c93          	addi	x25,x10,48
    9d20:	019d8023          	sb	x25,0(x27)
    9d24:	07c12783          	lw	x15,124(x2)
    9d28:	00000693          	addi	x13,x0,0
    9d2c:	00a00613          	addi	x12,x0,10
    9d30:	00040593          	addi	x11,x8,0
    9d34:	000a8513          	addi	x10,x21,0
    9d38:	001d8d93          	addi	x27,x27,1
    9d3c:	fa97cee3          	blt	x15,x9,9cf8 <__gdtoa+0x1080>
    9d40:	00812623          	sw	x8,12(x2)
    9d44:	00098313          	addi	x6,x19,0
    9d48:	000b0f13          	addi	x30,x22,0
    9d4c:	00000413          	addi	x8,x0,0
    9d50:	02812703          	lw	x14,40(x2)
    9d54:	4a070063          	beq	x14,x0,a1f4 <__gdtoa+0x157c>
    9d58:	00c12603          	lw	x12,12(x2)
    9d5c:	00200793          	addi	x15,x0,2
    9d60:	01062683          	lw	x13,16(x12)
    9d64:	4cf70a63          	beq	x14,x15,a238 <__gdtoa+0x15c0>
    9d68:	00100793          	addi	x15,x0,1
    9d6c:	28d7ce63          	blt	x15,x13,a008 <__gdtoa+0x1390>
    9d70:	01462783          	lw	x15,20(x12)
    9d74:	28079a63          	bne	x15,x0,a008 <__gdtoa+0x1390>
    9d78:	00f037b3          	sltu	x15,x0,x15
    9d7c:	00479c13          	slli	x24,x15,0x4
    9d80:	03000693          	addi	x13,x0,48
    9d84:	fffdc783          	lbu	x15,-1(x27)
    9d88:	000d8b13          	addi	x22,x27,0
    9d8c:	fffd8d93          	addi	x27,x27,-1
    9d90:	fed78ae3          	beq	x15,x13,9d84 <__gdtoa+0x110c>
    9d94:	e5dff06f          	jal	x0,9bf0 <__gdtoa+0xf78>
    9d98:	01c12783          	lw	x15,28(x2)
    9d9c:	02c12703          	lw	x14,44(x2)
    9da0:	fff78693          	addi	x13,x15,-1
    9da4:	1ad74663          	blt	x14,x13,9f50 <__gdtoa+0x12d8>
    9da8:	40d704b3          	sub	x9,x14,x13
    9dac:	0007dee3          	bge	x15,x0,a5c8 <__gdtoa+0x1950>
    9db0:	02412783          	lw	x15,36(x2)
    9db4:	01c12703          	lw	x14,28(x2)
    9db8:	06012e23          	sw	x0,124(x2)
    9dbc:	40e78ab3          	sub	x21,x15,x14
    9dc0:	b14ff06f          	jal	x0,90d4 <__gdtoa+0x45c>
    9dc4:	00200793          	addi	x15,x0,2
    9dc8:	bfa7d863          	bge	x15,x26,91b8 <__gdtoa+0x540>
    9dcc:	00012503          	lw	x10,0(x2)
    9dd0:	00030593          	addi	x11,x6,0
    9dd4:	00000693          	addi	x13,x0,0
    9dd8:	00500613          	addi	x12,x0,5
    9ddc:	01e12823          	sw	x30,16(x2)
    9de0:	09d010ef          	jal	x1,b67c <__multadd>
    9de4:	00050593          	addi	x11,x10,0
    9de8:	f0050463          	beq	x10,x0,94f0 <__gdtoa+0x878>
    9dec:	01c12783          	lw	x15,28(x2)
    9df0:	01012f03          	lw	x30,16(x2)
    9df4:	14079463          	bne	x15,x0,9f3c <__gdtoa+0x12c4>
    9df8:	00a12823          	sw	x10,16(x2)
    9dfc:	00c12503          	lw	x10,12(x2)
    9e00:	01e12c23          	sw	x30,24(x2)
    9e04:	218020ef          	jal	x1,c01c <__mcmp>
    9e08:	01012583          	lw	x11,16(x2)
    9e0c:	01812f03          	lw	x30,24(x2)
    9e10:	12a05663          	bge	x0,x10,9f3c <__gdtoa+0x12c4>
    9e14:	03012783          	lw	x15,48(x2)
    9e18:	00278493          	addi	x9,x15,2
    9e1c:	03100793          	addi	x15,x0,49
    9e20:	001f0b13          	addi	x22,x30,1
    9e24:	00ff0023          	sb	x15,0(x30)
    9e28:	02000c13          	addi	x24,x0,32
    9e2c:	00012503          	lw	x10,0(x2)
    9e30:	01e12823          	sw	x30,16(x2)
    9e34:	025010ef          	jal	x1,b658 <_Bfree>
    9e38:	01012f03          	lw	x30,16(x2)
    9e3c:	c80a0ee3          	beq	x20,x0,9ad8 <__gdtoa+0xe60>
    9e40:	dedff06f          	jal	x0,9c2c <__gdtoa+0xfb4>
    9e44:	00100693          	addi	x13,x0,1
    9e48:	00100593          	addi	x11,x0,1
    9e4c:	9d4ff06f          	jal	x0,9020 <__gdtoa+0x3a8>
    9e50:	00050593          	addi	x11,x10,0
    9e54:	00012503          	lw	x10,0(x2)
    9e58:	00078613          	addi	x12,x15,0
    9e5c:	6e1010ef          	jal	x1,bd3c <__pow5mult>
    9e60:	00050313          	addi	x6,x10,0
    9e64:	e8050663          	beq	x10,x0,94f0 <__gdtoa+0x878>
    9e68:	00100693          	addi	x13,x0,1
    9e6c:	02012f03          	lw	x30,32(x2)
    9e70:	21a6de63          	bge	x13,x26,a08c <__gdtoa+0x1414>
    9e74:	01032783          	lw	x15,16(x6)
    9e78:	03e12023          	sw	x30,32(x2)
    9e7c:	00612823          	sw	x6,16(x2)
    9e80:	00378793          	addi	x15,x15,3
    9e84:	00279793          	slli	x15,x15,0x2
    9e88:	00f307b3          	add	x15,x6,x15
    9e8c:	0047a503          	lw	x10,4(x15)
    9e90:	271010ef          	jal	x1,b900 <__hi0bits>
    9e94:	02012f03          	lw	x30,32(x2)
    9e98:	01012303          	lw	x6,16(x2)
    9e9c:	00050b13          	addi	x22,x10,0
    9ea0:	01812c23          	sw	x24,24(x2)
    9ea4:	adcff06f          	jal	x0,9180 <__gdtoa+0x508>
    9ea8:	00100693          	addi	x13,x0,1
    9eac:	efa6c6e3          	blt	x13,x26,9d98 <__gdtoa+0x1120>
    9eb0:	02412783          	lw	x15,36(x2)
    9eb4:	02c12483          	lw	x9,44(x2)
    9eb8:	00cb8bb3          	add	x23,x23,x12
    9ebc:	00078a93          	addi	x21,x15,0
    9ec0:	00f607b3          	add	x15,x12,x15
    9ec4:	02f12223          	sw	x15,36(x2)
    9ec8:	a0cff06f          	jal	x0,90d4 <__gdtoa+0x45c>
    9ecc:	00200793          	addi	x15,x0,2
    9ed0:	13a7c0e3          	blt	x15,x26,a7f0 <__gdtoa+0x1b78>
    9ed4:	04c12783          	lw	x15,76(x2)
    9ed8:	00f12e23          	sw	x15,28(x2)
    9edc:	dfdff06f          	jal	x0,9cd8 <__gdtoa+0x1060>
    9ee0:	01012c03          	lw	x24,16(x2)
    9ee4:	00040f13          	addi	x30,x8,0
    9ee8:	bf1ff06f          	jal	x0,9ad8 <__gdtoa+0xe60>
    9eec:	01c12783          	lw	x15,28(x2)
    9ef0:	a8f04ce3          	blt	x0,x15,9988 <__gdtoa+0xd10>
    9ef4:	04079063          	bne	x15,x0,9f34 <__gdtoa+0x12bc>
    9ef8:	0000a797          	auipc	x15,0xa
    9efc:	49878793          	addi	x15,x15,1176 # 14390 <__SDATA_BEGIN__+0x50>
    9f00:	0007a603          	lw	x12,0(x15)
    9f04:	0047a683          	lw	x13,4(x15)
    9f08:	000d0513          	addi	x10,x26,0
    9f0c:	000d8593          	addi	x11,x27,0
    9f10:	01e12823          	sw	x30,16(x2)
    9f14:	2dd040ef          	jal	x1,e9f0 <__muldf3>
    9f18:	04812883          	lw	x17,72(x2)
    9f1c:	04012783          	lw	x15,64(x2)
    9f20:	00088613          	addi	x12,x17,0
    9f24:	00078693          	addi	x13,x15,0
    9f28:	0c1040ef          	jal	x1,e7e8 <__gedf2>
    9f2c:	01012f03          	lw	x30,16(x2)
    9f30:	6e054c63          	blt	x10,x0,a628 <__gdtoa+0x19b0>
    9f34:	00000593          	addi	x11,x0,0
    9f38:	00000a13          	addi	x20,x0,0
    9f3c:	01412783          	lw	x15,20(x2)
    9f40:	000f0b13          	addi	x22,x30,0
    9f44:	01000c13          	addi	x24,x0,16
    9f48:	40f004b3          	sub	x9,x0,x15
    9f4c:	ee1ff06f          	jal	x0,9e2c <__gdtoa+0x11b4>
    9f50:	02c12783          	lw	x15,44(x2)
    9f54:	02412703          	lw	x14,36(x2)
    9f58:	00000493          	addi	x9,x0,0
    9f5c:	40f68633          	sub	x12,x13,x15
    9f60:	01812783          	lw	x15,24(x2)
    9f64:	00070a93          	addi	x21,x14,0
    9f68:	02d12623          	sw	x13,44(x2)
    9f6c:	00c787b3          	add	x15,x15,x12
    9f70:	00f12c23          	sw	x15,24(x2)
    9f74:	01c12783          	lw	x15,28(x2)
    9f78:	06f12e23          	sw	x15,124(x2)
    9f7c:	00fb8bb3          	add	x23,x23,x15
    9f80:	00f707b3          	add	x15,x14,x15
    9f84:	02f12223          	sw	x15,36(x2)
    9f88:	94cff06f          	jal	x0,90d4 <__gdtoa+0x45c>
    9f8c:	00012b03          	lw	x22,0(x2)
    9f90:	000a0593          	addi	x11,x20,0
    9f94:	00048613          	addi	x12,x9,0
    9f98:	000b0513          	addi	x10,x22,0
    9f9c:	03e12023          	sw	x30,32(x2)
    9fa0:	59d010ef          	jal	x1,bd3c <__pow5mult>
    9fa4:	00050a13          	addi	x20,x10,0
    9fa8:	d4050463          	beq	x10,x0,94f0 <__gdtoa+0x878>
    9fac:	00c12603          	lw	x12,12(x2)
    9fb0:	00050593          	addi	x11,x10,0
    9fb4:	000b0513          	addi	x10,x22,0
    9fb8:	351010ef          	jal	x1,bb08 <__multiply>
    9fbc:	00050413          	addi	x8,x10,0
    9fc0:	d2050863          	beq	x10,x0,94f0 <__gdtoa+0x878>
    9fc4:	00c12583          	lw	x11,12(x2)
    9fc8:	000b0513          	addi	x10,x22,0
    9fcc:	68c010ef          	jal	x1,b658 <_Bfree>
    9fd0:	02c12783          	lw	x15,44(x2)
    9fd4:	00812623          	sw	x8,12(x2)
    9fd8:	02012f03          	lw	x30,32(x2)
    9fdc:	409787b3          	sub	x15,x15,x9
    9fe0:	02f12623          	sw	x15,44(x2)
    9fe4:	96078663          	beq	x15,x0,9150 <__gdtoa+0x4d8>
    9fe8:	948ff06f          	jal	x0,9130 <__gdtoa+0x4b8>
    9fec:	000a0413          	addi	x8,x20,0
    9ff0:	000d8793          	addi	x15,x27,0
    9ff4:	001d8993          	addi	x19,x27,1
    9ff8:	000a8a13          	addi	x20,x21,0
    9ffc:	03900693          	addi	x13,x0,57
    a000:	00098d93          	addi	x27,x19,0
    a004:	00d78023          	sb	x13,0(x15)
    a008:	03900693          	addi	x13,x0,57
    a00c:	0080006f          	jal	x0,a014 <__gdtoa+0x139c>
    a010:	25bf0463          	beq	x30,x27,a258 <__gdtoa+0x15e0>
    a014:	fffdc783          	lbu	x15,-1(x27)
    a018:	000d8b13          	addi	x22,x27,0
    a01c:	fffd8d93          	addi	x27,x27,-1
    a020:	fed788e3          	beq	x15,x13,a010 <__gdtoa+0x1398>
    a024:	00178793          	addi	x15,x15,1
    a028:	00fd8023          	sb	x15,0(x27)
    a02c:	02000c13          	addi	x24,x0,32
    a030:	bc1ff06f          	jal	x0,9bf0 <__gdtoa+0xf78>
    a034:	00012503          	lw	x10,0(x2)
    a038:	000a0593          	addi	x11,x20,0
    a03c:	01e12a23          	sw	x30,20(x2)
    a040:	00612823          	sw	x6,16(x2)
    a044:	649010ef          	jal	x1,be8c <__lshift>
    a048:	01012303          	lw	x6,16(x2)
    a04c:	01412f03          	lw	x30,20(x2)
    a050:	00050a13          	addi	x20,x10,0
    a054:	96051a63          	bne	x10,x0,91c8 <__gdtoa+0x550>
    a058:	c98ff06f          	jal	x0,94f0 <__gdtoa+0x878>
    a05c:	00100793          	addi	x15,x0,1
    a060:	00000a13          	addi	x20,x0,0
    a064:	02f12a23          	sw	x15,52(x2)
    a068:	f95fe06f          	jal	x0,8ffc <__gdtoa+0x384>
    a06c:	00100793          	addi	x15,x0,1
    a070:	02f12a23          	sw	x15,52(x2)
    a074:	f89fe06f          	jal	x0,8ffc <__gdtoa+0x384>
    a078:	00100793          	addi	x15,x0,1
    a07c:	02f12a23          	sw	x15,52(x2)
    a080:	af5ff06f          	jal	x0,9b74 <__gdtoa+0xefc>
    a084:	02012a23          	sw	x0,52(x2)
    a088:	aedff06f          	jal	x0,9b74 <__gdtoa+0xefc>
    a08c:	dedc94e3          	bne	x25,x13,9e74 <__gdtoa+0x11fc>
    a090:	004da783          	lw	x15,4(x27)
    a094:	01012703          	lw	x14,16(x2)
    a098:	00178793          	addi	x15,x15,1
    a09c:	dce7dce3          	bge	x15,x14,9e74 <__gdtoa+0x11fc>
    a0a0:	02412783          	lw	x15,36(x2)
    a0a4:	001b8b93          	addi	x23,x23,1
    a0a8:	00100c13          	addi	x24,x0,1
    a0ac:	00178793          	addi	x15,x15,1
    a0b0:	02f12223          	sw	x15,36(x2)
    a0b4:	dc1ff06f          	jal	x0,9e74 <__gdtoa+0x11fc>
    a0b8:	00012403          	lw	x8,0(x2)
    a0bc:	004a2583          	lw	x11,4(x20)
    a0c0:	01e12a23          	sw	x30,20(x2)
    a0c4:	00040513          	addi	x10,x8,0
    a0c8:	00612823          	sw	x6,16(x2)
    a0cc:	4d8010ef          	jal	x1,b5a4 <_Balloc>
    a0d0:	00050a93          	addi	x21,x10,0
    a0d4:	c0050e63          	beq	x10,x0,94f0 <__gdtoa+0x878>
    a0d8:	010a2603          	lw	x12,16(x20)
    a0dc:	00ca0593          	addi	x11,x20,12
    a0e0:	00c50513          	addi	x10,x10,12
    a0e4:	00260613          	addi	x12,x12,2
    a0e8:	00261613          	slli	x12,x12,0x2
    a0ec:	b10fd0ef          	jal	x1,73fc <memcpy>
    a0f0:	000a8593          	addi	x11,x21,0
    a0f4:	00100613          	addi	x12,x0,1
    a0f8:	00040513          	addi	x10,x8,0
    a0fc:	591010ef          	jal	x1,be8c <__lshift>
    a100:	01012303          	lw	x6,16(x2)
    a104:	01412f03          	lw	x30,20(x2)
    a108:	00050a93          	addi	x21,x10,0
    a10c:	00050463          	beq	x10,x0,a114 <__gdtoa+0x149c>
    a110:	8c8ff06f          	jal	x0,91d8 <__gdtoa+0x560>
    a114:	bdcff06f          	jal	x0,94f0 <__gdtoa+0x878>
    a118:	000a0693          	addi	x13,x20,0
    a11c:	00040613          	addi	x12,x8,0
    a120:	000a0593          	addi	x11,x20,0
    a124:	00040513          	addi	x10,x8,0
    a128:	05e12023          	sw	x30,64(x2)
    a12c:	5dc030ef          	jal	x1,d708 <__adddf3>
    a130:	0000a697          	auipc	x13,0xa
    a134:	25868693          	addi	x13,x13,600 # 14388 <__SDATA_BEGIN__+0x48>
    a138:	0006a603          	lw	x12,0(x13)
    a13c:	0046a683          	lw	x13,4(x13)
    a140:	5c8030ef          	jal	x1,d708 <__adddf3>
    a144:	04012f03          	lw	x30,64(x2)
    a148:	fcc00737          	lui	x14,0xfcc00
    a14c:	00050b13          	addi	x22,x10,0
    a150:	00b70a33          	add	x20,x14,x11
    a154:	0000a697          	auipc	x13,0xa
    a158:	23c68693          	addi	x13,x13,572 # 14390 <__SDATA_BEGIN__+0x50>
    a15c:	0006a603          	lw	x12,0(x13)
    a160:	02812503          	lw	x10,40(x2)
    a164:	0046a683          	lw	x13,4(x13)
    a168:	03812583          	lw	x11,56(x2)
    a16c:	05e12023          	sw	x30,64(x2)
    a170:	759040ef          	jal	x1,f0c8 <__subdf3>
    a174:	000b0613          	addi	x12,x22,0
    a178:	000a0693          	addi	x13,x20,0
    a17c:	00050493          	addi	x9,x10,0
    a180:	00058413          	addi	x8,x11,0
    a184:	664040ef          	jal	x1,e7e8 <__gedf2>
    a188:	04012f03          	lw	x30,64(x2)
    a18c:	44a04c63          	blt	x0,x10,a5e4 <__gdtoa+0x196c>
    a190:	800008b7          	lui	x17,0x80000
    a194:	0148c8b3          	xor	x17,x17,x20
    a198:	000b0613          	addi	x12,x22,0
    a19c:	00048513          	addi	x10,x9,0
    a1a0:	00088693          	addi	x13,x17,0 # 80000000 <__heap_end+0x7fc00000>
    a1a4:	00040593          	addi	x11,x8,0
    a1a8:	740040ef          	jal	x1,e8e8 <__ledf2>
    a1ac:	04012f03          	lw	x30,64(x2)
    a1b0:	d80542e3          	blt	x10,x0,9f34 <__gdtoa+0x12bc>
    a1b4:	02812783          	lw	x15,40(x2)
    a1b8:	00009317          	auipc	x6,0x9
    a1bc:	73830313          	addi	x6,x6,1848 # 138f0 <__mprec_tens>
    a1c0:	04f12423          	sw	x15,72(x2)
    a1c4:	03812783          	lw	x15,56(x2)
    a1c8:	04f12023          	sw	x15,64(x2)
    a1cc:	02012783          	lw	x15,32(x2)
    a1d0:	5207c063          	blt	x15,x0,a6f0 <__gdtoa+0x1a78>
    a1d4:	01412783          	lw	x15,20(x2)
    a1d8:	02012423          	sw	x0,40(x2)
    a1dc:	00032d03          	lw	x26,0(x6)
    a1e0:	00432d83          	lw	x27,4(x6)
    a1e4:	fa07d263          	bge	x15,x0,9988 <__gdtoa+0xd10>
    a1e8:	01c12783          	lw	x15,28(x2)
    a1ec:	f8079e63          	bne	x15,x0,9988 <__gdtoa+0xd10>
    a1f0:	d09ff06f          	jal	x0,9ef8 <__gdtoa+0x1280>
    a1f4:	00c12583          	lw	x11,12(x2)
    a1f8:	00012503          	lw	x10,0(x2)
    a1fc:	00100613          	addi	x12,x0,1
    a200:	01e12a23          	sw	x30,20(x2)
    a204:	00612823          	sw	x6,16(x2)
    a208:	485010ef          	jal	x1,be8c <__lshift>
    a20c:	00a12623          	sw	x10,12(x2)
    a210:	ae050063          	beq	x10,x0,94f0 <__gdtoa+0x878>
    a214:	01012303          	lw	x6,16(x2)
    a218:	00030593          	addi	x11,x6,0
    a21c:	601010ef          	jal	x1,c01c <__mcmp>
    a220:	01012303          	lw	x6,16(x2)
    a224:	01412f03          	lw	x30,20(x2)
    a228:	dea040e3          	blt	x0,x10,a008 <__gdtoa+0x1390>
    a22c:	00051663          	bne	x10,x0,a238 <__gdtoa+0x15c0>
    a230:	001cf793          	andi	x15,x25,1
    a234:	dc079ae3          	bne	x15,x0,a008 <__gdtoa+0x1390>
    a238:	00c12783          	lw	x15,12(x2)
    a23c:	01000c13          	addi	x24,x0,16
    a240:	0107a683          	lw	x13,16(x15)
    a244:	00100793          	addi	x15,x0,1
    a248:	b2d7cce3          	blt	x15,x13,9d80 <__gdtoa+0x1108>
    a24c:	00c12783          	lw	x15,12(x2)
    a250:	0147a783          	lw	x15,20(x15)
    a254:	b25ff06f          	jal	x0,9d78 <__gdtoa+0x1100>
    a258:	03012783          	lw	x15,48(x2)
    a25c:	02000c13          	addi	x24,x0,32
    a260:	00178793          	addi	x15,x15,1
    a264:	02f12823          	sw	x15,48(x2)
    a268:	03100793          	addi	x15,x0,49
    a26c:	00ff0023          	sb	x15,0(x30)
    a270:	981ff06f          	jal	x0,9bf0 <__gdtoa+0xf78>
    a274:	02812783          	lw	x15,40(x2)
    a278:	00912623          	sw	x9,12(x2)
    a27c:	01012f03          	lw	x30,16(x2)
    a280:	01412903          	lw	x18,20(x2)
    a284:	000c0313          	addi	x6,x24,0
    a288:	02078263          	beq	x15,x0,a2ac <__gdtoa+0x1634>
    a28c:	00c12783          	lw	x15,12(x2)
    a290:	00100693          	addi	x13,x0,1
    a294:	0107a603          	lw	x12,16(x15)
    a298:	00c6d463          	bge	x13,x12,a2a0 <__gdtoa+0x1628>
    a29c:	8c8ff06f          	jal	x0,9364 <__gdtoa+0x6ec>
    a2a0:	0147a683          	lw	x13,20(x15)
    a2a4:	00068463          	beq	x13,x0,a2ac <__gdtoa+0x1634>
    a2a8:	8bcff06f          	jal	x0,9364 <__gdtoa+0x6ec>
    a2ac:	00c12583          	lw	x11,12(x2)
    a2b0:	00012503          	lw	x10,0(x2)
    a2b4:	00100613          	addi	x12,x0,1
    a2b8:	01e12a23          	sw	x30,20(x2)
    a2bc:	00612823          	sw	x6,16(x2)
    a2c0:	3cd010ef          	jal	x1,be8c <__lshift>
    a2c4:	00a12623          	sw	x10,12(x2)
    a2c8:	a2050463          	beq	x10,x0,94f0 <__gdtoa+0x878>
    a2cc:	01012303          	lw	x6,16(x2)
    a2d0:	00030593          	addi	x11,x6,0
    a2d4:	549010ef          	jal	x1,c01c <__mcmp>
    a2d8:	01012303          	lw	x6,16(x2)
    a2dc:	01412f03          	lw	x30,20(x2)
    a2e0:	4ea05c63          	bge	x0,x10,a7d8 <__gdtoa+0x1b60>
    a2e4:	03900693          	addi	x13,x0,57
    a2e8:	d0dc82e3          	beq	x25,x13,9fec <__gdtoa+0x1374>
    a2ec:	02000793          	addi	x15,x0,32
    a2f0:	031b8c93          	addi	x25,x23,49
    a2f4:	02f12423          	sw	x15,40(x2)
    a2f8:	8d1ff06f          	jal	x0,9bc8 <__gdtoa+0xf50>
    a2fc:	000a8613          	addi	x12,x21,0
    a300:	000c0693          	addi	x13,x24,0
    a304:	01e12a23          	sw	x30,20(x2)
    a308:	400030ef          	jal	x1,d708 <__adddf3>
    a30c:	fffb4703          	lbu	x14,-1(x22)
    a310:	000d0613          	addi	x12,x26,0
    a314:	000d8693          	addi	x13,x27,0
    a318:	00e12823          	sw	x14,16(x2)
    a31c:	00050a93          	addi	x21,x10,0
    a320:	00058a13          	addi	x20,x11,0
    a324:	4c4040ef          	jal	x1,e7e8 <__gedf2>
    a328:	01012703          	lw	x14,16(x2)
    a32c:	01412f03          	lw	x30,20(x2)
    a330:	d8a04063          	blt	x0,x10,98b0 <__gdtoa+0xc38>
    a334:	000a8513          	addi	x10,x21,0
    a338:	000a0593          	addi	x11,x20,0
    a33c:	000d0613          	addi	x12,x26,0
    a340:	000d8693          	addi	x13,x27,0
    a344:	418040ef          	jal	x1,e75c <__eqdf2>
    a348:	01412f03          	lw	x30,20(x2)
    a34c:	2e051863          	bne	x10,x0,a63c <__gdtoa+0x19c4>
    a350:	0019f993          	andi	x19,x19,1
    a354:	2e098463          	beq	x19,x0,a63c <__gdtoa+0x19c4>
    a358:	01012703          	lw	x14,16(x2)
    a35c:	d54ff06f          	jal	x0,98b0 <__gdtoa+0xc38>
    a360:	03100693          	addi	x13,x0,49
    a364:	00140413          	addi	x8,x8,1
    a368:	d6cff06f          	jal	x0,98d4 <__gdtoa+0xc5c>
    a36c:	000b0513          	addi	x10,x22,0
    a370:	000a0593          	addi	x11,x20,0
    a374:	06612623          	sw	x6,108(x2)
    a378:	07e12023          	sw	x30,96(x2)
    a37c:	674040ef          	jal	x1,e9f0 <__muldf3>
    a380:	04812603          	lw	x12,72(x2)
    a384:	04012683          	lw	x13,64(x2)
    a388:	06012f03          	lw	x30,96(x2)
    a38c:	06c12303          	lw	x6,108(x2)
    a390:	00060a93          	addi	x21,x12,0
    a394:	04b12e23          	sw	x11,92(x2)
    a398:	04c12023          	sw	x12,64(x2)
    a39c:	00100593          	addi	x11,x0,1
    a3a0:	00000613          	addi	x12,x0,0
    a3a4:	07312223          	sw	x19,100(x2)
    a3a8:	07212423          	sw	x18,104(x2)
    a3ac:	04a12c23          	sw	x10,88(x2)
    a3b0:	05012903          	lw	x18,80(x2)
    a3b4:	06b12e23          	sw	x11,124(x2)
    a3b8:	04d12423          	sw	x13,72(x2)
    a3bc:	00068a13          	addi	x20,x13,0
    a3c0:	000f0b13          	addi	x22,x30,0
    a3c4:	0000a497          	auipc	x9,0xa
    a3c8:	fb448493          	addi	x9,x9,-76 # 14378 <__SDATA_BEGIN__+0x38>
    a3cc:	00060413          	addi	x8,x12,0
    a3d0:	04612823          	sw	x6,80(x2)
    a3d4:	000a8993          	addi	x19,x21,0
    a3d8:	0200006f          	jal	x0,a3f8 <__gdtoa+0x1780>
    a3dc:	0004a603          	lw	x12,0(x9)
    a3e0:	0044a683          	lw	x13,4(x9)
    a3e4:	06612e23          	sw	x6,124(x2)
    a3e8:	00100413          	addi	x8,x0,1
    a3ec:	604040ef          	jal	x1,e9f0 <__muldf3>
    a3f0:	00050993          	addi	x19,x10,0
    a3f4:	00058a13          	addi	x20,x11,0
    a3f8:	00098513          	addi	x10,x19,0
    a3fc:	000a0593          	addi	x11,x20,0
    a400:	5d0050ef          	jal	x1,f9d0 <__fixdfsi>
    a404:	00050a93          	addi	x21,x10,0
    a408:	02050463          	beq	x10,x0,a430 <__gdtoa+0x17b8>
    a40c:	648050ef          	jal	x1,fa54 <__floatsidf>
    a410:	00050613          	addi	x12,x10,0
    a414:	00058693          	addi	x13,x11,0
    a418:	00098513          	addi	x10,x19,0
    a41c:	000a0593          	addi	x11,x20,0
    a420:	4a9040ef          	jal	x1,f0c8 <__subdf3>
    a424:	00050993          	addi	x19,x10,0
    a428:	00058a13          	addi	x20,x11,0
    a42c:	00100413          	addi	x8,x0,1
    a430:	030a8793          	addi	x15,x21,48
    a434:	0ff7f713          	andi	x14,x15,255
    a438:	00eb0023          	sb	x14,0(x22)
    a43c:	07c12783          	lw	x15,124(x2)
    a440:	001b0b13          	addi	x22,x22,1
    a444:	00098513          	addi	x10,x19,0
    a448:	000a0593          	addi	x11,x20,0
    a44c:	00178313          	addi	x6,x15,1
    a450:	f92796e3          	bne	x15,x18,a3dc <__gdtoa+0x1764>
    a454:	06012f03          	lw	x30,96(x2)
    a458:	06812903          	lw	x18,104(x2)
    a45c:	05012303          	lw	x6,80(x2)
    a460:	06412983          	lw	x19,100(x2)
    a464:	00040663          	beq	x8,x0,a470 <__gdtoa+0x17f8>
    a468:	04a12023          	sw	x10,64(x2)
    a46c:	05412423          	sw	x20,72(x2)
    a470:	0000aa17          	auipc	x20,0xa
    a474:	f28a0a13          	addi	x20,x20,-216 # 14398 <__SDATA_BEGIN__+0x58>
    a478:	05c12a83          	lw	x21,92(x2)
    a47c:	000a2603          	lw	x12,0(x20)
    a480:	004a2683          	lw	x13,4(x20)
    a484:	05812503          	lw	x10,88(x2)
    a488:	000a8593          	addi	x11,x21,0
    a48c:	07e12023          	sw	x30,96(x2)
    a490:	04e12823          	sw	x14,80(x2)
    a494:	06612223          	sw	x6,100(x2)
    a498:	270030ef          	jal	x1,d708 <__adddf3>
    a49c:	04012483          	lw	x9,64(x2)
    a4a0:	04812403          	lw	x8,72(x2)
    a4a4:	00048613          	addi	x12,x9,0
    a4a8:	00040693          	addi	x13,x8,0
    a4ac:	43c040ef          	jal	x1,e8e8 <__ledf2>
    a4b0:	05012703          	lw	x14,80(x2)
    a4b4:	06012f03          	lw	x30,96(x2)
    a4b8:	22054663          	blt	x10,x0,a6e4 <__gdtoa+0x1a6c>
    a4bc:	05812603          	lw	x12,88(x2)
    a4c0:	000a2503          	lw	x10,0(x20)
    a4c4:	004a2583          	lw	x11,4(x20)
    a4c8:	000a8693          	addi	x13,x21,0
    a4cc:	05e12823          	sw	x30,80(x2)
    a4d0:	3f9040ef          	jal	x1,f0c8 <__subdf3>
    a4d4:	00048613          	addi	x12,x9,0
    a4d8:	00040693          	addi	x13,x8,0
    a4dc:	30c040ef          	jal	x1,e7e8 <__gedf2>
    a4e0:	05012f03          	lw	x30,80(x2)
    a4e4:	06412303          	lw	x6,100(x2)
    a4e8:	2aa04663          	blt	x0,x10,a794 <__gdtoa+0x1b1c>
    a4ec:	02812783          	lw	x15,40(x2)
    a4f0:	04f12423          	sw	x15,72(x2)
    a4f4:	03812783          	lw	x15,56(x2)
    a4f8:	04f12023          	sw	x15,64(x2)
    a4fc:	02012783          	lw	x15,32(x2)
    a500:	cc07dae3          	bge	x15,x0,a1d4 <__gdtoa+0x155c>
    a504:	02c12483          	lw	x9,44(x2)
    a508:	02412a83          	lw	x21,36(x2)
    a50c:	02012423          	sw	x0,40(x2)
    a510:	00000a13          	addi	x20,x0,0
    a514:	bddfe06f          	jal	x0,90f0 <__gdtoa+0x478>
    a518:	000a0413          	addi	x8,x20,0
    a51c:	01012f03          	lw	x30,16(x2)
    a520:	01412903          	lw	x18,20(x2)
    a524:	00912623          	sw	x9,12(x2)
    a528:	000c0313          	addi	x6,x24,0
    a52c:	000a8a13          	addi	x20,x21,0
    a530:	821ff06f          	jal	x0,9d50 <__gdtoa+0x10d8>
    a534:	fffb4703          	lbu	x14,-1(x22)
    a538:	b78ff06f          	jal	x0,98b0 <__gdtoa+0xc38>
    a53c:	bc048ee3          	beq	x9,x0,a118 <__gdtoa+0x14a0>
    a540:	04c12483          	lw	x9,76(x2)
    a544:	c69058e3          	bge	x0,x9,a1b4 <__gdtoa+0x153c>
    a548:	0000a697          	auipc	x13,0xa
    a54c:	e3068693          	addi	x13,x13,-464 # 14378 <__SDATA_BEGIN__+0x38>
    a550:	0006a603          	lw	x12,0(x13)
    a554:	0046a683          	lw	x13,4(x13)
    a558:	000a0593          	addi	x11,x20,0
    a55c:	00040513          	addi	x10,x8,0
    a560:	07e12023          	sw	x30,96(x2)
    a564:	48c040ef          	jal	x1,e9f0 <__muldf3>
    a568:	0000a697          	auipc	x13,0xa
    a56c:	e1868693          	addi	x13,x13,-488 # 14380 <__SDATA_BEGIN__+0x40>
    a570:	0006a603          	lw	x12,0(x13)
    a574:	0046a683          	lw	x13,4(x13)
    a578:	04a12423          	sw	x10,72(x2)
    a57c:	04a12e23          	sw	x10,92(x2)
    a580:	04b12023          	sw	x11,64(x2)
    a584:	04b12c23          	sw	x11,88(x2)
    a588:	468040ef          	jal	x1,e9f0 <__muldf3>
    a58c:	0000a697          	auipc	x13,0xa
    a590:	dfc68693          	addi	x13,x13,-516 # 14388 <__SDATA_BEGIN__+0x48>
    a594:	0006a603          	lw	x12,0(x13)
    a598:	0046a683          	lw	x13,4(x13)
    a59c:	16c030ef          	jal	x1,d708 <__adddf3>
    a5a0:	fcc00737          	lui	x14,0xfcc00
    a5a4:	fff00793          	addi	x15,x0,-1
    a5a8:	05812803          	lw	x16,88(x2)
    a5ac:	05c12e83          	lw	x29,92(x2)
    a5b0:	06012f03          	lw	x30,96(x2)
    a5b4:	00050b13          	addi	x22,x10,0
    a5b8:	00b70a33          	add	x20,x14,x11
    a5bc:	04912823          	sw	x9,80(x2)
    a5c0:	04f12a23          	sw	x15,84(x2)
    a5c4:	8f0ff06f          	jal	x0,96b4 <__gdtoa+0xa3c>
    a5c8:	02412703          	lw	x14,36(x2)
    a5cc:	06f12e23          	sw	x15,124(x2)
    a5d0:	00fb8bb3          	add	x23,x23,x15
    a5d4:	00f707b3          	add	x15,x14,x15
    a5d8:	00070a93          	addi	x21,x14,0 # fcc00000 <__heap_end+0xfc800000>
    a5dc:	02f12223          	sw	x15,36(x2)
    a5e0:	af5fe06f          	jal	x0,90d4 <__gdtoa+0x45c>
    a5e4:	00200493          	addi	x9,x0,2
    a5e8:	00000593          	addi	x11,x0,0
    a5ec:	00000a13          	addi	x20,x0,0
    a5f0:	82dff06f          	jal	x0,9e1c <__gdtoa+0x11a4>
    a5f4:	00912623          	sw	x9,12(x2)
    a5f8:	03900693          	addi	x13,x0,57
    a5fc:	01012f03          	lw	x30,16(x2)
    a600:	01412903          	lw	x18,20(x2)
    a604:	000c0313          	addi	x6,x24,0
    a608:	9edc82e3          	beq	x25,x13,9fec <__gdtoa+0x1374>
    a60c:	001c8793          	addi	x15,x25,1
    a610:	000a0413          	addi	x8,x20,0
    a614:	001d8b13          	addi	x22,x27,1
    a618:	00fd8023          	sb	x15,0(x27)
    a61c:	000a8a13          	addi	x20,x21,0
    a620:	02000c13          	addi	x24,x0,32
    a624:	dccff06f          	jal	x0,9bf0 <__gdtoa+0xf78>
    a628:	03012783          	lw	x15,48(x2)
    a62c:	00000593          	addi	x11,x0,0
    a630:	00000a13          	addi	x20,x0,0
    a634:	00278493          	addi	x9,x15,2
    a638:	fe4ff06f          	jal	x0,9e1c <__gdtoa+0x11a4>
    a63c:	000b0793          	addi	x15,x22,0
    a640:	01000c13          	addi	x24,x0,16
    a644:	03000613          	addi	x12,x0,48
    a648:	fff7c703          	lbu	x14,-1(x15)
    a64c:	00078b13          	addi	x22,x15,0
    a650:	fff78793          	addi	x15,x15,-1
    a654:	fec70ae3          	beq	x14,x12,a648 <__gdtoa+0x19d0>
    a658:	00040493          	addi	x9,x8,0
    a65c:	c7cff06f          	jal	x0,9ad8 <__gdtoa+0xe60>
    a660:	00012503          	lw	x10,0(x2)
    a664:	000a0593          	addi	x11,x20,0
    a668:	00000693          	addi	x13,x0,0
    a66c:	00a00613          	addi	x12,x0,10
    a670:	00c010ef          	jal	x1,b67c <__multadd>
    a674:	00050a13          	addi	x20,x10,0
    a678:	00051463          	bne	x10,x0,a680 <__gdtoa+0x1a08>
    a67c:	e75fe06f          	jal	x0,94f0 <__gdtoa+0x878>
    a680:	04c12783          	lw	x15,76(x2)
    a684:	01012303          	lw	x6,16(x2)
    a688:	01c12f03          	lw	x30,28(x2)
    a68c:	00f05663          	bge	x0,x15,a698 <__gdtoa+0x1a20>
    a690:	00f12e23          	sw	x15,28(x2)
    a694:	b2dfe06f          	jal	x0,91c0 <__gdtoa+0x548>
    a698:	00200793          	addi	x15,x0,2
    a69c:	15a7ca63          	blt	x15,x26,a7f0 <__gdtoa+0x1b78>
    a6a0:	04c12783          	lw	x15,76(x2)
    a6a4:	00f12e23          	sw	x15,28(x2)
    a6a8:	b19fe06f          	jal	x0,91c0 <__gdtoa+0x548>
    a6ac:	04812f03          	lw	x30,72(x2)
    a6b0:	05012903          	lw	x18,80(x2)
    a6b4:	00048513          	addi	x10,x9,0
    a6b8:	000a0593          	addi	x11,x20,0
    a6bc:	00000613          	addi	x12,x0,0
    a6c0:	00000693          	addi	x13,x0,0
    a6c4:	01e12823          	sw	x30,16(x2)
    a6c8:	094040ef          	jal	x1,e75c <__eqdf2>
    a6cc:	00a037b3          	sltu	x15,x0,x10
    a6d0:	00479c13          	slli	x24,x15,0x4
    a6d4:	05412783          	lw	x15,84(x2)
    a6d8:	01012f03          	lw	x30,16(x2)
    a6dc:	00178493          	addi	x9,x15,1
    a6e0:	bf8ff06f          	jal	x0,9ad8 <__gdtoa+0xe60>
    a6e4:	05412783          	lw	x15,84(x2)
    a6e8:	00178413          	addi	x8,x15,1
    a6ec:	9c4ff06f          	jal	x0,98b0 <__gdtoa+0xc38>
    a6f0:	02012423          	sw	x0,40(x2)
    a6f4:	971fe06f          	jal	x0,9064 <__gdtoa+0x3ec>
    a6f8:	01c12783          	lw	x15,28(x2)
    a6fc:	02c12703          	lw	x14,44(x2)
    a700:	fff78693          	addi	x13,x15,-1
    a704:	84d746e3          	blt	x14,x13,9f50 <__gdtoa+0x12d8>
    a708:	02412603          	lw	x12,36(x2)
    a70c:	00fb8bb3          	add	x23,x23,x15
    a710:	06f12e23          	sw	x15,124(x2)
    a714:	00f607b3          	add	x15,x12,x15
    a718:	00060a93          	addi	x21,x12,0
    a71c:	40d704b3          	sub	x9,x14,x13
    a720:	02f12223          	sw	x15,36(x2)
    a724:	9b1fe06f          	jal	x0,90d4 <__gdtoa+0x45c>
    a728:	02812783          	lw	x15,40(x2)
    a72c:	04812f03          	lw	x30,72(x2)
    a730:	06012b83          	lw	x23,96(x2)
    a734:	04f12423          	sw	x15,72(x2)
    a738:	03812783          	lw	x15,56(x2)
    a73c:	06412a83          	lw	x21,100(x2)
    a740:	05012903          	lw	x18,80(x2)
    a744:	04f12023          	sw	x15,64(x2)
    a748:	02012783          	lw	x15,32(x2)
    a74c:	06812303          	lw	x6,104(x2)
    a750:	a807d2e3          	bge	x15,x0,a1d4 <__gdtoa+0x155c>
    a754:	02012423          	sw	x0,40(x2)
    a758:	915fe06f          	jal	x0,906c <__gdtoa+0x3f4>
    a75c:	00912623          	sw	x9,12(x2)
    a760:	03900693          	addi	x13,x0,57
    a764:	01012f03          	lw	x30,16(x2)
    a768:	01412903          	lw	x18,20(x2)
    a76c:	000c0313          	addi	x6,x24,0
    a770:	86dc8ee3          	beq	x25,x13,9fec <__gdtoa+0x1374>
    a774:	0f605663          	bge	x0,x22,a860 <__gdtoa+0x1be8>
    a778:	031b8c93          	addi	x25,x23,49
    a77c:	02000c13          	addi	x24,x0,32
    a780:	000a0413          	addi	x8,x20,0
    a784:	001d8b13          	addi	x22,x27,1
    a788:	019d8023          	sb	x25,0(x27)
    a78c:	000a8a13          	addi	x20,x21,0
    a790:	c60ff06f          	jal	x0,9bf0 <__gdtoa+0xf78>
    a794:	00040593          	addi	x11,x8,0
    a798:	00048513          	addi	x10,x9,0
    a79c:	00000613          	addi	x12,x0,0
    a7a0:	00000693          	addi	x13,x0,0
    a7a4:	01e12823          	sw	x30,16(x2)
    a7a8:	7b5030ef          	jal	x1,e75c <__eqdf2>
    a7ac:	05412703          	lw	x14,84(x2)
    a7b0:	00a037b3          	sltu	x15,x0,x10
    a7b4:	00479c13          	slli	x24,x15,0x4
    a7b8:	01012f03          	lw	x30,16(x2)
    a7bc:	000b0793          	addi	x15,x22,0
    a7c0:	00170413          	addi	x8,x14,1
    a7c4:	e81ff06f          	jal	x0,a644 <__gdtoa+0x19cc>
    a7c8:	0147a683          	lw	x13,20(x15)
    a7cc:	c0069a63          	bne	x13,x0,9be0 <__gdtoa+0xf68>
    a7d0:	02812c03          	lw	x24,40(x2)
    a7d4:	c0cff06f          	jal	x0,9be0 <__gdtoa+0xf68>
    a7d8:	00051663          	bne	x10,x0,a7e4 <__gdtoa+0x1b6c>
    a7dc:	001cf693          	andi	x13,x25,1
    a7e0:	b00692e3          	bne	x13,x0,a2e4 <__gdtoa+0x166c>
    a7e4:	02000793          	addi	x15,x0,32
    a7e8:	02f12423          	sw	x15,40(x2)
    a7ec:	bdcff06f          	jal	x0,9bc8 <__gdtoa+0xf50>
    a7f0:	04c12783          	lw	x15,76(x2)
    a7f4:	00f12e23          	sw	x15,28(x2)
    a7f8:	dd4ff06f          	jal	x0,9dcc <__gdtoa+0x1154>
    a7fc:	00912623          	sw	x9,12(x2)
    a800:	03900693          	addi	x13,x0,57
    a804:	000b0313          	addi	x6,x22,0
    a808:	000c0f13          	addi	x30,x24,0
    a80c:	00dc8e63          	beq	x25,x13,a828 <__gdtoa+0x1bb0>
    a810:	001c8c93          	addi	x25,x25,1
    a814:	02000c13          	addi	x24,x0,32
    a818:	bc8ff06f          	jal	x0,9be0 <__gdtoa+0xf68>
    a81c:	01000c13          	addi	x24,x0,16
    a820:	001d8993          	addi	x19,x27,1
    a824:	bbcff06f          	jal	x0,9be0 <__gdtoa+0xf68>
    a828:	000a0413          	addi	x8,x20,0
    a82c:	000d8793          	addi	x15,x27,0
    a830:	000a8a13          	addi	x20,x21,0
    a834:	fc8ff06f          	jal	x0,9ffc <__gdtoa+0x1384>
    a838:	0104a603          	lw	x12,16(x9)
    a83c:	00100693          	addi	x13,x0,1
    a840:	00048793          	addi	x15,x9,0
    a844:	00c6d463          	bge	x13,x12,a84c <__gdtoa+0x1bd4>
    a848:	b1dfe06f          	jal	x0,9364 <__gdtoa+0x6ec>
    a84c:	0147a683          	lw	x13,20(x15)
    a850:	00068463          	beq	x13,x0,a858 <__gdtoa+0x1be0>
    a854:	b11fe06f          	jal	x0,9364 <__gdtoa+0x6ec>
    a858:	001d8993          	addi	x19,x27,1
    a85c:	b84ff06f          	jal	x0,9be0 <__gdtoa+0xf68>
    a860:	00c12783          	lw	x15,12(x2)
    a864:	00100693          	addi	x13,x0,1
    a868:	01000c13          	addi	x24,x0,16
    a86c:	0107a603          	lw	x12,16(x15)
    a870:	f0c6c8e3          	blt	x13,x12,a780 <__gdtoa+0x1b08>
    a874:	0147a683          	lw	x13,20(x15)
    a878:	00d036b3          	sltu	x13,x0,x13
    a87c:	00469c13          	slli	x24,x13,0x4
    a880:	f01ff06f          	jal	x0,a780 <__gdtoa+0x1b08>
    a884:	020b4263          	blt	x22,x0,a8a8 <__gdtoa+0x1c30>
    a888:	016d6b33          	or	x22,x26,x22
    a88c:	000b1863          	bne	x22,x0,a89c <__gdtoa+0x1c24>
    a890:	0009a783          	lw	x15,0(x19)
    a894:	0017f793          	andi	x15,x15,1
    a898:	00078863          	beq	x15,x0,a8a8 <__gdtoa+0x1c30>
    a89c:	00d04463          	blt	x0,x13,a8a4 <__gdtoa+0x1c2c>
    a8a0:	991fe06f          	jal	x0,9230 <__gdtoa+0x5b8>
    a8a4:	981fe06f          	jal	x0,9224 <__gdtoa+0x5ac>
    a8a8:	02812703          	lw	x14,40(x2)
    a8ac:	00912623          	sw	x9,12(x2)
    a8b0:	01012f03          	lw	x30,16(x2)
    a8b4:	01412903          	lw	x18,20(x2)
    a8b8:	000c0313          	addi	x6,x24,0
    a8bc:	02070863          	beq	x14,x0,a8ec <__gdtoa+0x1c74>
    a8c0:	0104a583          	lw	x11,16(x9)
    a8c4:	00100613          	addi	x12,x0,1
    a8c8:	00b65463          	bge	x12,x11,a8d0 <__gdtoa+0x1c58>
    a8cc:	a99fe06f          	jal	x0,9364 <__gdtoa+0x6ec>
    a8d0:	0144a603          	lw	x12,20(x9)
    a8d4:	00060463          	beq	x12,x0,a8dc <__gdtoa+0x1c64>
    a8d8:	a8dfe06f          	jal	x0,9364 <__gdtoa+0x6ec>
    a8dc:	9cd048e3          	blt	x0,x13,a2ac <__gdtoa+0x1634>
    a8e0:	00000c13          	addi	x24,x0,0
    a8e4:	001d8993          	addi	x19,x27,1
    a8e8:	af8ff06f          	jal	x0,9be0 <__gdtoa+0xf68>
    a8ec:	acd05e63          	bge	x0,x13,9bc8 <__gdtoa+0xf50>
    a8f0:	9bdff06f          	jal	x0,a2ac <__gdtoa+0x1634>

0000a8f4 <__call_exitprocs>:
    a8f4:	fd010113          	addi	x2,x2,-48
    a8f8:	01412c23          	sw	x20,24(x2)
    a8fc:	f9018a13          	addi	x20,x3,-112 # 143e0 <__atexit>
    a900:	03212023          	sw	x18,32(x2)
    a904:	000a2903          	lw	x18,0(x20)
    a908:	02112623          	sw	x1,44(x2)
    a90c:	0a090863          	beq	x18,x0,a9bc <__call_exitprocs+0xc8>
    a910:	01312e23          	sw	x19,28(x2)
    a914:	01512a23          	sw	x21,20(x2)
    a918:	01612823          	sw	x22,16(x2)
    a91c:	01712623          	sw	x23,12(x2)
    a920:	02812423          	sw	x8,40(x2)
    a924:	02912223          	sw	x9,36(x2)
    a928:	01812423          	sw	x24,8(x2)
    a92c:	00050b13          	addi	x22,x10,0
    a930:	00058b93          	addi	x23,x11,0
    a934:	fff00993          	addi	x19,x0,-1
    a938:	00100a93          	addi	x21,x0,1
    a93c:	00492483          	lw	x9,4(x18)
    a940:	fff48413          	addi	x8,x9,-1
    a944:	04044e63          	blt	x8,x0,a9a0 <__call_exitprocs+0xac>
    a948:	00249493          	slli	x9,x9,0x2
    a94c:	009904b3          	add	x9,x18,x9
    a950:	080b9063          	bne	x23,x0,a9d0 <__call_exitprocs+0xdc>
    a954:	00492783          	lw	x15,4(x18)
    a958:	0044a683          	lw	x13,4(x9)
    a95c:	fff78793          	addi	x15,x15,-1
    a960:	0a878c63          	beq	x15,x8,aa18 <__call_exitprocs+0x124>
    a964:	0004a223          	sw	x0,4(x9)
    a968:	02068663          	beq	x13,x0,a994 <__call_exitprocs+0xa0>
    a96c:	18892783          	lw	x15,392(x18)
    a970:	008a9733          	sll	x14,x21,x8
    a974:	00492c03          	lw	x24,4(x18)
    a978:	00f777b3          	and	x15,x14,x15
    a97c:	06079663          	bne	x15,x0,a9e8 <__call_exitprocs+0xf4>
    a980:	000680e7          	jalr	x1,0(x13)
    a984:	00492703          	lw	x14,4(x18)
    a988:	000a2783          	lw	x15,0(x20)
    a98c:	09871063          	bne	x14,x24,aa0c <__call_exitprocs+0x118>
    a990:	07279e63          	bne	x15,x18,aa0c <__call_exitprocs+0x118>
    a994:	fff40413          	addi	x8,x8,-1
    a998:	ffc48493          	addi	x9,x9,-4
    a99c:	fb341ae3          	bne	x8,x19,a950 <__call_exitprocs+0x5c>
    a9a0:	02812403          	lw	x8,40(x2)
    a9a4:	02412483          	lw	x9,36(x2)
    a9a8:	01c12983          	lw	x19,28(x2)
    a9ac:	01412a83          	lw	x21,20(x2)
    a9b0:	01012b03          	lw	x22,16(x2)
    a9b4:	00c12b83          	lw	x23,12(x2)
    a9b8:	00812c03          	lw	x24,8(x2)
    a9bc:	02c12083          	lw	x1,44(x2)
    a9c0:	02012903          	lw	x18,32(x2)
    a9c4:	01812a03          	lw	x20,24(x2)
    a9c8:	03010113          	addi	x2,x2,48
    a9cc:	00008067          	jalr	x0,0(x1)
    a9d0:	1044a783          	lw	x15,260(x9)
    a9d4:	f97780e3          	beq	x15,x23,a954 <__call_exitprocs+0x60>
    a9d8:	fff40413          	addi	x8,x8,-1
    a9dc:	ffc48493          	addi	x9,x9,-4
    a9e0:	ff3418e3          	bne	x8,x19,a9d0 <__call_exitprocs+0xdc>
    a9e4:	fbdff06f          	jal	x0,a9a0 <__call_exitprocs+0xac>
    a9e8:	18c92783          	lw	x15,396(x18)
    a9ec:	0844a583          	lw	x11,132(x9)
    a9f0:	00f77733          	and	x14,x14,x15
    a9f4:	02071663          	bne	x14,x0,aa20 <__call_exitprocs+0x12c>
    a9f8:	000b0513          	addi	x10,x22,0
    a9fc:	000680e7          	jalr	x1,0(x13)
    aa00:	00492703          	lw	x14,4(x18)
    aa04:	000a2783          	lw	x15,0(x20)
    aa08:	f98704e3          	beq	x14,x24,a990 <__call_exitprocs+0x9c>
    aa0c:	f8078ae3          	beq	x15,x0,a9a0 <__call_exitprocs+0xac>
    aa10:	00078913          	addi	x18,x15,0
    aa14:	f29ff06f          	jal	x0,a93c <__call_exitprocs+0x48>
    aa18:	00892223          	sw	x8,4(x18)
    aa1c:	f4dff06f          	jal	x0,a968 <__call_exitprocs+0x74>
    aa20:	00058513          	addi	x10,x11,0
    aa24:	000680e7          	jalr	x1,0(x13)
    aa28:	f5dff06f          	jal	x0,a984 <__call_exitprocs+0x90>

0000aa2c <_write_r>:
    aa2c:	ff010113          	addi	x2,x2,-16
    aa30:	00058713          	addi	x14,x11,0
    aa34:	00812423          	sw	x8,8(x2)
    aa38:	00060593          	addi	x11,x12,0
    aa3c:	00050413          	addi	x8,x10,0
    aa40:	00068613          	addi	x12,x13,0
    aa44:	00070513          	addi	x10,x14,0
    aa48:	f601ae23          	sw	x0,-132(x3) # 143cc <errno>
    aa4c:	00112623          	sw	x1,12(x2)
    aa50:	9c8f70ef          	jal	x1,1c18 <_write>
    aa54:	fff00793          	addi	x15,x0,-1
    aa58:	00f50a63          	beq	x10,x15,aa6c <_write_r+0x40>
    aa5c:	00c12083          	lw	x1,12(x2)
    aa60:	00812403          	lw	x8,8(x2)
    aa64:	01010113          	addi	x2,x2,16
    aa68:	00008067          	jalr	x0,0(x1)
    aa6c:	f7c1a783          	lw	x15,-132(x3) # 143cc <errno>
    aa70:	fe0786e3          	beq	x15,x0,aa5c <_write_r+0x30>
    aa74:	00c12083          	lw	x1,12(x2)
    aa78:	00f42023          	sw	x15,0(x8)
    aa7c:	00812403          	lw	x8,8(x2)
    aa80:	01010113          	addi	x2,x2,16
    aa84:	00008067          	jalr	x0,0(x1)

0000aa88 <__register_exitproc>:
    aa88:	f9018713          	addi	x14,x3,-112 # 143e0 <__atexit>
    aa8c:	00072783          	lw	x15,0(x14)
    aa90:	04078c63          	beq	x15,x0,aae8 <__register_exitproc+0x60>
    aa94:	0047a703          	lw	x14,4(x15)
    aa98:	01f00813          	addi	x16,x0,31
    aa9c:	06e84e63          	blt	x16,x14,ab18 <__register_exitproc+0x90>
    aaa0:	00271813          	slli	x16,x14,0x2
    aaa4:	02050663          	beq	x10,x0,aad0 <__register_exitproc+0x48>
    aaa8:	01078333          	add	x6,x15,x16
    aaac:	08c32423          	sw	x12,136(x6)
    aab0:	1887a883          	lw	x17,392(x15)
    aab4:	00100613          	addi	x12,x0,1
    aab8:	00e61633          	sll	x12,x12,x14
    aabc:	00c8e8b3          	or	x17,x17,x12
    aac0:	1917a423          	sw	x17,392(x15)
    aac4:	10d32423          	sw	x13,264(x6)
    aac8:	00200693          	addi	x13,x0,2
    aacc:	02d50463          	beq	x10,x13,aaf4 <__register_exitproc+0x6c>
    aad0:	00170713          	addi	x14,x14,1
    aad4:	00e7a223          	sw	x14,4(x15)
    aad8:	010787b3          	add	x15,x15,x16
    aadc:	00b7a423          	sw	x11,8(x15)
    aae0:	00000513          	addi	x10,x0,0
    aae4:	00008067          	jalr	x0,0(x1)
    aae8:	14418793          	addi	x15,x3,324 # 14594 <__atexit0>
    aaec:	00f72023          	sw	x15,0(x14)
    aaf0:	fa5ff06f          	jal	x0,aa94 <__register_exitproc+0xc>
    aaf4:	18c7a683          	lw	x13,396(x15)
    aaf8:	00170713          	addi	x14,x14,1
    aafc:	00e7a223          	sw	x14,4(x15)
    ab00:	00c6e6b3          	or	x13,x13,x12
    ab04:	18d7a623          	sw	x13,396(x15)
    ab08:	010787b3          	add	x15,x15,x16
    ab0c:	00b7a423          	sw	x11,8(x15)
    ab10:	00000513          	addi	x10,x0,0
    ab14:	00008067          	jalr	x0,0(x1)
    ab18:	fff00513          	addi	x10,x0,-1
    ab1c:	00008067          	jalr	x0,0(x1)

0000ab20 <_close_r>:
    ab20:	ff010113          	addi	x2,x2,-16
    ab24:	00812423          	sw	x8,8(x2)
    ab28:	00050413          	addi	x8,x10,0
    ab2c:	00058513          	addi	x10,x11,0
    ab30:	f601ae23          	sw	x0,-132(x3) # 143cc <errno>
    ab34:	00112623          	sw	x1,12(x2)
    ab38:	804f70ef          	jal	x1,1b3c <_close>
    ab3c:	fff00793          	addi	x15,x0,-1
    ab40:	00f50a63          	beq	x10,x15,ab54 <_close_r+0x34>
    ab44:	00c12083          	lw	x1,12(x2)
    ab48:	00812403          	lw	x8,8(x2)
    ab4c:	01010113          	addi	x2,x2,16
    ab50:	00008067          	jalr	x0,0(x1)
    ab54:	f7c1a783          	lw	x15,-132(x3) # 143cc <errno>
    ab58:	fe0786e3          	beq	x15,x0,ab44 <_close_r+0x24>
    ab5c:	00c12083          	lw	x1,12(x2)
    ab60:	00f42023          	sw	x15,0(x8)
    ab64:	00812403          	lw	x8,8(x2)
    ab68:	01010113          	addi	x2,x2,16
    ab6c:	00008067          	jalr	x0,0(x1)

0000ab70 <strncpy>:
    ab70:	00a5e7b3          	or	x15,x11,x10
    ab74:	0037f793          	andi	x15,x15,3
    ab78:	00079663          	bne	x15,x0,ab84 <strncpy+0x14>
    ab7c:	00300793          	addi	x15,x0,3
    ab80:	04c7e663          	bltu	x15,x12,abcc <strncpy+0x5c>
    ab84:	00050713          	addi	x14,x10,0
    ab88:	01c0006f          	jal	x0,aba4 <strncpy+0x34>
    ab8c:	fff5c683          	lbu	x13,-1(x11)
    ab90:	fff60813          	addi	x16,x12,-1
    ab94:	fed78fa3          	sb	x13,-1(x15)
    ab98:	00068e63          	beq	x13,x0,abb4 <strncpy+0x44>
    ab9c:	00078713          	addi	x14,x15,0
    aba0:	00080613          	addi	x12,x16,0
    aba4:	00158593          	addi	x11,x11,1
    aba8:	00170793          	addi	x15,x14,1
    abac:	fe0610e3          	bne	x12,x0,ab8c <strncpy+0x1c>
    abb0:	00008067          	jalr	x0,0(x1)
    abb4:	00c70733          	add	x14,x14,x12
    abb8:	06080063          	beq	x16,x0,ac18 <strncpy+0xa8>
    abbc:	00178793          	addi	x15,x15,1
    abc0:	fe078fa3          	sb	x0,-1(x15)
    abc4:	fee79ce3          	bne	x15,x14,abbc <strncpy+0x4c>
    abc8:	00008067          	jalr	x0,0(x1)
    abcc:	feff0337          	lui	x6,0xfeff0
    abd0:	808088b7          	lui	x17,0x80808
    abd4:	00050713          	addi	x14,x10,0
    abd8:	eff30313          	addi	x6,x6,-257 # fefefeff <__heap_end+0xfebefeff>
    abdc:	08088893          	addi	x17,x17,128 # 80808080 <__heap_end+0x80408080>
    abe0:	00300e13          	addi	x28,x0,3
    abe4:	0180006f          	jal	x0,abfc <strncpy+0x8c>
    abe8:	00d72023          	sw	x13,0(x14)
    abec:	ffc60613          	addi	x12,x12,-4
    abf0:	00470713          	addi	x14,x14,4
    abf4:	00458593          	addi	x11,x11,4
    abf8:	face76e3          	bgeu	x28,x12,aba4 <strncpy+0x34>
    abfc:	0005a683          	lw	x13,0(x11)
    ac00:	006687b3          	add	x15,x13,x6
    ac04:	fff6c813          	xori	x16,x13,-1
    ac08:	0107f7b3          	and	x15,x15,x16
    ac0c:	0117f7b3          	and	x15,x15,x17
    ac10:	fc078ce3          	beq	x15,x0,abe8 <strncpy+0x78>
    ac14:	f91ff06f          	jal	x0,aba4 <strncpy+0x34>
    ac18:	00008067          	jalr	x0,0(x1)

0000ac1c <__smakebuf_r>:
    ac1c:	00c59783          	lh	x15,12(x11)
    ac20:	f8010113          	addi	x2,x2,-128
    ac24:	06812c23          	sw	x8,120(x2)
    ac28:	06112e23          	sw	x1,124(x2)
    ac2c:	0027f713          	andi	x14,x15,2
    ac30:	00058413          	addi	x8,x11,0
    ac34:	02070463          	beq	x14,x0,ac5c <__smakebuf_r+0x40>
    ac38:	04358793          	addi	x15,x11,67
    ac3c:	00f5a023          	sw	x15,0(x11)
    ac40:	00f5a823          	sw	x15,16(x11)
    ac44:	00100793          	addi	x15,x0,1
    ac48:	00f5aa23          	sw	x15,20(x11)
    ac4c:	07c12083          	lw	x1,124(x2)
    ac50:	07812403          	lw	x8,120(x2)
    ac54:	08010113          	addi	x2,x2,128
    ac58:	00008067          	jalr	x0,0(x1)
    ac5c:	00e59583          	lh	x11,14(x11)
    ac60:	06912a23          	sw	x9,116(x2)
    ac64:	07212823          	sw	x18,112(x2)
    ac68:	07312623          	sw	x19,108(x2)
    ac6c:	07412423          	sw	x20,104(x2)
    ac70:	00050493          	addi	x9,x10,0
    ac74:	0805c663          	blt	x11,x0,ad00 <__smakebuf_r+0xe4>
    ac78:	00810613          	addi	x12,x2,8
    ac7c:	77d010ef          	jal	x1,cbf8 <_fstat_r>
    ac80:	06054e63          	blt	x10,x0,acfc <__smakebuf_r+0xe0>
    ac84:	00c12783          	lw	x15,12(x2)
    ac88:	0000f937          	lui	x18,0xf
    ac8c:	000019b7          	lui	x19,0x1
    ac90:	00f97933          	and	x18,x18,x15
    ac94:	ffffe7b7          	lui	x15,0xffffe
    ac98:	00f90933          	add	x18,x18,x15
    ac9c:	00193913          	sltiu	x18,x18,1
    aca0:	40000a13          	addi	x20,x0,1024
    aca4:	80098993          	addi	x19,x19,-2048 # 800 <m_fast0_irq_handler+0x84>
    aca8:	000a0593          	addi	x11,x20,0
    acac:	00048513          	addi	x10,x9,0
    acb0:	c51f70ef          	jal	x1,2900 <_malloc_r>
    acb4:	00c41783          	lh	x15,12(x8)
    acb8:	06050863          	beq	x10,x0,ad28 <__smakebuf_r+0x10c>
    acbc:	0807e793          	ori	x15,x15,128
    acc0:	00a42023          	sw	x10,0(x8)
    acc4:	00a42823          	sw	x10,16(x8)
    acc8:	00f41623          	sh	x15,12(x8)
    accc:	01442a23          	sw	x20,20(x8)
    acd0:	0a091063          	bne	x18,x0,ad70 <__smakebuf_r+0x154>
    acd4:	0137e7b3          	or	x15,x15,x19
    acd8:	07c12083          	lw	x1,124(x2)
    acdc:	00f41623          	sh	x15,12(x8)
    ace0:	07812403          	lw	x8,120(x2)
    ace4:	07412483          	lw	x9,116(x2)
    ace8:	07012903          	lw	x18,112(x2)
    acec:	06c12983          	lw	x19,108(x2)
    acf0:	06812a03          	lw	x20,104(x2)
    acf4:	08010113          	addi	x2,x2,128
    acf8:	00008067          	jalr	x0,0(x1)
    acfc:	00c41783          	lh	x15,12(x8)
    ad00:	0807f793          	andi	x15,x15,128
    ad04:	00000913          	addi	x18,x0,0
    ad08:	04078e63          	beq	x15,x0,ad64 <__smakebuf_r+0x148>
    ad0c:	04000a13          	addi	x20,x0,64
    ad10:	000a0593          	addi	x11,x20,0
    ad14:	00048513          	addi	x10,x9,0
    ad18:	be9f70ef          	jal	x1,2900 <_malloc_r>
    ad1c:	00c41783          	lh	x15,12(x8)
    ad20:	00000993          	addi	x19,x0,0
    ad24:	f8051ce3          	bne	x10,x0,acbc <__smakebuf_r+0xa0>
    ad28:	2007f713          	andi	x14,x15,512
    ad2c:	04071e63          	bne	x14,x0,ad88 <__smakebuf_r+0x16c>
    ad30:	ffc7f793          	andi	x15,x15,-4
    ad34:	0027e793          	ori	x15,x15,2
    ad38:	04340713          	addi	x14,x8,67
    ad3c:	00f41623          	sh	x15,12(x8)
    ad40:	00100793          	addi	x15,x0,1
    ad44:	07412483          	lw	x9,116(x2)
    ad48:	07012903          	lw	x18,112(x2)
    ad4c:	06c12983          	lw	x19,108(x2)
    ad50:	06812a03          	lw	x20,104(x2)
    ad54:	00e42023          	sw	x14,0(x8)
    ad58:	00e42823          	sw	x14,16(x8)
    ad5c:	00f42a23          	sw	x15,20(x8)
    ad60:	eedff06f          	jal	x0,ac4c <__smakebuf_r+0x30>
    ad64:	40000a13          	addi	x20,x0,1024
    ad68:	00000993          	addi	x19,x0,0
    ad6c:	f3dff06f          	jal	x0,aca8 <__smakebuf_r+0x8c>
    ad70:	00e41583          	lh	x11,14(x8)
    ad74:	00048513          	addi	x10,x9,0
    ad78:	6e1010ef          	jal	x1,cc58 <_isatty_r>
    ad7c:	02051063          	bne	x10,x0,ad9c <__smakebuf_r+0x180>
    ad80:	00c41783          	lh	x15,12(x8)
    ad84:	f51ff06f          	jal	x0,acd4 <__smakebuf_r+0xb8>
    ad88:	07412483          	lw	x9,116(x2)
    ad8c:	07012903          	lw	x18,112(x2)
    ad90:	06c12983          	lw	x19,108(x2)
    ad94:	06812a03          	lw	x20,104(x2)
    ad98:	eb5ff06f          	jal	x0,ac4c <__smakebuf_r+0x30>
    ad9c:	00c45783          	lhu	x15,12(x8)
    ada0:	ffc7f793          	andi	x15,x15,-4
    ada4:	0017e793          	ori	x15,x15,1
    ada8:	01079793          	slli	x15,x15,0x10
    adac:	4107d793          	srai	x15,x15,0x10
    adb0:	f25ff06f          	jal	x0,acd4 <__smakebuf_r+0xb8>

0000adb4 <__swhatbuf_r>:
    adb4:	f9010113          	addi	x2,x2,-112
    adb8:	06812423          	sw	x8,104(x2)
    adbc:	00058413          	addi	x8,x11,0
    adc0:	00e59583          	lh	x11,14(x11)
    adc4:	06912223          	sw	x9,100(x2)
    adc8:	07212023          	sw	x18,96(x2)
    adcc:	06112623          	sw	x1,108(x2)
    add0:	00060493          	addi	x9,x12,0
    add4:	00068913          	addi	x18,x13,0
    add8:	0405ca63          	blt	x11,x0,ae2c <__swhatbuf_r+0x78>
    addc:	00810613          	addi	x12,x2,8
    ade0:	619010ef          	jal	x1,cbf8 <_fstat_r>
    ade4:	04054463          	blt	x10,x0,ae2c <__swhatbuf_r+0x78>
    ade8:	00c12703          	lw	x14,12(x2)
    adec:	0000f7b7          	lui	x15,0xf
    adf0:	06c12083          	lw	x1,108(x2)
    adf4:	00e7f7b3          	and	x15,x15,x14
    adf8:	ffffe737          	lui	x14,0xffffe
    adfc:	00e787b3          	add	x15,x15,x14
    ae00:	06812403          	lw	x8,104(x2)
    ae04:	0017b793          	sltiu	x15,x15,1
    ae08:	00f92023          	sw	x15,0(x18) # f000 <__muldf3+0x610>
    ae0c:	40000713          	addi	x14,x0,1024
    ae10:	00e4a023          	sw	x14,0(x9)
    ae14:	00001537          	lui	x10,0x1
    ae18:	06412483          	lw	x9,100(x2)
    ae1c:	06012903          	lw	x18,96(x2)
    ae20:	80050513          	addi	x10,x10,-2048 # 800 <m_fast0_irq_handler+0x84>
    ae24:	07010113          	addi	x2,x2,112
    ae28:	00008067          	jalr	x0,0(x1)
    ae2c:	00c45783          	lhu	x15,12(x8)
    ae30:	0807f793          	andi	x15,x15,128
    ae34:	02078863          	beq	x15,x0,ae64 <__swhatbuf_r+0xb0>
    ae38:	06c12083          	lw	x1,108(x2)
    ae3c:	06812403          	lw	x8,104(x2)
    ae40:	00000793          	addi	x15,x0,0
    ae44:	00f92023          	sw	x15,0(x18)
    ae48:	04000713          	addi	x14,x0,64
    ae4c:	00e4a023          	sw	x14,0(x9)
    ae50:	06012903          	lw	x18,96(x2)
    ae54:	06412483          	lw	x9,100(x2)
    ae58:	00000513          	addi	x10,x0,0
    ae5c:	07010113          	addi	x2,x2,112
    ae60:	00008067          	jalr	x0,0(x1)
    ae64:	06c12083          	lw	x1,108(x2)
    ae68:	06812403          	lw	x8,104(x2)
    ae6c:	00f92023          	sw	x15,0(x18)
    ae70:	40000713          	addi	x14,x0,1024
    ae74:	00e4a023          	sw	x14,0(x9)
    ae78:	06012903          	lw	x18,96(x2)
    ae7c:	06412483          	lw	x9,100(x2)
    ae80:	00000513          	addi	x10,x0,0
    ae84:	07010113          	addi	x2,x2,112
    ae88:	00008067          	jalr	x0,0(x1)

0000ae8c <__rv_alloc_D2A>:
    ae8c:	ff010113          	addi	x2,x2,-16
    ae90:	00812423          	sw	x8,8(x2)
    ae94:	00112623          	sw	x1,12(x2)
    ae98:	01300793          	addi	x15,x0,19
    ae9c:	00000413          	addi	x8,x0,0
    aea0:	00b7fc63          	bgeu	x15,x11,aeb8 <__rv_alloc_D2A+0x2c>
    aea4:	00400793          	addi	x15,x0,4
    aea8:	00179793          	slli	x15,x15,0x1
    aeac:	01078713          	addi	x14,x15,16 # f010 <__muldf3+0x620>
    aeb0:	00140413          	addi	x8,x8,1
    aeb4:	fee5fae3          	bgeu	x11,x14,aea8 <__rv_alloc_D2A+0x1c>
    aeb8:	00040593          	addi	x11,x8,0
    aebc:	6e8000ef          	jal	x1,b5a4 <_Balloc>
    aec0:	00050663          	beq	x10,x0,aecc <__rv_alloc_D2A+0x40>
    aec4:	00852023          	sw	x8,0(x10)
    aec8:	00450513          	addi	x10,x10,4
    aecc:	00c12083          	lw	x1,12(x2)
    aed0:	00812403          	lw	x8,8(x2)
    aed4:	01010113          	addi	x2,x2,16
    aed8:	00008067          	jalr	x0,0(x1)

0000aedc <__nrv_alloc_D2A>:
    aedc:	ff010113          	addi	x2,x2,-16
    aee0:	00812423          	sw	x8,8(x2)
    aee4:	01212023          	sw	x18,0(x2)
    aee8:	00112623          	sw	x1,12(x2)
    aeec:	00912223          	sw	x9,4(x2)
    aef0:	01300793          	addi	x15,x0,19
    aef4:	00058413          	addi	x8,x11,0
    aef8:	00060913          	addi	x18,x12,0
    aefc:	06d7fe63          	bgeu	x15,x13,af78 <__nrv_alloc_D2A+0x9c>
    af00:	00400793          	addi	x15,x0,4
    af04:	00000493          	addi	x9,x0,0
    af08:	00179793          	slli	x15,x15,0x1
    af0c:	01078713          	addi	x14,x15,16
    af10:	00148493          	addi	x9,x9,1
    af14:	fee6fae3          	bgeu	x13,x14,af08 <__nrv_alloc_D2A+0x2c>
    af18:	00048593          	addi	x11,x9,0
    af1c:	688000ef          	jal	x1,b5a4 <_Balloc>
    af20:	00050793          	addi	x15,x10,0
    af24:	04050e63          	beq	x10,x0,af80 <__nrv_alloc_D2A+0xa4>
    af28:	00952023          	sw	x9,0(x10)
    af2c:	00044703          	lbu	x14,0(x8)
    af30:	00450513          	addi	x10,x10,4
    af34:	00140593          	addi	x11,x8,1
    af38:	00e78223          	sb	x14,4(x15)
    af3c:	00050793          	addi	x15,x10,0
    af40:	00070c63          	beq	x14,x0,af58 <__nrv_alloc_D2A+0x7c>
    af44:	0005c703          	lbu	x14,0(x11)
    af48:	00178793          	addi	x15,x15,1
    af4c:	00158593          	addi	x11,x11,1
    af50:	00e78023          	sb	x14,0(x15)
    af54:	fe0718e3          	bne	x14,x0,af44 <__nrv_alloc_D2A+0x68>
    af58:	00090463          	beq	x18,x0,af60 <__nrv_alloc_D2A+0x84>
    af5c:	00f92023          	sw	x15,0(x18)
    af60:	00c12083          	lw	x1,12(x2)
    af64:	00812403          	lw	x8,8(x2)
    af68:	00412483          	lw	x9,4(x2)
    af6c:	00012903          	lw	x18,0(x2)
    af70:	01010113          	addi	x2,x2,16
    af74:	00008067          	jalr	x0,0(x1)
    af78:	00000493          	addi	x9,x0,0
    af7c:	f9dff06f          	jal	x0,af18 <__nrv_alloc_D2A+0x3c>
    af80:	00000513          	addi	x10,x0,0
    af84:	fddff06f          	jal	x0,af60 <__nrv_alloc_D2A+0x84>

0000af88 <__freedtoa>:
    af88:	ffc5a683          	lw	x13,-4(x11)
    af8c:	00100713          	addi	x14,x0,1
    af90:	00058793          	addi	x15,x11,0
    af94:	00d71733          	sll	x14,x14,x13
    af98:	ffc58593          	addi	x11,x11,-4
    af9c:	00d7a023          	sw	x13,0(x15)
    afa0:	00e7a223          	sw	x14,4(x15)
    afa4:	6b40006f          	jal	x0,b658 <_Bfree>

0000afa8 <__quorem_D2A>:
    afa8:	fe010113          	addi	x2,x2,-32
    afac:	00912a23          	sw	x9,20(x2)
    afb0:	01052783          	lw	x15,16(x10)
    afb4:	0105a483          	lw	x9,16(x11)
    afb8:	00112e23          	sw	x1,28(x2)
    afbc:	1c97c863          	blt	x15,x9,b18c <__quorem_D2A+0x1e4>
    afc0:	fff48493          	addi	x9,x9,-1
    afc4:	00249313          	slli	x6,x9,0x2
    afc8:	00812c23          	sw	x8,24(x2)
    afcc:	01458413          	addi	x8,x11,20
    afd0:	01312623          	sw	x19,12(x2)
    afd4:	01412423          	sw	x20,8(x2)
    afd8:	006409b3          	add	x19,x8,x6
    afdc:	01450a13          	addi	x20,x10,20
    afe0:	0009a783          	lw	x15,0(x19)
    afe4:	006a0333          	add	x6,x20,x6
    afe8:	00032703          	lw	x14,0(x6)
    afec:	01212823          	sw	x18,16(x2)
    aff0:	01512223          	sw	x21,4(x2)
    aff4:	00178793          	addi	x15,x15,1
    aff8:	02f75933          	divu	x18,x14,x15
    affc:	00050a93          	addi	x21,x10,0
    b000:	0af76e63          	bltu	x14,x15,b0bc <__quorem_D2A+0x114>
    b004:	00010537          	lui	x10,0x10
    b008:	00040893          	addi	x17,x8,0
    b00c:	000a0813          	addi	x16,x20,0
    b010:	00000f13          	addi	x30,x0,0
    b014:	00000e93          	addi	x29,x0,0
    b018:	fff50513          	addi	x10,x10,-1 # ffff <__multf3+0x163>
    b01c:	0008a783          	lw	x15,0(x17)
    b020:	00082603          	lw	x12,0(x16)
    b024:	00480813          	addi	x16,x16,4
    b028:	00a7f6b3          	and	x13,x15,x10
    b02c:	0107d793          	srli	x15,x15,0x10
    b030:	00a67733          	and	x14,x12,x10
    b034:	01065e13          	srli	x28,x12,0x10
    b038:	00488893          	addi	x17,x17,4
    b03c:	032686b3          	mul	x13,x13,x18
    b040:	032787b3          	mul	x15,x15,x18
    b044:	01e686b3          	add	x13,x13,x30
    b048:	00a6f633          	and	x12,x13,x10
    b04c:	40c70733          	sub	x14,x14,x12
    b050:	41d70733          	sub	x14,x14,x29
    b054:	0106d693          	srli	x13,x13,0x10
    b058:	01075613          	srli	x12,x14,0x10
    b05c:	00167613          	andi	x12,x12,1
    b060:	00a77733          	and	x14,x14,x10
    b064:	00d787b3          	add	x15,x15,x13
    b068:	00a7f6b3          	and	x13,x15,x10
    b06c:	00d60633          	add	x12,x12,x13
    b070:	40ce06b3          	sub	x13,x28,x12
    b074:	01069613          	slli	x12,x13,0x10
    b078:	00e66733          	or	x14,x12,x14
    b07c:	0106d693          	srli	x13,x13,0x10
    b080:	fee82e23          	sw	x14,-4(x16)
    b084:	0107df13          	srli	x30,x15,0x10
    b088:	0016fe93          	andi	x29,x13,1
    b08c:	f919f8e3          	bgeu	x19,x17,b01c <__quorem_D2A+0x74>
    b090:	00032783          	lw	x15,0(x6)
    b094:	02079463          	bne	x15,x0,b0bc <__quorem_D2A+0x114>
    b098:	ffc30313          	addi	x6,x6,-4
    b09c:	006a6863          	bltu	x20,x6,b0ac <__quorem_D2A+0x104>
    b0a0:	0180006f          	jal	x0,b0b8 <__quorem_D2A+0x110>
    b0a4:	fff48493          	addi	x9,x9,-1
    b0a8:	006a7863          	bgeu	x20,x6,b0b8 <__quorem_D2A+0x110>
    b0ac:	00032783          	lw	x15,0(x6)
    b0b0:	ffc30313          	addi	x6,x6,-4
    b0b4:	fe0788e3          	beq	x15,x0,b0a4 <__quorem_D2A+0xfc>
    b0b8:	009aa823          	sw	x9,16(x21)
    b0bc:	000a8513          	addi	x10,x21,0
    b0c0:	75d000ef          	jal	x1,c01c <__mcmp>
    b0c4:	0a054063          	blt	x10,x0,b164 <__quorem_D2A+0x1bc>
    b0c8:	00010537          	lui	x10,0x10
    b0cc:	000a0593          	addi	x11,x20,0
    b0d0:	00000693          	addi	x13,x0,0
    b0d4:	fff50513          	addi	x10,x10,-1 # ffff <__multf3+0x163>
    b0d8:	0005a783          	lw	x15,0(x11)
    b0dc:	00042603          	lw	x12,0(x8)
    b0e0:	00458593          	addi	x11,x11,4
    b0e4:	00a7f733          	and	x14,x15,x10
    b0e8:	00a67833          	and	x16,x12,x10
    b0ec:	41070733          	sub	x14,x14,x16
    b0f0:	40d70733          	sub	x14,x14,x13
    b0f4:	01075693          	srli	x13,x14,0x10
    b0f8:	0016f693          	andi	x13,x13,1
    b0fc:	01065613          	srli	x12,x12,0x10
    b100:	00c686b3          	add	x13,x13,x12
    b104:	0107d793          	srli	x15,x15,0x10
    b108:	40d787b3          	sub	x15,x15,x13
    b10c:	01079693          	slli	x13,x15,0x10
    b110:	00a77733          	and	x14,x14,x10
    b114:	00e6e733          	or	x14,x13,x14
    b118:	0107d793          	srli	x15,x15,0x10
    b11c:	00440413          	addi	x8,x8,4
    b120:	fee5ae23          	sw	x14,-4(x11)
    b124:	0017f693          	andi	x13,x15,1
    b128:	fa89f8e3          	bgeu	x19,x8,b0d8 <__quorem_D2A+0x130>
    b12c:	00249793          	slli	x15,x9,0x2
    b130:	00fa07b3          	add	x15,x20,x15
    b134:	0007a703          	lw	x14,0(x15)
    b138:	02071463          	bne	x14,x0,b160 <__quorem_D2A+0x1b8>
    b13c:	ffc78793          	addi	x15,x15,-4
    b140:	00fa6863          	bltu	x20,x15,b150 <__quorem_D2A+0x1a8>
    b144:	0180006f          	jal	x0,b15c <__quorem_D2A+0x1b4>
    b148:	fff48493          	addi	x9,x9,-1
    b14c:	00fa7863          	bgeu	x20,x15,b15c <__quorem_D2A+0x1b4>
    b150:	0007a703          	lw	x14,0(x15)
    b154:	ffc78793          	addi	x15,x15,-4
    b158:	fe0708e3          	beq	x14,x0,b148 <__quorem_D2A+0x1a0>
    b15c:	009aa823          	sw	x9,16(x21)
    b160:	00190913          	addi	x18,x18,1
    b164:	01812403          	lw	x8,24(x2)
    b168:	01c12083          	lw	x1,28(x2)
    b16c:	00c12983          	lw	x19,12(x2)
    b170:	00812a03          	lw	x20,8(x2)
    b174:	00412a83          	lw	x21,4(x2)
    b178:	01412483          	lw	x9,20(x2)
    b17c:	00090513          	addi	x10,x18,0
    b180:	01012903          	lw	x18,16(x2)
    b184:	02010113          	addi	x2,x2,32
    b188:	00008067          	jalr	x0,0(x1)
    b18c:	01c12083          	lw	x1,28(x2)
    b190:	01412483          	lw	x9,20(x2)
    b194:	00000513          	addi	x10,x0,0
    b198:	02010113          	addi	x2,x2,32
    b19c:	00008067          	jalr	x0,0(x1)

0000b1a0 <_lseek_r>:
    b1a0:	ff010113          	addi	x2,x2,-16
    b1a4:	00058713          	addi	x14,x11,0
    b1a8:	00812423          	sw	x8,8(x2)
    b1ac:	00060593          	addi	x11,x12,0
    b1b0:	00050413          	addi	x8,x10,0
    b1b4:	00068613          	addi	x12,x13,0
    b1b8:	00070513          	addi	x10,x14,0 # ffffe000 <__heap_end+0xffbfe000>
    b1bc:	f601ae23          	sw	x0,-132(x3) # 143cc <errno>
    b1c0:	00112623          	sw	x1,12(x2)
    b1c4:	a01f60ef          	jal	x1,1bc4 <_lseek>
    b1c8:	fff00793          	addi	x15,x0,-1
    b1cc:	00f50a63          	beq	x10,x15,b1e0 <_lseek_r+0x40>
    b1d0:	00c12083          	lw	x1,12(x2)
    b1d4:	00812403          	lw	x8,8(x2)
    b1d8:	01010113          	addi	x2,x2,16
    b1dc:	00008067          	jalr	x0,0(x1)
    b1e0:	f7c1a783          	lw	x15,-132(x3) # 143cc <errno>
    b1e4:	fe0786e3          	beq	x15,x0,b1d0 <_lseek_r+0x30>
    b1e8:	00c12083          	lw	x1,12(x2)
    b1ec:	00f42023          	sw	x15,0(x8)
    b1f0:	00812403          	lw	x8,8(x2)
    b1f4:	01010113          	addi	x2,x2,16
    b1f8:	00008067          	jalr	x0,0(x1)

0000b1fc <__fputwc>:
    b1fc:	fe010113          	addi	x2,x2,-32
    b200:	00812c23          	sw	x8,24(x2)
    b204:	00912a23          	sw	x9,20(x2)
    b208:	01212823          	sw	x18,16(x2)
    b20c:	00112e23          	sw	x1,28(x2)
    b210:	00050913          	addi	x18,x10,0
    b214:	00058493          	addi	x9,x11,0
    b218:	00060413          	addi	x8,x12,0
    b21c:	071010ef          	jal	x1,ca8c <__locale_mb_cur_max>
    b220:	00100793          	addi	x15,x0,1
    b224:	00f51c63          	bne	x10,x15,b23c <__fputwc+0x40>
    b228:	fff48793          	addi	x15,x9,-1
    b22c:	0fe00713          	addi	x14,x0,254
    b230:	00f76663          	bltu	x14,x15,b23c <__fputwc+0x40>
    b234:	00910623          	sb	x9,12(x2)
    b238:	0240006f          	jal	x0,b25c <__fputwc+0x60>
    b23c:	05c40693          	addi	x13,x8,92
    b240:	00048613          	addi	x12,x9,0
    b244:	00c10593          	addi	x11,x2,12
    b248:	00090513          	addi	x10,x18,0
    b24c:	6c4010ef          	jal	x1,c910 <_wcrtomb_r>
    b250:	fff00793          	addi	x15,x0,-1
    b254:	08f50463          	beq	x10,x15,b2dc <__fputwc+0xe0>
    b258:	02050c63          	beq	x10,x0,b290 <__fputwc+0x94>
    b25c:	00842783          	lw	x15,8(x8)
    b260:	00c14583          	lbu	x11,12(x2)
    b264:	fff78793          	addi	x15,x15,-1
    b268:	00f42423          	sw	x15,8(x8)
    b26c:	0007da63          	bge	x15,x0,b280 <__fputwc+0x84>
    b270:	01842703          	lw	x14,24(x8)
    b274:	02e7cc63          	blt	x15,x14,b2ac <__fputwc+0xb0>
    b278:	00a00793          	addi	x15,x0,10
    b27c:	02f58863          	beq	x11,x15,b2ac <__fputwc+0xb0>
    b280:	00042783          	lw	x15,0(x8)
    b284:	00178713          	addi	x14,x15,1
    b288:	00e42023          	sw	x14,0(x8)
    b28c:	00b78023          	sb	x11,0(x15)
    b290:	01c12083          	lw	x1,28(x2)
    b294:	01812403          	lw	x8,24(x2)
    b298:	01012903          	lw	x18,16(x2)
    b29c:	00048513          	addi	x10,x9,0
    b2a0:	01412483          	lw	x9,20(x2)
    b2a4:	02010113          	addi	x2,x2,32
    b2a8:	00008067          	jalr	x0,0(x1)
    b2ac:	00040613          	addi	x12,x8,0
    b2b0:	00090513          	addi	x10,x18,0
    b2b4:	22d010ef          	jal	x1,cce0 <__swbuf_r>
    b2b8:	fff00793          	addi	x15,x0,-1
    b2bc:	fcf51ae3          	bne	x10,x15,b290 <__fputwc+0x94>
    b2c0:	fff00513          	addi	x10,x0,-1
    b2c4:	01c12083          	lw	x1,28(x2)
    b2c8:	01812403          	lw	x8,24(x2)
    b2cc:	01412483          	lw	x9,20(x2)
    b2d0:	01012903          	lw	x18,16(x2)
    b2d4:	02010113          	addi	x2,x2,32
    b2d8:	00008067          	jalr	x0,0(x1)
    b2dc:	00c45783          	lhu	x15,12(x8)
    b2e0:	fff00513          	addi	x10,x0,-1
    b2e4:	0407e793          	ori	x15,x15,64
    b2e8:	00f41623          	sh	x15,12(x8)
    b2ec:	fd9ff06f          	jal	x0,b2c4 <__fputwc+0xc8>

0000b2f0 <_fputwc_r>:
    b2f0:	00c61783          	lh	x15,12(x12)
    b2f4:	01279713          	slli	x14,x15,0x12
    b2f8:	02074063          	blt	x14,x0,b318 <_fputwc_r+0x28>
    b2fc:	06462703          	lw	x14,100(x12)
    b300:	000026b7          	lui	x13,0x2
    b304:	00d7e7b3          	or	x15,x15,x13
    b308:	000026b7          	lui	x13,0x2
    b30c:	00d76733          	or	x14,x14,x13
    b310:	00f61623          	sh	x15,12(x12)
    b314:	06e62223          	sw	x14,100(x12)
    b318:	ee5ff06f          	jal	x0,b1fc <__fputwc>

0000b31c <fputwc>:
    b31c:	fe010113          	addi	x2,x2,-32
    b320:	00812c23          	sw	x8,24(x2)
    b324:	00112e23          	sw	x1,28(x2)
    b328:	f5c1a403          	lw	x8,-164(x3) # 143ac <_impure_ptr>
    b32c:	00058613          	addi	x12,x11,0
    b330:	00050593          	addi	x11,x10,0
    b334:	00040663          	beq	x8,x0,b340 <fputwc+0x24>
    b338:	03442783          	lw	x15,52(x8)
    b33c:	04078063          	beq	x15,x0,b37c <fputwc+0x60>
    b340:	00c61783          	lh	x15,12(x12)
    b344:	01279713          	slli	x14,x15,0x12
    b348:	02074063          	blt	x14,x0,b368 <fputwc+0x4c>
    b34c:	06462703          	lw	x14,100(x12)
    b350:	000026b7          	lui	x13,0x2
    b354:	00d7e7b3          	or	x15,x15,x13
    b358:	000026b7          	lui	x13,0x2
    b35c:	00d76733          	or	x14,x14,x13
    b360:	00f61623          	sh	x15,12(x12)
    b364:	06e62223          	sw	x14,100(x12)
    b368:	00040513          	addi	x10,x8,0
    b36c:	01812403          	lw	x8,24(x2)
    b370:	01c12083          	lw	x1,28(x2)
    b374:	02010113          	addi	x2,x2,32
    b378:	e85ff06f          	jal	x0,b1fc <__fputwc>
    b37c:	00a12423          	sw	x10,8(x2)
    b380:	00040513          	addi	x10,x8,0
    b384:	00c12623          	sw	x12,12(x2)
    b388:	ef9f60ef          	jal	x1,2280 <__sinit>
    b38c:	00c12603          	lw	x12,12(x2)
    b390:	00812583          	lw	x11,8(x2)
    b394:	fadff06f          	jal	x0,b340 <fputwc+0x24>

0000b398 <frexpl>:
    b398:	f9010113          	addi	x2,x2,-112
    b39c:	07212023          	sw	x18,96(x2)
    b3a0:	00c5a903          	lw	x18,12(x11)
    b3a4:	05412c23          	sw	x20,88(x2)
    b3a8:	05512a23          	sw	x21,84(x2)
    b3ac:	05612823          	sw	x22,80(x2)
    b3b0:	0045aa83          	lw	x21,4(x11)
    b3b4:	0005ab03          	lw	x22,0(x11)
    b3b8:	0085aa03          	lw	x20,8(x11)
    b3bc:	05312e23          	sw	x19,92(x2)
    b3c0:	000089b7          	lui	x19,0x8
    b3c4:	06812423          	sw	x8,104(x2)
    b3c8:	06912223          	sw	x9,100(x2)
    b3cc:	06112623          	sw	x1,108(x2)
    b3d0:	01095493          	srli	x9,x18,0x10
    b3d4:	fff98993          	addi	x19,x19,-1 # 7fff <_vfiprintf_r+0x817>
    b3d8:	03612823          	sw	x22,48(x2)
    b3dc:	03512a23          	sw	x21,52(x2)
    b3e0:	03412c23          	sw	x20,56(x2)
    b3e4:	03212e23          	sw	x18,60(x2)
    b3e8:	0134f4b3          	and	x9,x9,x19
    b3ec:	00062023          	sw	x0,0(x12)
    b3f0:	00050413          	addi	x8,x10,0
    b3f4:	09348063          	beq	x9,x19,b474 <frexpl+0xdc>
    b3f8:	01010593          	addi	x11,x2,16
    b3fc:	02010513          	addi	x10,x2,32
    b400:	05712623          	sw	x23,76(x2)
    b404:	03612023          	sw	x22,32(x2)
    b408:	00060b93          	addi	x23,x12,0
    b40c:	03512223          	sw	x21,36(x2)
    b410:	03412423          	sw	x20,40(x2)
    b414:	03212623          	sw	x18,44(x2)
    b418:	00012823          	sw	x0,16(x2)
    b41c:	00012a23          	sw	x0,20(x2)
    b420:	00012c23          	sw	x0,24(x2)
    b424:	00012e23          	sw	x0,28(x2)
    b428:	6e4040ef          	jal	x1,fb0c <__eqtf2>
    b42c:	0e050e63          	beq	x10,x0,b528 <frexpl+0x190>
    b430:	00000693          	addi	x13,x0,0
    b434:	06048e63          	beq	x9,x0,b4b0 <frexpl+0x118>
    b438:	ffffc737          	lui	x14,0xffffc
    b43c:	00270713          	addi	x14,x14,2 # ffffc002 <__heap_end+0xffbfc002>
    b440:	03c12903          	lw	x18,60(x2)
    b444:	00e484b3          	add	x9,x9,x14
    b448:	800107b7          	lui	x15,0x80010
    b44c:	00d484b3          	add	x9,x9,x13
    b450:	fff78793          	addi	x15,x15,-1 # 8000ffff <__heap_end+0x7fc0ffff>
    b454:	009ba023          	sw	x9,0(x23)
    b458:	03012b03          	lw	x22,48(x2)
    b45c:	03412a83          	lw	x21,52(x2)
    b460:	03812a03          	lw	x20,56(x2)
    b464:	04c12b83          	lw	x23,76(x2)
    b468:	00f97933          	and	x18,x18,x15
    b46c:	3ffe07b7          	lui	x15,0x3ffe0
    b470:	00f96933          	or	x18,x18,x15
    b474:	01642023          	sw	x22,0(x8)
    b478:	01542223          	sw	x21,4(x8)
    b47c:	01442423          	sw	x20,8(x8)
    b480:	01242623          	sw	x18,12(x8)
    b484:	06c12083          	lw	x1,108(x2)
    b488:	00040513          	addi	x10,x8,0
    b48c:	06812403          	lw	x8,104(x2)
    b490:	06412483          	lw	x9,100(x2)
    b494:	06012903          	lw	x18,96(x2)
    b498:	05c12983          	lw	x19,92(x2)
    b49c:	05812a03          	lw	x20,88(x2)
    b4a0:	05412a83          	lw	x21,84(x2)
    b4a4:	05012b03          	lw	x22,80(x2)
    b4a8:	07010113          	addi	x2,x2,112
    b4ac:	00008067          	jalr	x0,0(x1)
    b4b0:	00008797          	auipc	x15,0x8
    b4b4:	28078793          	addi	x15,x15,640 # 13730 <zeroes.0+0x6c>
    b4b8:	0007a603          	lw	x12,0(x15)
    b4bc:	0047a683          	lw	x13,4(x15)
    b4c0:	0087a703          	lw	x14,8(x15)
    b4c4:	00c7a783          	lw	x15,12(x15)
    b4c8:	00c12023          	sw	x12,0(x2)
    b4cc:	01010593          	addi	x11,x2,16
    b4d0:	00010613          	addi	x12,x2,0
    b4d4:	02010513          	addi	x10,x2,32
    b4d8:	00d12223          	sw	x13,4(x2)
    b4dc:	00e12423          	sw	x14,8(x2)
    b4e0:	00f12623          	sw	x15,12(x2)
    b4e4:	01612823          	sw	x22,16(x2)
    b4e8:	01512a23          	sw	x21,20(x2)
    b4ec:	01412c23          	sw	x20,24(x2)
    b4f0:	01212e23          	sw	x18,28(x2)
    b4f4:	1a9040ef          	jal	x1,fe9c <__multf3>
    b4f8:	02012703          	lw	x14,32(x2)
    b4fc:	02c12783          	lw	x15,44(x2)
    b500:	f8e00693          	addi	x13,x0,-114
    b504:	02e12823          	sw	x14,48(x2)
    b508:	02412703          	lw	x14,36(x2)
    b50c:	0107d493          	srli	x9,x15,0x10
    b510:	02f12e23          	sw	x15,60(x2)
    b514:	02e12a23          	sw	x14,52(x2)
    b518:	02812703          	lw	x14,40(x2)
    b51c:	0134f4b3          	and	x9,x9,x19
    b520:	02e12c23          	sw	x14,56(x2)
    b524:	f15ff06f          	jal	x0,b438 <frexpl+0xa0>
    b528:	04c12b83          	lw	x23,76(x2)
    b52c:	f49ff06f          	jal	x0,b474 <frexpl+0xdc>

0000b530 <__localeconv_l>:
    b530:	0f050513          	addi	x10,x10,240
    b534:	00008067          	jalr	x0,0(x1)

0000b538 <_localeconv_r>:
    b538:	e7018513          	addi	x10,x3,-400 # 142c0 <__global_locale+0xf0>
    b53c:	00008067          	jalr	x0,0(x1)

0000b540 <localeconv>:
    b540:	e7018513          	addi	x10,x3,-400 # 142c0 <__global_locale+0xf0>
    b544:	00008067          	jalr	x0,0(x1)

0000b548 <_read_r>:
    b548:	ff010113          	addi	x2,x2,-16
    b54c:	00058713          	addi	x14,x11,0
    b550:	00812423          	sw	x8,8(x2)
    b554:	00060593          	addi	x11,x12,0
    b558:	00050413          	addi	x8,x10,0
    b55c:	00068613          	addi	x12,x13,0 # 2000 <__fp_unlock+0x4>
    b560:	00070513          	addi	x10,x14,0
    b564:	f601ae23          	sw	x0,-132(x3) # 143cc <errno>
    b568:	00112623          	sw	x1,12(x2)
    b56c:	e78f60ef          	jal	x1,1be4 <_read>
    b570:	fff00793          	addi	x15,x0,-1
    b574:	00f50a63          	beq	x10,x15,b588 <_read_r+0x40>
    b578:	00c12083          	lw	x1,12(x2)
    b57c:	00812403          	lw	x8,8(x2)
    b580:	01010113          	addi	x2,x2,16
    b584:	00008067          	jalr	x0,0(x1)
    b588:	f7c1a783          	lw	x15,-132(x3) # 143cc <errno>
    b58c:	fe0786e3          	beq	x15,x0,b578 <_read_r+0x30>
    b590:	00c12083          	lw	x1,12(x2)
    b594:	00f42023          	sw	x15,0(x8)
    b598:	00812403          	lw	x8,8(x2)
    b59c:	01010113          	addi	x2,x2,16
    b5a0:	00008067          	jalr	x0,0(x1)

0000b5a4 <_Balloc>:
    b5a4:	04452783          	lw	x15,68(x10)
    b5a8:	ff010113          	addi	x2,x2,-16
    b5ac:	00812423          	sw	x8,8(x2)
    b5b0:	00912223          	sw	x9,4(x2)
    b5b4:	00112623          	sw	x1,12(x2)
    b5b8:	00050413          	addi	x8,x10,0
    b5bc:	00058493          	addi	x9,x11,0
    b5c0:	02078c63          	beq	x15,x0,b5f8 <_Balloc+0x54>
    b5c4:	00249713          	slli	x14,x9,0x2
    b5c8:	00e787b3          	add	x15,x15,x14
    b5cc:	0007a503          	lw	x10,0(x15)
    b5d0:	04050463          	beq	x10,x0,b618 <_Balloc+0x74>
    b5d4:	00052703          	lw	x14,0(x10)
    b5d8:	00e7a023          	sw	x14,0(x15)
    b5dc:	00052823          	sw	x0,16(x10)
    b5e0:	00052623          	sw	x0,12(x10)
    b5e4:	00c12083          	lw	x1,12(x2)
    b5e8:	00812403          	lw	x8,8(x2)
    b5ec:	00412483          	lw	x9,4(x2)
    b5f0:	01010113          	addi	x2,x2,16
    b5f4:	00008067          	jalr	x0,0(x1)
    b5f8:	02100613          	addi	x12,x0,33
    b5fc:	00400593          	addi	x11,x0,4
    b600:	510010ef          	jal	x1,cb10 <_calloc_r>
    b604:	04a42223          	sw	x10,68(x8)
    b608:	00050793          	addi	x15,x10,0
    b60c:	fa051ce3          	bne	x10,x0,b5c4 <_Balloc+0x20>
    b610:	00000513          	addi	x10,x0,0
    b614:	fd1ff06f          	jal	x0,b5e4 <_Balloc+0x40>
    b618:	01212023          	sw	x18,0(x2)
    b61c:	00100913          	addi	x18,x0,1
    b620:	00991933          	sll	x18,x18,x9
    b624:	00590613          	addi	x12,x18,5
    b628:	00261613          	slli	x12,x12,0x2
    b62c:	00100593          	addi	x11,x0,1
    b630:	00040513          	addi	x10,x8,0
    b634:	4dc010ef          	jal	x1,cb10 <_calloc_r>
    b638:	00050a63          	beq	x10,x0,b64c <_Balloc+0xa8>
    b63c:	01252423          	sw	x18,8(x10)
    b640:	00952223          	sw	x9,4(x10)
    b644:	00012903          	lw	x18,0(x2)
    b648:	f95ff06f          	jal	x0,b5dc <_Balloc+0x38>
    b64c:	00012903          	lw	x18,0(x2)
    b650:	00000513          	addi	x10,x0,0
    b654:	f91ff06f          	jal	x0,b5e4 <_Balloc+0x40>

0000b658 <_Bfree>:
    b658:	02058063          	beq	x11,x0,b678 <_Bfree+0x20>
    b65c:	0045a703          	lw	x14,4(x11)
    b660:	04452783          	lw	x15,68(x10)
    b664:	00271713          	slli	x14,x14,0x2
    b668:	00e787b3          	add	x15,x15,x14
    b66c:	0007a703          	lw	x14,0(x15)
    b670:	00e5a023          	sw	x14,0(x11)
    b674:	00b7a023          	sw	x11,0(x15)
    b678:	00008067          	jalr	x0,0(x1)

0000b67c <__multadd>:
    b67c:	fe010113          	addi	x2,x2,-32
    b680:	00912a23          	sw	x9,20(x2)
    b684:	0105a483          	lw	x9,16(x11)
    b688:	00010337          	lui	x6,0x10
    b68c:	00812c23          	sw	x8,24(x2)
    b690:	01212823          	sw	x18,16(x2)
    b694:	01312623          	sw	x19,12(x2)
    b698:	00112e23          	sw	x1,28(x2)
    b69c:	00058913          	addi	x18,x11,0
    b6a0:	00050993          	addi	x19,x10,0
    b6a4:	00068413          	addi	x8,x13,0
    b6a8:	01458813          	addi	x16,x11,20
    b6ac:	00000893          	addi	x17,x0,0
    b6b0:	fff30313          	addi	x6,x6,-1 # ffff <__multf3+0x163>
    b6b4:	00082783          	lw	x15,0(x16)
    b6b8:	00480813          	addi	x16,x16,4
    b6bc:	00188893          	addi	x17,x17,1
    b6c0:	0067f733          	and	x14,x15,x6
    b6c4:	02c70733          	mul	x14,x14,x12
    b6c8:	0107d693          	srli	x13,x15,0x10
    b6cc:	02c686b3          	mul	x13,x13,x12
    b6d0:	008707b3          	add	x15,x14,x8
    b6d4:	0107d713          	srli	x14,x15,0x10
    b6d8:	0067f7b3          	and	x15,x15,x6
    b6dc:	00e686b3          	add	x13,x13,x14
    b6e0:	01069713          	slli	x14,x13,0x10
    b6e4:	00f707b3          	add	x15,x14,x15
    b6e8:	fef82e23          	sw	x15,-4(x16)
    b6ec:	0106d413          	srli	x8,x13,0x10
    b6f0:	fc98c2e3          	blt	x17,x9,b6b4 <__multadd+0x38>
    b6f4:	02040263          	beq	x8,x0,b718 <__multadd+0x9c>
    b6f8:	00892783          	lw	x15,8(x18)
    b6fc:	02f4de63          	bge	x9,x15,b738 <__multadd+0xbc>
    b700:	00448793          	addi	x15,x9,4
    b704:	00279793          	slli	x15,x15,0x2
    b708:	00f907b3          	add	x15,x18,x15
    b70c:	0087a223          	sw	x8,4(x15)
    b710:	00148493          	addi	x9,x9,1
    b714:	00992823          	sw	x9,16(x18)
    b718:	01c12083          	lw	x1,28(x2)
    b71c:	01812403          	lw	x8,24(x2)
    b720:	01412483          	lw	x9,20(x2)
    b724:	00c12983          	lw	x19,12(x2)
    b728:	00090513          	addi	x10,x18,0
    b72c:	01012903          	lw	x18,16(x2)
    b730:	02010113          	addi	x2,x2,32
    b734:	00008067          	jalr	x0,0(x1)
    b738:	00492583          	lw	x11,4(x18)
    b73c:	00098513          	addi	x10,x19,0
    b740:	01412423          	sw	x20,8(x2)
    b744:	00158593          	addi	x11,x11,1
    b748:	e5dff0ef          	jal	x1,b5a4 <_Balloc>
    b74c:	00050a13          	addi	x20,x10,0
    b750:	04050e63          	beq	x10,x0,b7ac <__multadd+0x130>
    b754:	01092603          	lw	x12,16(x18)
    b758:	00c90593          	addi	x11,x18,12
    b75c:	00c50513          	addi	x10,x10,12
    b760:	00260613          	addi	x12,x12,2
    b764:	00261613          	slli	x12,x12,0x2
    b768:	c95fb0ef          	jal	x1,73fc <memcpy>
    b76c:	00492703          	lw	x14,4(x18)
    b770:	0449a783          	lw	x15,68(x19)
    b774:	00271713          	slli	x14,x14,0x2
    b778:	00e787b3          	add	x15,x15,x14
    b77c:	0007a703          	lw	x14,0(x15)
    b780:	00e92023          	sw	x14,0(x18)
    b784:	0127a023          	sw	x18,0(x15)
    b788:	00448793          	addi	x15,x9,4
    b78c:	000a0913          	addi	x18,x20,0
    b790:	00279793          	slli	x15,x15,0x2
    b794:	00f907b3          	add	x15,x18,x15
    b798:	00812a03          	lw	x20,8(x2)
    b79c:	00148493          	addi	x9,x9,1
    b7a0:	0087a223          	sw	x8,4(x15)
    b7a4:	00992823          	sw	x9,16(x18)
    b7a8:	f71ff06f          	jal	x0,b718 <__multadd+0x9c>
    b7ac:	00008697          	auipc	x13,0x8
    b7b0:	aec68693          	addi	x13,x13,-1300 # 13298 <__clzsi2+0x530>
    b7b4:	00000613          	addi	x12,x0,0
    b7b8:	0ba00593          	addi	x11,x0,186
    b7bc:	00008517          	auipc	x10,0x8
    b7c0:	af050513          	addi	x10,x10,-1296 # 132ac <__clzsi2+0x544>
    b7c4:	6bc010ef          	jal	x1,ce80 <__assert_func>

0000b7c8 <__s2b>:
    b7c8:	fe010113          	addi	x2,x2,-32
    b7cc:	00812c23          	sw	x8,24(x2)
    b7d0:	00912a23          	sw	x9,20(x2)
    b7d4:	01212823          	sw	x18,16(x2)
    b7d8:	01312623          	sw	x19,12(x2)
    b7dc:	01412423          	sw	x20,8(x2)
    b7e0:	00068993          	addi	x19,x13,0
    b7e4:	00900793          	addi	x15,x0,9
    b7e8:	00868693          	addi	x13,x13,8
    b7ec:	00112e23          	sw	x1,28(x2)
    b7f0:	02f6c6b3          	div	x13,x13,x15
    b7f4:	00050913          	addi	x18,x10,0
    b7f8:	00058413          	addi	x8,x11,0
    b7fc:	00060a13          	addi	x20,x12,0
    b800:	00070493          	addi	x9,x14,0
    b804:	0d37da63          	bge	x15,x19,b8d8 <__s2b+0x110>
    b808:	00100793          	addi	x15,x0,1
    b80c:	00000593          	addi	x11,x0,0
    b810:	00179793          	slli	x15,x15,0x1
    b814:	00158593          	addi	x11,x11,1
    b818:	fed7cce3          	blt	x15,x13,b810 <__s2b+0x48>
    b81c:	00090513          	addi	x10,x18,0
    b820:	d85ff0ef          	jal	x1,b5a4 <_Balloc>
    b824:	00050593          	addi	x11,x10,0
    b828:	0a050c63          	beq	x10,x0,b8e0 <__s2b+0x118>
    b82c:	00100793          	addi	x15,x0,1
    b830:	00f52823          	sw	x15,16(x10)
    b834:	00952a23          	sw	x9,20(x10)
    b838:	00900793          	addi	x15,x0,9
    b83c:	0947d863          	bge	x15,x20,b8cc <__s2b+0x104>
    b840:	01512223          	sw	x21,4(x2)
    b844:	00940a93          	addi	x21,x8,9
    b848:	000a8493          	addi	x9,x21,0
    b84c:	01440433          	add	x8,x8,x20
    b850:	0004c683          	lbu	x13,0(x9)
    b854:	00a00613          	addi	x12,x0,10
    b858:	00090513          	addi	x10,x18,0
    b85c:	fd068693          	addi	x13,x13,-48
    b860:	e1dff0ef          	jal	x1,b67c <__multadd>
    b864:	00148493          	addi	x9,x9,1
    b868:	00050593          	addi	x11,x10,0
    b86c:	fe8492e3          	bne	x9,x8,b850 <__s2b+0x88>
    b870:	ff8a0413          	addi	x8,x20,-8
    b874:	008a8433          	add	x8,x21,x8
    b878:	00412a83          	lw	x21,4(x2)
    b87c:	033a5663          	bge	x20,x19,b8a8 <__s2b+0xe0>
    b880:	414989b3          	sub	x19,x19,x20
    b884:	013409b3          	add	x19,x8,x19
    b888:	00044683          	lbu	x13,0(x8)
    b88c:	00a00613          	addi	x12,x0,10
    b890:	00090513          	addi	x10,x18,0
    b894:	fd068693          	addi	x13,x13,-48
    b898:	de5ff0ef          	jal	x1,b67c <__multadd>
    b89c:	00140413          	addi	x8,x8,1
    b8a0:	00050593          	addi	x11,x10,0
    b8a4:	ff3412e3          	bne	x8,x19,b888 <__s2b+0xc0>
    b8a8:	01c12083          	lw	x1,28(x2)
    b8ac:	01812403          	lw	x8,24(x2)
    b8b0:	01412483          	lw	x9,20(x2)
    b8b4:	01012903          	lw	x18,16(x2)
    b8b8:	00c12983          	lw	x19,12(x2)
    b8bc:	00812a03          	lw	x20,8(x2)
    b8c0:	00058513          	addi	x10,x11,0
    b8c4:	02010113          	addi	x2,x2,32
    b8c8:	00008067          	jalr	x0,0(x1)
    b8cc:	00a40413          	addi	x8,x8,10
    b8d0:	00900a13          	addi	x20,x0,9
    b8d4:	fa9ff06f          	jal	x0,b87c <__s2b+0xb4>
    b8d8:	00000593          	addi	x11,x0,0
    b8dc:	f41ff06f          	jal	x0,b81c <__s2b+0x54>
    b8e0:	00008697          	auipc	x13,0x8
    b8e4:	9b868693          	addi	x13,x13,-1608 # 13298 <__clzsi2+0x530>
    b8e8:	00000613          	addi	x12,x0,0
    b8ec:	0d300593          	addi	x11,x0,211
    b8f0:	00008517          	auipc	x10,0x8
    b8f4:	9bc50513          	addi	x10,x10,-1604 # 132ac <__clzsi2+0x544>
    b8f8:	01512223          	sw	x21,4(x2)
    b8fc:	584010ef          	jal	x1,ce80 <__assert_func>

0000b900 <__hi0bits>:
    b900:	00050793          	addi	x15,x10,0
    b904:	00010737          	lui	x14,0x10
    b908:	00000513          	addi	x10,x0,0
    b90c:	00e7f663          	bgeu	x15,x14,b918 <__hi0bits+0x18>
    b910:	01079793          	slli	x15,x15,0x10
    b914:	01000513          	addi	x10,x0,16
    b918:	01000737          	lui	x14,0x1000
    b91c:	00e7f663          	bgeu	x15,x14,b928 <__hi0bits+0x28>
    b920:	00850513          	addi	x10,x10,8
    b924:	00879793          	slli	x15,x15,0x8
    b928:	10000737          	lui	x14,0x10000
    b92c:	00e7f663          	bgeu	x15,x14,b938 <__hi0bits+0x38>
    b930:	00450513          	addi	x10,x10,4
    b934:	00479793          	slli	x15,x15,0x4
    b938:	40000737          	lui	x14,0x40000
    b93c:	00e7ea63          	bltu	x15,x14,b950 <__hi0bits+0x50>
    b940:	fff7c793          	xori	x15,x15,-1
    b944:	01f7d793          	srli	x15,x15,0x1f
    b948:	00f50533          	add	x10,x10,x15
    b94c:	00008067          	jalr	x0,0(x1)
    b950:	00279793          	slli	x15,x15,0x2
    b954:	0007ca63          	blt	x15,x0,b968 <__hi0bits+0x68>
    b958:	00179713          	slli	x14,x15,0x1
    b95c:	00074a63          	blt	x14,x0,b970 <__hi0bits+0x70>
    b960:	02000513          	addi	x10,x0,32
    b964:	00008067          	jalr	x0,0(x1)
    b968:	00250513          	addi	x10,x10,2
    b96c:	00008067          	jalr	x0,0(x1)
    b970:	00350513          	addi	x10,x10,3
    b974:	00008067          	jalr	x0,0(x1)

0000b978 <__lo0bits>:
    b978:	00052783          	lw	x15,0(x10)
    b97c:	00050713          	addi	x14,x10,0
    b980:	0077f693          	andi	x13,x15,7
    b984:	02068463          	beq	x13,x0,b9ac <__lo0bits+0x34>
    b988:	0017f693          	andi	x13,x15,1
    b98c:	00000513          	addi	x10,x0,0
    b990:	04069e63          	bne	x13,x0,b9ec <__lo0bits+0x74>
    b994:	0027f693          	andi	x13,x15,2
    b998:	0a068863          	beq	x13,x0,ba48 <__lo0bits+0xd0>
    b99c:	0017d793          	srli	x15,x15,0x1
    b9a0:	00f72023          	sw	x15,0(x14) # 40000000 <__heap_end+0x3fc00000>
    b9a4:	00100513          	addi	x10,x0,1
    b9a8:	00008067          	jalr	x0,0(x1)
    b9ac:	01079693          	slli	x13,x15,0x10
    b9b0:	0106d693          	srli	x13,x13,0x10
    b9b4:	00000513          	addi	x10,x0,0
    b9b8:	06068e63          	beq	x13,x0,ba34 <__lo0bits+0xbc>
    b9bc:	0ff7f693          	andi	x13,x15,255
    b9c0:	06068063          	beq	x13,x0,ba20 <__lo0bits+0xa8>
    b9c4:	00f7f693          	andi	x13,x15,15
    b9c8:	04068263          	beq	x13,x0,ba0c <__lo0bits+0x94>
    b9cc:	0037f693          	andi	x13,x15,3
    b9d0:	02068463          	beq	x13,x0,b9f8 <__lo0bits+0x80>
    b9d4:	0017f693          	andi	x13,x15,1
    b9d8:	00069c63          	bne	x13,x0,b9f0 <__lo0bits+0x78>
    b9dc:	0017d793          	srli	x15,x15,0x1
    b9e0:	00150513          	addi	x10,x10,1
    b9e4:	00079663          	bne	x15,x0,b9f0 <__lo0bits+0x78>
    b9e8:	02000513          	addi	x10,x0,32
    b9ec:	00008067          	jalr	x0,0(x1)
    b9f0:	00f72023          	sw	x15,0(x14)
    b9f4:	00008067          	jalr	x0,0(x1)
    b9f8:	0027d793          	srli	x15,x15,0x2
    b9fc:	0017f693          	andi	x13,x15,1
    ba00:	00250513          	addi	x10,x10,2
    ba04:	fe0696e3          	bne	x13,x0,b9f0 <__lo0bits+0x78>
    ba08:	fd5ff06f          	jal	x0,b9dc <__lo0bits+0x64>
    ba0c:	0047d793          	srli	x15,x15,0x4
    ba10:	0037f693          	andi	x13,x15,3
    ba14:	00450513          	addi	x10,x10,4
    ba18:	fa069ee3          	bne	x13,x0,b9d4 <__lo0bits+0x5c>
    ba1c:	fddff06f          	jal	x0,b9f8 <__lo0bits+0x80>
    ba20:	0087d793          	srli	x15,x15,0x8
    ba24:	00f7f693          	andi	x13,x15,15
    ba28:	00850513          	addi	x10,x10,8
    ba2c:	fa0690e3          	bne	x13,x0,b9cc <__lo0bits+0x54>
    ba30:	fddff06f          	jal	x0,ba0c <__lo0bits+0x94>
    ba34:	0107d793          	srli	x15,x15,0x10
    ba38:	0ff7f693          	andi	x13,x15,255
    ba3c:	01000513          	addi	x10,x0,16
    ba40:	f80692e3          	bne	x13,x0,b9c4 <__lo0bits+0x4c>
    ba44:	fddff06f          	jal	x0,ba20 <__lo0bits+0xa8>
    ba48:	0027d793          	srli	x15,x15,0x2
    ba4c:	00f72023          	sw	x15,0(x14)
    ba50:	00200513          	addi	x10,x0,2
    ba54:	00008067          	jalr	x0,0(x1)

0000ba58 <__i2b>:
    ba58:	04452783          	lw	x15,68(x10)
    ba5c:	ff010113          	addi	x2,x2,-16
    ba60:	00812423          	sw	x8,8(x2)
    ba64:	00912223          	sw	x9,4(x2)
    ba68:	00112623          	sw	x1,12(x2)
    ba6c:	00050413          	addi	x8,x10,0
    ba70:	00058493          	addi	x9,x11,0
    ba74:	02078c63          	beq	x15,x0,baac <__i2b+0x54>
    ba78:	0047a503          	lw	x10,4(x15)
    ba7c:	06050263          	beq	x10,x0,bae0 <__i2b+0x88>
    ba80:	00052703          	lw	x14,0(x10)
    ba84:	00e7a223          	sw	x14,4(x15)
    ba88:	00c12083          	lw	x1,12(x2)
    ba8c:	00812403          	lw	x8,8(x2)
    ba90:	00100793          	addi	x15,x0,1
    ba94:	00952a23          	sw	x9,20(x10)
    ba98:	00052623          	sw	x0,12(x10)
    ba9c:	00f52823          	sw	x15,16(x10)
    baa0:	00412483          	lw	x9,4(x2)
    baa4:	01010113          	addi	x2,x2,16
    baa8:	00008067          	jalr	x0,0(x1)
    baac:	02100613          	addi	x12,x0,33
    bab0:	00400593          	addi	x11,x0,4
    bab4:	05c010ef          	jal	x1,cb10 <_calloc_r>
    bab8:	04a42223          	sw	x10,68(x8)
    babc:	00050793          	addi	x15,x10,0
    bac0:	fa051ce3          	bne	x10,x0,ba78 <__i2b+0x20>
    bac4:	00007697          	auipc	x13,0x7
    bac8:	7d468693          	addi	x13,x13,2004 # 13298 <__clzsi2+0x530>
    bacc:	00000613          	addi	x12,x0,0
    bad0:	14500593          	addi	x11,x0,325
    bad4:	00007517          	auipc	x10,0x7
    bad8:	7d850513          	addi	x10,x10,2008 # 132ac <__clzsi2+0x544>
    badc:	3a4010ef          	jal	x1,ce80 <__assert_func>
    bae0:	01c00613          	addi	x12,x0,28
    bae4:	00100593          	addi	x11,x0,1
    bae8:	00040513          	addi	x10,x8,0
    baec:	024010ef          	jal	x1,cb10 <_calloc_r>
    baf0:	fc050ae3          	beq	x10,x0,bac4 <__i2b+0x6c>
    baf4:	00100793          	addi	x15,x0,1
    baf8:	00f52223          	sw	x15,4(x10)
    bafc:	00200793          	addi	x15,x0,2
    bb00:	00f52423          	sw	x15,8(x10)
    bb04:	f85ff06f          	jal	x0,ba88 <__i2b+0x30>

0000bb08 <__multiply>:
    bb08:	fe010113          	addi	x2,x2,-32
    bb0c:	01212823          	sw	x18,16(x2)
    bb10:	01312623          	sw	x19,12(x2)
    bb14:	0105a903          	lw	x18,16(x11)
    bb18:	01062983          	lw	x19,16(x12)
    bb1c:	00912a23          	sw	x9,20(x2)
    bb20:	01412423          	sw	x20,8(x2)
    bb24:	00112e23          	sw	x1,28(x2)
    bb28:	00812c23          	sw	x8,24(x2)
    bb2c:	00058a13          	addi	x20,x11,0
    bb30:	00060493          	addi	x9,x12,0
    bb34:	01394c63          	blt	x18,x19,bb4c <__multiply+0x44>
    bb38:	00098713          	addi	x14,x19,0
    bb3c:	00058493          	addi	x9,x11,0
    bb40:	00090993          	addi	x19,x18,0
    bb44:	00060a13          	addi	x20,x12,0
    bb48:	00070913          	addi	x18,x14,0
    bb4c:	0084a783          	lw	x15,8(x9)
    bb50:	0044a583          	lw	x11,4(x9)
    bb54:	01298433          	add	x8,x19,x18
    bb58:	0087a7b3          	slt	x15,x15,x8
    bb5c:	00f585b3          	add	x11,x11,x15
    bb60:	a45ff0ef          	jal	x1,b5a4 <_Balloc>
    bb64:	1a050e63          	beq	x10,x0,bd20 <__multiply+0x218>
    bb68:	01450313          	addi	x6,x10,20
    bb6c:	00241893          	slli	x17,x8,0x2
    bb70:	011308b3          	add	x17,x6,x17
    bb74:	00030793          	addi	x15,x6,0
    bb78:	01137863          	bgeu	x6,x17,bb88 <__multiply+0x80>
    bb7c:	0007a023          	sw	x0,0(x15)
    bb80:	00478793          	addi	x15,x15,4
    bb84:	ff17ece3          	bltu	x15,x17,bb7c <__multiply+0x74>
    bb88:	014a0813          	addi	x16,x20,20
    bb8c:	00291e13          	slli	x28,x18,0x2
    bb90:	01448e93          	addi	x29,x9,20
    bb94:	00299593          	slli	x11,x19,0x2
    bb98:	01c80e33          	add	x28,x16,x28
    bb9c:	00be85b3          	add	x11,x29,x11
    bba0:	13c87663          	bgeu	x16,x28,bccc <__multiply+0x1c4>
    bba4:	01548793          	addi	x15,x9,21
    bba8:	00400f13          	addi	x30,x0,4
    bbac:	16f5f063          	bgeu	x11,x15,bd0c <__multiply+0x204>
    bbb0:	000106b7          	lui	x13,0x10
    bbb4:	fff68693          	addi	x13,x13,-1 # ffff <__multf3+0x163>
    bbb8:	0180006f          	jal	x0,bbd0 <__multiply+0xc8>
    bbbc:	010fdf93          	srli	x31,x31,0x10
    bbc0:	080f9863          	bne	x31,x0,bc50 <__multiply+0x148>
    bbc4:	00480813          	addi	x16,x16,4
    bbc8:	00430313          	addi	x6,x6,4
    bbcc:	11c87063          	bgeu	x16,x28,bccc <__multiply+0x1c4>
    bbd0:	00082f83          	lw	x31,0(x16)
    bbd4:	00dff3b3          	and	x7,x31,x13
    bbd8:	fe0382e3          	beq	x7,x0,bbbc <__multiply+0xb4>
    bbdc:	00030293          	addi	x5,x6,0
    bbe0:	000e8f93          	addi	x31,x29,0
    bbe4:	00000493          	addi	x9,x0,0
    bbe8:	000fa783          	lw	x15,0(x31)
    bbec:	0002a603          	lw	x12,0(x5)
    bbf0:	00428293          	addi	x5,x5,4
    bbf4:	00d7f733          	and	x14,x15,x13
    bbf8:	02770733          	mul	x14,x14,x7
    bbfc:	0107d793          	srli	x15,x15,0x10
    bc00:	00d67933          	and	x18,x12,x13
    bc04:	01065613          	srli	x12,x12,0x10
    bc08:	004f8f93          	addi	x31,x31,4
    bc0c:	027787b3          	mul	x15,x15,x7
    bc10:	01270733          	add	x14,x14,x18
    bc14:	00970733          	add	x14,x14,x9
    bc18:	01075493          	srli	x9,x14,0x10
    bc1c:	00d77733          	and	x14,x14,x13
    bc20:	00c787b3          	add	x15,x15,x12
    bc24:	009787b3          	add	x15,x15,x9
    bc28:	01079613          	slli	x12,x15,0x10
    bc2c:	00e66733          	or	x14,x12,x14
    bc30:	fee2ae23          	sw	x14,-4(x5)
    bc34:	0107d493          	srli	x9,x15,0x10
    bc38:	fabfe8e3          	bltu	x31,x11,bbe8 <__multiply+0xe0>
    bc3c:	01e307b3          	add	x15,x6,x30
    bc40:	0097a023          	sw	x9,0(x15)
    bc44:	00082f83          	lw	x31,0(x16)
    bc48:	010fdf93          	srli	x31,x31,0x10
    bc4c:	f60f8ce3          	beq	x31,x0,bbc4 <__multiply+0xbc>
    bc50:	00032703          	lw	x14,0(x6)
    bc54:	00030293          	addi	x5,x6,0
    bc58:	000e8613          	addi	x12,x29,0
    bc5c:	00070493          	addi	x9,x14,0
    bc60:	00000393          	addi	x7,x0,0
    bc64:	00062783          	lw	x15,0(x12)
    bc68:	0104d993          	srli	x19,x9,0x10
    bc6c:	00d77733          	and	x14,x14,x13
    bc70:	00d7f7b3          	and	x15,x15,x13
    bc74:	03f787b3          	mul	x15,x15,x31
    bc78:	0042a483          	lw	x9,4(x5)
    bc7c:	00428293          	addi	x5,x5,4
    bc80:	00460613          	addi	x12,x12,4
    bc84:	00d4f933          	and	x18,x9,x13
    bc88:	007787b3          	add	x15,x15,x7
    bc8c:	013787b3          	add	x15,x15,x19
    bc90:	01079393          	slli	x7,x15,0x10
    bc94:	00e3e733          	or	x14,x7,x14
    bc98:	fee2ae23          	sw	x14,-4(x5)
    bc9c:	ffe65703          	lhu	x14,-2(x12)
    bca0:	0107d793          	srli	x15,x15,0x10
    bca4:	03f70733          	mul	x14,x14,x31
    bca8:	01270733          	add	x14,x14,x18
    bcac:	00f70733          	add	x14,x14,x15
    bcb0:	01075393          	srli	x7,x14,0x10
    bcb4:	fab668e3          	bltu	x12,x11,bc64 <__multiply+0x15c>
    bcb8:	01e307b3          	add	x15,x6,x30
    bcbc:	00e7a023          	sw	x14,0(x15)
    bcc0:	00480813          	addi	x16,x16,4
    bcc4:	00430313          	addi	x6,x6,4
    bcc8:	f1c864e3          	bltu	x16,x28,bbd0 <__multiply+0xc8>
    bccc:	00804863          	blt	x0,x8,bcdc <__multiply+0x1d4>
    bcd0:	0180006f          	jal	x0,bce8 <__multiply+0x1e0>
    bcd4:	fff40413          	addi	x8,x8,-1
    bcd8:	00040863          	beq	x8,x0,bce8 <__multiply+0x1e0>
    bcdc:	ffc8a783          	lw	x15,-4(x17)
    bce0:	ffc88893          	addi	x17,x17,-4
    bce4:	fe0788e3          	beq	x15,x0,bcd4 <__multiply+0x1cc>
    bce8:	01c12083          	lw	x1,28(x2)
    bcec:	00852823          	sw	x8,16(x10)
    bcf0:	01812403          	lw	x8,24(x2)
    bcf4:	01412483          	lw	x9,20(x2)
    bcf8:	01012903          	lw	x18,16(x2)
    bcfc:	00c12983          	lw	x19,12(x2)
    bd00:	00812a03          	lw	x20,8(x2)
    bd04:	02010113          	addi	x2,x2,32
    bd08:	00008067          	jalr	x0,0(x1)
    bd0c:	409587b3          	sub	x15,x11,x9
    bd10:	feb78793          	addi	x15,x15,-21
    bd14:	ffc7f793          	andi	x15,x15,-4
    bd18:	00478f13          	addi	x30,x15,4
    bd1c:	e95ff06f          	jal	x0,bbb0 <__multiply+0xa8>
    bd20:	00007697          	auipc	x13,0x7
    bd24:	57868693          	addi	x13,x13,1400 # 13298 <__clzsi2+0x530>
    bd28:	00000613          	addi	x12,x0,0
    bd2c:	16200593          	addi	x11,x0,354
    bd30:	00007517          	auipc	x10,0x7
    bd34:	57c50513          	addi	x10,x10,1404 # 132ac <__clzsi2+0x544>
    bd38:	148010ef          	jal	x1,ce80 <__assert_func>

0000bd3c <__pow5mult>:
    bd3c:	fe010113          	addi	x2,x2,-32
    bd40:	00812c23          	sw	x8,24(x2)
    bd44:	01212823          	sw	x18,16(x2)
    bd48:	01312623          	sw	x19,12(x2)
    bd4c:	00112e23          	sw	x1,28(x2)
    bd50:	00367793          	andi	x15,x12,3
    bd54:	00060413          	addi	x8,x12,0
    bd58:	00050993          	addi	x19,x10,0
    bd5c:	00058913          	addi	x18,x11,0
    bd60:	0a079c63          	bne	x15,x0,be18 <__pow5mult+0xdc>
    bd64:	40245413          	srai	x8,x8,0x2
    bd68:	06040a63          	beq	x8,x0,bddc <__pow5mult+0xa0>
    bd6c:	00912a23          	sw	x9,20(x2)
    bd70:	0409a483          	lw	x9,64(x19)
    bd74:	0c048663          	beq	x9,x0,be40 <__pow5mult+0x104>
    bd78:	00147793          	andi	x15,x8,1
    bd7c:	02079063          	bne	x15,x0,bd9c <__pow5mult+0x60>
    bd80:	40145413          	srai	x8,x8,0x1
    bd84:	04040a63          	beq	x8,x0,bdd8 <__pow5mult+0x9c>
    bd88:	0004a503          	lw	x10,0(x9)
    bd8c:	06050663          	beq	x10,x0,bdf8 <__pow5mult+0xbc>
    bd90:	00050493          	addi	x9,x10,0
    bd94:	00147793          	andi	x15,x8,1
    bd98:	fe0784e3          	beq	x15,x0,bd80 <__pow5mult+0x44>
    bd9c:	00048613          	addi	x12,x9,0
    bda0:	00090593          	addi	x11,x18,0
    bda4:	00098513          	addi	x10,x19,0
    bda8:	d61ff0ef          	jal	x1,bb08 <__multiply>
    bdac:	02090063          	beq	x18,x0,bdcc <__pow5mult+0x90>
    bdb0:	00492703          	lw	x14,4(x18)
    bdb4:	0449a783          	lw	x15,68(x19)
    bdb8:	00271713          	slli	x14,x14,0x2
    bdbc:	00e787b3          	add	x15,x15,x14
    bdc0:	0007a703          	lw	x14,0(x15)
    bdc4:	00e92023          	sw	x14,0(x18)
    bdc8:	0127a023          	sw	x18,0(x15)
    bdcc:	40145413          	srai	x8,x8,0x1
    bdd0:	00050913          	addi	x18,x10,0
    bdd4:	fa041ae3          	bne	x8,x0,bd88 <__pow5mult+0x4c>
    bdd8:	01412483          	lw	x9,20(x2)
    bddc:	01c12083          	lw	x1,28(x2)
    bde0:	01812403          	lw	x8,24(x2)
    bde4:	00c12983          	lw	x19,12(x2)
    bde8:	00090513          	addi	x10,x18,0
    bdec:	01012903          	lw	x18,16(x2)
    bdf0:	02010113          	addi	x2,x2,32
    bdf4:	00008067          	jalr	x0,0(x1)
    bdf8:	00048613          	addi	x12,x9,0
    bdfc:	00048593          	addi	x11,x9,0
    be00:	00098513          	addi	x10,x19,0
    be04:	d05ff0ef          	jal	x1,bb08 <__multiply>
    be08:	00a4a023          	sw	x10,0(x9)
    be0c:	00052023          	sw	x0,0(x10)
    be10:	00050493          	addi	x9,x10,0
    be14:	f81ff06f          	jal	x0,bd94 <__pow5mult+0x58>
    be18:	fff78793          	addi	x15,x15,-1
    be1c:	00008717          	auipc	x14,0x8
    be20:	ac470713          	addi	x14,x14,-1340 # 138e0 <p05.0>
    be24:	00279793          	slli	x15,x15,0x2
    be28:	00f707b3          	add	x15,x14,x15
    be2c:	0007a603          	lw	x12,0(x15)
    be30:	00000693          	addi	x13,x0,0
    be34:	849ff0ef          	jal	x1,b67c <__multadd>
    be38:	00050913          	addi	x18,x10,0
    be3c:	f29ff06f          	jal	x0,bd64 <__pow5mult+0x28>
    be40:	00100593          	addi	x11,x0,1
    be44:	00098513          	addi	x10,x19,0
    be48:	f5cff0ef          	jal	x1,b5a4 <_Balloc>
    be4c:	00050493          	addi	x9,x10,0
    be50:	02050063          	beq	x10,x0,be70 <__pow5mult+0x134>
    be54:	27100793          	addi	x15,x0,625
    be58:	00f52a23          	sw	x15,20(x10)
    be5c:	00100793          	addi	x15,x0,1
    be60:	00f52823          	sw	x15,16(x10)
    be64:	04a9a023          	sw	x10,64(x19)
    be68:	00052023          	sw	x0,0(x10)
    be6c:	f0dff06f          	jal	x0,bd78 <__pow5mult+0x3c>
    be70:	00007697          	auipc	x13,0x7
    be74:	42868693          	addi	x13,x13,1064 # 13298 <__clzsi2+0x530>
    be78:	00000613          	addi	x12,x0,0
    be7c:	14500593          	addi	x11,x0,325
    be80:	00007517          	auipc	x10,0x7
    be84:	42c50513          	addi	x10,x10,1068 # 132ac <__clzsi2+0x544>
    be88:	7f9000ef          	jal	x1,ce80 <__assert_func>

0000be8c <__lshift>:
    be8c:	fe010113          	addi	x2,x2,-32
    be90:	01512223          	sw	x21,4(x2)
    be94:	0105aa83          	lw	x21,16(x11)
    be98:	0085a783          	lw	x15,8(x11)
    be9c:	01312623          	sw	x19,12(x2)
    bea0:	40565993          	srai	x19,x12,0x5
    bea4:	01598ab3          	add	x21,x19,x21
    bea8:	00812c23          	sw	x8,24(x2)
    beac:	00912a23          	sw	x9,20(x2)
    beb0:	01212823          	sw	x18,16(x2)
    beb4:	01412423          	sw	x20,8(x2)
    beb8:	00112e23          	sw	x1,28(x2)
    bebc:	001a8913          	addi	x18,x21,1
    bec0:	00058493          	addi	x9,x11,0
    bec4:	00060413          	addi	x8,x12,0
    bec8:	0045a583          	lw	x11,4(x11)
    becc:	00050a13          	addi	x20,x10,0
    bed0:	0127d863          	bge	x15,x18,bee0 <__lshift+0x54>
    bed4:	00179793          	slli	x15,x15,0x1
    bed8:	00158593          	addi	x11,x11,1
    bedc:	ff27cce3          	blt	x15,x18,bed4 <__lshift+0x48>
    bee0:	000a0513          	addi	x10,x20,0
    bee4:	ec0ff0ef          	jal	x1,b5a4 <_Balloc>
    bee8:	10050c63          	beq	x10,x0,c000 <__lshift+0x174>
    beec:	01450813          	addi	x16,x10,20
    bef0:	03305463          	bge	x0,x19,bf18 <__lshift+0x8c>
    bef4:	00598993          	addi	x19,x19,5
    bef8:	00299993          	slli	x19,x19,0x2
    befc:	01350733          	add	x14,x10,x19
    bf00:	00080793          	addi	x15,x16,0
    bf04:	00478793          	addi	x15,x15,4
    bf08:	fe07ae23          	sw	x0,-4(x15)
    bf0c:	fee79ce3          	bne	x15,x14,bf04 <__lshift+0x78>
    bf10:	fec98993          	addi	x19,x19,-20
    bf14:	01380833          	add	x16,x16,x19
    bf18:	0104a883          	lw	x17,16(x9)
    bf1c:	01448793          	addi	x15,x9,20
    bf20:	01f47613          	andi	x12,x8,31
    bf24:	00289893          	slli	x17,x17,0x2
    bf28:	011788b3          	add	x17,x15,x17
    bf2c:	0a060463          	beq	x12,x0,bfd4 <__lshift+0x148>
    bf30:	02000593          	addi	x11,x0,32
    bf34:	40c585b3          	sub	x11,x11,x12
    bf38:	00080313          	addi	x6,x16,0
    bf3c:	00000693          	addi	x13,x0,0
    bf40:	0007a703          	lw	x14,0(x15)
    bf44:	00430313          	addi	x6,x6,4
    bf48:	00478793          	addi	x15,x15,4
    bf4c:	00c71733          	sll	x14,x14,x12
    bf50:	00d76733          	or	x14,x14,x13
    bf54:	fee32e23          	sw	x14,-4(x6)
    bf58:	ffc7a683          	lw	x13,-4(x15)
    bf5c:	00b6d6b3          	srl	x13,x13,x11
    bf60:	ff17e0e3          	bltu	x15,x17,bf40 <__lshift+0xb4>
    bf64:	01548793          	addi	x15,x9,21
    bf68:	00400713          	addi	x14,x0,4
    bf6c:	00f8ea63          	bltu	x17,x15,bf80 <__lshift+0xf4>
    bf70:	409887b3          	sub	x15,x17,x9
    bf74:	feb78793          	addi	x15,x15,-21
    bf78:	ffc7f793          	andi	x15,x15,-4
    bf7c:	00478713          	addi	x14,x15,4
    bf80:	00e80833          	add	x16,x16,x14
    bf84:	00d82023          	sw	x13,0(x16)
    bf88:	00069463          	bne	x13,x0,bf90 <__lshift+0x104>
    bf8c:	000a8913          	addi	x18,x21,0
    bf90:	0044a703          	lw	x14,4(x9)
    bf94:	044a2783          	lw	x15,68(x20)
    bf98:	01c12083          	lw	x1,28(x2)
    bf9c:	00271713          	slli	x14,x14,0x2
    bfa0:	00e787b3          	add	x15,x15,x14
    bfa4:	0007a703          	lw	x14,0(x15)
    bfa8:	01252823          	sw	x18,16(x10)
    bfac:	01812403          	lw	x8,24(x2)
    bfb0:	00e4a023          	sw	x14,0(x9)
    bfb4:	0097a023          	sw	x9,0(x15)
    bfb8:	01012903          	lw	x18,16(x2)
    bfbc:	01412483          	lw	x9,20(x2)
    bfc0:	00c12983          	lw	x19,12(x2)
    bfc4:	00812a03          	lw	x20,8(x2)
    bfc8:	00412a83          	lw	x21,4(x2)
    bfcc:	02010113          	addi	x2,x2,32
    bfd0:	00008067          	jalr	x0,0(x1)
    bfd4:	0007a703          	lw	x14,0(x15)
    bfd8:	00478793          	addi	x15,x15,4
    bfdc:	00480813          	addi	x16,x16,4
    bfe0:	fee82e23          	sw	x14,-4(x16)
    bfe4:	fb17f4e3          	bgeu	x15,x17,bf8c <__lshift+0x100>
    bfe8:	0007a703          	lw	x14,0(x15)
    bfec:	00478793          	addi	x15,x15,4
    bff0:	00480813          	addi	x16,x16,4
    bff4:	fee82e23          	sw	x14,-4(x16)
    bff8:	fd17eee3          	bltu	x15,x17,bfd4 <__lshift+0x148>
    bffc:	f91ff06f          	jal	x0,bf8c <__lshift+0x100>
    c000:	00007697          	auipc	x13,0x7
    c004:	29868693          	addi	x13,x13,664 # 13298 <__clzsi2+0x530>
    c008:	00000613          	addi	x12,x0,0
    c00c:	1de00593          	addi	x11,x0,478
    c010:	00007517          	auipc	x10,0x7
    c014:	29c50513          	addi	x10,x10,668 # 132ac <__clzsi2+0x544>
    c018:	669000ef          	jal	x1,ce80 <__assert_func>

0000c01c <__mcmp>:
    c01c:	01052703          	lw	x14,16(x10)
    c020:	0105a783          	lw	x15,16(x11)
    c024:	00050813          	addi	x16,x10,0
    c028:	40f70533          	sub	x10,x14,x15
    c02c:	04f71263          	bne	x14,x15,c070 <__mcmp+0x54>
    c030:	00279793          	slli	x15,x15,0x2
    c034:	01480813          	addi	x16,x16,20
    c038:	01458593          	addi	x11,x11,20
    c03c:	00f80733          	add	x14,x16,x15
    c040:	00f587b3          	add	x15,x11,x15
    c044:	0080006f          	jal	x0,c04c <__mcmp+0x30>
    c048:	02e87463          	bgeu	x16,x14,c070 <__mcmp+0x54>
    c04c:	ffc72603          	lw	x12,-4(x14)
    c050:	ffc7a683          	lw	x13,-4(x15)
    c054:	ffc70713          	addi	x14,x14,-4
    c058:	ffc78793          	addi	x15,x15,-4
    c05c:	fed606e3          	beq	x12,x13,c048 <__mcmp+0x2c>
    c060:	00100513          	addi	x10,x0,1
    c064:	00d67663          	bgeu	x12,x13,c070 <__mcmp+0x54>
    c068:	fff00513          	addi	x10,x0,-1
    c06c:	00008067          	jalr	x0,0(x1)
    c070:	00008067          	jalr	x0,0(x1)

0000c074 <__mdiff>:
    c074:	0105a703          	lw	x14,16(x11)
    c078:	01062783          	lw	x15,16(x12)
    c07c:	ff010113          	addi	x2,x2,-16
    c080:	00812423          	sw	x8,8(x2)
    c084:	00912223          	sw	x9,4(x2)
    c088:	00112623          	sw	x1,12(x2)
    c08c:	01212023          	sw	x18,0(x2)
    c090:	00058413          	addi	x8,x11,0
    c094:	00060493          	addi	x9,x12,0
    c098:	40f706b3          	sub	x13,x14,x15
    c09c:	18f71e63          	bne	x14,x15,c238 <__mdiff+0x1c4>
    c0a0:	00279693          	slli	x13,x15,0x2
    c0a4:	01458613          	addi	x12,x11,20
    c0a8:	01448713          	addi	x14,x9,20
    c0ac:	00d607b3          	add	x15,x12,x13
    c0b0:	00d70733          	add	x14,x14,x13
    c0b4:	0080006f          	jal	x0,c0bc <__mdiff+0x48>
    c0b8:	18f67c63          	bgeu	x12,x15,c250 <__mdiff+0x1dc>
    c0bc:	ffc7a583          	lw	x11,-4(x15)
    c0c0:	ffc72683          	lw	x13,-4(x14)
    c0c4:	ffc78793          	addi	x15,x15,-4
    c0c8:	ffc70713          	addi	x14,x14,-4
    c0cc:	fed586e3          	beq	x11,x13,c0b8 <__mdiff+0x44>
    c0d0:	00100913          	addi	x18,x0,1
    c0d4:	00d5ea63          	bltu	x11,x13,c0e8 <__mdiff+0x74>
    c0d8:	00048793          	addi	x15,x9,0
    c0dc:	00000913          	addi	x18,x0,0
    c0e0:	00040493          	addi	x9,x8,0
    c0e4:	00078413          	addi	x8,x15,0
    c0e8:	0044a583          	lw	x11,4(x9)
    c0ec:	cb8ff0ef          	jal	x1,b5a4 <_Balloc>
    c0f0:	1a050663          	beq	x10,x0,c29c <__mdiff+0x228>
    c0f4:	0104a883          	lw	x17,16(x9)
    c0f8:	01042283          	lw	x5,16(x8)
    c0fc:	01448f93          	addi	x31,x9,20
    c100:	00289313          	slli	x6,x17,0x2
    c104:	01440813          	addi	x16,x8,20
    c108:	00229293          	slli	x5,x5,0x2
    c10c:	01450593          	addi	x11,x10,20
    c110:	00010e37          	lui	x28,0x10
    c114:	01252623          	sw	x18,12(x10)
    c118:	006f8333          	add	x6,x31,x6
    c11c:	005802b3          	add	x5,x16,x5
    c120:	00058f13          	addi	x30,x11,0
    c124:	000f8e93          	addi	x29,x31,0
    c128:	00000693          	addi	x13,x0,0
    c12c:	fffe0e13          	addi	x28,x28,-1 # ffff <__multf3+0x163>
    c130:	000ea703          	lw	x14,0(x29)
    c134:	00082603          	lw	x12,0(x16)
    c138:	004f0f13          	addi	x30,x30,4
    c13c:	01c777b3          	and	x15,x14,x28
    c140:	01c673b3          	and	x7,x12,x28
    c144:	407787b3          	sub	x15,x15,x7
    c148:	00d787b3          	add	x15,x15,x13
    c14c:	01075713          	srli	x14,x14,0x10
    c150:	01065613          	srli	x12,x12,0x10
    c154:	4107d693          	srai	x13,x15,0x10
    c158:	40c70733          	sub	x14,x14,x12
    c15c:	00d70733          	add	x14,x14,x13
    c160:	01071693          	slli	x13,x14,0x10
    c164:	01c7f7b3          	and	x15,x15,x28
    c168:	00d7e7b3          	or	x15,x15,x13
    c16c:	00480813          	addi	x16,x16,4
    c170:	feff2e23          	sw	x15,-4(x30)
    c174:	004e8e93          	addi	x29,x29,4
    c178:	41075693          	srai	x13,x14,0x10
    c17c:	fa586ae3          	bltu	x16,x5,c130 <__mdiff+0xbc>
    c180:	01540713          	addi	x14,x8,21
    c184:	40828433          	sub	x8,x5,x8
    c188:	feb40413          	addi	x8,x8,-21
    c18c:	00e2b2b3          	sltu	x5,x5,x14
    c190:	0012cf13          	xori	x30,x5,1
    c194:	00245413          	srli	x8,x8,0x2
    c198:	00400713          	addi	x14,x0,4
    c19c:	0a028463          	beq	x5,x0,c244 <__mdiff+0x1d0>
    c1a0:	00ef8fb3          	add	x31,x31,x14
    c1a4:	00e58833          	add	x16,x11,x14
    c1a8:	00010eb7          	lui	x29,0x10
    c1ac:	00080e13          	addi	x28,x16,0
    c1b0:	000f8613          	addi	x12,x31,0
    c1b4:	fffe8e93          	addi	x29,x29,-1 # ffff <__multf3+0x163>
    c1b8:	0c6ff463          	bgeu	x31,x6,c280 <__mdiff+0x20c>
    c1bc:	00062783          	lw	x15,0(x12)
    c1c0:	004e0e13          	addi	x28,x28,4
    c1c4:	00460613          	addi	x12,x12,4
    c1c8:	01d7f733          	and	x14,x15,x29
    c1cc:	00d70733          	add	x14,x14,x13
    c1d0:	0107d593          	srli	x11,x15,0x10
    c1d4:	41075713          	srai	x14,x14,0x10
    c1d8:	00b70733          	add	x14,x14,x11
    c1dc:	00d787b3          	add	x15,x15,x13
    c1e0:	01d7f7b3          	and	x15,x15,x29
    c1e4:	01071693          	slli	x13,x14,0x10
    c1e8:	00d7e7b3          	or	x15,x15,x13
    c1ec:	fefe2e23          	sw	x15,-4(x28)
    c1f0:	41075693          	srai	x13,x14,0x10
    c1f4:	fc6664e3          	bltu	x12,x6,c1bc <__mdiff+0x148>
    c1f8:	fff30313          	addi	x6,x6,-1
    c1fc:	41f30333          	sub	x6,x6,x31
    c200:	ffc37313          	andi	x6,x6,-4
    c204:	00680733          	add	x14,x16,x6
    c208:	00079a63          	bne	x15,x0,c21c <__mdiff+0x1a8>
    c20c:	ffc72783          	lw	x15,-4(x14)
    c210:	fff88893          	addi	x17,x17,-1
    c214:	ffc70713          	addi	x14,x14,-4
    c218:	fe078ae3          	beq	x15,x0,c20c <__mdiff+0x198>
    c21c:	00c12083          	lw	x1,12(x2)
    c220:	00812403          	lw	x8,8(x2)
    c224:	01152823          	sw	x17,16(x10)
    c228:	00412483          	lw	x9,4(x2)
    c22c:	00012903          	lw	x18,0(x2)
    c230:	01010113          	addi	x2,x2,16
    c234:	00008067          	jalr	x0,0(x1)
    c238:	00100913          	addi	x18,x0,1
    c23c:	e806dee3          	bge	x13,x0,c0d8 <__mdiff+0x64>
    c240:	ea9ff06f          	jal	x0,c0e8 <__mdiff+0x74>
    c244:	00140713          	addi	x14,x8,1
    c248:	00271713          	slli	x14,x14,0x2
    c24c:	f55ff06f          	jal	x0,c1a0 <__mdiff+0x12c>
    c250:	00000593          	addi	x11,x0,0
    c254:	b50ff0ef          	jal	x1,b5a4 <_Balloc>
    c258:	06050063          	beq	x10,x0,c2b8 <__mdiff+0x244>
    c25c:	00c12083          	lw	x1,12(x2)
    c260:	00812403          	lw	x8,8(x2)
    c264:	00100793          	addi	x15,x0,1
    c268:	00f52823          	sw	x15,16(x10)
    c26c:	00052a23          	sw	x0,20(x10)
    c270:	00412483          	lw	x9,4(x2)
    c274:	00012903          	lw	x18,0(x2)
    c278:	01010113          	addi	x2,x2,16
    c27c:	00008067          	jalr	x0,0(x1)
    c280:	00000713          	addi	x14,x0,0
    c284:	000f1663          	bne	x30,x0,c290 <__mdiff+0x21c>
    c288:	00e58733          	add	x14,x11,x14
    c28c:	f7dff06f          	jal	x0,c208 <__mdiff+0x194>
    c290:	00241713          	slli	x14,x8,0x2
    c294:	00e58733          	add	x14,x11,x14
    c298:	f71ff06f          	jal	x0,c208 <__mdiff+0x194>
    c29c:	00007697          	auipc	x13,0x7
    c2a0:	ffc68693          	addi	x13,x13,-4 # 13298 <__clzsi2+0x530>
    c2a4:	00000613          	addi	x12,x0,0
    c2a8:	24500593          	addi	x11,x0,581
    c2ac:	00007517          	auipc	x10,0x7
    c2b0:	00050513          	addi	x10,x10,0 # 132ac <__clzsi2+0x544>
    c2b4:	3cd000ef          	jal	x1,ce80 <__assert_func>
    c2b8:	00007697          	auipc	x13,0x7
    c2bc:	fe068693          	addi	x13,x13,-32 # 13298 <__clzsi2+0x530>
    c2c0:	00000613          	addi	x12,x0,0
    c2c4:	23700593          	addi	x11,x0,567
    c2c8:	00007517          	auipc	x10,0x7
    c2cc:	fe450513          	addi	x10,x10,-28 # 132ac <__clzsi2+0x544>
    c2d0:	3b1000ef          	jal	x1,ce80 <__assert_func>

0000c2d4 <__ulp>:
    c2d4:	7ff007b7          	lui	x15,0x7ff00
    c2d8:	00b7f5b3          	and	x11,x15,x11
    c2dc:	fcc007b7          	lui	x15,0xfcc00
    c2e0:	00f585b3          	add	x11,x11,x15
    c2e4:	00000793          	addi	x15,x0,0
    c2e8:	00b05663          	bge	x0,x11,c2f4 <__ulp+0x20>
    c2ec:	00078513          	addi	x10,x15,0 # fcc00000 <__heap_end+0xfc800000>
    c2f0:	00008067          	jalr	x0,0(x1)
    c2f4:	40b005b3          	sub	x11,x0,x11
    c2f8:	4145d593          	srai	x11,x11,0x14
    c2fc:	01300793          	addi	x15,x0,19
    c300:	00b7cc63          	blt	x15,x11,c318 <__ulp+0x44>
    c304:	000807b7          	lui	x15,0x80
    c308:	40b7d5b3          	sra	x11,x15,x11
    c30c:	00000793          	addi	x15,x0,0
    c310:	00078513          	addi	x10,x15,0 # 80000 <__heap_start+0x6b8d0>
    c314:	00008067          	jalr	x0,0(x1)
    c318:	fec58593          	addi	x11,x11,-20
    c31c:	01e00713          	addi	x14,x0,30
    c320:	00100793          	addi	x15,x0,1
    c324:	00b74663          	blt	x14,x11,c330 <__ulp+0x5c>
    c328:	800007b7          	lui	x15,0x80000
    c32c:	00b7d7b3          	srl	x15,x15,x11
    c330:	00000593          	addi	x11,x0,0
    c334:	00078513          	addi	x10,x15,0 # 80000000 <__heap_end+0x7fc00000>
    c338:	00008067          	jalr	x0,0(x1)

0000c33c <__b2d>:
    c33c:	fe010113          	addi	x2,x2,-32
    c340:	00912a23          	sw	x9,20(x2)
    c344:	01052483          	lw	x9,16(x10)
    c348:	00812c23          	sw	x8,24(x2)
    c34c:	01450413          	addi	x8,x10,20
    c350:	00249493          	slli	x9,x9,0x2
    c354:	009404b3          	add	x9,x8,x9
    c358:	01212823          	sw	x18,16(x2)
    c35c:	ffc4a903          	lw	x18,-4(x9)
    c360:	01312623          	sw	x19,12(x2)
    c364:	01412423          	sw	x20,8(x2)
    c368:	00090513          	addi	x10,x18,0
    c36c:	00058993          	addi	x19,x11,0
    c370:	00112e23          	sw	x1,28(x2)
    c374:	d8cff0ef          	jal	x1,b900 <__hi0bits>
    c378:	02000713          	addi	x14,x0,32
    c37c:	40a707b3          	sub	x15,x14,x10
    c380:	00f9a023          	sw	x15,0(x19)
    c384:	00a00793          	addi	x15,x0,10
    c388:	ffc48a13          	addi	x20,x9,-4
    c38c:	08a7dc63          	bge	x15,x10,c424 <__b2d+0xe8>
    c390:	ff550613          	addi	x12,x10,-11
    c394:	05447063          	bgeu	x8,x20,c3d4 <__b2d+0x98>
    c398:	ff84a783          	lw	x15,-8(x9)
    c39c:	04060c63          	beq	x12,x0,c3f4 <__b2d+0xb8>
    c3a0:	40c706b3          	sub	x13,x14,x12
    c3a4:	00d7d733          	srl	x14,x15,x13
    c3a8:	00c91933          	sll	x18,x18,x12
    c3ac:	00e96933          	or	x18,x18,x14
    c3b0:	ff848593          	addi	x11,x9,-8
    c3b4:	3ff00737          	lui	x14,0x3ff00
    c3b8:	00e96733          	or	x14,x18,x14
    c3bc:	00c797b3          	sll	x15,x15,x12
    c3c0:	02b47e63          	bgeu	x8,x11,c3fc <__b2d+0xc0>
    c3c4:	ff44a603          	lw	x12,-12(x9)
    c3c8:	00d656b3          	srl	x13,x12,x13
    c3cc:	00d7e7b3          	or	x15,x15,x13
    c3d0:	02c0006f          	jal	x0,c3fc <__b2d+0xc0>
    c3d4:	00b00793          	addi	x15,x0,11
    c3d8:	00f50c63          	beq	x10,x15,c3f0 <__b2d+0xb4>
    c3dc:	00c91933          	sll	x18,x18,x12
    c3e0:	3ff00737          	lui	x14,0x3ff00
    c3e4:	00e96733          	or	x14,x18,x14
    c3e8:	00000793          	addi	x15,x0,0
    c3ec:	0100006f          	jal	x0,c3fc <__b2d+0xc0>
    c3f0:	00000793          	addi	x15,x0,0
    c3f4:	3ff00737          	lui	x14,0x3ff00
    c3f8:	00e96733          	or	x14,x18,x14
    c3fc:	01c12083          	lw	x1,28(x2)
    c400:	01812403          	lw	x8,24(x2)
    c404:	01412483          	lw	x9,20(x2)
    c408:	01012903          	lw	x18,16(x2)
    c40c:	00c12983          	lw	x19,12(x2)
    c410:	00812a03          	lw	x20,8(x2)
    c414:	00078513          	addi	x10,x15,0
    c418:	00070593          	addi	x11,x14,0 # 3ff00000 <__heap_end+0x3fb00000>
    c41c:	02010113          	addi	x2,x2,32
    c420:	00008067          	jalr	x0,0(x1)
    c424:	00b00693          	addi	x13,x0,11
    c428:	40a686b3          	sub	x13,x13,x10
    c42c:	3ff007b7          	lui	x15,0x3ff00
    c430:	00d95733          	srl	x14,x18,x13
    c434:	00f76733          	or	x14,x14,x15
    c438:	00000793          	addi	x15,x0,0
    c43c:	01447663          	bgeu	x8,x20,c448 <__b2d+0x10c>
    c440:	ff84a783          	lw	x15,-8(x9)
    c444:	00d7d7b3          	srl	x15,x15,x13
    c448:	01550513          	addi	x10,x10,21
    c44c:	00a91933          	sll	x18,x18,x10
    c450:	00f967b3          	or	x15,x18,x15
    c454:	fa9ff06f          	jal	x0,c3fc <__b2d+0xc0>

0000c458 <__d2b>:
    c458:	fd010113          	addi	x2,x2,-48
    c45c:	01512a23          	sw	x21,20(x2)
    c460:	00058a93          	addi	x21,x11,0
    c464:	00100593          	addi	x11,x0,1
    c468:	02912223          	sw	x9,36(x2)
    c46c:	01312e23          	sw	x19,28(x2)
    c470:	01412c23          	sw	x20,24(x2)
    c474:	02112623          	sw	x1,44(x2)
    c478:	02812423          	sw	x8,40(x2)
    c47c:	03212023          	sw	x18,32(x2)
    c480:	00060493          	addi	x9,x12,0
    c484:	00068a13          	addi	x20,x13,0
    c488:	00070993          	addi	x19,x14,0
    c48c:	918ff0ef          	jal	x1,b5a4 <_Balloc>
    c490:	10050263          	beq	x10,x0,c594 <__d2b+0x13c>
    c494:	00100737          	lui	x14,0x100
    c498:	0144d913          	srli	x18,x9,0x14
    c49c:	fff70793          	addi	x15,x14,-1 # fffff <__heap_start+0xeb8cf>
    c4a0:	7ff97913          	andi	x18,x18,2047
    c4a4:	00050413          	addi	x8,x10,0
    c4a8:	0097f7b3          	and	x15,x15,x9
    c4ac:	00090463          	beq	x18,x0,c4b4 <__d2b+0x5c>
    c4b0:	00e7e7b3          	or	x15,x15,x14
    c4b4:	00f12623          	sw	x15,12(x2)
    c4b8:	060a9263          	bne	x21,x0,c51c <__d2b+0xc4>
    c4bc:	00c10513          	addi	x10,x2,12
    c4c0:	cb8ff0ef          	jal	x1,b978 <__lo0bits>
    c4c4:	00c12703          	lw	x14,12(x2)
    c4c8:	00100493          	addi	x9,x0,1
    c4cc:	00942823          	sw	x9,16(x8)
    c4d0:	00e42a23          	sw	x14,20(x8)
    c4d4:	02050793          	addi	x15,x10,32
    c4d8:	08090863          	beq	x18,x0,c568 <__d2b+0x110>
    c4dc:	bcd90913          	addi	x18,x18,-1075
    c4e0:	00f90933          	add	x18,x18,x15
    c4e4:	03500493          	addi	x9,x0,53
    c4e8:	012a2023          	sw	x18,0(x20)
    c4ec:	40f48533          	sub	x10,x9,x15
    c4f0:	00a9a023          	sw	x10,0(x19)
    c4f4:	02c12083          	lw	x1,44(x2)
    c4f8:	00040513          	addi	x10,x8,0
    c4fc:	02812403          	lw	x8,40(x2)
    c500:	02412483          	lw	x9,36(x2)
    c504:	02012903          	lw	x18,32(x2)
    c508:	01c12983          	lw	x19,28(x2)
    c50c:	01812a03          	lw	x20,24(x2)
    c510:	01412a83          	lw	x21,20(x2)
    c514:	03010113          	addi	x2,x2,48
    c518:	00008067          	jalr	x0,0(x1)
    c51c:	00810513          	addi	x10,x2,8
    c520:	01512423          	sw	x21,8(x2)
    c524:	c54ff0ef          	jal	x1,b978 <__lo0bits>
    c528:	00c12703          	lw	x14,12(x2)
    c52c:	00050793          	addi	x15,x10,0
    c530:	04050e63          	beq	x10,x0,c58c <__d2b+0x134>
    c534:	00812603          	lw	x12,8(x2)
    c538:	02000693          	addi	x13,x0,32
    c53c:	40a686b3          	sub	x13,x13,x10
    c540:	00d716b3          	sll	x13,x14,x13
    c544:	00a75733          	srl	x14,x14,x10
    c548:	00c6e6b3          	or	x13,x13,x12
    c54c:	00e12623          	sw	x14,12(x2)
    c550:	00e034b3          	sltu	x9,x0,x14
    c554:	00148493          	addi	x9,x9,1
    c558:	00d42a23          	sw	x13,20(x8)
    c55c:	00e42c23          	sw	x14,24(x8)
    c560:	00942823          	sw	x9,16(x8)
    c564:	f6091ce3          	bne	x18,x0,c4dc <__d2b+0x84>
    c568:	00249713          	slli	x14,x9,0x2
    c56c:	00e40733          	add	x14,x8,x14
    c570:	01072503          	lw	x10,16(x14)
    c574:	bce78793          	addi	x15,x15,-1074 # 3feffbce <__heap_end+0x3faffbce>
    c578:	00fa2023          	sw	x15,0(x20)
    c57c:	b84ff0ef          	jal	x1,b900 <__hi0bits>
    c580:	00549493          	slli	x9,x9,0x5
    c584:	40a48533          	sub	x10,x9,x10
    c588:	f69ff06f          	jal	x0,c4f0 <__d2b+0x98>
    c58c:	00812683          	lw	x13,8(x2)
    c590:	fc1ff06f          	jal	x0,c550 <__d2b+0xf8>
    c594:	00007697          	auipc	x13,0x7
    c598:	d0468693          	addi	x13,x13,-764 # 13298 <__clzsi2+0x530>
    c59c:	00000613          	addi	x12,x0,0
    c5a0:	30f00593          	addi	x11,x0,783
    c5a4:	00007517          	auipc	x10,0x7
    c5a8:	d0850513          	addi	x10,x10,-760 # 132ac <__clzsi2+0x544>
    c5ac:	0d5000ef          	jal	x1,ce80 <__assert_func>

0000c5b0 <__ratio>:
    c5b0:	fd010113          	addi	x2,x2,-48
    c5b4:	03212023          	sw	x18,32(x2)
    c5b8:	00058913          	addi	x18,x11,0
    c5bc:	00810593          	addi	x11,x2,8
    c5c0:	02112623          	sw	x1,44(x2)
    c5c4:	02812423          	sw	x8,40(x2)
    c5c8:	02912223          	sw	x9,36(x2)
    c5cc:	01312e23          	sw	x19,28(x2)
    c5d0:	00050993          	addi	x19,x10,0
    c5d4:	d69ff0ef          	jal	x1,c33c <__b2d>
    c5d8:	00050493          	addi	x9,x10,0
    c5dc:	00058413          	addi	x8,x11,0
    c5e0:	00090513          	addi	x10,x18,0
    c5e4:	00c10593          	addi	x11,x2,12
    c5e8:	d55ff0ef          	jal	x1,c33c <__b2d>
    c5ec:	01092703          	lw	x14,16(x18)
    c5f0:	0109a783          	lw	x15,16(x19)
    c5f4:	00c12683          	lw	x13,12(x2)
    c5f8:	40e787b3          	sub	x15,x15,x14
    c5fc:	00812703          	lw	x14,8(x2)
    c600:	00579793          	slli	x15,x15,0x5
    c604:	40d70733          	sub	x14,x14,x13
    c608:	00e787b3          	add	x15,x15,x14
    c60c:	00050713          	addi	x14,x10,0
    c610:	02f05e63          	bge	x0,x15,c64c <__ratio+0x9c>
    c614:	01479793          	slli	x15,x15,0x14
    c618:	00878433          	add	x8,x15,x8
    c61c:	00058693          	addi	x13,x11,0
    c620:	00048513          	addi	x10,x9,0
    c624:	00040593          	addi	x11,x8,0
    c628:	00070613          	addi	x12,x14,0
    c62c:	1a5010ef          	jal	x1,dfd0 <__divdf3>
    c630:	02c12083          	lw	x1,44(x2)
    c634:	02812403          	lw	x8,40(x2)
    c638:	02412483          	lw	x9,36(x2)
    c63c:	02012903          	lw	x18,32(x2)
    c640:	01c12983          	lw	x19,28(x2)
    c644:	03010113          	addi	x2,x2,48
    c648:	00008067          	jalr	x0,0(x1)
    c64c:	01479793          	slli	x15,x15,0x14
    c650:	40f585b3          	sub	x11,x11,x15
    c654:	fc9ff06f          	jal	x0,c61c <__ratio+0x6c>

0000c658 <_mprec_log10>:
    c658:	ff010113          	addi	x2,x2,-16
    c65c:	01212023          	sw	x18,0(x2)
    c660:	00112623          	sw	x1,12(x2)
    c664:	01700793          	addi	x15,x0,23
    c668:	00050913          	addi	x18,x10,0
    c66c:	06a7d263          	bge	x15,x10,c6d0 <_mprec_log10+0x78>
    c670:	00008717          	auipc	x14,0x8
    c674:	d0070713          	addi	x14,x14,-768 # 14370 <__SDATA_BEGIN__+0x30>
    c678:	00072783          	lw	x15,0(x14)
    c67c:	00472583          	lw	x11,4(x14)
    c680:	00008717          	auipc	x14,0x8
    c684:	cf870713          	addi	x14,x14,-776 # 14378 <__SDATA_BEGIN__+0x38>
    c688:	00812423          	sw	x8,8(x2)
    c68c:	00912223          	sw	x9,4(x2)
    c690:	00072403          	lw	x8,0(x14)
    c694:	00472483          	lw	x9,4(x14)
    c698:	00078513          	addi	x10,x15,0
    c69c:	00040613          	addi	x12,x8,0
    c6a0:	00048693          	addi	x13,x9,0
    c6a4:	34c020ef          	jal	x1,e9f0 <__muldf3>
    c6a8:	fff90913          	addi	x18,x18,-1
    c6ac:	00050793          	addi	x15,x10,0
    c6b0:	fe0914e3          	bne	x18,x0,c698 <_mprec_log10+0x40>
    c6b4:	00812403          	lw	x8,8(x2)
    c6b8:	00c12083          	lw	x1,12(x2)
    c6bc:	00412483          	lw	x9,4(x2)
    c6c0:	00012903          	lw	x18,0(x2)
    c6c4:	00078513          	addi	x10,x15,0
    c6c8:	01010113          	addi	x2,x2,16
    c6cc:	00008067          	jalr	x0,0(x1)
    c6d0:	00351913          	slli	x18,x10,0x3
    c6d4:	00007717          	auipc	x14,0x7
    c6d8:	20c70713          	addi	x14,x14,524 # 138e0 <p05.0>
    c6dc:	01270733          	add	x14,x14,x18
    c6e0:	01072783          	lw	x15,16(x14)
    c6e4:	00c12083          	lw	x1,12(x2)
    c6e8:	01472583          	lw	x11,20(x14)
    c6ec:	00012903          	lw	x18,0(x2)
    c6f0:	00078513          	addi	x10,x15,0
    c6f4:	01010113          	addi	x2,x2,16
    c6f8:	00008067          	jalr	x0,0(x1)

0000c6fc <__copybits>:
    c6fc:	01062683          	lw	x13,16(x12)
    c700:	fff58593          	addi	x11,x11,-1
    c704:	4055d593          	srai	x11,x11,0x5
    c708:	00158593          	addi	x11,x11,1
    c70c:	01460793          	addi	x15,x12,20
    c710:	00269693          	slli	x13,x13,0x2
    c714:	00259593          	slli	x11,x11,0x2
    c718:	00d786b3          	add	x13,x15,x13
    c71c:	00b505b3          	add	x11,x10,x11
    c720:	02d7f863          	bgeu	x15,x13,c750 <__copybits+0x54>
    c724:	00050713          	addi	x14,x10,0
    c728:	0007a803          	lw	x16,0(x15)
    c72c:	00478793          	addi	x15,x15,4
    c730:	00470713          	addi	x14,x14,4
    c734:	ff072e23          	sw	x16,-4(x14)
    c738:	fed7e8e3          	bltu	x15,x13,c728 <__copybits+0x2c>
    c73c:	40c687b3          	sub	x15,x13,x12
    c740:	feb78793          	addi	x15,x15,-21
    c744:	ffc7f793          	andi	x15,x15,-4
    c748:	00478793          	addi	x15,x15,4
    c74c:	00f50533          	add	x10,x10,x15
    c750:	00b57863          	bgeu	x10,x11,c760 <__copybits+0x64>
    c754:	00450513          	addi	x10,x10,4
    c758:	fe052e23          	sw	x0,-4(x10)
    c75c:	feb56ce3          	bltu	x10,x11,c754 <__copybits+0x58>
    c760:	00008067          	jalr	x0,0(x1)

0000c764 <__any_on>:
    c764:	01052703          	lw	x14,16(x10)
    c768:	4055d613          	srai	x12,x11,0x5
    c76c:	01450693          	addi	x13,x10,20
    c770:	02c75263          	bge	x14,x12,c794 <__any_on+0x30>
    c774:	00271713          	slli	x14,x14,0x2
    c778:	00e687b3          	add	x15,x13,x14
    c77c:	04f6f263          	bgeu	x13,x15,c7c0 <__any_on+0x5c>
    c780:	ffc7a703          	lw	x14,-4(x15)
    c784:	ffc78793          	addi	x15,x15,-4
    c788:	fe070ae3          	beq	x14,x0,c77c <__any_on+0x18>
    c78c:	00100513          	addi	x10,x0,1
    c790:	00008067          	jalr	x0,0(x1)
    c794:	00261793          	slli	x15,x12,0x2
    c798:	00f687b3          	add	x15,x13,x15
    c79c:	fee650e3          	bge	x12,x14,c77c <__any_on+0x18>
    c7a0:	01f5f593          	andi	x11,x11,31
    c7a4:	fc058ce3          	beq	x11,x0,c77c <__any_on+0x18>
    c7a8:	0007a603          	lw	x12,0(x15)
    c7ac:	00100513          	addi	x10,x0,1
    c7b0:	00b65733          	srl	x14,x12,x11
    c7b4:	00b71733          	sll	x14,x14,x11
    c7b8:	fce602e3          	beq	x12,x14,c77c <__any_on+0x18>
    c7bc:	00008067          	jalr	x0,0(x1)
    c7c0:	00000513          	addi	x10,x0,0
    c7c4:	00008067          	jalr	x0,0(x1)

0000c7c8 <__rshift_D2A>:
    c7c8:	01052803          	lw	x16,16(x10)
    c7cc:	4055de13          	srai	x28,x11,0x5
    c7d0:	010e4863          	blt	x28,x16,c7e0 <__rshift_D2A+0x18>
    c7d4:	00052823          	sw	x0,16(x10)
    c7d8:	00052a23          	sw	x0,20(x10)
    c7dc:	00008067          	jalr	x0,0(x1)
    c7e0:	01450313          	addi	x6,x10,20
    c7e4:	00281613          	slli	x12,x16,0x2
    c7e8:	002e1793          	slli	x15,x28,0x2
    c7ec:	01f5f593          	andi	x11,x11,31
    c7f0:	00c30633          	add	x12,x6,x12
    c7f4:	00f307b3          	add	x15,x6,x15
    c7f8:	06058263          	beq	x11,x0,c85c <__rshift_D2A+0x94>
    c7fc:	0007a683          	lw	x13,0(x15)
    c800:	02000e93          	addi	x29,x0,32
    c804:	00478793          	addi	x15,x15,4
    c808:	40be8eb3          	sub	x29,x29,x11
    c80c:	00b6d6b3          	srl	x13,x13,x11
    c810:	08c7f463          	bgeu	x15,x12,c898 <__rshift_D2A+0xd0>
    c814:	00030893          	addi	x17,x6,0
    c818:	0007a703          	lw	x14,0(x15)
    c81c:	00488893          	addi	x17,x17,4
    c820:	00478793          	addi	x15,x15,4
    c824:	01d71733          	sll	x14,x14,x29
    c828:	00d76733          	or	x14,x14,x13
    c82c:	fee8ae23          	sw	x14,-4(x17)
    c830:	ffc7a683          	lw	x13,-4(x15)
    c834:	00b6d6b3          	srl	x13,x13,x11
    c838:	fec7e0e3          	bltu	x15,x12,c818 <__rshift_D2A+0x50>
    c83c:	41c80833          	sub	x16,x16,x28
    c840:	00281813          	slli	x16,x16,0x2
    c844:	ffc80813          	addi	x16,x16,-4
    c848:	01030833          	add	x16,x6,x16
    c84c:	00d82023          	sw	x13,0(x16)
    c850:	02068a63          	beq	x13,x0,c884 <__rshift_D2A+0xbc>
    c854:	00480813          	addi	x16,x16,4
    c858:	02c0006f          	jal	x0,c884 <__rshift_D2A+0xbc>
    c85c:	00030713          	addi	x14,x6,0
    c860:	f6c7fae3          	bgeu	x15,x12,c7d4 <__rshift_D2A+0xc>
    c864:	0007a683          	lw	x13,0(x15)
    c868:	00478793          	addi	x15,x15,4
    c86c:	00470713          	addi	x14,x14,4
    c870:	fed72e23          	sw	x13,-4(x14)
    c874:	fec7e8e3          	bltu	x15,x12,c864 <__rshift_D2A+0x9c>
    c878:	41c80833          	sub	x16,x16,x28
    c87c:	00281813          	slli	x16,x16,0x2
    c880:	01030833          	add	x16,x6,x16
    c884:	406807b3          	sub	x15,x16,x6
    c888:	4027d793          	srai	x15,x15,0x2
    c88c:	00f52823          	sw	x15,16(x10)
    c890:	f46804e3          	beq	x16,x6,c7d8 <__rshift_D2A+0x10>
    c894:	00008067          	jalr	x0,0(x1)
    c898:	00d52a23          	sw	x13,20(x10)
    c89c:	f2068ce3          	beq	x13,x0,c7d4 <__rshift_D2A+0xc>
    c8a0:	00030813          	addi	x16,x6,0
    c8a4:	00480813          	addi	x16,x16,4
    c8a8:	fddff06f          	jal	x0,c884 <__rshift_D2A+0xbc>

0000c8ac <__trailz_D2A>:
    c8ac:	01052703          	lw	x14,16(x10)
    c8b0:	fe010113          	addi	x2,x2,-32
    c8b4:	01450513          	addi	x10,x10,20
    c8b8:	00271713          	slli	x14,x14,0x2
    c8bc:	00812c23          	sw	x8,24(x2)
    c8c0:	00112e23          	sw	x1,28(x2)
    c8c4:	00e50733          	add	x14,x10,x14
    c8c8:	00000413          	addi	x8,x0,0
    c8cc:	00e56a63          	bltu	x10,x14,c8e0 <__trailz_D2A+0x34>
    c8d0:	02c0006f          	jal	x0,c8fc <__trailz_D2A+0x50>
    c8d4:	00450513          	addi	x10,x10,4
    c8d8:	02040413          	addi	x8,x8,32
    c8dc:	02e57063          	bgeu	x10,x14,c8fc <__trailz_D2A+0x50>
    c8e0:	00052783          	lw	x15,0(x10)
    c8e4:	fe0788e3          	beq	x15,x0,c8d4 <__trailz_D2A+0x28>
    c8e8:	00e57a63          	bgeu	x10,x14,c8fc <__trailz_D2A+0x50>
    c8ec:	00c10513          	addi	x10,x2,12
    c8f0:	00f12623          	sw	x15,12(x2)
    c8f4:	884ff0ef          	jal	x1,b978 <__lo0bits>
    c8f8:	00a40433          	add	x8,x8,x10
    c8fc:	01c12083          	lw	x1,28(x2)
    c900:	00040513          	addi	x10,x8,0
    c904:	01812403          	lw	x8,24(x2)
    c908:	02010113          	addi	x2,x2,32
    c90c:	00008067          	jalr	x0,0(x1)

0000c910 <_wcrtomb_r>:
    c910:	fe010113          	addi	x2,x2,-32
    c914:	00812c23          	sw	x8,24(x2)
    c918:	00912a23          	sw	x9,20(x2)
    c91c:	00112e23          	sw	x1,28(x2)
    c920:	00050413          	addi	x8,x10,0
    c924:	00068493          	addi	x9,x13,0
    c928:	e601a783          	lw	x15,-416(x3) # 142b0 <__global_locale+0xe0>
    c92c:	02058263          	beq	x11,x0,c950 <_wcrtomb_r+0x40>
    c930:	000780e7          	jalr	x1,0(x15)
    c934:	fff00793          	addi	x15,x0,-1
    c938:	02f50663          	beq	x10,x15,c964 <_wcrtomb_r+0x54>
    c93c:	01c12083          	lw	x1,28(x2)
    c940:	01812403          	lw	x8,24(x2)
    c944:	01412483          	lw	x9,20(x2)
    c948:	02010113          	addi	x2,x2,32
    c94c:	00008067          	jalr	x0,0(x1)
    c950:	00000613          	addi	x12,x0,0
    c954:	00410593          	addi	x11,x2,4
    c958:	000780e7          	jalr	x1,0(x15)
    c95c:	fff00793          	addi	x15,x0,-1
    c960:	fcf51ee3          	bne	x10,x15,c93c <_wcrtomb_r+0x2c>
    c964:	0004a023          	sw	x0,0(x9)
    c968:	08a00793          	addi	x15,x0,138
    c96c:	01c12083          	lw	x1,28(x2)
    c970:	00f42023          	sw	x15,0(x8)
    c974:	01812403          	lw	x8,24(x2)
    c978:	01412483          	lw	x9,20(x2)
    c97c:	02010113          	addi	x2,x2,32
    c980:	00008067          	jalr	x0,0(x1)

0000c984 <wcrtomb>:
    c984:	fe010113          	addi	x2,x2,-32
    c988:	00812c23          	sw	x8,24(x2)
    c98c:	00912a23          	sw	x9,20(x2)
    c990:	00112e23          	sw	x1,28(x2)
    c994:	00060413          	addi	x8,x12,0
    c998:	f5c1a483          	lw	x9,-164(x3) # 143ac <_impure_ptr>
    c99c:	e601a783          	lw	x15,-416(x3) # 142b0 <__global_locale+0xe0>
    c9a0:	02050a63          	beq	x10,x0,c9d4 <wcrtomb+0x50>
    c9a4:	00058613          	addi	x12,x11,0
    c9a8:	00040693          	addi	x13,x8,0
    c9ac:	00050593          	addi	x11,x10,0
    c9b0:	00048513          	addi	x10,x9,0
    c9b4:	000780e7          	jalr	x1,0(x15)
    c9b8:	fff00793          	addi	x15,x0,-1
    c9bc:	02f50a63          	beq	x10,x15,c9f0 <wcrtomb+0x6c>
    c9c0:	01c12083          	lw	x1,28(x2)
    c9c4:	01812403          	lw	x8,24(x2)
    c9c8:	01412483          	lw	x9,20(x2)
    c9cc:	02010113          	addi	x2,x2,32
    c9d0:	00008067          	jalr	x0,0(x1)
    c9d4:	00060693          	addi	x13,x12,0
    c9d8:	00410593          	addi	x11,x2,4
    c9dc:	00000613          	addi	x12,x0,0
    c9e0:	00048513          	addi	x10,x9,0
    c9e4:	000780e7          	jalr	x1,0(x15)
    c9e8:	fff00793          	addi	x15,x0,-1
    c9ec:	fcf51ae3          	bne	x10,x15,c9c0 <wcrtomb+0x3c>
    c9f0:	00042023          	sw	x0,0(x8)
    c9f4:	01c12083          	lw	x1,28(x2)
    c9f8:	01812403          	lw	x8,24(x2)
    c9fc:	08a00793          	addi	x15,x0,138
    ca00:	00f4a023          	sw	x15,0(x9)
    ca04:	01412483          	lw	x9,20(x2)
    ca08:	02010113          	addi	x2,x2,32
    ca0c:	00008067          	jalr	x0,0(x1)

0000ca10 <_setlocale_r>:
    ca10:	04060063          	beq	x12,x0,ca50 <_setlocale_r+0x40>
    ca14:	ff010113          	addi	x2,x2,-16
    ca18:	00007597          	auipc	x11,0x7
    ca1c:	8cc58593          	addi	x11,x11,-1844 # 132e4 <__clzsi2+0x57c>
    ca20:	00060513          	addi	x10,x12,0
    ca24:	00812423          	sw	x8,8(x2)
    ca28:	00112623          	sw	x1,12(x2)
    ca2c:	00060413          	addi	x8,x12,0
    ca30:	4b8000ef          	jal	x1,cee8 <strcmp>
    ca34:	02051463          	bne	x10,x0,ca5c <_setlocale_r+0x4c>
    ca38:	00007517          	auipc	x10,0x7
    ca3c:	8a850513          	addi	x10,x10,-1880 # 132e0 <__clzsi2+0x578>
    ca40:	00c12083          	lw	x1,12(x2)
    ca44:	00812403          	lw	x8,8(x2)
    ca48:	01010113          	addi	x2,x2,16
    ca4c:	00008067          	jalr	x0,0(x1)
    ca50:	00007517          	auipc	x10,0x7
    ca54:	89050513          	addi	x10,x10,-1904 # 132e0 <__clzsi2+0x578>
    ca58:	00008067          	jalr	x0,0(x1)
    ca5c:	00007597          	auipc	x11,0x7
    ca60:	88458593          	addi	x11,x11,-1916 # 132e0 <__clzsi2+0x578>
    ca64:	00040513          	addi	x10,x8,0
    ca68:	480000ef          	jal	x1,cee8 <strcmp>
    ca6c:	fc0506e3          	beq	x10,x0,ca38 <_setlocale_r+0x28>
    ca70:	00006597          	auipc	x11,0x6
    ca74:	4d858593          	addi	x11,x11,1240 # 12f48 <__clzsi2+0x1e0>
    ca78:	00040513          	addi	x10,x8,0
    ca7c:	46c000ef          	jal	x1,cee8 <strcmp>
    ca80:	fa050ce3          	beq	x10,x0,ca38 <_setlocale_r+0x28>
    ca84:	00000513          	addi	x10,x0,0
    ca88:	fb9ff06f          	jal	x0,ca40 <_setlocale_r+0x30>

0000ca8c <__locale_mb_cur_max>:
    ca8c:	ea81c503          	lbu	x10,-344(x3) # 142f8 <__global_locale+0x128>
    ca90:	00008067          	jalr	x0,0(x1)

0000ca94 <setlocale>:
    ca94:	04058063          	beq	x11,x0,cad4 <setlocale+0x40>
    ca98:	ff010113          	addi	x2,x2,-16
    ca9c:	00812423          	sw	x8,8(x2)
    caa0:	00058413          	addi	x8,x11,0
    caa4:	00040513          	addi	x10,x8,0
    caa8:	00007597          	auipc	x11,0x7
    caac:	83c58593          	addi	x11,x11,-1988 # 132e4 <__clzsi2+0x57c>
    cab0:	00112623          	sw	x1,12(x2)
    cab4:	434000ef          	jal	x1,cee8 <strcmp>
    cab8:	02051463          	bne	x10,x0,cae0 <setlocale+0x4c>
    cabc:	00007517          	auipc	x10,0x7
    cac0:	82450513          	addi	x10,x10,-2012 # 132e0 <__clzsi2+0x578>
    cac4:	00c12083          	lw	x1,12(x2)
    cac8:	00812403          	lw	x8,8(x2)
    cacc:	01010113          	addi	x2,x2,16
    cad0:	00008067          	jalr	x0,0(x1)
    cad4:	00007517          	auipc	x10,0x7
    cad8:	80c50513          	addi	x10,x10,-2036 # 132e0 <__clzsi2+0x578>
    cadc:	00008067          	jalr	x0,0(x1)
    cae0:	00007597          	auipc	x11,0x7
    cae4:	80058593          	addi	x11,x11,-2048 # 132e0 <__clzsi2+0x578>
    cae8:	00040513          	addi	x10,x8,0
    caec:	3fc000ef          	jal	x1,cee8 <strcmp>
    caf0:	fc0506e3          	beq	x10,x0,cabc <setlocale+0x28>
    caf4:	00006597          	auipc	x11,0x6
    caf8:	45458593          	addi	x11,x11,1108 # 12f48 <__clzsi2+0x1e0>
    cafc:	00040513          	addi	x10,x8,0
    cb00:	3e8000ef          	jal	x1,cee8 <strcmp>
    cb04:	fa050ce3          	beq	x10,x0,cabc <setlocale+0x28>
    cb08:	00000513          	addi	x10,x0,0
    cb0c:	fb9ff06f          	jal	x0,cac4 <setlocale+0x30>

0000cb10 <_calloc_r>:
    cb10:	02c5b7b3          	mulhu	x15,x11,x12
    cb14:	ff010113          	addi	x2,x2,-16
    cb18:	00112623          	sw	x1,12(x2)
    cb1c:	00812423          	sw	x8,8(x2)
    cb20:	02c585b3          	mul	x11,x11,x12
    cb24:	0a079063          	bne	x15,x0,cbc4 <_calloc_r+0xb4>
    cb28:	dd9f50ef          	jal	x1,2900 <_malloc_r>
    cb2c:	00050413          	addi	x8,x10,0
    cb30:	0a050063          	beq	x10,x0,cbd0 <_calloc_r+0xc0>
    cb34:	ffc52603          	lw	x12,-4(x10)
    cb38:	02400713          	addi	x14,x0,36
    cb3c:	ffc67613          	andi	x12,x12,-4
    cb40:	ffc60613          	addi	x12,x12,-4
    cb44:	04c76863          	bltu	x14,x12,cb94 <_calloc_r+0x84>
    cb48:	01300693          	addi	x13,x0,19
    cb4c:	00050793          	addi	x15,x10,0
    cb50:	02c6f263          	bgeu	x13,x12,cb74 <_calloc_r+0x64>
    cb54:	00052023          	sw	x0,0(x10)
    cb58:	00052223          	sw	x0,4(x10)
    cb5c:	01b00793          	addi	x15,x0,27
    cb60:	04c7f863          	bgeu	x15,x12,cbb0 <_calloc_r+0xa0>
    cb64:	00052423          	sw	x0,8(x10)
    cb68:	00052623          	sw	x0,12(x10)
    cb6c:	01050793          	addi	x15,x10,16
    cb70:	06e60c63          	beq	x12,x14,cbe8 <_calloc_r+0xd8>
    cb74:	0007a023          	sw	x0,0(x15)
    cb78:	0007a223          	sw	x0,4(x15)
    cb7c:	0007a423          	sw	x0,8(x15)
    cb80:	00c12083          	lw	x1,12(x2)
    cb84:	00040513          	addi	x10,x8,0
    cb88:	00812403          	lw	x8,8(x2)
    cb8c:	01010113          	addi	x2,x2,16
    cb90:	00008067          	jalr	x0,0(x1)
    cb94:	00000593          	addi	x11,x0,0
    cb98:	b19f60ef          	jal	x1,36b0 <memset>
    cb9c:	00c12083          	lw	x1,12(x2)
    cba0:	00040513          	addi	x10,x8,0
    cba4:	00812403          	lw	x8,8(x2)
    cba8:	01010113          	addi	x2,x2,16
    cbac:	00008067          	jalr	x0,0(x1)
    cbb0:	00850793          	addi	x15,x10,8
    cbb4:	0007a023          	sw	x0,0(x15)
    cbb8:	0007a223          	sw	x0,4(x15)
    cbbc:	0007a423          	sw	x0,8(x15)
    cbc0:	fc1ff06f          	jal	x0,cb80 <_calloc_r+0x70>
    cbc4:	08c000ef          	jal	x1,cc50 <__errno>
    cbc8:	00c00793          	addi	x15,x0,12
    cbcc:	00f52023          	sw	x15,0(x10)
    cbd0:	00000413          	addi	x8,x0,0
    cbd4:	00c12083          	lw	x1,12(x2)
    cbd8:	00040513          	addi	x10,x8,0
    cbdc:	00812403          	lw	x8,8(x2)
    cbe0:	01010113          	addi	x2,x2,16
    cbe4:	00008067          	jalr	x0,0(x1)
    cbe8:	00052823          	sw	x0,16(x10)
    cbec:	01850793          	addi	x15,x10,24
    cbf0:	00052a23          	sw	x0,20(x10)
    cbf4:	f81ff06f          	jal	x0,cb74 <_calloc_r+0x64>

0000cbf8 <_fstat_r>:
    cbf8:	ff010113          	addi	x2,x2,-16
    cbfc:	00058713          	addi	x14,x11,0
    cc00:	00812423          	sw	x8,8(x2)
    cc04:	00060593          	addi	x11,x12,0
    cc08:	00050413          	addi	x8,x10,0
    cc0c:	00070513          	addi	x10,x14,0
    cc10:	f601ae23          	sw	x0,-132(x3) # 143cc <errno>
    cc14:	00112623          	sw	x1,12(x2)
    cc18:	f55f40ef          	jal	x1,1b6c <_fstat>
    cc1c:	fff00793          	addi	x15,x0,-1
    cc20:	00f50a63          	beq	x10,x15,cc34 <_fstat_r+0x3c>
    cc24:	00c12083          	lw	x1,12(x2)
    cc28:	00812403          	lw	x8,8(x2)
    cc2c:	01010113          	addi	x2,x2,16
    cc30:	00008067          	jalr	x0,0(x1)
    cc34:	f7c1a783          	lw	x15,-132(x3) # 143cc <errno>
    cc38:	fe0786e3          	beq	x15,x0,cc24 <_fstat_r+0x2c>
    cc3c:	00c12083          	lw	x1,12(x2)
    cc40:	00f42023          	sw	x15,0(x8)
    cc44:	00812403          	lw	x8,8(x2)
    cc48:	01010113          	addi	x2,x2,16
    cc4c:	00008067          	jalr	x0,0(x1)

0000cc50 <__errno>:
    cc50:	f5c1a503          	lw	x10,-164(x3) # 143ac <_impure_ptr>
    cc54:	00008067          	jalr	x0,0(x1)

0000cc58 <_isatty_r>:
    cc58:	ff010113          	addi	x2,x2,-16
    cc5c:	00812423          	sw	x8,8(x2)
    cc60:	00050413          	addi	x8,x10,0
    cc64:	00058513          	addi	x10,x11,0
    cc68:	f601ae23          	sw	x0,-132(x3) # 143cc <errno>
    cc6c:	00112623          	sw	x1,12(x2)
    cc70:	f39f40ef          	jal	x1,1ba8 <_isatty>
    cc74:	fff00793          	addi	x15,x0,-1
    cc78:	00f50a63          	beq	x10,x15,cc8c <_isatty_r+0x34>
    cc7c:	00c12083          	lw	x1,12(x2)
    cc80:	00812403          	lw	x8,8(x2)
    cc84:	01010113          	addi	x2,x2,16
    cc88:	00008067          	jalr	x0,0(x1)
    cc8c:	f7c1a783          	lw	x15,-132(x3) # 143cc <errno>
    cc90:	fe0786e3          	beq	x15,x0,cc7c <_isatty_r+0x24>
    cc94:	00c12083          	lw	x1,12(x2)
    cc98:	00f42023          	sw	x15,0(x8)
    cc9c:	00812403          	lw	x8,8(x2)
    cca0:	01010113          	addi	x2,x2,16
    cca4:	00008067          	jalr	x0,0(x1)

0000cca8 <_wctomb_r>:
    cca8:	e601a783          	lw	x15,-416(x3) # 142b0 <__global_locale+0xe0>
    ccac:	00078067          	jalr	x0,0(x15)

0000ccb0 <__ascii_wctomb>:
    ccb0:	02058463          	beq	x11,x0,ccd8 <__ascii_wctomb+0x28>
    ccb4:	0ff00793          	addi	x15,x0,255
    ccb8:	00c7e863          	bltu	x15,x12,ccc8 <__ascii_wctomb+0x18>
    ccbc:	00c58023          	sb	x12,0(x11)
    ccc0:	00100513          	addi	x10,x0,1
    ccc4:	00008067          	jalr	x0,0(x1)
    ccc8:	08a00793          	addi	x15,x0,138
    cccc:	00f52023          	sw	x15,0(x10)
    ccd0:	fff00513          	addi	x10,x0,-1
    ccd4:	00008067          	jalr	x0,0(x1)
    ccd8:	00000513          	addi	x10,x0,0
    ccdc:	00008067          	jalr	x0,0(x1)

0000cce0 <__swbuf_r>:
    cce0:	fe010113          	addi	x2,x2,-32
    cce4:	00812c23          	sw	x8,24(x2)
    cce8:	00912a23          	sw	x9,20(x2)
    ccec:	01212823          	sw	x18,16(x2)
    ccf0:	00112e23          	sw	x1,28(x2)
    ccf4:	00050913          	addi	x18,x10,0
    ccf8:	00058493          	addi	x9,x11,0
    ccfc:	00060413          	addi	x8,x12,0
    cd00:	00050663          	beq	x10,x0,cd0c <__swbuf_r+0x2c>
    cd04:	03452783          	lw	x15,52(x10)
    cd08:	16078063          	beq	x15,x0,ce68 <__swbuf_r+0x188>
    cd0c:	01842783          	lw	x15,24(x8)
    cd10:	00c41703          	lh	x14,12(x8)
    cd14:	00f42423          	sw	x15,8(x8)
    cd18:	00877793          	andi	x15,x14,8
    cd1c:	08078063          	beq	x15,x0,cd9c <__swbuf_r+0xbc>
    cd20:	01042783          	lw	x15,16(x8)
    cd24:	06078c63          	beq	x15,x0,cd9c <__swbuf_r+0xbc>
    cd28:	01312623          	sw	x19,12(x2)
    cd2c:	01271693          	slli	x13,x14,0x12
    cd30:	0ff4f993          	andi	x19,x9,255
    cd34:	0ff4f493          	andi	x9,x9,255
    cd38:	0806d863          	bge	x13,x0,cdc8 <__swbuf_r+0xe8>
    cd3c:	00042703          	lw	x14,0(x8)
    cd40:	01442683          	lw	x13,20(x8)
    cd44:	40f707b3          	sub	x15,x14,x15
    cd48:	0ad7d863          	bge	x15,x13,cdf8 <__swbuf_r+0x118>
    cd4c:	00842683          	lw	x13,8(x8)
    cd50:	00170613          	addi	x12,x14,1
    cd54:	00c42023          	sw	x12,0(x8)
    cd58:	fff68693          	addi	x13,x13,-1
    cd5c:	00d42423          	sw	x13,8(x8)
    cd60:	01370023          	sb	x19,0(x14)
    cd64:	01442703          	lw	x14,20(x8)
    cd68:	00178793          	addi	x15,x15,1
    cd6c:	0cf70263          	beq	x14,x15,ce30 <__swbuf_r+0x150>
    cd70:	00c45783          	lhu	x15,12(x8)
    cd74:	0017f793          	andi	x15,x15,1
    cd78:	0c079a63          	bne	x15,x0,ce4c <__swbuf_r+0x16c>
    cd7c:	00c12983          	lw	x19,12(x2)
    cd80:	01c12083          	lw	x1,28(x2)
    cd84:	01812403          	lw	x8,24(x2)
    cd88:	01012903          	lw	x18,16(x2)
    cd8c:	00048513          	addi	x10,x9,0
    cd90:	01412483          	lw	x9,20(x2)
    cd94:	02010113          	addi	x2,x2,32
    cd98:	00008067          	jalr	x0,0(x1)
    cd9c:	00040593          	addi	x11,x8,0
    cda0:	00090513          	addi	x10,x18,0
    cda4:	c14f70ef          	jal	x1,41b8 <__swsetup_r>
    cda8:	08051e63          	bne	x10,x0,ce44 <__swbuf_r+0x164>
    cdac:	00c41703          	lh	x14,12(x8)
    cdb0:	01312623          	sw	x19,12(x2)
    cdb4:	01042783          	lw	x15,16(x8)
    cdb8:	01271693          	slli	x13,x14,0x12
    cdbc:	0ff4f993          	andi	x19,x9,255
    cdc0:	0ff4f493          	andi	x9,x9,255
    cdc4:	f606cce3          	blt	x13,x0,cd3c <__swbuf_r+0x5c>
    cdc8:	06442683          	lw	x13,100(x8)
    cdcc:	ffffe637          	lui	x12,0xffffe
    cdd0:	000025b7          	lui	x11,0x2
    cdd4:	00b76733          	or	x14,x14,x11
    cdd8:	fff60613          	addi	x12,x12,-1 # ffffdfff <__heap_end+0xffbfdfff>
    cddc:	00c6f6b3          	and	x13,x13,x12
    cde0:	00e41623          	sh	x14,12(x8)
    cde4:	00042703          	lw	x14,0(x8)
    cde8:	06d42223          	sw	x13,100(x8)
    cdec:	01442683          	lw	x13,20(x8)
    cdf0:	40f707b3          	sub	x15,x14,x15
    cdf4:	f4d7cce3          	blt	x15,x13,cd4c <__swbuf_r+0x6c>
    cdf8:	00040593          	addi	x11,x8,0
    cdfc:	00090513          	addi	x10,x18,0
    ce00:	9fcf70ef          	jal	x1,3ffc <_fflush_r>
    ce04:	02051e63          	bne	x10,x0,ce40 <__swbuf_r+0x160>
    ce08:	00042703          	lw	x14,0(x8)
    ce0c:	00842683          	lw	x13,8(x8)
    ce10:	00100793          	addi	x15,x0,1
    ce14:	00170613          	addi	x12,x14,1
    ce18:	fff68693          	addi	x13,x13,-1
    ce1c:	00c42023          	sw	x12,0(x8)
    ce20:	00d42423          	sw	x13,8(x8)
    ce24:	01370023          	sb	x19,0(x14)
    ce28:	01442703          	lw	x14,20(x8)
    ce2c:	f4f712e3          	bne	x14,x15,cd70 <__swbuf_r+0x90>
    ce30:	00040593          	addi	x11,x8,0
    ce34:	00090513          	addi	x10,x18,0
    ce38:	9c4f70ef          	jal	x1,3ffc <_fflush_r>
    ce3c:	f40500e3          	beq	x10,x0,cd7c <__swbuf_r+0x9c>
    ce40:	00c12983          	lw	x19,12(x2)
    ce44:	fff00493          	addi	x9,x0,-1
    ce48:	f39ff06f          	jal	x0,cd80 <__swbuf_r+0xa0>
    ce4c:	00a00793          	addi	x15,x0,10
    ce50:	f2f496e3          	bne	x9,x15,cd7c <__swbuf_r+0x9c>
    ce54:	00040593          	addi	x11,x8,0
    ce58:	00090513          	addi	x10,x18,0
    ce5c:	9a0f70ef          	jal	x1,3ffc <_fflush_r>
    ce60:	f0050ee3          	beq	x10,x0,cd7c <__swbuf_r+0x9c>
    ce64:	fddff06f          	jal	x0,ce40 <__swbuf_r+0x160>
    ce68:	c18f50ef          	jal	x1,2280 <__sinit>
    ce6c:	ea1ff06f          	jal	x0,cd0c <__swbuf_r+0x2c>

0000ce70 <__swbuf>:
    ce70:	00058613          	addi	x12,x11,0 # 2000 <__fp_unlock+0x4>
    ce74:	00050593          	addi	x11,x10,0
    ce78:	f5c1a503          	lw	x10,-164(x3) # 143ac <_impure_ptr>
    ce7c:	e65ff06f          	jal	x0,cce0 <__swbuf_r>

0000ce80 <__assert_func>:
    ce80:	ff010113          	addi	x2,x2,-16
    ce84:	00068793          	addi	x15,x13,0
    ce88:	f5c1a703          	lw	x14,-164(x3) # 143ac <_impure_ptr>
    ce8c:	00060813          	addi	x16,x12,0
    ce90:	00112623          	sw	x1,12(x2)
    ce94:	00c72883          	lw	x17,12(x14)
    ce98:	00078613          	addi	x12,x15,0
    ce9c:	00050693          	addi	x13,x10,0
    cea0:	00058713          	addi	x14,x11,0
    cea4:	00006797          	auipc	x15,0x6
    cea8:	44c78793          	addi	x15,x15,1100 # 132f0 <__clzsi2+0x588>
    ceac:	00080c63          	beq	x16,x0,cec4 <__assert_func+0x44>
    ceb0:	00006597          	auipc	x11,0x6
    ceb4:	45058593          	addi	x11,x11,1104 # 13300 <__clzsi2+0x598>
    ceb8:	00088513          	addi	x10,x17,0
    cebc:	268000ef          	jal	x1,d124 <fiprintf>
    cec0:	214000ef          	jal	x1,d0d4 <abort>
    cec4:	00006797          	auipc	x15,0x6
    cec8:	08478793          	addi	x15,x15,132 # 12f48 <__clzsi2+0x1e0>
    cecc:	00078813          	addi	x16,x15,0
    ced0:	fe1ff06f          	jal	x0,ceb0 <__assert_func+0x30>

0000ced4 <__assert>:
    ced4:	ff010113          	addi	x2,x2,-16
    ced8:	00060693          	addi	x13,x12,0
    cedc:	00000613          	addi	x12,x0,0
    cee0:	00112623          	sw	x1,12(x2)
    cee4:	f9dff0ef          	jal	x1,ce80 <__assert_func>

0000cee8 <strcmp>:
    cee8:	00b56733          	or	x14,x10,x11
    ceec:	fff00393          	addi	x7,x0,-1
    cef0:	00377713          	andi	x14,x14,3
    cef4:	10071063          	bne	x14,x0,cff4 <strcmp+0x10c>
    cef8:	7f7f87b7          	lui	x15,0x7f7f8
    cefc:	f7f78793          	addi	x15,x15,-129 # 7f7f7f7f <__heap_end+0x7f3f7f7f>
    cf00:	00052603          	lw	x12,0(x10)
    cf04:	0005a683          	lw	x13,0(x11)
    cf08:	00f672b3          	and	x5,x12,x15
    cf0c:	00f66333          	or	x6,x12,x15
    cf10:	00f282b3          	add	x5,x5,x15
    cf14:	0062e2b3          	or	x5,x5,x6
    cf18:	10729263          	bne	x5,x7,d01c <strcmp+0x134>
    cf1c:	08d61663          	bne	x12,x13,cfa8 <strcmp+0xc0>
    cf20:	00452603          	lw	x12,4(x10)
    cf24:	0045a683          	lw	x13,4(x11)
    cf28:	00f672b3          	and	x5,x12,x15
    cf2c:	00f66333          	or	x6,x12,x15
    cf30:	00f282b3          	add	x5,x5,x15
    cf34:	0062e2b3          	or	x5,x5,x6
    cf38:	0c729e63          	bne	x5,x7,d014 <strcmp+0x12c>
    cf3c:	06d61663          	bne	x12,x13,cfa8 <strcmp+0xc0>
    cf40:	00852603          	lw	x12,8(x10)
    cf44:	0085a683          	lw	x13,8(x11)
    cf48:	00f672b3          	and	x5,x12,x15
    cf4c:	00f66333          	or	x6,x12,x15
    cf50:	00f282b3          	add	x5,x5,x15
    cf54:	0062e2b3          	or	x5,x5,x6
    cf58:	0c729863          	bne	x5,x7,d028 <strcmp+0x140>
    cf5c:	04d61663          	bne	x12,x13,cfa8 <strcmp+0xc0>
    cf60:	00c52603          	lw	x12,12(x10)
    cf64:	00c5a683          	lw	x13,12(x11)
    cf68:	00f672b3          	and	x5,x12,x15
    cf6c:	00f66333          	or	x6,x12,x15
    cf70:	00f282b3          	add	x5,x5,x15
    cf74:	0062e2b3          	or	x5,x5,x6
    cf78:	0c729263          	bne	x5,x7,d03c <strcmp+0x154>
    cf7c:	02d61663          	bne	x12,x13,cfa8 <strcmp+0xc0>
    cf80:	01052603          	lw	x12,16(x10)
    cf84:	0105a683          	lw	x13,16(x11)
    cf88:	00f672b3          	and	x5,x12,x15
    cf8c:	00f66333          	or	x6,x12,x15
    cf90:	00f282b3          	add	x5,x5,x15
    cf94:	0062e2b3          	or	x5,x5,x6
    cf98:	0a729c63          	bne	x5,x7,d050 <strcmp+0x168>
    cf9c:	01450513          	addi	x10,x10,20
    cfa0:	01458593          	addi	x11,x11,20
    cfa4:	f4d60ee3          	beq	x12,x13,cf00 <strcmp+0x18>
    cfa8:	01061713          	slli	x14,x12,0x10
    cfac:	01069793          	slli	x15,x13,0x10
    cfb0:	00f71e63          	bne	x14,x15,cfcc <strcmp+0xe4>
    cfb4:	01065713          	srli	x14,x12,0x10
    cfb8:	0106d793          	srli	x15,x13,0x10
    cfbc:	40f70533          	sub	x10,x14,x15
    cfc0:	0ff57593          	andi	x11,x10,255
    cfc4:	02059063          	bne	x11,x0,cfe4 <strcmp+0xfc>
    cfc8:	00008067          	jalr	x0,0(x1)
    cfcc:	01075713          	srli	x14,x14,0x10
    cfd0:	0107d793          	srli	x15,x15,0x10
    cfd4:	40f70533          	sub	x10,x14,x15
    cfd8:	0ff57593          	andi	x11,x10,255
    cfdc:	00059463          	bne	x11,x0,cfe4 <strcmp+0xfc>
    cfe0:	00008067          	jalr	x0,0(x1)
    cfe4:	0ff77713          	andi	x14,x14,255
    cfe8:	0ff7f793          	andi	x15,x15,255
    cfec:	40f70533          	sub	x10,x14,x15
    cff0:	00008067          	jalr	x0,0(x1)
    cff4:	00054603          	lbu	x12,0(x10)
    cff8:	0005c683          	lbu	x13,0(x11)
    cffc:	00150513          	addi	x10,x10,1
    d000:	00158593          	addi	x11,x11,1
    d004:	00d61463          	bne	x12,x13,d00c <strcmp+0x124>
    d008:	fe0616e3          	bne	x12,x0,cff4 <strcmp+0x10c>
    d00c:	40d60533          	sub	x10,x12,x13
    d010:	00008067          	jalr	x0,0(x1)
    d014:	00450513          	addi	x10,x10,4
    d018:	00458593          	addi	x11,x11,4
    d01c:	fcd61ce3          	bne	x12,x13,cff4 <strcmp+0x10c>
    d020:	00000513          	addi	x10,x0,0
    d024:	00008067          	jalr	x0,0(x1)
    d028:	00850513          	addi	x10,x10,8
    d02c:	00858593          	addi	x11,x11,8
    d030:	fcd612e3          	bne	x12,x13,cff4 <strcmp+0x10c>
    d034:	00000513          	addi	x10,x0,0
    d038:	00008067          	jalr	x0,0(x1)
    d03c:	00c50513          	addi	x10,x10,12
    d040:	00c58593          	addi	x11,x11,12
    d044:	fad618e3          	bne	x12,x13,cff4 <strcmp+0x10c>
    d048:	00000513          	addi	x10,x0,0
    d04c:	00008067          	jalr	x0,0(x1)
    d050:	01050513          	addi	x10,x10,16
    d054:	01058593          	addi	x11,x11,16
    d058:	f8d61ee3          	bne	x12,x13,cff4 <strcmp+0x10c>
    d05c:	00000513          	addi	x10,x0,0
    d060:	00008067          	jalr	x0,0(x1)

0000d064 <_mbtowc_r>:
    d064:	e641a783          	lw	x15,-412(x3) # 142b4 <__global_locale+0xe4>
    d068:	00078067          	jalr	x0,0(x15)

0000d06c <__ascii_mbtowc>:
    d06c:	02058063          	beq	x11,x0,d08c <__ascii_mbtowc+0x20>
    d070:	04060263          	beq	x12,x0,d0b4 <__ascii_mbtowc+0x48>
    d074:	04068863          	beq	x13,x0,d0c4 <__ascii_mbtowc+0x58>
    d078:	00064783          	lbu	x15,0(x12)
    d07c:	00f5a023          	sw	x15,0(x11)
    d080:	00064503          	lbu	x10,0(x12)
    d084:	00a03533          	sltu	x10,x0,x10
    d088:	00008067          	jalr	x0,0(x1)
    d08c:	ff010113          	addi	x2,x2,-16
    d090:	00c10593          	addi	x11,x2,12
    d094:	02060463          	beq	x12,x0,d0bc <__ascii_mbtowc+0x50>
    d098:	02068a63          	beq	x13,x0,d0cc <__ascii_mbtowc+0x60>
    d09c:	00064783          	lbu	x15,0(x12)
    d0a0:	00f5a023          	sw	x15,0(x11)
    d0a4:	00064503          	lbu	x10,0(x12)
    d0a8:	00a03533          	sltu	x10,x0,x10
    d0ac:	01010113          	addi	x2,x2,16
    d0b0:	00008067          	jalr	x0,0(x1)
    d0b4:	00000513          	addi	x10,x0,0
    d0b8:	00008067          	jalr	x0,0(x1)
    d0bc:	00000513          	addi	x10,x0,0
    d0c0:	fedff06f          	jal	x0,d0ac <__ascii_mbtowc+0x40>
    d0c4:	ffe00513          	addi	x10,x0,-2
    d0c8:	00008067          	jalr	x0,0(x1)
    d0cc:	ffe00513          	addi	x10,x0,-2
    d0d0:	fddff06f          	jal	x0,d0ac <__ascii_mbtowc+0x40>

0000d0d4 <abort>:
    d0d4:	ff010113          	addi	x2,x2,-16
    d0d8:	00600513          	addi	x10,x0,6
    d0dc:	00112623          	sw	x1,12(x2)
    d0e0:	328000ef          	jal	x1,d408 <raise>
    d0e4:	00100513          	addi	x10,x0,1
    d0e8:	a63f40ef          	jal	x1,1b4a <_exit>

0000d0ec <_fiprintf_r>:
    d0ec:	fc010113          	addi	x2,x2,-64
    d0f0:	02c10313          	addi	x6,x2,44
    d0f4:	02d12623          	sw	x13,44(x2)
    d0f8:	00030693          	addi	x13,x6,0
    d0fc:	00112e23          	sw	x1,28(x2)
    d100:	02e12823          	sw	x14,48(x2)
    d104:	02f12a23          	sw	x15,52(x2)
    d108:	03012c23          	sw	x16,56(x2)
    d10c:	03112e23          	sw	x17,60(x2)
    d110:	00612623          	sw	x6,12(x2)
    d114:	ed4fa0ef          	jal	x1,77e8 <_vfiprintf_r>
    d118:	01c12083          	lw	x1,28(x2)
    d11c:	04010113          	addi	x2,x2,64
    d120:	00008067          	jalr	x0,0(x1)

0000d124 <fiprintf>:
    d124:	fc010113          	addi	x2,x2,-64
    d128:	02810313          	addi	x6,x2,40
    d12c:	02c12423          	sw	x12,40(x2)
    d130:	02d12623          	sw	x13,44(x2)
    d134:	00058613          	addi	x12,x11,0
    d138:	00030693          	addi	x13,x6,0
    d13c:	00050593          	addi	x11,x10,0
    d140:	f5c1a503          	lw	x10,-164(x3) # 143ac <_impure_ptr>
    d144:	00112e23          	sw	x1,28(x2)
    d148:	02e12823          	sw	x14,48(x2)
    d14c:	02f12a23          	sw	x15,52(x2)
    d150:	03012c23          	sw	x16,56(x2)
    d154:	03112e23          	sw	x17,60(x2)
    d158:	00612623          	sw	x6,12(x2)
    d15c:	e8cfa0ef          	jal	x1,77e8 <_vfiprintf_r>
    d160:	01c12083          	lw	x1,28(x2)
    d164:	04010113          	addi	x2,x2,64
    d168:	00008067          	jalr	x0,0(x1)

0000d16c <_init_signal_r>:
    d16c:	11852783          	lw	x15,280(x10)
    d170:	00078663          	beq	x15,x0,d17c <_init_signal_r+0x10>
    d174:	00000513          	addi	x10,x0,0
    d178:	00008067          	jalr	x0,0(x1)
    d17c:	ff010113          	addi	x2,x2,-16
    d180:	08000593          	addi	x11,x0,128
    d184:	00812423          	sw	x8,8(x2)
    d188:	00112623          	sw	x1,12(x2)
    d18c:	00050413          	addi	x8,x10,0
    d190:	f70f50ef          	jal	x1,2900 <_malloc_r>
    d194:	10a42c23          	sw	x10,280(x8)
    d198:	02050463          	beq	x10,x0,d1c0 <_init_signal_r+0x54>
    d19c:	08050793          	addi	x15,x10,128
    d1a0:	00052023          	sw	x0,0(x10)
    d1a4:	00450513          	addi	x10,x10,4
    d1a8:	fef51ce3          	bne	x10,x15,d1a0 <_init_signal_r+0x34>
    d1ac:	00000513          	addi	x10,x0,0
    d1b0:	00c12083          	lw	x1,12(x2)
    d1b4:	00812403          	lw	x8,8(x2)
    d1b8:	01010113          	addi	x2,x2,16
    d1bc:	00008067          	jalr	x0,0(x1)
    d1c0:	fff00513          	addi	x10,x0,-1
    d1c4:	fedff06f          	jal	x0,d1b0 <_init_signal_r+0x44>

0000d1c8 <_signal_r>:
    d1c8:	fe010113          	addi	x2,x2,-32
    d1cc:	00912a23          	sw	x9,20(x2)
    d1d0:	00112e23          	sw	x1,28(x2)
    d1d4:	01f00793          	addi	x15,x0,31
    d1d8:	00050493          	addi	x9,x10,0
    d1dc:	02b7ec63          	bltu	x15,x11,d214 <_signal_r+0x4c>
    d1e0:	11852783          	lw	x15,280(x10)
    d1e4:	00812c23          	sw	x8,24(x2)
    d1e8:	00058413          	addi	x8,x11,0
    d1ec:	02078c63          	beq	x15,x0,d224 <_signal_r+0x5c>
    d1f0:	00241413          	slli	x8,x8,0x2
    d1f4:	008787b3          	add	x15,x15,x8
    d1f8:	01812403          	lw	x8,24(x2)
    d1fc:	0007a503          	lw	x10,0(x15)
    d200:	00c7a023          	sw	x12,0(x15)
    d204:	01c12083          	lw	x1,28(x2)
    d208:	01412483          	lw	x9,20(x2)
    d20c:	02010113          	addi	x2,x2,32
    d210:	00008067          	jalr	x0,0(x1)
    d214:	01600793          	addi	x15,x0,22
    d218:	00f52023          	sw	x15,0(x10)
    d21c:	fff00513          	addi	x10,x0,-1
    d220:	fe5ff06f          	jal	x0,d204 <_signal_r+0x3c>
    d224:	08000593          	addi	x11,x0,128
    d228:	00c12623          	sw	x12,12(x2)
    d22c:	ed4f50ef          	jal	x1,2900 <_malloc_r>
    d230:	10a4ac23          	sw	x10,280(x9)
    d234:	00c12603          	lw	x12,12(x2)
    d238:	00050793          	addi	x15,x10,0
    d23c:	00050713          	addi	x14,x10,0
    d240:	08050693          	addi	x13,x10,128
    d244:	00050a63          	beq	x10,x0,d258 <_signal_r+0x90>
    d248:	00072023          	sw	x0,0(x14)
    d24c:	00470713          	addi	x14,x14,4
    d250:	fed71ce3          	bne	x14,x13,d248 <_signal_r+0x80>
    d254:	f9dff06f          	jal	x0,d1f0 <_signal_r+0x28>
    d258:	01812403          	lw	x8,24(x2)
    d25c:	fff00513          	addi	x10,x0,-1
    d260:	fa5ff06f          	jal	x0,d204 <_signal_r+0x3c>

0000d264 <_raise_r>:
    d264:	ff010113          	addi	x2,x2,-16
    d268:	00912223          	sw	x9,4(x2)
    d26c:	00112623          	sw	x1,12(x2)
    d270:	01f00793          	addi	x15,x0,31
    d274:	00050493          	addi	x9,x10,0
    d278:	0ab7e063          	bltu	x15,x11,d318 <_raise_r+0xb4>
    d27c:	11852783          	lw	x15,280(x10)
    d280:	00812423          	sw	x8,8(x2)
    d284:	00058413          	addi	x8,x11,0
    d288:	04078463          	beq	x15,x0,d2d0 <_raise_r+0x6c>
    d28c:	00259713          	slli	x14,x11,0x2
    d290:	00e787b3          	add	x15,x15,x14
    d294:	0007a703          	lw	x14,0(x15)
    d298:	02070c63          	beq	x14,x0,d2d0 <_raise_r+0x6c>
    d29c:	00100693          	addi	x13,x0,1
    d2a0:	00d70c63          	beq	x14,x13,d2b8 <_raise_r+0x54>
    d2a4:	fff00693          	addi	x13,x0,-1
    d2a8:	04d70863          	beq	x14,x13,d2f8 <_raise_r+0x94>
    d2ac:	0007a023          	sw	x0,0(x15)
    d2b0:	00058513          	addi	x10,x11,0
    d2b4:	000700e7          	jalr	x1,0(x14)
    d2b8:	00812403          	lw	x8,8(x2)
    d2bc:	00000513          	addi	x10,x0,0
    d2c0:	00c12083          	lw	x1,12(x2)
    d2c4:	00412483          	lw	x9,4(x2)
    d2c8:	01010113          	addi	x2,x2,16
    d2cc:	00008067          	jalr	x0,0(x1)
    d2d0:	00048513          	addi	x10,x9,0
    d2d4:	430000ef          	jal	x1,d704 <_getpid_r>
    d2d8:	00040613          	addi	x12,x8,0
    d2dc:	00812403          	lw	x8,8(x2)
    d2e0:	00c12083          	lw	x1,12(x2)
    d2e4:	00050593          	addi	x11,x10,0
    d2e8:	00048513          	addi	x10,x9,0
    d2ec:	00412483          	lw	x9,4(x2)
    d2f0:	01010113          	addi	x2,x2,16
    d2f4:	3b80006f          	jal	x0,d6ac <_kill_r>
    d2f8:	00812403          	lw	x8,8(x2)
    d2fc:	00c12083          	lw	x1,12(x2)
    d300:	01600793          	addi	x15,x0,22
    d304:	00f52023          	sw	x15,0(x10)
    d308:	00412483          	lw	x9,4(x2)
    d30c:	00100513          	addi	x10,x0,1
    d310:	01010113          	addi	x2,x2,16
    d314:	00008067          	jalr	x0,0(x1)
    d318:	01600793          	addi	x15,x0,22
    d31c:	00f52023          	sw	x15,0(x10)
    d320:	fff00513          	addi	x10,x0,-1
    d324:	f9dff06f          	jal	x0,d2c0 <_raise_r+0x5c>

0000d328 <__sigtramp_r>:
    d328:	01f00793          	addi	x15,x0,31
    d32c:	0cb7ea63          	bltu	x15,x11,d400 <__sigtramp_r+0xd8>
    d330:	11852783          	lw	x15,280(x10)
    d334:	ff010113          	addi	x2,x2,-16
    d338:	00812423          	sw	x8,8(x2)
    d33c:	00912223          	sw	x9,4(x2)
    d340:	00112623          	sw	x1,12(x2)
    d344:	00058413          	addi	x8,x11,0
    d348:	00050493          	addi	x9,x10,0
    d34c:	08078063          	beq	x15,x0,d3cc <__sigtramp_r+0xa4>
    d350:	00241713          	slli	x14,x8,0x2
    d354:	00e787b3          	add	x15,x15,x14
    d358:	0007a703          	lw	x14,0(x15)
    d35c:	02070c63          	beq	x14,x0,d394 <__sigtramp_r+0x6c>
    d360:	fff00693          	addi	x13,x0,-1
    d364:	06d70063          	beq	x14,x13,d3c4 <__sigtramp_r+0x9c>
    d368:	00100693          	addi	x13,x0,1
    d36c:	04d70063          	beq	x14,x13,d3ac <__sigtramp_r+0x84>
    d370:	00040513          	addi	x10,x8,0
    d374:	0007a023          	sw	x0,0(x15)
    d378:	000700e7          	jalr	x1,0(x14)
    d37c:	00000513          	addi	x10,x0,0
    d380:	00c12083          	lw	x1,12(x2)
    d384:	00812403          	lw	x8,8(x2)
    d388:	00412483          	lw	x9,4(x2)
    d38c:	01010113          	addi	x2,x2,16
    d390:	00008067          	jalr	x0,0(x1)
    d394:	00c12083          	lw	x1,12(x2)
    d398:	00812403          	lw	x8,8(x2)
    d39c:	00412483          	lw	x9,4(x2)
    d3a0:	00100513          	addi	x10,x0,1
    d3a4:	01010113          	addi	x2,x2,16
    d3a8:	00008067          	jalr	x0,0(x1)
    d3ac:	00c12083          	lw	x1,12(x2)
    d3b0:	00812403          	lw	x8,8(x2)
    d3b4:	00412483          	lw	x9,4(x2)
    d3b8:	00300513          	addi	x10,x0,3
    d3bc:	01010113          	addi	x2,x2,16
    d3c0:	00008067          	jalr	x0,0(x1)
    d3c4:	00200513          	addi	x10,x0,2
    d3c8:	fb9ff06f          	jal	x0,d380 <__sigtramp_r+0x58>
    d3cc:	08000593          	addi	x11,x0,128
    d3d0:	d30f50ef          	jal	x1,2900 <_malloc_r>
    d3d4:	10a4ac23          	sw	x10,280(x9)
    d3d8:	00050793          	addi	x15,x10,0
    d3dc:	00050e63          	beq	x10,x0,d3f8 <__sigtramp_r+0xd0>
    d3e0:	00050713          	addi	x14,x10,0
    d3e4:	08050693          	addi	x13,x10,128
    d3e8:	00072023          	sw	x0,0(x14)
    d3ec:	00470713          	addi	x14,x14,4
    d3f0:	fed71ce3          	bne	x14,x13,d3e8 <__sigtramp_r+0xc0>
    d3f4:	f5dff06f          	jal	x0,d350 <__sigtramp_r+0x28>
    d3f8:	fff00513          	addi	x10,x0,-1
    d3fc:	f85ff06f          	jal	x0,d380 <__sigtramp_r+0x58>
    d400:	fff00513          	addi	x10,x0,-1
    d404:	00008067          	jalr	x0,0(x1)

0000d408 <raise>:
    d408:	ff010113          	addi	x2,x2,-16
    d40c:	00912223          	sw	x9,4(x2)
    d410:	00112623          	sw	x1,12(x2)
    d414:	01f00793          	addi	x15,x0,31
    d418:	f5c1a483          	lw	x9,-164(x3) # 143ac <_impure_ptr>
    d41c:	08a7ee63          	bltu	x15,x10,d4b8 <raise+0xb0>
    d420:	1184a783          	lw	x15,280(x9)
    d424:	00812423          	sw	x8,8(x2)
    d428:	00050413          	addi	x8,x10,0
    d42c:	04078263          	beq	x15,x0,d470 <raise+0x68>
    d430:	00251713          	slli	x14,x10,0x2
    d434:	00e787b3          	add	x15,x15,x14
    d438:	0007a703          	lw	x14,0(x15)
    d43c:	02070a63          	beq	x14,x0,d470 <raise+0x68>
    d440:	00100693          	addi	x13,x0,1
    d444:	00d70a63          	beq	x14,x13,d458 <raise+0x50>
    d448:	fff00693          	addi	x13,x0,-1
    d44c:	04d70663          	beq	x14,x13,d498 <raise+0x90>
    d450:	0007a023          	sw	x0,0(x15)
    d454:	000700e7          	jalr	x1,0(x14)
    d458:	00812403          	lw	x8,8(x2)
    d45c:	00000513          	addi	x10,x0,0
    d460:	00c12083          	lw	x1,12(x2)
    d464:	00412483          	lw	x9,4(x2)
    d468:	01010113          	addi	x2,x2,16
    d46c:	00008067          	jalr	x0,0(x1)
    d470:	00048513          	addi	x10,x9,0
    d474:	290000ef          	jal	x1,d704 <_getpid_r>
    d478:	00040613          	addi	x12,x8,0
    d47c:	00812403          	lw	x8,8(x2)
    d480:	00c12083          	lw	x1,12(x2)
    d484:	00050593          	addi	x11,x10,0
    d488:	00048513          	addi	x10,x9,0
    d48c:	00412483          	lw	x9,4(x2)
    d490:	01010113          	addi	x2,x2,16
    d494:	2180006f          	jal	x0,d6ac <_kill_r>
    d498:	00812403          	lw	x8,8(x2)
    d49c:	00c12083          	lw	x1,12(x2)
    d4a0:	01600793          	addi	x15,x0,22
    d4a4:	00f4a023          	sw	x15,0(x9)
    d4a8:	00100513          	addi	x10,x0,1
    d4ac:	00412483          	lw	x9,4(x2)
    d4b0:	01010113          	addi	x2,x2,16
    d4b4:	00008067          	jalr	x0,0(x1)
    d4b8:	01600793          	addi	x15,x0,22
    d4bc:	00f4a023          	sw	x15,0(x9)
    d4c0:	fff00513          	addi	x10,x0,-1
    d4c4:	f9dff06f          	jal	x0,d460 <raise+0x58>

0000d4c8 <signal>:
    d4c8:	ff010113          	addi	x2,x2,-16
    d4cc:	01212023          	sw	x18,0(x2)
    d4d0:	00112623          	sw	x1,12(x2)
    d4d4:	01f00793          	addi	x15,x0,31
    d4d8:	f5c1a903          	lw	x18,-164(x3) # 143ac <_impure_ptr>
    d4dc:	04a7e263          	bltu	x15,x10,d520 <signal+0x58>
    d4e0:	00812423          	sw	x8,8(x2)
    d4e4:	00050413          	addi	x8,x10,0
    d4e8:	11892503          	lw	x10,280(x18)
    d4ec:	00912223          	sw	x9,4(x2)
    d4f0:	00058493          	addi	x9,x11,0
    d4f4:	02050e63          	beq	x10,x0,d530 <signal+0x68>
    d4f8:	00241413          	slli	x8,x8,0x2
    d4fc:	008507b3          	add	x15,x10,x8
    d500:	0007a503          	lw	x10,0(x15)
    d504:	00812403          	lw	x8,8(x2)
    d508:	0097a023          	sw	x9,0(x15)
    d50c:	00412483          	lw	x9,4(x2)
    d510:	00c12083          	lw	x1,12(x2)
    d514:	00012903          	lw	x18,0(x2)
    d518:	01010113          	addi	x2,x2,16
    d51c:	00008067          	jalr	x0,0(x1)
    d520:	01600793          	addi	x15,x0,22
    d524:	00f92023          	sw	x15,0(x18)
    d528:	fff00513          	addi	x10,x0,-1
    d52c:	fe5ff06f          	jal	x0,d510 <signal+0x48>
    d530:	08000593          	addi	x11,x0,128
    d534:	00090513          	addi	x10,x18,0
    d538:	bc8f50ef          	jal	x1,2900 <_malloc_r>
    d53c:	10a92c23          	sw	x10,280(x18)
    d540:	00050793          	addi	x15,x10,0
    d544:	08050713          	addi	x14,x10,128
    d548:	00050a63          	beq	x10,x0,d55c <signal+0x94>
    d54c:	0007a023          	sw	x0,0(x15)
    d550:	00478793          	addi	x15,x15,4
    d554:	fef71ce3          	bne	x14,x15,d54c <signal+0x84>
    d558:	fa1ff06f          	jal	x0,d4f8 <signal+0x30>
    d55c:	00812403          	lw	x8,8(x2)
    d560:	00412483          	lw	x9,4(x2)
    d564:	fff00513          	addi	x10,x0,-1
    d568:	fa9ff06f          	jal	x0,d510 <signal+0x48>

0000d56c <_init_signal>:
    d56c:	ff010113          	addi	x2,x2,-16
    d570:	00812423          	sw	x8,8(x2)
    d574:	f5c1a403          	lw	x8,-164(x3) # 143ac <_impure_ptr>
    d578:	11842783          	lw	x15,280(x8)
    d57c:	00112623          	sw	x1,12(x2)
    d580:	00078c63          	beq	x15,x0,d598 <_init_signal+0x2c>
    d584:	00000513          	addi	x10,x0,0
    d588:	00c12083          	lw	x1,12(x2)
    d58c:	00812403          	lw	x8,8(x2)
    d590:	01010113          	addi	x2,x2,16
    d594:	00008067          	jalr	x0,0(x1)
    d598:	08000593          	addi	x11,x0,128
    d59c:	00040513          	addi	x10,x8,0
    d5a0:	b60f50ef          	jal	x1,2900 <_malloc_r>
    d5a4:	10a42c23          	sw	x10,280(x8)
    d5a8:	00050c63          	beq	x10,x0,d5c0 <_init_signal+0x54>
    d5ac:	08050793          	addi	x15,x10,128
    d5b0:	00052023          	sw	x0,0(x10)
    d5b4:	00450513          	addi	x10,x10,4
    d5b8:	fef51ce3          	bne	x10,x15,d5b0 <_init_signal+0x44>
    d5bc:	fc9ff06f          	jal	x0,d584 <_init_signal+0x18>
    d5c0:	fff00513          	addi	x10,x0,-1
    d5c4:	fc5ff06f          	jal	x0,d588 <_init_signal+0x1c>

0000d5c8 <__sigtramp>:
    d5c8:	ff010113          	addi	x2,x2,-16
    d5cc:	00912223          	sw	x9,4(x2)
    d5d0:	00112623          	sw	x1,12(x2)
    d5d4:	01f00793          	addi	x15,x0,31
    d5d8:	f5c1a483          	lw	x9,-164(x3) # 143ac <_impure_ptr>
    d5dc:	0ca7e463          	bltu	x15,x10,d6a4 <__sigtramp+0xdc>
    d5e0:	1184a783          	lw	x15,280(x9)
    d5e4:	00812423          	sw	x8,8(x2)
    d5e8:	00050413          	addi	x8,x10,0
    d5ec:	08078263          	beq	x15,x0,d670 <__sigtramp+0xa8>
    d5f0:	00241713          	slli	x14,x8,0x2
    d5f4:	00e787b3          	add	x15,x15,x14
    d5f8:	0007a703          	lw	x14,0(x15)
    d5fc:	02070c63          	beq	x14,x0,d634 <__sigtramp+0x6c>
    d600:	fff00693          	addi	x13,x0,-1
    d604:	06d70063          	beq	x14,x13,d664 <__sigtramp+0x9c>
    d608:	00100693          	addi	x13,x0,1
    d60c:	04d70063          	beq	x14,x13,d64c <__sigtramp+0x84>
    d610:	00040513          	addi	x10,x8,0
    d614:	0007a023          	sw	x0,0(x15)
    d618:	000700e7          	jalr	x1,0(x14)
    d61c:	00812403          	lw	x8,8(x2)
    d620:	00000513          	addi	x10,x0,0
    d624:	00c12083          	lw	x1,12(x2)
    d628:	00412483          	lw	x9,4(x2)
    d62c:	01010113          	addi	x2,x2,16
    d630:	00008067          	jalr	x0,0(x1)
    d634:	00812403          	lw	x8,8(x2)
    d638:	00c12083          	lw	x1,12(x2)
    d63c:	00412483          	lw	x9,4(x2)
    d640:	00100513          	addi	x10,x0,1
    d644:	01010113          	addi	x2,x2,16
    d648:	00008067          	jalr	x0,0(x1)
    d64c:	00812403          	lw	x8,8(x2)
    d650:	00c12083          	lw	x1,12(x2)
    d654:	00412483          	lw	x9,4(x2)
    d658:	00300513          	addi	x10,x0,3
    d65c:	01010113          	addi	x2,x2,16
    d660:	00008067          	jalr	x0,0(x1)
    d664:	00812403          	lw	x8,8(x2)
    d668:	00200513          	addi	x10,x0,2
    d66c:	fb9ff06f          	jal	x0,d624 <__sigtramp+0x5c>
    d670:	08000593          	addi	x11,x0,128
    d674:	00048513          	addi	x10,x9,0
    d678:	a88f50ef          	jal	x1,2900 <_malloc_r>
    d67c:	10a4ac23          	sw	x10,280(x9)
    d680:	00050793          	addi	x15,x10,0
    d684:	00050e63          	beq	x10,x0,d6a0 <__sigtramp+0xd8>
    d688:	00050713          	addi	x14,x10,0
    d68c:	08050693          	addi	x13,x10,128
    d690:	00072023          	sw	x0,0(x14)
    d694:	00470713          	addi	x14,x14,4
    d698:	fee69ce3          	bne	x13,x14,d690 <__sigtramp+0xc8>
    d69c:	f55ff06f          	jal	x0,d5f0 <__sigtramp+0x28>
    d6a0:	00812403          	lw	x8,8(x2)
    d6a4:	fff00513          	addi	x10,x0,-1
    d6a8:	f7dff06f          	jal	x0,d624 <__sigtramp+0x5c>

0000d6ac <_kill_r>:
    d6ac:	ff010113          	addi	x2,x2,-16
    d6b0:	00058713          	addi	x14,x11,0
    d6b4:	00812423          	sw	x8,8(x2)
    d6b8:	00060593          	addi	x11,x12,0
    d6bc:	00050413          	addi	x8,x10,0
    d6c0:	00070513          	addi	x10,x14,0
    d6c4:	f601ae23          	sw	x0,-132(x3) # 143cc <errno>
    d6c8:	00112623          	sw	x1,12(x2)
    d6cc:	ce4f40ef          	jal	x1,1bb0 <_kill>
    d6d0:	fff00793          	addi	x15,x0,-1
    d6d4:	00f50a63          	beq	x10,x15,d6e8 <_kill_r+0x3c>
    d6d8:	00c12083          	lw	x1,12(x2)
    d6dc:	00812403          	lw	x8,8(x2)
    d6e0:	01010113          	addi	x2,x2,16
    d6e4:	00008067          	jalr	x0,0(x1)
    d6e8:	f7c1a783          	lw	x15,-132(x3) # 143cc <errno>
    d6ec:	fe0786e3          	beq	x15,x0,d6d8 <_kill_r+0x2c>
    d6f0:	00c12083          	lw	x1,12(x2)
    d6f4:	00f42023          	sw	x15,0(x8)
    d6f8:	00812403          	lw	x8,8(x2)
    d6fc:	01010113          	addi	x2,x2,16
    d700:	00008067          	jalr	x0,0(x1)

0000d704 <_getpid_r>:
    d704:	c94f406f          	jal	x0,1b98 <_getpid>

0000d708 <__adddf3>:
    d708:	001007b7          	lui	x15,0x100
    d70c:	fe010113          	addi	x2,x2,-32
    d710:	fff78e93          	addi	x29,x15,-1 # fffff <__heap_start+0xeb8cf>
    d714:	00bef833          	and	x16,x29,x11
    d718:	00def7b3          	and	x15,x29,x13
    d71c:	0146d313          	srli	x6,x13,0x14
    d720:	01212823          	sw	x18,16(x2)
    d724:	0145d913          	srli	x18,x11,0x14
    d728:	00379793          	slli	x15,x15,0x3
    d72c:	00812c23          	sw	x8,24(x2)
    d730:	00381813          	slli	x16,x16,0x3
    d734:	01f5d413          	srli	x8,x11,0x1f
    d738:	01d55713          	srli	x14,x10,0x1d
    d73c:	01d65893          	srli	x17,x12,0x1d
    d740:	7ff97913          	andi	x18,x18,2047
    d744:	7ff37313          	andi	x6,x6,2047
    d748:	00112e23          	sw	x1,28(x2)
    d74c:	00912a23          	sw	x9,20(x2)
    d750:	01312623          	sw	x19,12(x2)
    d754:	01f6d693          	srli	x13,x13,0x1f
    d758:	00f8e8b3          	or	x17,x17,x15
    d75c:	01076733          	or	x14,x14,x16
    d760:	00351593          	slli	x11,x10,0x3
    d764:	00361f13          	slli	x30,x12,0x3
    d768:	406907b3          	sub	x15,x18,x6
    d76c:	1ed40463          	beq	x8,x13,d954 <__adddf3+0x24c>
    d770:	16f05263          	bge	x0,x15,d8d4 <__adddf3+0x1cc>
    d774:	28030663          	beq	x6,x0,da00 <__adddf3+0x2f8>
    d778:	7ff00693          	addi	x13,x0,2047
    d77c:	42d90663          	beq	x18,x13,dba8 <__adddf3+0x4a0>
    d780:	03800693          	addi	x13,x0,56
    d784:	00100613          	addi	x12,x0,1
    d788:	02f6ce63          	blt	x13,x15,d7c4 <__adddf3+0xbc>
    d78c:	008006b7          	lui	x13,0x800
    d790:	00d8e8b3          	or	x17,x17,x13
    d794:	01f00693          	addi	x13,x0,31
    d798:	52f6ce63          	blt	x13,x15,dcd4 <__adddf3+0x5cc>
    d79c:	02000693          	addi	x13,x0,32
    d7a0:	40f686b3          	sub	x13,x13,x15
    d7a4:	00d89633          	sll	x12,x17,x13
    d7a8:	00ff5533          	srl	x10,x30,x15
    d7ac:	00df16b3          	sll	x13,x30,x13
    d7b0:	00a66633          	or	x12,x12,x10
    d7b4:	00d036b3          	sltu	x13,x0,x13
    d7b8:	00f8d8b3          	srl	x17,x17,x15
    d7bc:	00d66633          	or	x12,x12,x13
    d7c0:	41170733          	sub	x14,x14,x17
    d7c4:	40c58633          	sub	x12,x11,x12
    d7c8:	00c5b5b3          	sltu	x11,x11,x12
    d7cc:	00060493          	addi	x9,x12,0
    d7d0:	40b709b3          	sub	x19,x14,x11
    d7d4:	00899793          	slli	x15,x19,0x8
    d7d8:	3207da63          	bge	x15,x0,db0c <__adddf3+0x404>
    d7dc:	008007b7          	lui	x15,0x800
    d7e0:	fff78793          	addi	x15,x15,-1 # 7fffff <__heap_end+0x3fffff>
    d7e4:	00f9f9b3          	and	x19,x19,x15
    d7e8:	2c098863          	beq	x19,x0,dab8 <__adddf3+0x3b0>
    d7ec:	00098513          	addi	x10,x19,0
    d7f0:	578050ef          	jal	x1,12d68 <__clzsi2>
    d7f4:	ff850793          	addi	x15,x10,-8
    d7f8:	02000693          	addi	x13,x0,32
    d7fc:	40f68733          	sub	x14,x13,x15
    d800:	00e4d733          	srl	x14,x9,x14
    d804:	00f999b3          	sll	x19,x19,x15
    d808:	01376733          	or	x14,x14,x19
    d80c:	00f494b3          	sll	x9,x9,x15
    d810:	4b27c863          	blt	x15,x18,dcc0 <__adddf3+0x5b8>
    d814:	412787b3          	sub	x15,x15,x18
    d818:	00178793          	addi	x15,x15,1
    d81c:	40f686b3          	sub	x13,x13,x15
    d820:	00d49633          	sll	x12,x9,x13
    d824:	00f4d9b3          	srl	x19,x9,x15
    d828:	00c03633          	sltu	x12,x0,x12
    d82c:	01366633          	or	x12,x12,x19
    d830:	00d716b3          	sll	x13,x14,x13
    d834:	00c6e4b3          	or	x9,x13,x12
    d838:	00f759b3          	srl	x19,x14,x15
    d83c:	00000913          	addi	x18,x0,0
    d840:	0074f793          	andi	x15,x9,7
    d844:	02078063          	beq	x15,x0,d864 <__adddf3+0x15c>
    d848:	00f4f793          	andi	x15,x9,15
    d84c:	00400713          	addi	x14,x0,4
    d850:	00e78a63          	beq	x15,x14,d864 <__adddf3+0x15c>
    d854:	00448793          	addi	x15,x9,4
    d858:	0097b633          	sltu	x12,x15,x9
    d85c:	00c989b3          	add	x19,x19,x12
    d860:	00078493          	addi	x9,x15,0
    d864:	00899793          	slli	x15,x19,0x8
    d868:	6e07da63          	bge	x15,x0,df5c <__adddf3+0x854>
    d86c:	00190793          	addi	x15,x18,1
    d870:	7ff00713          	addi	x14,x0,2047
    d874:	00040e13          	addi	x28,x8,0
    d878:	2ae78663          	beq	x15,x14,db24 <__adddf3+0x41c>
    d87c:	ff800737          	lui	x14,0xff800
    d880:	fff70713          	addi	x14,x14,-1 # ff7fffff <__heap_end+0xff3fffff>
    d884:	00e9f733          	and	x14,x19,x14
    d888:	7ff7f793          	andi	x15,x15,2047
    d88c:	01d71813          	slli	x16,x14,0x1d
    d890:	0034d613          	srli	x12,x9,0x3
    d894:	00971713          	slli	x14,x14,0x9
    d898:	00c86833          	or	x16,x16,x12
    d89c:	00c75713          	srli	x14,x14,0xc
    d8a0:	01c12083          	lw	x1,28(x2)
    d8a4:	01812403          	lw	x8,24(x2)
    d8a8:	01479793          	slli	x15,x15,0x14
    d8ac:	00e7e7b3          	or	x15,x15,x14
    d8b0:	01fe1713          	slli	x14,x28,0x1f
    d8b4:	00e7e7b3          	or	x15,x15,x14
    d8b8:	01412483          	lw	x9,20(x2)
    d8bc:	01012903          	lw	x18,16(x2)
    d8c0:	00c12983          	lw	x19,12(x2)
    d8c4:	00080513          	addi	x10,x16,0
    d8c8:	00078593          	addi	x11,x15,0
    d8cc:	02010113          	addi	x2,x2,32
    d8d0:	00008067          	jalr	x0,0(x1)
    d8d4:	14078c63          	beq	x15,x0,da2c <__adddf3+0x324>
    d8d8:	412307b3          	sub	x15,x6,x18
    d8dc:	3c091263          	bne	x18,x0,dca0 <__adddf3+0x598>
    d8e0:	00b76533          	or	x10,x14,x11
    d8e4:	4c050463          	beq	x10,x0,ddac <__adddf3+0x6a4>
    d8e8:	fff78513          	addi	x10,x15,-1
    d8ec:	60050263          	beq	x10,x0,def0 <__adddf3+0x7e8>
    d8f0:	7ff00813          	addi	x16,x0,2047
    d8f4:	57078663          	beq	x15,x16,de60 <__adddf3+0x758>
    d8f8:	03800793          	addi	x15,x0,56
    d8fc:	00100613          	addi	x12,x0,1
    d900:	02a7cc63          	blt	x15,x10,d938 <__adddf3+0x230>
    d904:	00050793          	addi	x15,x10,0
    d908:	01f00613          	addi	x12,x0,31
    d90c:	56f64c63          	blt	x12,x15,de84 <__adddf3+0x77c>
    d910:	02000513          	addi	x10,x0,32
    d914:	40f50533          	sub	x10,x10,x15
    d918:	00a71633          	sll	x12,x14,x10
    d91c:	00f5d833          	srl	x16,x11,x15
    d920:	00a59533          	sll	x10,x11,x10
    d924:	01066633          	or	x12,x12,x16
    d928:	00a03533          	sltu	x10,x0,x10
    d92c:	00f75733          	srl	x14,x14,x15
    d930:	00a66633          	or	x12,x12,x10
    d934:	40e888b3          	sub	x17,x17,x14
    d938:	40cf0633          	sub	x12,x30,x12
    d93c:	00cf3733          	sltu	x14,x30,x12
    d940:	00060493          	addi	x9,x12,0
    d944:	40e889b3          	sub	x19,x17,x14
    d948:	00030913          	addi	x18,x6,0
    d94c:	00068413          	addi	x8,x13,0 # 800000 <__heap_end+0x400000>
    d950:	e85ff06f          	jal	x0,d7d4 <__adddf3+0xcc>
    d954:	1ef05063          	bge	x0,x15,db34 <__adddf3+0x42c>
    d958:	14031063          	bne	x6,x0,da98 <__adddf3+0x390>
    d95c:	01e8e6b3          	or	x13,x17,x30
    d960:	26068c63          	beq	x13,x0,dbd8 <__adddf3+0x4d0>
    d964:	fff78693          	addi	x13,x15,-1
    d968:	48068063          	beq	x13,x0,dde8 <__adddf3+0x6e0>
    d96c:	7ff00613          	addi	x12,x0,2047
    d970:	22c78c63          	beq	x15,x12,dba8 <__adddf3+0x4a0>
    d974:	03800793          	addi	x15,x0,56
    d978:	00100993          	addi	x19,x0,1
    d97c:	02d7cc63          	blt	x15,x13,d9b4 <__adddf3+0x2ac>
    d980:	00068793          	addi	x15,x13,0
    d984:	01f00693          	addi	x13,x0,31
    d988:	4af6c063          	blt	x13,x15,de28 <__adddf3+0x720>
    d98c:	02000693          	addi	x13,x0,32
    d990:	40f686b3          	sub	x13,x13,x15
    d994:	00d899b3          	sll	x19,x17,x13
    d998:	00ff5633          	srl	x12,x30,x15
    d99c:	00df16b3          	sll	x13,x30,x13
    d9a0:	00c9e9b3          	or	x19,x19,x12
    d9a4:	00d036b3          	sltu	x13,x0,x13
    d9a8:	00f8d8b3          	srl	x17,x17,x15
    d9ac:	00d9e9b3          	or	x19,x19,x13
    d9b0:	01170733          	add	x14,x14,x17
    d9b4:	00b985b3          	add	x11,x19,x11
    d9b8:	0135b9b3          	sltu	x19,x11,x19
    d9bc:	00058493          	addi	x9,x11,0
    d9c0:	00e989b3          	add	x19,x19,x14
    d9c4:	00899793          	slli	x15,x19,0x8
    d9c8:	1407d263          	bge	x15,x0,db0c <__adddf3+0x404>
    d9cc:	00190913          	addi	x18,x18,1
    d9d0:	7ff00793          	addi	x15,x0,2047
    d9d4:	36f90c63          	beq	x18,x15,dd4c <__adddf3+0x644>
    d9d8:	ff8007b7          	lui	x15,0xff800
    d9dc:	fff78793          	addi	x15,x15,-1 # ff7fffff <__heap_end+0xff3fffff>
    d9e0:	0014f613          	andi	x12,x9,1
    d9e4:	00f9f7b3          	and	x15,x19,x15
    d9e8:	0014d713          	srli	x14,x9,0x1
    d9ec:	00c76733          	or	x14,x14,x12
    d9f0:	01f79613          	slli	x12,x15,0x1f
    d9f4:	00e664b3          	or	x9,x12,x14
    d9f8:	0017d993          	srli	x19,x15,0x1
    d9fc:	e45ff06f          	jal	x0,d840 <__adddf3+0x138>
    da00:	01e8e6b3          	or	x13,x17,x30
    da04:	1c068a63          	beq	x13,x0,dbd8 <__adddf3+0x4d0>
    da08:	fff78693          	addi	x13,x15,-1
    da0c:	40068063          	beq	x13,x0,de0c <__adddf3+0x704>
    da10:	7ff00613          	addi	x12,x0,2047
    da14:	18c78a63          	beq	x15,x12,dba8 <__adddf3+0x4a0>
    da18:	03800793          	addi	x15,x0,56
    da1c:	00100613          	addi	x12,x0,1
    da20:	dad7c2e3          	blt	x15,x13,d7c4 <__adddf3+0xbc>
    da24:	00068793          	addi	x15,x13,0
    da28:	d6dff06f          	jal	x0,d794 <__adddf3+0x8c>
    da2c:	00190813          	addi	x16,x18,1
    da30:	7fe87813          	andi	x16,x16,2046
    da34:	22081c63          	bne	x16,x0,dc6c <__adddf3+0x564>
    da38:	00b76333          	or	x6,x14,x11
    da3c:	01e8e833          	or	x16,x17,x30
    da40:	38091063          	bne	x18,x0,ddc0 <__adddf3+0x6b8>
    da44:	46030e63          	beq	x6,x0,dec0 <__adddf3+0x7b8>
    da48:	40080663          	beq	x16,x0,de54 <__adddf3+0x74c>
    da4c:	41e589b3          	sub	x19,x11,x30
    da50:	0135b533          	sltu	x10,x11,x19
    da54:	41170633          	sub	x12,x14,x17
    da58:	40a60633          	sub	x12,x12,x10
    da5c:	00861513          	slli	x10,x12,0x8
    da60:	50055e63          	bge	x10,x0,df7c <__adddf3+0x874>
    da64:	40bf05b3          	sub	x11,x30,x11
    da68:	40e88733          	sub	x14,x17,x14
    da6c:	00bf3f33          	sltu	x30,x30,x11
    da70:	41e70733          	sub	x14,x14,x30
    da74:	00871613          	slli	x12,x14,0x8
    da78:	00058493          	addi	x9,x11,0
    da7c:	52065e63          	bge	x12,x0,dfb8 <__adddf3+0x8b0>
    da80:	ff8007b7          	lui	x15,0xff800
    da84:	fff78793          	addi	x15,x15,-1 # ff7fffff <__heap_end+0xff3fffff>
    da88:	00f77733          	and	x14,x14,x15
    da8c:	00068e13          	addi	x28,x13,0
    da90:	00100793          	addi	x15,x0,1
    da94:	df9ff06f          	jal	x0,d88c <__adddf3+0x184>
    da98:	7ff00693          	addi	x13,x0,2047
    da9c:	10d90663          	beq	x18,x13,dba8 <__adddf3+0x4a0>
    daa0:	03800693          	addi	x13,x0,56
    daa4:	00100993          	addi	x19,x0,1
    daa8:	f0f6c6e3          	blt	x13,x15,d9b4 <__adddf3+0x2ac>
    daac:	008006b7          	lui	x13,0x800
    dab0:	00d8e8b3          	or	x17,x17,x13
    dab4:	ed1ff06f          	jal	x0,d984 <__adddf3+0x27c>
    dab8:	00048513          	addi	x10,x9,0
    dabc:	2ac050ef          	jal	x1,12d68 <__clzsi2>
    dac0:	01850793          	addi	x15,x10,24
    dac4:	01f00693          	addi	x13,x0,31
    dac8:	d2f6d8e3          	bge	x13,x15,d7f8 <__adddf3+0xf0>
    dacc:	ff850713          	addi	x14,x10,-8
    dad0:	00e49733          	sll	x14,x9,x14
    dad4:	2327c663          	blt	x15,x18,dd00 <__adddf3+0x5f8>
    dad8:	41278933          	sub	x18,x15,x18
    dadc:	00190793          	addi	x15,x18,1
    dae0:	48f6d663          	bge	x13,x15,df6c <__adddf3+0x864>
    dae4:	fe190913          	addi	x18,x18,-31
    dae8:	02000693          	addi	x13,x0,32
    daec:	012754b3          	srl	x9,x14,x18
    daf0:	00d78c63          	beq	x15,x13,db08 <__adddf3+0x400>
    daf4:	04000693          	addi	x13,x0,64
    daf8:	40f687b3          	sub	x15,x13,x15
    dafc:	00f71733          	sll	x14,x14,x15
    db00:	00e03733          	sltu	x14,x0,x14
    db04:	00e4e4b3          	or	x9,x9,x14
    db08:	00000913          	addi	x18,x0,0
    db0c:	0074f793          	andi	x15,x9,7
    db10:	d2079ce3          	bne	x15,x0,d848 <__adddf3+0x140>
    db14:	00090793          	addi	x15,x18,0
    db18:	0034d613          	srli	x12,x9,0x3
    db1c:	00098713          	addi	x14,x19,0
    db20:	0c00006f          	jal	x0,dbe0 <__adddf3+0x4d8>
    db24:	7ff00793          	addi	x15,x0,2047
    db28:	00000713          	addi	x14,x0,0
    db2c:	00000813          	addi	x16,x0,0
    db30:	d71ff06f          	jal	x0,d8a0 <__adddf3+0x198>
    db34:	0c078a63          	beq	x15,x0,dc08 <__adddf3+0x500>
    db38:	412307b3          	sub	x15,x6,x18
    db3c:	1e090263          	beq	x18,x0,dd20 <__adddf3+0x618>
    db40:	7ff00693          	addi	x13,x0,2047
    db44:	32d30863          	beq	x6,x13,de74 <__adddf3+0x76c>
    db48:	03800693          	addi	x13,x0,56
    db4c:	00100993          	addi	x19,x0,1
    db50:	02f6ce63          	blt	x13,x15,db8c <__adddf3+0x484>
    db54:	008006b7          	lui	x13,0x800
    db58:	00d76733          	or	x14,x14,x13
    db5c:	01f00693          	addi	x13,x0,31
    db60:	3cf6c863          	blt	x13,x15,df30 <__adddf3+0x828>
    db64:	02000693          	addi	x13,x0,32
    db68:	40f686b3          	sub	x13,x13,x15
    db6c:	00d719b3          	sll	x19,x14,x13
    db70:	00f5d633          	srl	x12,x11,x15
    db74:	00d596b3          	sll	x13,x11,x13
    db78:	00c9e9b3          	or	x19,x19,x12
    db7c:	00d036b3          	sltu	x13,x0,x13
    db80:	00f75733          	srl	x14,x14,x15
    db84:	00d9e9b3          	or	x19,x19,x13
    db88:	00e888b3          	add	x17,x17,x14
    db8c:	01e98733          	add	x14,x19,x30
    db90:	013739b3          	sltu	x19,x14,x19
    db94:	00070493          	addi	x9,x14,0
    db98:	011989b3          	add	x19,x19,x17
    db9c:	00030913          	addi	x18,x6,0
    dba0:	e25ff06f          	jal	x0,d9c4 <__adddf3+0x2bc>
    dba4:	02081063          	bne	x16,x0,dbc4 <__adddf3+0x4bc>
    dba8:	00351613          	slli	x12,x10,0x3
    dbac:	00365613          	srli	x12,x12,0x3
    dbb0:	01d71813          	slli	x16,x14,0x1d
    dbb4:	00c86833          	or	x16,x16,x12
    dbb8:	00375713          	srli	x14,x14,0x3
    dbbc:	01076733          	or	x14,x14,x16
    dbc0:	18070663          	beq	x14,x0,dd4c <__adddf3+0x644>
    dbc4:	00000e13          	addi	x28,x0,0
    dbc8:	7ff00793          	addi	x15,x0,2047
    dbcc:	00080737          	lui	x14,0x80
    dbd0:	00000813          	addi	x16,x0,0
    dbd4:	ccdff06f          	jal	x0,d8a0 <__adddf3+0x198>
    dbd8:	00351613          	slli	x12,x10,0x3
    dbdc:	00365613          	srli	x12,x12,0x3
    dbe0:	01d71813          	slli	x16,x14,0x1d
    dbe4:	7ff00693          	addi	x13,x0,2047
    dbe8:	00c86833          	or	x16,x16,x12
    dbec:	00375713          	srli	x14,x14,0x3
    dbf0:	fcd786e3          	beq	x15,x13,dbbc <__adddf3+0x4b4>
    dbf4:	00c71713          	slli	x14,x14,0xc
    dbf8:	00c75713          	srli	x14,x14,0xc
    dbfc:	7ff7f793          	andi	x15,x15,2047
    dc00:	00040e13          	addi	x28,x8,0
    dc04:	c9dff06f          	jal	x0,d8a0 <__adddf3+0x198>
    dc08:	00190693          	addi	x13,x18,1
    dc0c:	7fe6f813          	andi	x16,x13,2046
    dc10:	14081863          	bne	x16,x0,dd60 <__adddf3+0x658>
    dc14:	00b766b3          	or	x13,x14,x11
    dc18:	28091c63          	bne	x18,x0,deb0 <__adddf3+0x7a8>
    dc1c:	30068263          	beq	x13,x0,df20 <__adddf3+0x818>
    dc20:	01e8e6b3          	or	x13,x17,x30
    dc24:	22068863          	beq	x13,x0,de54 <__adddf3+0x74c>
    dc28:	01e587b3          	add	x15,x11,x30
    dc2c:	00b7b5b3          	sltu	x11,x15,x11
    dc30:	01170733          	add	x14,x14,x17
    dc34:	00b70733          	add	x14,x14,x11
    dc38:	0037d813          	srli	x16,x15,0x3
    dc3c:	00871793          	slli	x15,x14,0x8
    dc40:	00040e13          	addi	x28,x8,0
    dc44:	3407de63          	bge	x15,x0,dfa0 <__adddf3+0x898>
    dc48:	ff8007b7          	lui	x15,0xff800
    dc4c:	fff78793          	addi	x15,x15,-1 # ff7fffff <__heap_end+0xff3fffff>
    dc50:	00f77733          	and	x14,x14,x15
    dc54:	01d71793          	slli	x15,x14,0x1d
    dc58:	00375713          	srli	x14,x14,0x3
    dc5c:	0107e833          	or	x16,x15,x16
    dc60:	01d77733          	and	x14,x14,x29
    dc64:	00100793          	addi	x15,x0,1
    dc68:	c39ff06f          	jal	x0,d8a0 <__adddf3+0x198>
    dc6c:	41e58833          	sub	x16,x11,x30
    dc70:	0105b7b3          	sltu	x15,x11,x16
    dc74:	411709b3          	sub	x19,x14,x17
    dc78:	40f989b3          	sub	x19,x19,x15
    dc7c:	00899793          	slli	x15,x19,0x8
    dc80:	00080493          	addi	x9,x16,0
    dc84:	1007c663          	blt	x15,x0,dd90 <__adddf3+0x688>
    dc88:	01386833          	or	x16,x16,x19
    dc8c:	b4081ee3          	bne	x16,x0,d7e8 <__adddf3+0xe0>
    dc90:	00000e13          	addi	x28,x0,0
    dc94:	00000793          	addi	x15,x0,0
    dc98:	00000713          	addi	x14,x0,0
    dc9c:	c05ff06f          	jal	x0,d8a0 <__adddf3+0x198>
    dca0:	7ff00513          	addi	x10,x0,2047
    dca4:	1aa30e63          	beq	x6,x10,de60 <__adddf3+0x758>
    dca8:	03800513          	addi	x10,x0,56
    dcac:	00100613          	addi	x12,x0,1
    dcb0:	c8f544e3          	blt	x10,x15,d938 <__adddf3+0x230>
    dcb4:	00800637          	lui	x12,0x800
    dcb8:	00c76733          	or	x14,x14,x12
    dcbc:	c4dff06f          	jal	x0,d908 <__adddf3+0x200>
    dcc0:	ff8009b7          	lui	x19,0xff800
    dcc4:	fff98993          	addi	x19,x19,-1 # ff7fffff <__heap_end+0xff3fffff>
    dcc8:	40f90933          	sub	x18,x18,x15
    dccc:	013779b3          	and	x19,x14,x19
    dcd0:	b71ff06f          	jal	x0,d840 <__adddf3+0x138>
    dcd4:	fe078693          	addi	x13,x15,-32
    dcd8:	02000613          	addi	x12,x0,32
    dcdc:	00d8d6b3          	srl	x13,x17,x13
    dce0:	00c78a63          	beq	x15,x12,dcf4 <__adddf3+0x5ec>
    dce4:	04000613          	addi	x12,x0,64
    dce8:	40f607b3          	sub	x15,x12,x15
    dcec:	00f897b3          	sll	x15,x17,x15
    dcf0:	00ff6f33          	or	x30,x30,x15
    dcf4:	01e03633          	sltu	x12,x0,x30
    dcf8:	00d66633          	or	x12,x12,x13
    dcfc:	ac9ff06f          	jal	x0,d7c4 <__adddf3+0xbc>
    dd00:	ff8006b7          	lui	x13,0xff800
    dd04:	fff68693          	addi	x13,x13,-1 # ff7fffff <__heap_end+0xff3fffff>
    dd08:	40f907b3          	sub	x15,x18,x15
    dd0c:	00d77733          	and	x14,x14,x13
    dd10:	01d71813          	slli	x16,x14,0x1d
    dd14:	01386833          	or	x16,x16,x19
    dd18:	00375713          	srli	x14,x14,0x3
    dd1c:	ed9ff06f          	jal	x0,dbf4 <__adddf3+0x4ec>
    dd20:	00b766b3          	or	x13,x14,x11
    dd24:	1e068663          	beq	x13,x0,df10 <__adddf3+0x808>
    dd28:	fff78693          	addi	x13,x15,-1
    dd2c:	0a068e63          	beq	x13,x0,dde8 <__adddf3+0x6e0>
    dd30:	7ff00513          	addi	x10,x0,2047
    dd34:	14a78063          	beq	x15,x10,de74 <__adddf3+0x76c>
    dd38:	03800793          	addi	x15,x0,56
    dd3c:	00100993          	addi	x19,x0,1
    dd40:	e4d7c6e3          	blt	x15,x13,db8c <__adddf3+0x484>
    dd44:	00068793          	addi	x15,x13,0
    dd48:	e15ff06f          	jal	x0,db5c <__adddf3+0x454>
    dd4c:	00040e13          	addi	x28,x8,0
    dd50:	7ff00793          	addi	x15,x0,2047
    dd54:	00000713          	addi	x14,x0,0
    dd58:	00000813          	addi	x16,x0,0
    dd5c:	b45ff06f          	jal	x0,d8a0 <__adddf3+0x198>
    dd60:	7ff00793          	addi	x15,x0,2047
    dd64:	fef684e3          	beq	x13,x15,dd4c <__adddf3+0x644>
    dd68:	01e58f33          	add	x30,x11,x30
    dd6c:	00bf35b3          	sltu	x11,x30,x11
    dd70:	011707b3          	add	x15,x14,x17
    dd74:	00b787b3          	add	x15,x15,x11
    dd78:	01f79613          	slli	x12,x15,0x1f
    dd7c:	001f5f13          	srli	x30,x30,0x1
    dd80:	01e664b3          	or	x9,x12,x30
    dd84:	0017d993          	srli	x19,x15,0x1
    dd88:	00068913          	addi	x18,x13,0
    dd8c:	ab5ff06f          	jal	x0,d840 <__adddf3+0x138>
    dd90:	40bf0633          	sub	x12,x30,x11
    dd94:	40e887b3          	sub	x15,x17,x14
    dd98:	00cf3733          	sltu	x14,x30,x12
    dd9c:	00060493          	addi	x9,x12,0 # 800000 <__heap_end+0x400000>
    dda0:	40e789b3          	sub	x19,x15,x14
    dda4:	00068413          	addi	x8,x13,0
    dda8:	a41ff06f          	jal	x0,d7e8 <__adddf3+0xe0>
    ddac:	00361613          	slli	x12,x12,0x3
    ddb0:	00365613          	srli	x12,x12,0x3
    ddb4:	00068413          	addi	x8,x13,0
    ddb8:	00088713          	addi	x14,x17,0
    ddbc:	e25ff06f          	jal	x0,dbe0 <__adddf3+0x4d8>
    ddc0:	de0312e3          	bne	x6,x0,dba4 <__adddf3+0x49c>
    ddc4:	1c080663          	beq	x16,x0,df90 <__adddf3+0x888>
    ddc8:	0038d713          	srli	x14,x17,0x3
    ddcc:	00361613          	slli	x12,x12,0x3
    ddd0:	01d89893          	slli	x17,x17,0x1d
    ddd4:	01176733          	or	x14,x14,x17
    ddd8:	00365613          	srli	x12,x12,0x3
    dddc:	00c76733          	or	x14,x14,x12
    dde0:	00068413          	addi	x8,x13,0
    dde4:	dddff06f          	jal	x0,dbc0 <__adddf3+0x4b8>
    dde8:	01e58f33          	add	x30,x11,x30
    ddec:	011708b3          	add	x17,x14,x17
    ddf0:	00bf35b3          	sltu	x11,x30,x11
    ddf4:	00b889b3          	add	x19,x17,x11
    ddf8:	00899793          	slli	x15,x19,0x8
    ddfc:	000f0493          	addi	x9,x30,0
    de00:	0e07d463          	bge	x15,x0,dee8 <__adddf3+0x7e0>
    de04:	00200913          	addi	x18,x0,2
    de08:	bd1ff06f          	jal	x0,d9d8 <__adddf3+0x2d0>
    de0c:	41e58f33          	sub	x30,x11,x30
    de10:	411708b3          	sub	x17,x14,x17
    de14:	01e5b5b3          	sltu	x11,x11,x30
    de18:	000f0493          	addi	x9,x30,0
    de1c:	40b889b3          	sub	x19,x17,x11
    de20:	00100913          	addi	x18,x0,1
    de24:	9b1ff06f          	jal	x0,d7d4 <__adddf3+0xcc>
    de28:	fe078693          	addi	x13,x15,-32
    de2c:	02000613          	addi	x12,x0,32
    de30:	00d8d6b3          	srl	x13,x17,x13
    de34:	00c78a63          	beq	x15,x12,de48 <__adddf3+0x740>
    de38:	04000613          	addi	x12,x0,64
    de3c:	40f607b3          	sub	x15,x12,x15
    de40:	00f897b3          	sll	x15,x17,x15
    de44:	00ff6f33          	or	x30,x30,x15
    de48:	01e039b3          	sltu	x19,x0,x30
    de4c:	00d9e9b3          	or	x19,x19,x13
    de50:	b65ff06f          	jal	x0,d9b4 <__adddf3+0x2ac>
    de54:	00351613          	slli	x12,x10,0x3
    de58:	00365993          	srli	x19,x12,0x3
    de5c:	eb5ff06f          	jal	x0,dd10 <__adddf3+0x608>
    de60:	00361613          	slli	x12,x12,0x3
    de64:	00365613          	srli	x12,x12,0x3
    de68:	00068413          	addi	x8,x13,0
    de6c:	00088713          	addi	x14,x17,0
    de70:	d41ff06f          	jal	x0,dbb0 <__adddf3+0x4a8>
    de74:	00361613          	slli	x12,x12,0x3
    de78:	00365613          	srli	x12,x12,0x3
    de7c:	00088713          	addi	x14,x17,0
    de80:	d31ff06f          	jal	x0,dbb0 <__adddf3+0x4a8>
    de84:	fe078513          	addi	x10,x15,-32
    de88:	02000613          	addi	x12,x0,32
    de8c:	00a75533          	srl	x10,x14,x10
    de90:	00c78a63          	beq	x15,x12,dea4 <__adddf3+0x79c>
    de94:	04000613          	addi	x12,x0,64
    de98:	40f607b3          	sub	x15,x12,x15
    de9c:	00f717b3          	sll	x15,x14,x15
    dea0:	00f5e5b3          	or	x11,x11,x15
    dea4:	00b03633          	sltu	x12,x0,x11
    dea8:	00a66633          	or	x12,x12,x10
    deac:	a8dff06f          	jal	x0,d938 <__adddf3+0x230>
    deb0:	fc0682e3          	beq	x13,x0,de74 <__adddf3+0x76c>
    deb4:	01e8ef33          	or	x30,x17,x30
    deb8:	d00f16e3          	bne	x30,x0,dbc4 <__adddf3+0x4bc>
    debc:	cedff06f          	jal	x0,dba8 <__adddf3+0x4a0>
    dec0:	dc0808e3          	beq	x16,x0,dc90 <__adddf3+0x588>
    dec4:	00361813          	slli	x16,x12,0x3
    dec8:	01d89793          	slli	x15,x17,0x1d
    decc:	00385813          	srli	x16,x16,0x3
    ded0:	0038d713          	srli	x14,x17,0x3
    ded4:	00f86833          	or	x16,x16,x15
    ded8:	01d77733          	and	x14,x14,x29
    dedc:	00068e13          	addi	x28,x13,0
    dee0:	00000793          	addi	x15,x0,0
    dee4:	9bdff06f          	jal	x0,d8a0 <__adddf3+0x198>
    dee8:	00100793          	addi	x15,x0,1
    deec:	c2dff06f          	jal	x0,db18 <__adddf3+0x410>
    def0:	40bf05b3          	sub	x11,x30,x11
    def4:	40e888b3          	sub	x17,x17,x14
    def8:	00bf3733          	sltu	x14,x30,x11
    defc:	00058493          	addi	x9,x11,0
    df00:	40e889b3          	sub	x19,x17,x14
    df04:	00068413          	addi	x8,x13,0
    df08:	00100913          	addi	x18,x0,1
    df0c:	8c9ff06f          	jal	x0,d7d4 <__adddf3+0xcc>
    df10:	00361613          	slli	x12,x12,0x3
    df14:	00365613          	srli	x12,x12,0x3
    df18:	00088713          	addi	x14,x17,0
    df1c:	cc5ff06f          	jal	x0,dbe0 <__adddf3+0x4d8>
    df20:	00361613          	slli	x12,x12,0x3
    df24:	00365993          	srli	x19,x12,0x3
    df28:	00088713          	addi	x14,x17,0
    df2c:	de5ff06f          	jal	x0,dd10 <__adddf3+0x608>
    df30:	fe078693          	addi	x13,x15,-32
    df34:	02000613          	addi	x12,x0,32
    df38:	00d756b3          	srl	x13,x14,x13
    df3c:	00c78a63          	beq	x15,x12,df50 <__adddf3+0x848>
    df40:	04000613          	addi	x12,x0,64
    df44:	40f607b3          	sub	x15,x12,x15
    df48:	00f717b3          	sll	x15,x14,x15
    df4c:	00f5e5b3          	or	x11,x11,x15
    df50:	00b039b3          	sltu	x19,x0,x11
    df54:	00d9e9b3          	or	x19,x19,x13
    df58:	c35ff06f          	jal	x0,db8c <__adddf3+0x484>
    df5c:	0034d613          	srli	x12,x9,0x3
    df60:	00090793          	addi	x15,x18,0
    df64:	00098713          	addi	x14,x19,0
    df68:	c79ff06f          	jal	x0,dbe0 <__adddf3+0x4d8>
    df6c:	02000693          	addi	x13,x0,32
    df70:	40f686b3          	sub	x13,x13,x15
    df74:	00000613          	addi	x12,x0,0
    df78:	8b5ff06f          	jal	x0,d82c <__adddf3+0x124>
    df7c:	00c9e833          	or	x16,x19,x12
    df80:	d00808e3          	beq	x16,x0,dc90 <__adddf3+0x588>
    df84:	0039d993          	srli	x19,x19,0x3
    df88:	00060713          	addi	x14,x12,0
    df8c:	d85ff06f          	jal	x0,dd10 <__adddf3+0x608>
    df90:	00000e13          	addi	x28,x0,0
    df94:	7ff00793          	addi	x15,x0,2047
    df98:	00080737          	lui	x14,0x80
    df9c:	905ff06f          	jal	x0,d8a0 <__adddf3+0x198>
    dfa0:	01d71793          	slli	x15,x14,0x1d
    dfa4:	00375713          	srli	x14,x14,0x3
    dfa8:	0107e833          	or	x16,x15,x16
    dfac:	01d77733          	and	x14,x14,x29
    dfb0:	00000793          	addi	x15,x0,0
    dfb4:	8edff06f          	jal	x0,d8a0 <__adddf3+0x198>
    dfb8:	01d71813          	slli	x16,x14,0x1d
    dfbc:	0035d593          	srli	x11,x11,0x3
    dfc0:	00b86833          	or	x16,x16,x11
    dfc4:	00375713          	srli	x14,x14,0x3
    dfc8:	00068413          	addi	x8,x13,0
    dfcc:	c29ff06f          	jal	x0,dbf4 <__adddf3+0x4ec>

0000dfd0 <__divdf3>:
    dfd0:	fd010113          	addi	x2,x2,-48
    dfd4:	01312e23          	sw	x19,28(x2)
    dfd8:	0145d993          	srli	x19,x11,0x14
    dfdc:	02812423          	sw	x8,40(x2)
    dfe0:	02912223          	sw	x9,36(x2)
    dfe4:	03212023          	sw	x18,32(x2)
    dfe8:	01412c23          	sw	x20,24(x2)
    dfec:	01712623          	sw	x23,12(x2)
    dff0:	00c59493          	slli	x9,x11,0xc
    dff4:	02112623          	sw	x1,44(x2)
    dff8:	01512a23          	sw	x21,20(x2)
    dffc:	01612823          	sw	x22,16(x2)
    e000:	01812423          	sw	x24,8(x2)
    e004:	7ff9f993          	andi	x19,x19,2047
    e008:	00050413          	addi	x8,x10,0
    e00c:	00060b93          	addi	x23,x12,0
    e010:	00068913          	addi	x18,x13,0
    e014:	00c4d493          	srli	x9,x9,0xc
    e018:	01f5da13          	srli	x20,x11,0x1f
    e01c:	18098a63          	beq	x19,x0,e1b0 <__divdf3+0x1e0>
    e020:	7ff00793          	addi	x15,x0,2047
    e024:	08f98863          	beq	x19,x15,e0b4 <__divdf3+0xe4>
    e028:	00349493          	slli	x9,x9,0x3
    e02c:	01d55793          	srli	x15,x10,0x1d
    e030:	0097e7b3          	or	x15,x15,x9
    e034:	00800737          	lui	x14,0x800
    e038:	00e7eab3          	or	x21,x15,x14
    e03c:	00351b13          	slli	x22,x10,0x3
    e040:	c0198993          	addi	x19,x19,-1023
    e044:	00000493          	addi	x9,x0,0
    e048:	00000c13          	addi	x24,x0,0
    e04c:	01495793          	srli	x15,x18,0x14
    e050:	00c91413          	slli	x8,x18,0xc
    e054:	7ff7f793          	andi	x15,x15,2047
    e058:	00c45413          	srli	x8,x8,0xc
    e05c:	01f95913          	srli	x18,x18,0x1f
    e060:	08078263          	beq	x15,x0,e0e4 <__divdf3+0x114>
    e064:	7ff00713          	addi	x14,x0,2047
    e068:	18e78a63          	beq	x15,x14,e1fc <__divdf3+0x22c>
    e06c:	00341413          	slli	x8,x8,0x3
    e070:	01dbd713          	srli	x14,x23,0x1d
    e074:	00876733          	or	x14,x14,x8
    e078:	c0178793          	addi	x15,x15,-1023
    e07c:	00800437          	lui	x8,0x800
    e080:	00876433          	or	x8,x14,x8
    e084:	003b9893          	slli	x17,x23,0x3
    e088:	40f989b3          	sub	x19,x19,x15
    e08c:	00000613          	addi	x12,x0,0
    e090:	00f00713          	addi	x14,x0,15
    e094:	012a46b3          	xor	x13,x20,x18
    e098:	24976463          	bltu	x14,x9,e2e0 <__divdf3+0x310>
    e09c:	000147b7          	lui	x15,0x14
    e0a0:	00249493          	slli	x9,x9,0x2
    e0a4:	b0c78793          	addi	x15,x15,-1268 # 13b0c <_ctype_+0x104>
    e0a8:	00f484b3          	add	x9,x9,x15
    e0ac:	0004a703          	lw	x14,0(x9)
    e0b0:	00070067          	jalr	x0,0(x14) # 800000 <__heap_end+0x400000>
    e0b4:	00a4eab3          	or	x21,x9,x10
    e0b8:	1c0a9e63          	bne	x21,x0,e294 <__divdf3+0x2c4>
    e0bc:	01495793          	srli	x15,x18,0x14
    e0c0:	00c91413          	slli	x8,x18,0xc
    e0c4:	7ff7f793          	andi	x15,x15,2047
    e0c8:	00000b13          	addi	x22,x0,0
    e0cc:	00800493          	addi	x9,x0,8
    e0d0:	7ff00993          	addi	x19,x0,2047
    e0d4:	00200c13          	addi	x24,x0,2
    e0d8:	00c45413          	srli	x8,x8,0xc
    e0dc:	01f95913          	srli	x18,x18,0x1f
    e0e0:	f80792e3          	bne	x15,x0,e064 <__divdf3+0x94>
    e0e4:	017468b3          	or	x17,x8,x23
    e0e8:	1c088263          	beq	x17,x0,e2ac <__divdf3+0x2dc>
    e0ec:	4a040a63          	beq	x8,x0,e5a0 <__divdf3+0x5d0>
    e0f0:	00040513          	addi	x10,x8,0 # 800000 <__heap_end+0x400000>
    e0f4:	475040ef          	jal	x1,12d68 <__clzsi2>
    e0f8:	00050793          	addi	x15,x10,0
    e0fc:	ff550693          	addi	x13,x10,-11
    e100:	01d00713          	addi	x14,x0,29
    e104:	ff878893          	addi	x17,x15,-8
    e108:	40d70733          	sub	x14,x14,x13
    e10c:	01141433          	sll	x8,x8,x17
    e110:	00ebd733          	srl	x14,x23,x14
    e114:	00876433          	or	x8,x14,x8
    e118:	011b98b3          	sll	x17,x23,x17
    e11c:	013787b3          	add	x15,x15,x19
    e120:	3f378993          	addi	x19,x15,1011
    e124:	00000613          	addi	x12,x0,0
    e128:	f69ff06f          	jal	x0,e090 <__divdf3+0xc0>
    e12c:	40f70733          	sub	x14,x14,x15
    e130:	03800613          	addi	x12,x0,56
    e134:	4ee65a63          	bge	x12,x14,e628 <__divdf3+0x658>
    e138:	00000793          	addi	x15,x0,0
    e13c:	00000613          	addi	x12,x0,0
    e140:	00000713          	addi	x14,x0,0
    e144:	02c12083          	lw	x1,44(x2)
    e148:	02812403          	lw	x8,40(x2)
    e14c:	01479793          	slli	x15,x15,0x14
    e150:	00c7e7b3          	or	x15,x15,x12
    e154:	01f69693          	slli	x13,x13,0x1f
    e158:	00d7e7b3          	or	x15,x15,x13
    e15c:	02412483          	lw	x9,36(x2)
    e160:	02012903          	lw	x18,32(x2)
    e164:	01c12983          	lw	x19,28(x2)
    e168:	01812a03          	lw	x20,24(x2)
    e16c:	01412a83          	lw	x21,20(x2)
    e170:	01012b03          	lw	x22,16(x2)
    e174:	00c12b83          	lw	x23,12(x2)
    e178:	00812c03          	lw	x24,8(x2)
    e17c:	00070513          	addi	x10,x14,0
    e180:	00078593          	addi	x11,x15,0
    e184:	03010113          	addi	x2,x2,48
    e188:	00008067          	jalr	x0,0(x1)
    e18c:	7ff00793          	addi	x15,x0,2047
    e190:	00000613          	addi	x12,x0,0
    e194:	00000713          	addi	x14,x0,0
    e198:	fadff06f          	jal	x0,e144 <__divdf3+0x174>
    e19c:	00000693          	addi	x13,x0,0
    e1a0:	7ff00793          	addi	x15,x0,2047
    e1a4:	00080637          	lui	x12,0x80
    e1a8:	00000713          	addi	x14,x0,0
    e1ac:	f99ff06f          	jal	x0,e144 <__divdf3+0x174>
    e1b0:	00a4eab3          	or	x21,x9,x10
    e1b4:	100a8c63          	beq	x21,x0,e2cc <__divdf3+0x2fc>
    e1b8:	40048863          	beq	x9,x0,e5c8 <__divdf3+0x5f8>
    e1bc:	00048513          	addi	x10,x9,0
    e1c0:	3a9040ef          	jal	x1,12d68 <__clzsi2>
    e1c4:	00050713          	addi	x14,x10,0
    e1c8:	ff550693          	addi	x13,x10,-11
    e1cc:	01d00793          	addi	x15,x0,29
    e1d0:	ff870b13          	addi	x22,x14,-8
    e1d4:	40d787b3          	sub	x15,x15,x13
    e1d8:	016494b3          	sll	x9,x9,x22
    e1dc:	00f457b3          	srl	x15,x8,x15
    e1e0:	0097eab3          	or	x21,x15,x9
    e1e4:	01641b33          	sll	x22,x8,x22
    e1e8:	c0d00993          	addi	x19,x0,-1011
    e1ec:	40e989b3          	sub	x19,x19,x14
    e1f0:	00000493          	addi	x9,x0,0
    e1f4:	00000c13          	addi	x24,x0,0
    e1f8:	e55ff06f          	jal	x0,e04c <__divdf3+0x7c>
    e1fc:	017468b3          	or	x17,x8,x23
    e200:	80198993          	addi	x19,x19,-2047
    e204:	0a089c63          	bne	x17,x0,e2bc <__divdf3+0x2ec>
    e208:	0024e493          	ori	x9,x9,2
    e20c:	00000413          	addi	x8,x0,0
    e210:	00200613          	addi	x12,x0,2
    e214:	e7dff06f          	jal	x0,e090 <__divdf3+0xc0>
    e218:	000a0913          	addi	x18,x20,0
    e21c:	000a8413          	addi	x8,x21,0
    e220:	000b0893          	addi	x17,x22,0
    e224:	00200793          	addi	x15,x0,2
    e228:	4efc0863          	beq	x24,x15,e718 <__divdf3+0x748>
    e22c:	00300793          	addi	x15,x0,3
    e230:	f6fc06e3          	beq	x24,x15,e19c <__divdf3+0x1cc>
    e234:	00100793          	addi	x15,x0,1
    e238:	00090693          	addi	x13,x18,0
    e23c:	eefc0ee3          	beq	x24,x15,e138 <__divdf3+0x168>
    e240:	3ff98793          	addi	x15,x19,1023
    e244:	2af05663          	bge	x0,x15,e4f0 <__divdf3+0x520>
    e248:	0078f713          	andi	x14,x17,7
    e24c:	4a071663          	bne	x14,x0,e6f8 <__divdf3+0x728>
    e250:	00741713          	slli	x14,x8,0x7
    e254:	00075a63          	bge	x14,x0,e268 <__divdf3+0x298>
    e258:	ff0007b7          	lui	x15,0xff000
    e25c:	fff78793          	addi	x15,x15,-1 # feffffff <__heap_end+0xfebfffff>
    e260:	00f47433          	and	x8,x8,x15
    e264:	40098793          	addi	x15,x19,1024
    e268:	7fe00713          	addi	x14,x0,2046
    e26c:	f2f740e3          	blt	x14,x15,e18c <__divdf3+0x1bc>
    e270:	0038d893          	srli	x17,x17,0x3
    e274:	01d41713          	slli	x14,x8,0x1d
    e278:	00941613          	slli	x12,x8,0x9
    e27c:	01176733          	or	x14,x14,x17
    e280:	00c65613          	srli	x12,x12,0xc
    e284:	7ff7f793          	andi	x15,x15,2047
    e288:	ebdff06f          	jal	x0,e144 <__divdf3+0x174>
    e28c:	00060c13          	addi	x24,x12,0 # 80000 <__heap_start+0x6b8d0>
    e290:	f95ff06f          	jal	x0,e224 <__divdf3+0x254>
    e294:	00048a93          	addi	x21,x9,0
    e298:	00050b13          	addi	x22,x10,0
    e29c:	00c00493          	addi	x9,x0,12
    e2a0:	7ff00993          	addi	x19,x0,2047
    e2a4:	00300c13          	addi	x24,x0,3
    e2a8:	da5ff06f          	jal	x0,e04c <__divdf3+0x7c>
    e2ac:	0014e493          	ori	x9,x9,1
    e2b0:	00000413          	addi	x8,x0,0
    e2b4:	00100613          	addi	x12,x0,1
    e2b8:	dd9ff06f          	jal	x0,e090 <__divdf3+0xc0>
    e2bc:	0034e493          	ori	x9,x9,3
    e2c0:	000b8893          	addi	x17,x23,0
    e2c4:	00300613          	addi	x12,x0,3
    e2c8:	dc9ff06f          	jal	x0,e090 <__divdf3+0xc0>
    e2cc:	00000b13          	addi	x22,x0,0
    e2d0:	00400493          	addi	x9,x0,4
    e2d4:	00000993          	addi	x19,x0,0
    e2d8:	00100c13          	addi	x24,x0,1
    e2dc:	d71ff06f          	jal	x0,e04c <__divdf3+0x7c>
    e2e0:	2b546463          	bltu	x8,x21,e588 <__divdf3+0x5b8>
    e2e4:	2a8a8063          	beq	x21,x8,e584 <__divdf3+0x5b4>
    e2e8:	000b0313          	addi	x6,x22,0
    e2ec:	fff98993          	addi	x19,x19,-1
    e2f0:	000a8793          	addi	x15,x21,0
    e2f4:	00000b13          	addi	x22,x0,0
    e2f8:	00841713          	slli	x14,x8,0x8
    e2fc:	01075513          	srli	x10,x14,0x10
    e300:	02a7d433          	divu	x8,x15,x10
    e304:	0188d613          	srli	x12,x17,0x18
    e308:	00e66633          	or	x12,x12,x14
    e30c:	01061813          	slli	x16,x12,0x10
    e310:	01085813          	srli	x16,x16,0x10
    e314:	00889593          	slli	x11,x17,0x8
    e318:	01035713          	srli	x14,x6,0x10
    e31c:	02a7f7b3          	remu	x15,x15,x10
    e320:	028808b3          	mul	x17,x16,x8
    e324:	01079793          	slli	x15,x15,0x10
    e328:	00f767b3          	or	x15,x14,x15
    e32c:	0117fa63          	bgeu	x15,x17,e340 <__divdf3+0x370>
    e330:	00f607b3          	add	x15,x12,x15
    e334:	fff40713          	addi	x14,x8,-1
    e338:	2ec7f063          	bgeu	x15,x12,e618 <__divdf3+0x648>
    e33c:	00070413          	addi	x8,x14,0
    e340:	411787b3          	sub	x15,x15,x17
    e344:	02a7d8b3          	divu	x17,x15,x10
    e348:	01031713          	slli	x14,x6,0x10
    e34c:	01075713          	srli	x14,x14,0x10
    e350:	02a7f7b3          	remu	x15,x15,x10
    e354:	03180fb3          	mul	x31,x16,x17
    e358:	01079793          	slli	x15,x15,0x10
    e35c:	00f76733          	or	x14,x14,x15
    e360:	01f77a63          	bgeu	x14,x31,e374 <__divdf3+0x3a4>
    e364:	00e60733          	add	x14,x12,x14
    e368:	fff88793          	addi	x15,x17,-1
    e36c:	28c77e63          	bgeu	x14,x12,e608 <__divdf3+0x638>
    e370:	00078893          	addi	x17,x15,0
    e374:	01041413          	slli	x8,x8,0x10
    e378:	000102b7          	lui	x5,0x10
    e37c:	01146433          	or	x8,x8,x17
    e380:	fff28313          	addi	x6,x5,-1 # ffff <__multf3+0x163>
    e384:	006478b3          	and	x17,x8,x6
    e388:	01045e93          	srli	x29,x8,0x10
    e38c:	0105de13          	srli	x28,x11,0x10
    e390:	0065f333          	and	x6,x11,x6
    e394:	03130f33          	mul	x30,x6,x17
    e398:	41f70733          	sub	x14,x14,x31
    e39c:	031e08b3          	mul	x17,x28,x17
    e3a0:	010f5793          	srli	x15,x30,0x10
    e3a4:	026e8fb3          	mul	x31,x29,x6
    e3a8:	01f888b3          	add	x17,x17,x31
    e3ac:	011787b3          	add	x15,x15,x17
    e3b0:	03ce8eb3          	mul	x29,x29,x28
    e3b4:	01f7f463          	bgeu	x15,x31,e3bc <__divdf3+0x3ec>
    e3b8:	005e8eb3          	add	x29,x29,x5
    e3bc:	00010fb7          	lui	x31,0x10
    e3c0:	ffff8f93          	addi	x31,x31,-1 # ffff <__multf3+0x163>
    e3c4:	0107d893          	srli	x17,x15,0x10
    e3c8:	01f7f7b3          	and	x15,x15,x31
    e3cc:	01079793          	slli	x15,x15,0x10
    e3d0:	01ff7f33          	and	x30,x30,x31
    e3d4:	01d888b3          	add	x17,x17,x29
    e3d8:	01e787b3          	add	x15,x15,x30
    e3dc:	17176e63          	bltu	x14,x17,e558 <__divdf3+0x588>
    e3e0:	17170a63          	beq	x14,x17,e554 <__divdf3+0x584>
    e3e4:	40fb07b3          	sub	x15,x22,x15
    e3e8:	41170733          	sub	x14,x14,x17
    e3ec:	00fb3b33          	sltu	x22,x22,x15
    e3f0:	41670733          	sub	x14,x14,x22
    e3f4:	2ee60063          	beq	x12,x14,e6d4 <__divdf3+0x704>
    e3f8:	02a758b3          	divu	x17,x14,x10
    e3fc:	0107de93          	srli	x29,x15,0x10
    e400:	02a77733          	remu	x14,x14,x10
    e404:	03180f33          	mul	x30,x16,x17
    e408:	01071713          	slli	x14,x14,0x10
    e40c:	00eee733          	or	x14,x29,x14
    e410:	01e77e63          	bgeu	x14,x30,e42c <__divdf3+0x45c>
    e414:	00e60733          	add	x14,x12,x14
    e418:	fff88e93          	addi	x29,x17,-1
    e41c:	2ec76a63          	bltu	x14,x12,e710 <__divdf3+0x740>
    e420:	2fe77863          	bgeu	x14,x30,e710 <__divdf3+0x740>
    e424:	ffe88893          	addi	x17,x17,-2
    e428:	00c70733          	add	x14,x14,x12
    e42c:	41e70733          	sub	x14,x14,x30
    e430:	02a75eb3          	divu	x29,x14,x10
    e434:	01079793          	slli	x15,x15,0x10
    e438:	0107d793          	srli	x15,x15,0x10
    e43c:	02a77733          	remu	x14,x14,x10
    e440:	03d80833          	mul	x16,x16,x29
    e444:	01071713          	slli	x14,x14,0x10
    e448:	00e7e7b3          	or	x15,x15,x14
    e44c:	0107fe63          	bgeu	x15,x16,e468 <__divdf3+0x498>
    e450:	00f607b3          	add	x15,x12,x15
    e454:	fffe8713          	addi	x14,x29,-1
    e458:	2ac7e863          	bltu	x15,x12,e708 <__divdf3+0x738>
    e45c:	2b07f663          	bgeu	x15,x16,e708 <__divdf3+0x738>
    e460:	ffee8e93          	addi	x29,x29,-2
    e464:	00c787b3          	add	x15,x15,x12
    e468:	01089893          	slli	x17,x17,0x10
    e46c:	01d8e8b3          	or	x17,x17,x29
    e470:	01089513          	slli	x10,x17,0x10
    e474:	0108df13          	srli	x30,x17,0x10
    e478:	01055513          	srli	x10,x10,0x10
    e47c:	02650eb3          	mul	x29,x10,x6
    e480:	410787b3          	sub	x15,x15,x16
    e484:	02ae0533          	mul	x10,x28,x10
    e488:	010ed713          	srli	x14,x29,0x10
    e48c:	026f0333          	mul	x6,x30,x6
    e490:	00650533          	add	x10,x10,x6
    e494:	00a70733          	add	x14,x14,x10
    e498:	03ee0e33          	mul	x28,x28,x30
    e49c:	00677663          	bgeu	x14,x6,e4a8 <__divdf3+0x4d8>
    e4a0:	00010537          	lui	x10,0x10
    e4a4:	00ae0e33          	add	x28,x28,x10
    e4a8:	00010837          	lui	x16,0x10
    e4ac:	fff80813          	addi	x16,x16,-1 # ffff <__multf3+0x163>
    e4b0:	01075513          	srli	x10,x14,0x10
    e4b4:	01077733          	and	x14,x14,x16
    e4b8:	01071713          	slli	x14,x14,0x10
    e4bc:	010efeb3          	and	x29,x29,x16
    e4c0:	01c50533          	add	x10,x10,x28
    e4c4:	01d70733          	add	x14,x14,x29
    e4c8:	12a7f263          	bgeu	x15,x10,e5ec <__divdf3+0x61c>
    e4cc:	00f607b3          	add	x15,x12,x15
    e4d0:	fff88313          	addi	x6,x17,-1
    e4d4:	00078813          	addi	x16,x15,0
    e4d8:	1cc7e463          	bltu	x15,x12,e6a0 <__divdf3+0x6d0>
    e4dc:	24a7e863          	bltu	x15,x10,e72c <__divdf3+0x75c>
    e4e0:	26a78663          	beq	x15,x10,e74c <__divdf3+0x77c>
    e4e4:	00030893          	addi	x17,x6,0
    e4e8:	0018e893          	ori	x17,x17,1
    e4ec:	d55ff06f          	jal	x0,e240 <__divdf3+0x270>
    e4f0:	00100713          	addi	x14,x0,1
    e4f4:	c2079ce3          	bne	x15,x0,e12c <__divdf3+0x15c>
    e4f8:	41e98993          	addi	x19,x19,1054
    e4fc:	013897b3          	sll	x15,x17,x19
    e500:	00f037b3          	sltu	x15,x0,x15
    e504:	013419b3          	sll	x19,x8,x19
    e508:	0137e7b3          	or	x15,x15,x19
    e50c:	00e8d8b3          	srl	x17,x17,x14
    e510:	00f8e8b3          	or	x17,x17,x15
    e514:	0078f793          	andi	x15,x17,7
    e518:	00e45433          	srl	x8,x8,x14
    e51c:	02078063          	beq	x15,x0,e53c <__divdf3+0x56c>
    e520:	00f8f793          	andi	x15,x17,15
    e524:	00400713          	addi	x14,x0,4
    e528:	00e78a63          	beq	x15,x14,e53c <__divdf3+0x56c>
    e52c:	00488793          	addi	x15,x17,4
    e530:	0117b8b3          	sltu	x17,x15,x17
    e534:	01140433          	add	x8,x8,x17
    e538:	00078893          	addi	x17,x15,0
    e53c:	00841593          	slli	x11,x8,0x8
    e540:	00100793          	addi	x15,x0,1
    e544:	00000613          	addi	x12,x0,0
    e548:	00000713          	addi	x14,x0,0
    e54c:	be05cce3          	blt	x11,x0,e144 <__divdf3+0x174>
    e550:	1340006f          	jal	x0,e684 <__divdf3+0x6b4>
    e554:	e8fb78e3          	bgeu	x22,x15,e3e4 <__divdf3+0x414>
    e558:	00bb0eb3          	add	x29,x22,x11
    e55c:	016ebf33          	sltu	x30,x29,x22
    e560:	00cf0fb3          	add	x31,x30,x12
    e564:	01f70733          	add	x14,x14,x31
    e568:	000e8b13          	addi	x22,x29,0
    e56c:	fff40f93          	addi	x31,x8,-1
    e570:	08e67463          	bgeu	x12,x14,e5f8 <__divdf3+0x628>
    e574:	15176263          	bltu	x14,x17,e6b8 <__divdf3+0x6e8>
    e578:	12e88e63          	beq	x17,x14,e6b4 <__divdf3+0x6e4>
    e57c:	000f8413          	addi	x8,x31,0
    e580:	e65ff06f          	jal	x0,e3e4 <__divdf3+0x414>
    e584:	d71b62e3          	bltu	x22,x17,e2e8 <__divdf3+0x318>
    e588:	001b5713          	srli	x14,x22,0x1
    e58c:	01fa9313          	slli	x6,x21,0x1f
    e590:	001ad793          	srli	x15,x21,0x1
    e594:	00e36333          	or	x6,x6,x14
    e598:	01fb1b13          	slli	x22,x22,0x1f
    e59c:	d5dff06f          	jal	x0,e2f8 <__divdf3+0x328>
    e5a0:	000b8513          	addi	x10,x23,0
    e5a4:	7c4040ef          	jal	x1,12d68 <__clzsi2>
    e5a8:	01550693          	addi	x13,x10,21 # 10015 <__multf3+0x179>
    e5ac:	01c00713          	addi	x14,x0,28
    e5b0:	02050793          	addi	x15,x10,32
    e5b4:	b4d756e3          	bge	x14,x13,e100 <__divdf3+0x130>
    e5b8:	ff850513          	addi	x10,x10,-8
    e5bc:	00000893          	addi	x17,x0,0
    e5c0:	00ab9433          	sll	x8,x23,x10
    e5c4:	b59ff06f          	jal	x0,e11c <__divdf3+0x14c>
    e5c8:	7a0040ef          	jal	x1,12d68 <__clzsi2>
    e5cc:	01550693          	addi	x13,x10,21
    e5d0:	01c00793          	addi	x15,x0,28
    e5d4:	02050713          	addi	x14,x10,32
    e5d8:	bed7dae3          	bge	x15,x13,e1cc <__divdf3+0x1fc>
    e5dc:	ff850793          	addi	x15,x10,-8
    e5e0:	00f41ab3          	sll	x21,x8,x15
    e5e4:	00000b13          	addi	x22,x0,0
    e5e8:	c01ff06f          	jal	x0,e1e8 <__divdf3+0x218>
    e5ec:	eea79ee3          	bne	x15,x10,e4e8 <__divdf3+0x518>
    e5f0:	c40708e3          	beq	x14,x0,e240 <__divdf3+0x270>
    e5f4:	ed9ff06f          	jal	x0,e4cc <__divdf3+0x4fc>
    e5f8:	f8e612e3          	bne	x12,x14,e57c <__divdf3+0x5ac>
    e5fc:	f60f0ce3          	beq	x30,x0,e574 <__divdf3+0x5a4>
    e600:	000f8413          	addi	x8,x31,0
    e604:	de1ff06f          	jal	x0,e3e4 <__divdf3+0x414>
    e608:	d7f774e3          	bgeu	x14,x31,e370 <__divdf3+0x3a0>
    e60c:	ffe88893          	addi	x17,x17,-2
    e610:	00c70733          	add	x14,x14,x12
    e614:	d61ff06f          	jal	x0,e374 <__divdf3+0x3a4>
    e618:	d317f2e3          	bgeu	x15,x17,e33c <__divdf3+0x36c>
    e61c:	ffe40413          	addi	x8,x8,-2
    e620:	00c787b3          	add	x15,x15,x12
    e624:	d1dff06f          	jal	x0,e340 <__divdf3+0x370>
    e628:	01f00613          	addi	x12,x0,31
    e62c:	ece656e3          	bge	x12,x14,e4f8 <__divdf3+0x528>
    e630:	fe100613          	addi	x12,x0,-31
    e634:	40f607b3          	sub	x15,x12,x15
    e638:	02000613          	addi	x12,x0,32
    e63c:	00f457b3          	srl	x15,x8,x15
    e640:	00c70863          	beq	x14,x12,e650 <__divdf3+0x680>
    e644:	43e98993          	addi	x19,x19,1086
    e648:	013419b3          	sll	x19,x8,x19
    e64c:	0138e8b3          	or	x17,x17,x19
    e650:	011038b3          	sltu	x17,x0,x17
    e654:	00f8e8b3          	or	x17,x17,x15
    e658:	0078f713          	andi	x14,x17,7
    e65c:	00000613          	addi	x12,x0,0
    e660:	02070863          	beq	x14,x0,e690 <__divdf3+0x6c0>
    e664:	00f8f793          	andi	x15,x17,15
    e668:	00400713          	addi	x14,x0,4
    e66c:	00000413          	addi	x8,x0,0
    e670:	00e78a63          	beq	x15,x14,e684 <__divdf3+0x6b4>
    e674:	00488793          	addi	x15,x17,4
    e678:	0117b8b3          	sltu	x17,x15,x17
    e67c:	01103433          	sltu	x8,x0,x17
    e680:	00078893          	addi	x17,x15,0
    e684:	00941613          	slli	x12,x8,0x9
    e688:	01d41713          	slli	x14,x8,0x1d
    e68c:	00c65613          	srli	x12,x12,0xc
    e690:	0038d893          	srli	x17,x17,0x3
    e694:	00e8e733          	or	x14,x17,x14
    e698:	00000793          	addi	x15,x0,0
    e69c:	aa9ff06f          	jal	x0,e144 <__divdf3+0x174>
    e6a0:	00030893          	addi	x17,x6,0
    e6a4:	e4a812e3          	bne	x16,x10,e4e8 <__divdf3+0x518>
    e6a8:	b8b70ce3          	beq	x14,x11,e240 <__divdf3+0x270>
    e6ac:	0018e893          	ori	x17,x17,1
    e6b0:	b91ff06f          	jal	x0,e240 <__divdf3+0x270>
    e6b4:	ecfef4e3          	bgeu	x29,x15,e57c <__divdf3+0x5ac>
    e6b8:	01d58eb3          	add	x29,x11,x29
    e6bc:	00bebf33          	sltu	x30,x29,x11
    e6c0:	00cf0f33          	add	x30,x30,x12
    e6c4:	ffe40413          	addi	x8,x8,-2
    e6c8:	000e8b13          	addi	x22,x29,0
    e6cc:	01e70733          	add	x14,x14,x30
    e6d0:	d15ff06f          	jal	x0,e3e4 <__divdf3+0x414>
    e6d4:	c0200713          	addi	x14,x0,-1022
    e6d8:	3ff98793          	addi	x15,x19,1023
    e6dc:	fff00893          	addi	x17,x0,-1
    e6e0:	e0e9c8e3          	blt	x19,x14,e4f0 <__divdf3+0x520>
    e6e4:	00488713          	addi	x14,x17,4
    e6e8:	011738b3          	sltu	x17,x14,x17
    e6ec:	01140433          	add	x8,x8,x17
    e6f0:	00070893          	addi	x17,x14,0
    e6f4:	b5dff06f          	jal	x0,e250 <__divdf3+0x280>
    e6f8:	00f8f713          	andi	x14,x17,15
    e6fc:	00400613          	addi	x12,x0,4
    e700:	b4c708e3          	beq	x14,x12,e250 <__divdf3+0x280>
    e704:	fe1ff06f          	jal	x0,e6e4 <__divdf3+0x714>
    e708:	00070e93          	addi	x29,x14,0
    e70c:	d5dff06f          	jal	x0,e468 <__divdf3+0x498>
    e710:	000e8893          	addi	x17,x29,0
    e714:	d19ff06f          	jal	x0,e42c <__divdf3+0x45c>
    e718:	00090693          	addi	x13,x18,0
    e71c:	7ff00793          	addi	x15,x0,2047
    e720:	00000613          	addi	x12,x0,0
    e724:	00000713          	addi	x14,x0,0
    e728:	a1dff06f          	jal	x0,e144 <__divdf3+0x174>
    e72c:	00159313          	slli	x6,x11,0x1
    e730:	00b33833          	sltu	x16,x6,x11
    e734:	00c80833          	add	x16,x16,x12
    e738:	01078833          	add	x16,x15,x16
    e73c:	ffe88893          	addi	x17,x17,-2
    e740:	00030593          	addi	x11,x6,0
    e744:	f6a802e3          	beq	x16,x10,e6a8 <__divdf3+0x6d8>
    e748:	da1ff06f          	jal	x0,e4e8 <__divdf3+0x518>
    e74c:	fee5e0e3          	bltu	x11,x14,e72c <__divdf3+0x75c>
    e750:	00030893          	addi	x17,x6,0
    e754:	f4b71ce3          	bne	x14,x11,e6ac <__divdf3+0x6dc>
    e758:	ae9ff06f          	jal	x0,e240 <__divdf3+0x270>

0000e75c <__eqdf2>:
    e75c:	0145d713          	srli	x14,x11,0x14
    e760:	001007b7          	lui	x15,0x100
    e764:	fff78793          	addi	x15,x15,-1 # fffff <__heap_start+0xeb8cf>
    e768:	0146d813          	srli	x16,x13,0x14
    e76c:	7ff77713          	andi	x14,x14,2047
    e770:	7ff00313          	addi	x6,x0,2047
    e774:	00b7fe33          	and	x28,x15,x11
    e778:	00050893          	addi	x17,x10,0
    e77c:	00d7f7b3          	and	x15,x15,x13
    e780:	01f5d593          	srli	x11,x11,0x1f
    e784:	7ff87813          	andi	x16,x16,2047
    e788:	01f6d693          	srli	x13,x13,0x1f
    e78c:	00100513          	addi	x10,x0,1
    e790:	00670c63          	beq	x14,x6,e7a8 <__eqdf2+0x4c>
    e794:	00680863          	beq	x16,x6,e7a4 <__eqdf2+0x48>
    e798:	01071463          	bne	x14,x16,e7a0 <__eqdf2+0x44>
    e79c:	02fe0663          	beq	x28,x15,e7c8 <__eqdf2+0x6c>
    e7a0:	00008067          	jalr	x0,0(x1)
    e7a4:	00008067          	jalr	x0,0(x1)
    e7a8:	fee81ce3          	bne	x16,x14,e7a0 <__eqdf2+0x44>
    e7ac:	00fe67b3          	or	x15,x28,x15
    e7b0:	00c7e7b3          	or	x15,x15,x12
    e7b4:	0117e7b3          	or	x15,x15,x17
    e7b8:	fe0794e3          	bne	x15,x0,e7a0 <__eqdf2+0x44>
    e7bc:	40d585b3          	sub	x11,x11,x13
    e7c0:	00b03533          	sltu	x10,x0,x11
    e7c4:	00008067          	jalr	x0,0(x1)
    e7c8:	fcc89ce3          	bne	x17,x12,e7a0 <__eqdf2+0x44>
    e7cc:	00d58a63          	beq	x11,x13,e7e0 <__eqdf2+0x84>
    e7d0:	fc0718e3          	bne	x14,x0,e7a0 <__eqdf2+0x44>
    e7d4:	011e6e33          	or	x28,x28,x17
    e7d8:	01c03533          	sltu	x10,x0,x28
    e7dc:	00008067          	jalr	x0,0(x1)
    e7e0:	00000513          	addi	x10,x0,0
    e7e4:	00008067          	jalr	x0,0(x1)

0000e7e8 <__gedf2>:
    e7e8:	0145d893          	srli	x17,x11,0x14
    e7ec:	001007b7          	lui	x15,0x100
    e7f0:	fff78793          	addi	x15,x15,-1 # fffff <__heap_start+0xeb8cf>
    e7f4:	0146d713          	srli	x14,x13,0x14
    e7f8:	7ff8f893          	andi	x17,x17,2047
    e7fc:	7ff00e13          	addi	x28,x0,2047
    e800:	00b7f333          	and	x6,x15,x11
    e804:	00050813          	addi	x16,x10,0
    e808:	00050e93          	addi	x29,x10,0
    e80c:	00d7f7b3          	and	x15,x15,x13
    e810:	01f5d593          	srli	x11,x11,0x1f
    e814:	00060f13          	addi	x30,x12,0
    e818:	7ff77513          	andi	x10,x14,2047
    e81c:	01f6d693          	srli	x13,x13,0x1f
    e820:	05c88863          	beq	x17,x28,e870 <__gedf2+0x88>
    e824:	03c50463          	beq	x10,x28,e84c <__gedf2+0x64>
    e828:	06089a63          	bne	x17,x0,e89c <__gedf2+0xb4>
    e82c:	01036833          	or	x16,x6,x16
    e830:	06051063          	bne	x10,x0,e890 <__gedf2+0xa8>
    e834:	00c7e633          	or	x12,x15,x12
    e838:	08060c63          	beq	x12,x0,e8d0 <__gedf2+0xe8>
    e83c:	0a081263          	bne	x16,x0,e8e0 <__gedf2+0xf8>
    e840:	00100513          	addi	x10,x0,1
    e844:	08068263          	beq	x13,x0,e8c8 <__gedf2+0xe0>
    e848:	00008067          	jalr	x0,0(x1)
    e84c:	00c7e633          	or	x12,x15,x12
    e850:	08061463          	bne	x12,x0,e8d8 <__gedf2+0xf0>
    e854:	00089663          	bne	x17,x0,e860 <__gedf2+0x78>
    e858:	01036333          	or	x6,x6,x16
    e85c:	fe0302e3          	beq	x6,x0,e840 <__gedf2+0x58>
    e860:	06d58063          	beq	x11,x13,e8c0 <__gedf2+0xd8>
    e864:	06059263          	bne	x11,x0,e8c8 <__gedf2+0xe0>
    e868:	00100513          	addi	x10,x0,1
    e86c:	00008067          	jalr	x0,0(x1)
    e870:	01036333          	or	x6,x6,x16
    e874:	06031263          	bne	x6,x0,e8d8 <__gedf2+0xf0>
    e878:	ff1516e3          	bne	x10,x17,e864 <__gedf2+0x7c>
    e87c:	00c7e7b3          	or	x15,x15,x12
    e880:	04079c63          	bne	x15,x0,e8d8 <__gedf2+0xf0>
    e884:	fed590e3          	bne	x11,x13,e864 <__gedf2+0x7c>
    e888:	00000513          	addi	x10,x0,0
    e88c:	00008067          	jalr	x0,0(x1)
    e890:	fa0808e3          	beq	x16,x0,e840 <__gedf2+0x58>
    e894:	fcd598e3          	bne	x11,x13,e864 <__gedf2+0x7c>
    e898:	0280006f          	jal	x0,e8c0 <__gedf2+0xd8>
    e89c:	fc0504e3          	beq	x10,x0,e864 <__gedf2+0x7c>
    e8a0:	fcd592e3          	bne	x11,x13,e864 <__gedf2+0x7c>
    e8a4:	fd1540e3          	blt	x10,x17,e864 <__gedf2+0x7c>
    e8a8:	00a8cc63          	blt	x17,x10,e8c0 <__gedf2+0xd8>
    e8ac:	fa67ece3          	bltu	x15,x6,e864 <__gedf2+0x7c>
    e8b0:	00f31863          	bne	x6,x15,e8c0 <__gedf2+0xd8>
    e8b4:	fbdf68e3          	bltu	x30,x29,e864 <__gedf2+0x7c>
    e8b8:	00000513          	addi	x10,x0,0
    e8bc:	f9eef6e3          	bgeu	x29,x30,e848 <__gedf2+0x60>
    e8c0:	00100513          	addi	x10,x0,1
    e8c4:	f80592e3          	bne	x11,x0,e848 <__gedf2+0x60>
    e8c8:	fff00513          	addi	x10,x0,-1
    e8cc:	00008067          	jalr	x0,0(x1)
    e8d0:	f8081ae3          	bne	x16,x0,e864 <__gedf2+0x7c>
    e8d4:	00008067          	jalr	x0,0(x1)
    e8d8:	ffe00513          	addi	x10,x0,-2
    e8dc:	00008067          	jalr	x0,0(x1)
    e8e0:	fcd586e3          	beq	x11,x13,e8ac <__gedf2+0xc4>
    e8e4:	f81ff06f          	jal	x0,e864 <__gedf2+0x7c>

0000e8e8 <__ledf2>:
    e8e8:	0145d893          	srli	x17,x11,0x14
    e8ec:	001007b7          	lui	x15,0x100
    e8f0:	fff78793          	addi	x15,x15,-1 # fffff <__heap_start+0xeb8cf>
    e8f4:	0146d713          	srli	x14,x13,0x14
    e8f8:	7ff8f893          	andi	x17,x17,2047
    e8fc:	7ff00313          	addi	x6,x0,2047
    e900:	00b7fe33          	and	x28,x15,x11
    e904:	00050813          	addi	x16,x10,0
    e908:	00050e93          	addi	x29,x10,0
    e90c:	00d7f7b3          	and	x15,x15,x13
    e910:	01f5d593          	srli	x11,x11,0x1f
    e914:	00060f13          	addi	x30,x12,0
    e918:	7ff77513          	andi	x10,x14,2047
    e91c:	01f6d693          	srli	x13,x13,0x1f
    e920:	04688a63          	beq	x17,x6,e974 <__ledf2+0x8c>
    e924:	02650463          	beq	x10,x6,e94c <__ledf2+0x64>
    e928:	06089863          	bne	x17,x0,e998 <__ledf2+0xb0>
    e92c:	010e6833          	or	x16,x28,x16
    e930:	08051e63          	bne	x10,x0,e9cc <__ledf2+0xe4>
    e934:	00c7e633          	or	x12,x15,x12
    e938:	0a060463          	beq	x12,x0,e9e0 <__ledf2+0xf8>
    e93c:	0a081663          	bne	x16,x0,e9e8 <__ledf2+0x100>
    e940:	00100513          	addi	x10,x0,1
    e944:	08068063          	beq	x13,x0,e9c4 <__ledf2+0xdc>
    e948:	00008067          	jalr	x0,0(x1)
    e94c:	00c7e633          	or	x12,x15,x12
    e950:	00200513          	addi	x10,x0,2
    e954:	fe061ae3          	bne	x12,x0,e948 <__ledf2+0x60>
    e958:	00089663          	bne	x17,x0,e964 <__ledf2+0x7c>
    e95c:	010e6e33          	or	x28,x28,x16
    e960:	fe0e00e3          	beq	x28,x0,e940 <__ledf2+0x58>
    e964:	04d58c63          	beq	x11,x13,e9bc <__ledf2+0xd4>
    e968:	04059e63          	bne	x11,x0,e9c4 <__ledf2+0xdc>
    e96c:	00100513          	addi	x10,x0,1
    e970:	00008067          	jalr	x0,0(x1)
    e974:	010e6e33          	or	x28,x28,x16
    e978:	060e1063          	bne	x28,x0,e9d8 <__ledf2+0xf0>
    e97c:	ff1516e3          	bne	x10,x17,e968 <__ledf2+0x80>
    e980:	00c7e7b3          	or	x15,x15,x12
    e984:	00200513          	addi	x10,x0,2
    e988:	fc0790e3          	bne	x15,x0,e948 <__ledf2+0x60>
    e98c:	fcd59ee3          	bne	x11,x13,e968 <__ledf2+0x80>
    e990:	00000513          	addi	x10,x0,0
    e994:	00008067          	jalr	x0,0(x1)
    e998:	fc0508e3          	beq	x10,x0,e968 <__ledf2+0x80>
    e99c:	fcd596e3          	bne	x11,x13,e968 <__ledf2+0x80>
    e9a0:	fd1544e3          	blt	x10,x17,e968 <__ledf2+0x80>
    e9a4:	00a8cc63          	blt	x17,x10,e9bc <__ledf2+0xd4>
    e9a8:	fdc7e0e3          	bltu	x15,x28,e968 <__ledf2+0x80>
    e9ac:	00fe1863          	bne	x28,x15,e9bc <__ledf2+0xd4>
    e9b0:	fbdf6ce3          	bltu	x30,x29,e968 <__ledf2+0x80>
    e9b4:	00000513          	addi	x10,x0,0
    e9b8:	f9eef8e3          	bgeu	x29,x30,e948 <__ledf2+0x60>
    e9bc:	00100513          	addi	x10,x0,1
    e9c0:	f80594e3          	bne	x11,x0,e948 <__ledf2+0x60>
    e9c4:	fff00513          	addi	x10,x0,-1
    e9c8:	00008067          	jalr	x0,0(x1)
    e9cc:	f6080ae3          	beq	x16,x0,e940 <__ledf2+0x58>
    e9d0:	f8d59ce3          	bne	x11,x13,e968 <__ledf2+0x80>
    e9d4:	fe9ff06f          	jal	x0,e9bc <__ledf2+0xd4>
    e9d8:	00200513          	addi	x10,x0,2
    e9dc:	00008067          	jalr	x0,0(x1)
    e9e0:	f80814e3          	bne	x16,x0,e968 <__ledf2+0x80>
    e9e4:	00008067          	jalr	x0,0(x1)
    e9e8:	fcd580e3          	beq	x11,x13,e9a8 <__ledf2+0xc0>
    e9ec:	f7dff06f          	jal	x0,e968 <__ledf2+0x80>

0000e9f0 <__muldf3>:
    e9f0:	fd010113          	addi	x2,x2,-48
    e9f4:	0145d793          	srli	x15,x11,0x14
    e9f8:	02812423          	sw	x8,40(x2)
    e9fc:	02912223          	sw	x9,36(x2)
    ea00:	03212023          	sw	x18,32(x2)
    ea04:	01312e23          	sw	x19,28(x2)
    ea08:	01512a23          	sw	x21,20(x2)
    ea0c:	00c59493          	slli	x9,x11,0xc
    ea10:	02112623          	sw	x1,44(x2)
    ea14:	01412c23          	sw	x20,24(x2)
    ea18:	01612823          	sw	x22,16(x2)
    ea1c:	01712623          	sw	x23,12(x2)
    ea20:	01812423          	sw	x24,8(x2)
    ea24:	7ff7f793          	andi	x15,x15,2047
    ea28:	00050413          	addi	x8,x10,0
    ea2c:	00060a93          	addi	x21,x12,0
    ea30:	00068993          	addi	x19,x13,0
    ea34:	00c4d493          	srli	x9,x9,0xc
    ea38:	01f5d913          	srli	x18,x11,0x1f
    ea3c:	42078463          	beq	x15,x0,ee64 <__muldf3+0x474>
    ea40:	7ff00713          	addi	x14,x0,2047
    ea44:	0ae78663          	beq	x15,x14,eaf0 <__muldf3+0x100>
    ea48:	00349693          	slli	x13,x9,0x3
    ea4c:	01d55713          	srli	x14,x10,0x1d
    ea50:	00d76733          	or	x14,x14,x13
    ea54:	008006b7          	lui	x13,0x800
    ea58:	00d764b3          	or	x9,x14,x13
    ea5c:	00351a13          	slli	x20,x10,0x3
    ea60:	c0178c13          	addi	x24,x15,-1023
    ea64:	00000b13          	addi	x22,x0,0
    ea68:	00000b93          	addi	x23,x0,0
    ea6c:	0149d793          	srli	x15,x19,0x14
    ea70:	00c99713          	slli	x14,x19,0xc
    ea74:	7ff7f793          	andi	x15,x15,2047
    ea78:	000a8f13          	addi	x30,x21,0
    ea7c:	00c75413          	srli	x8,x14,0xc
    ea80:	01f9d993          	srli	x19,x19,0x1f
    ea84:	0a078063          	beq	x15,x0,eb24 <__muldf3+0x134>
    ea88:	7ff00713          	addi	x14,x0,2047
    ea8c:	14e78e63          	beq	x15,x14,ebe8 <__muldf3+0x1f8>
    ea90:	00341713          	slli	x14,x8,0x3
    ea94:	01dad593          	srli	x11,x21,0x1d
    ea98:	00e5e5b3          	or	x11,x11,x14
    ea9c:	c0178793          	addi	x15,x15,-1023
    eaa0:	00800737          	lui	x14,0x800
    eaa4:	00e5e433          	or	x8,x11,x14
    eaa8:	003a9f13          	slli	x30,x21,0x3
    eaac:	018788b3          	add	x17,x15,x24
    eab0:	00000313          	addi	x6,x0,0
    eab4:	00a00713          	addi	x14,x0,10
    eab8:	00188513          	addi	x10,x17,1
    eabc:	0b674c63          	blt	x14,x22,eb74 <__muldf3+0x184>
    eac0:	013945b3          	xor	x11,x18,x19
    eac4:	00200793          	addi	x15,x0,2
    eac8:	00058813          	addi	x16,x11,0
    eacc:	1567c663          	blt	x15,x22,ec18 <__muldf3+0x228>
    ead0:	fffb0b13          	addi	x22,x22,-1
    ead4:	00100713          	addi	x14,x0,1
    ead8:	17676063          	bltu	x14,x22,ec38 <__muldf3+0x248>
    eadc:	3cf30a63          	beq	x6,x15,eeb0 <__muldf3+0x4c0>
    eae0:	00040493          	addi	x9,x8,0
    eae4:	000f0a13          	addi	x20,x30,0
    eae8:	00030b93          	addi	x23,x6,0
    eaec:	09c0006f          	jal	x0,eb88 <__muldf3+0x198>
    eaf0:	00a4ea33          	or	x20,x9,x10
    eaf4:	3c0a1863          	bne	x20,x0,eec4 <__muldf3+0x4d4>
    eaf8:	0149d793          	srli	x15,x19,0x14
    eafc:	00c99713          	slli	x14,x19,0xc
    eb00:	7ff7f793          	andi	x15,x15,2047
    eb04:	00000493          	addi	x9,x0,0
    eb08:	00800b13          	addi	x22,x0,8
    eb0c:	7ff00c13          	addi	x24,x0,2047
    eb10:	00200b93          	addi	x23,x0,2
    eb14:	000a8f13          	addi	x30,x21,0
    eb18:	00c75413          	srli	x8,x14,0xc
    eb1c:	01f9d993          	srli	x19,x19,0x1f
    eb20:	f60794e3          	bne	x15,x0,ea88 <__muldf3+0x98>
    eb24:	015467b3          	or	x15,x8,x21
    eb28:	3c078263          	beq	x15,x0,eeec <__muldf3+0x4fc>
    eb2c:	4a040063          	beq	x8,x0,efcc <__muldf3+0x5dc>
    eb30:	00040513          	addi	x10,x8,0
    eb34:	234040ef          	jal	x1,12d68 <__clzsi2>
    eb38:	00050893          	addi	x17,x10,0
    eb3c:	ff550713          	addi	x14,x10,-11
    eb40:	01d00793          	addi	x15,x0,29
    eb44:	ff888f13          	addi	x30,x17,-8
    eb48:	40e787b3          	sub	x15,x15,x14
    eb4c:	00fad7b3          	srl	x15,x21,x15
    eb50:	01e41733          	sll	x14,x8,x30
    eb54:	00e7e433          	or	x8,x15,x14
    eb58:	01ea9f33          	sll	x30,x21,x30
    eb5c:	411c08b3          	sub	x17,x24,x17
    eb60:	c0d88893          	addi	x17,x17,-1011
    eb64:	00a00713          	addi	x14,x0,10
    eb68:	00000313          	addi	x6,x0,0
    eb6c:	00188513          	addi	x10,x17,1
    eb70:	f56758e3          	bge	x14,x22,eac0 <__muldf3+0xd0>
    eb74:	00090593          	addi	x11,x18,0
    eb78:	00200793          	addi	x15,x0,2
    eb7c:	32fb8a63          	beq	x23,x15,eeb0 <__muldf3+0x4c0>
    eb80:	00300793          	addi	x15,x0,3
    eb84:	48fb8c63          	beq	x23,x15,f01c <__muldf3+0x62c>
    eb88:	00100793          	addi	x15,x0,1
    eb8c:	00058813          	addi	x16,x11,0
    eb90:	46fb9a63          	bne	x23,x15,f004 <__muldf3+0x614>
    eb94:	00000793          	addi	x15,x0,0
    eb98:	00000693          	addi	x13,x0,0
    eb9c:	00000713          	addi	x14,x0,0
    eba0:	02c12083          	lw	x1,44(x2)
    eba4:	02812403          	lw	x8,40(x2)
    eba8:	01479793          	slli	x15,x15,0x14
    ebac:	00d7e7b3          	or	x15,x15,x13
    ebb0:	01f81693          	slli	x13,x16,0x1f
    ebb4:	00d7e7b3          	or	x15,x15,x13
    ebb8:	02412483          	lw	x9,36(x2)
    ebbc:	02012903          	lw	x18,32(x2)
    ebc0:	01c12983          	lw	x19,28(x2)
    ebc4:	01812a03          	lw	x20,24(x2)
    ebc8:	01412a83          	lw	x21,20(x2)
    ebcc:	01012b03          	lw	x22,16(x2)
    ebd0:	00c12b83          	lw	x23,12(x2)
    ebd4:	00812c03          	lw	x24,8(x2)
    ebd8:	00070513          	addi	x10,x14,0 # 800000 <__heap_end+0x400000>
    ebdc:	00078593          	addi	x11,x15,0
    ebe0:	03010113          	addi	x2,x2,48
    ebe4:	00008067          	jalr	x0,0(x1)
    ebe8:	01546733          	or	x14,x8,x21
    ebec:	7ffc0893          	addi	x17,x24,2047
    ebf0:	30070a63          	beq	x14,x0,ef04 <__muldf3+0x514>
    ebf4:	00001737          	lui	x14,0x1
    ebf8:	01394833          	xor	x16,x18,x19
    ebfc:	80070713          	addi	x14,x14,-2048 # 800 <m_fast0_irq_handler+0x84>
    ec00:	003b6b13          	ori	x22,x22,3
    ec04:	00a00693          	addi	x13,x0,10
    ec08:	00080593          	addi	x11,x16,0
    ec0c:	00ec0533          	add	x10,x24,x14
    ec10:	3966c063          	blt	x13,x22,ef90 <__muldf3+0x5a0>
    ec14:	00300313          	addi	x6,x0,3
    ec18:	00100613          	addi	x12,x0,1
    ec1c:	01661633          	sll	x12,x12,x22
    ec20:	53067713          	andi	x14,x12,1328
    ec24:	f4071ae3          	bne	x14,x0,eb78 <__muldf3+0x188>
    ec28:	24067793          	andi	x15,x12,576
    ec2c:	3c079463          	bne	x15,x0,eff4 <__muldf3+0x604>
    ec30:	08867613          	andi	x12,x12,136
    ec34:	2e061263          	bne	x12,x0,ef18 <__muldf3+0x528>
    ec38:	00010fb7          	lui	x31,0x10
    ec3c:	ffff8e93          	addi	x29,x31,-1 # ffff <__multf3+0x163>
    ec40:	01da77b3          	and	x15,x20,x29
    ec44:	010a5693          	srli	x13,x20,0x10
    ec48:	01df7eb3          	and	x29,x30,x29
    ec4c:	010f5e13          	srli	x28,x30,0x10
    ec50:	03d78733          	mul	x14,x15,x29
    ec54:	03d68333          	mul	x6,x13,x29
    ec58:	01075593          	srli	x11,x14,0x10
    ec5c:	02fe0633          	mul	x12,x28,x15
    ec60:	00660633          	add	x12,x12,x6
    ec64:	00c585b3          	add	x11,x11,x12
    ec68:	03c68f33          	mul	x30,x13,x28
    ec6c:	0065f463          	bgeu	x11,x6,ec74 <__muldf3+0x284>
    ec70:	01ff0f33          	add	x30,x30,x31
    ec74:	000103b7          	lui	x7,0x10
    ec78:	fff38613          	addi	x12,x7,-1 # ffff <__multf3+0x163>
    ec7c:	00c5f333          	and	x6,x11,x12
    ec80:	01045f93          	srli	x31,x8,0x10
    ec84:	00c77733          	and	x14,x14,x12
    ec88:	00c47433          	and	x8,x8,x12
    ec8c:	01031313          	slli	x6,x6,0x10
    ec90:	028782b3          	mul	x5,x15,x8
    ec94:	00e30333          	add	x6,x6,x14
    ec98:	0105d593          	srli	x11,x11,0x10
    ec9c:	02868733          	mul	x14,x13,x8
    eca0:	0102d613          	srli	x12,x5,0x10
    eca4:	02ff87b3          	mul	x15,x31,x15
    eca8:	00e787b3          	add	x15,x15,x14
    ecac:	00f60633          	add	x12,x12,x15
    ecb0:	03f687b3          	mul	x15,x13,x31
    ecb4:	00e67463          	bgeu	x12,x14,ecbc <__muldf3+0x2cc>
    ecb8:	007787b3          	add	x15,x15,x7
    ecbc:	00010937          	lui	x18,0x10
    ecc0:	fff90993          	addi	x19,x18,-1 # ffff <__multf3+0x163>
    ecc4:	01367733          	and	x14,x12,x19
    ecc8:	0104d393          	srli	x7,x9,0x10
    eccc:	0134f6b3          	and	x13,x9,x19
    ecd0:	0132f2b3          	and	x5,x5,x19
    ecd4:	01071713          	slli	x14,x14,0x10
    ecd8:	02de84b3          	mul	x9,x29,x13
    ecdc:	00570733          	add	x14,x14,x5
    ece0:	01065613          	srli	x12,x12,0x10
    ece4:	00f60633          	add	x12,x12,x15
    ece8:	00e585b3          	add	x11,x11,x14
    ecec:	02de02b3          	mul	x5,x28,x13
    ecf0:	0104d793          	srli	x15,x9,0x10
    ecf4:	03d38eb3          	mul	x29,x7,x29
    ecf8:	01d282b3          	add	x5,x5,x29
    ecfc:	005787b3          	add	x15,x15,x5
    ed00:	027e0e33          	mul	x28,x28,x7
    ed04:	01d7f463          	bgeu	x15,x29,ed0c <__muldf3+0x31c>
    ed08:	012e0e33          	add	x28,x28,x18
    ed0c:	000109b7          	lui	x19,0x10
    ed10:	fff98e93          	addi	x29,x19,-1 # ffff <__multf3+0x163>
    ed14:	01d7f2b3          	and	x5,x15,x29
    ed18:	0107d793          	srli	x15,x15,0x10
    ed1c:	01c787b3          	add	x15,x15,x28
    ed20:	01d4feb3          	and	x29,x9,x29
    ed24:	01029293          	slli	x5,x5,0x10
    ed28:	02d40933          	mul	x18,x8,x13
    ed2c:	01d282b3          	add	x5,x5,x29
    ed30:	02838433          	mul	x8,x7,x8
    ed34:	01095e13          	srli	x28,x18,0x10
    ed38:	02df86b3          	mul	x13,x31,x13
    ed3c:	008686b3          	add	x13,x13,x8
    ed40:	00de0e33          	add	x28,x28,x13
    ed44:	027f8eb3          	mul	x29,x31,x7
    ed48:	008e7463          	bgeu	x28,x8,ed50 <__muldf3+0x360>
    ed4c:	013e8eb3          	add	x29,x29,x19
    ed50:	00010fb7          	lui	x31,0x10
    ed54:	ffff8f93          	addi	x31,x31,-1 # ffff <__multf3+0x163>
    ed58:	01fe76b3          	and	x13,x28,x31
    ed5c:	01069693          	slli	x13,x13,0x10
    ed60:	01f97933          	and	x18,x18,x31
    ed64:	01e585b3          	add	x11,x11,x30
    ed68:	012686b3          	add	x13,x13,x18
    ed6c:	00c68633          	add	x12,x13,x12
    ed70:	00e5b733          	sltu	x14,x11,x14
    ed74:	00e60733          	add	x14,x12,x14
    ed78:	00558f33          	add	x30,x11,x5
    ed7c:	00f707b3          	add	x15,x14,x15
    ed80:	00bf35b3          	sltu	x11,x30,x11
    ed84:	00b785b3          	add	x11,x15,x11
    ed88:	00d636b3          	sltu	x13,x12,x13
    ed8c:	00c73633          	sltu	x12,x14,x12
    ed90:	00c6e6b3          	or	x13,x13,x12
    ed94:	00e7b733          	sltu	x14,x15,x14
    ed98:	010e5e13          	srli	x28,x28,0x10
    ed9c:	00f5b7b3          	sltu	x15,x11,x15
    eda0:	01c686b3          	add	x13,x13,x28
    eda4:	00f76733          	or	x14,x14,x15
    eda8:	009f1793          	slli	x15,x30,0x9
    edac:	00d70733          	add	x14,x14,x13
    edb0:	0067e7b3          	or	x15,x15,x6
    edb4:	01d70733          	add	x14,x14,x29
    edb8:	00f037b3          	sltu	x15,x0,x15
    edbc:	017f5613          	srli	x12,x30,0x17
    edc0:	00971713          	slli	x14,x14,0x9
    edc4:	0175d693          	srli	x13,x11,0x17
    edc8:	00c7e7b3          	or	x15,x15,x12
    edcc:	00959593          	slli	x11,x11,0x9
    edd0:	00b7ea33          	or	x20,x15,x11
    edd4:	00771793          	slli	x15,x14,0x7
    edd8:	00d764b3          	or	x9,x14,x13
    eddc:	0207d063          	bge	x15,x0,edfc <__muldf3+0x40c>
    ede0:	001a5713          	srli	x14,x20,0x1
    ede4:	001a7793          	andi	x15,x20,1
    ede8:	01f49693          	slli	x13,x9,0x1f
    edec:	00f767b3          	or	x15,x14,x15
    edf0:	00d7ea33          	or	x20,x15,x13
    edf4:	0014d493          	srli	x9,x9,0x1
    edf8:	00050893          	addi	x17,x10,0
    edfc:	3ff88613          	addi	x12,x17,1023
    ee00:	12c05663          	bge	x0,x12,ef2c <__muldf3+0x53c>
    ee04:	007a7793          	andi	x15,x20,7
    ee08:	02078063          	beq	x15,x0,ee28 <__muldf3+0x438>
    ee0c:	00fa7793          	andi	x15,x20,15
    ee10:	00400713          	addi	x14,x0,4
    ee14:	00e78a63          	beq	x15,x14,ee28 <__muldf3+0x438>
    ee18:	004a0713          	addi	x14,x20,4
    ee1c:	014737b3          	sltu	x15,x14,x20
    ee20:	00f484b3          	add	x9,x9,x15
    ee24:	00070a13          	addi	x20,x14,0
    ee28:	00749793          	slli	x15,x9,0x7
    ee2c:	0007da63          	bge	x15,x0,ee40 <__muldf3+0x450>
    ee30:	ff0007b7          	lui	x15,0xff000
    ee34:	fff78793          	addi	x15,x15,-1 # feffffff <__heap_end+0xfebfffff>
    ee38:	00f4f4b3          	and	x9,x9,x15
    ee3c:	40088613          	addi	x12,x17,1024
    ee40:	7fe00793          	addi	x15,x0,2046
    ee44:	1cc7c463          	blt	x15,x12,f00c <__muldf3+0x61c>
    ee48:	003a5793          	srli	x15,x20,0x3
    ee4c:	01d49713          	slli	x14,x9,0x1d
    ee50:	00949693          	slli	x13,x9,0x9
    ee54:	00f76733          	or	x14,x14,x15
    ee58:	00c6d693          	srli	x13,x13,0xc
    ee5c:	7ff67793          	andi	x15,x12,2047
    ee60:	d41ff06f          	jal	x0,eba0 <__muldf3+0x1b0>
    ee64:	00a4ea33          	or	x20,x9,x10
    ee68:	060a0863          	beq	x20,x0,eed8 <__muldf3+0x4e8>
    ee6c:	12048e63          	beq	x9,x0,efa8 <__muldf3+0x5b8>
    ee70:	00048513          	addi	x10,x9,0
    ee74:	6f5030ef          	jal	x1,12d68 <__clzsi2>
    ee78:	00050613          	addi	x12,x10,0
    ee7c:	ff550693          	addi	x13,x10,-11
    ee80:	01d00713          	addi	x14,x0,29
    ee84:	ff860793          	addi	x15,x12,-8
    ee88:	40d70733          	sub	x14,x14,x13
    ee8c:	00e45733          	srl	x14,x8,x14
    ee90:	00f496b3          	sll	x13,x9,x15
    ee94:	00d764b3          	or	x9,x14,x13
    ee98:	00f41a33          	sll	x20,x8,x15
    ee9c:	c0d00793          	addi	x15,x0,-1011
    eea0:	40c78c33          	sub	x24,x15,x12
    eea4:	00000b13          	addi	x22,x0,0
    eea8:	00000b93          	addi	x23,x0,0
    eeac:	bc1ff06f          	jal	x0,ea6c <__muldf3+0x7c>
    eeb0:	00058813          	addi	x16,x11,0
    eeb4:	7ff00793          	addi	x15,x0,2047
    eeb8:	00000693          	addi	x13,x0,0
    eebc:	00000713          	addi	x14,x0,0
    eec0:	ce1ff06f          	jal	x0,eba0 <__muldf3+0x1b0>
    eec4:	00050a13          	addi	x20,x10,0
    eec8:	00c00b13          	addi	x22,x0,12
    eecc:	7ff00c13          	addi	x24,x0,2047
    eed0:	00300b93          	addi	x23,x0,3
    eed4:	b99ff06f          	jal	x0,ea6c <__muldf3+0x7c>
    eed8:	00000493          	addi	x9,x0,0
    eedc:	00400b13          	addi	x22,x0,4
    eee0:	00000c13          	addi	x24,x0,0
    eee4:	00100b93          	addi	x23,x0,1
    eee8:	b85ff06f          	jal	x0,ea6c <__muldf3+0x7c>
    eeec:	001b6b13          	ori	x22,x22,1
    eef0:	000c0893          	addi	x17,x24,0
    eef4:	00000413          	addi	x8,x0,0
    eef8:	00000f13          	addi	x30,x0,0
    eefc:	00100313          	addi	x6,x0,1
    ef00:	bb5ff06f          	jal	x0,eab4 <__muldf3+0xc4>
    ef04:	002b6b13          	ori	x22,x22,2
    ef08:	00000413          	addi	x8,x0,0
    ef0c:	00000f13          	addi	x30,x0,0
    ef10:	00200313          	addi	x6,x0,2
    ef14:	ba1ff06f          	jal	x0,eab4 <__muldf3+0xc4>
    ef18:	00040493          	addi	x9,x8,0
    ef1c:	000f0a13          	addi	x20,x30,0
    ef20:	00030b93          	addi	x23,x6,0
    ef24:	00098593          	addi	x11,x19,0
    ef28:	c51ff06f          	jal	x0,eb78 <__muldf3+0x188>
    ef2c:	00100713          	addi	x14,x0,1
    ef30:	10061063          	bne	x12,x0,f030 <__muldf3+0x640>
    ef34:	41e88893          	addi	x17,x17,1054
    ef38:	011a1633          	sll	x12,x20,x17
    ef3c:	00c03633          	sltu	x12,x0,x12
    ef40:	011498b3          	sll	x17,x9,x17
    ef44:	00ea57b3          	srl	x15,x20,x14
    ef48:	01166633          	or	x12,x12,x17
    ef4c:	00f66633          	or	x12,x12,x15
    ef50:	00767793          	andi	x15,x12,7
    ef54:	00e4d5b3          	srl	x11,x9,x14
    ef58:	02078063          	beq	x15,x0,ef78 <__muldf3+0x588>
    ef5c:	00f67793          	andi	x15,x12,15
    ef60:	00400713          	addi	x14,x0,4
    ef64:	00e78a63          	beq	x15,x14,ef78 <__muldf3+0x588>
    ef68:	00460793          	addi	x15,x12,4
    ef6c:	00c7b633          	sltu	x12,x15,x12
    ef70:	00c585b3          	add	x11,x11,x12
    ef74:	00078613          	addi	x12,x15,0
    ef78:	00859513          	slli	x10,x11,0x8
    ef7c:	00100793          	addi	x15,x0,1
    ef80:	00000693          	addi	x13,x0,0
    ef84:	00000713          	addi	x14,x0,0
    ef88:	c0054ce3          	blt	x10,x0,eba0 <__muldf3+0x1b0>
    ef8c:	10c0006f          	jal	x0,f098 <__muldf3+0x6a8>
    ef90:	00f00713          	addi	x14,x0,15
    ef94:	12eb1063          	bne	x22,x14,f0b4 <__muldf3+0x6c4>
    ef98:	00000813          	addi	x16,x0,0
    ef9c:	000806b7          	lui	x13,0x80
    efa0:	00000713          	addi	x14,x0,0
    efa4:	bfdff06f          	jal	x0,eba0 <__muldf3+0x1b0>
    efa8:	5c1030ef          	jal	x1,12d68 <__clzsi2>
    efac:	01550693          	addi	x13,x10,21
    efb0:	01c00793          	addi	x15,x0,28
    efb4:	02050613          	addi	x12,x10,32
    efb8:	ecd7d4e3          	bge	x15,x13,ee80 <__muldf3+0x490>
    efbc:	ff850513          	addi	x10,x10,-8
    efc0:	00000a13          	addi	x20,x0,0
    efc4:	00a414b3          	sll	x9,x8,x10
    efc8:	ed5ff06f          	jal	x0,ee9c <__muldf3+0x4ac>
    efcc:	000a8513          	addi	x10,x21,0
    efd0:	599030ef          	jal	x1,12d68 <__clzsi2>
    efd4:	01550713          	addi	x14,x10,21
    efd8:	01c00793          	addi	x15,x0,28
    efdc:	02050893          	addi	x17,x10,32
    efe0:	b6e7d0e3          	bge	x15,x14,eb40 <__muldf3+0x150>
    efe4:	ff850513          	addi	x10,x10,-8
    efe8:	00000f13          	addi	x30,x0,0
    efec:	00aa9433          	sll	x8,x21,x10
    eff0:	b6dff06f          	jal	x0,eb5c <__muldf3+0x16c>
    eff4:	00000813          	addi	x16,x0,0
    eff8:	7ff00793          	addi	x15,x0,2047
    effc:	000806b7          	lui	x13,0x80
    f000:	ba1ff06f          	jal	x0,eba0 <__muldf3+0x1b0>
    f004:	00050893          	addi	x17,x10,0
    f008:	df5ff06f          	jal	x0,edfc <__muldf3+0x40c>
    f00c:	7ff00793          	addi	x15,x0,2047
    f010:	00000693          	addi	x13,x0,0
    f014:	00000713          	addi	x14,x0,0
    f018:	b89ff06f          	jal	x0,eba0 <__muldf3+0x1b0>
    f01c:	00000813          	addi	x16,x0,0
    f020:	7ff00793          	addi	x15,x0,2047
    f024:	000806b7          	lui	x13,0x80
    f028:	00000713          	addi	x14,x0,0
    f02c:	b75ff06f          	jal	x0,eba0 <__muldf3+0x1b0>
    f030:	40c70733          	sub	x14,x14,x12
    f034:	03800793          	addi	x15,x0,56
    f038:	b4e7cee3          	blt	x15,x14,eb94 <__muldf3+0x1a4>
    f03c:	01f00793          	addi	x15,x0,31
    f040:	eee7dae3          	bge	x15,x14,ef34 <__muldf3+0x544>
    f044:	fe100793          	addi	x15,x0,-31
    f048:	40c787b3          	sub	x15,x15,x12
    f04c:	02000693          	addi	x13,x0,32
    f050:	00f4d7b3          	srl	x15,x9,x15
    f054:	00d70863          	beq	x14,x13,f064 <__muldf3+0x674>
    f058:	43e88893          	addi	x17,x17,1086
    f05c:	011498b3          	sll	x17,x9,x17
    f060:	011a6a33          	or	x20,x20,x17
    f064:	01403633          	sltu	x12,x0,x20
    f068:	00f66633          	or	x12,x12,x15
    f06c:	00767713          	andi	x14,x12,7
    f070:	00000693          	addi	x13,x0,0
    f074:	02070863          	beq	x14,x0,f0a4 <__muldf3+0x6b4>
    f078:	00f67793          	andi	x15,x12,15
    f07c:	00400713          	addi	x14,x0,4
    f080:	00000593          	addi	x11,x0,0
    f084:	00e78a63          	beq	x15,x14,f098 <__muldf3+0x6a8>
    f088:	00460793          	addi	x15,x12,4
    f08c:	00c7b633          	sltu	x12,x15,x12
    f090:	00c035b3          	sltu	x11,x0,x12
    f094:	00078613          	addi	x12,x15,0
    f098:	00959693          	slli	x13,x11,0x9
    f09c:	01d59713          	slli	x14,x11,0x1d
    f0a0:	00c6d693          	srli	x13,x13,0xc
    f0a4:	00365613          	srli	x12,x12,0x3
    f0a8:	00e66733          	or	x14,x12,x14
    f0ac:	00000793          	addi	x15,x0,0
    f0b0:	af1ff06f          	jal	x0,eba0 <__muldf3+0x1b0>
    f0b4:	00040493          	addi	x9,x8,0
    f0b8:	000a8a13          	addi	x20,x21,0
    f0bc:	00300b93          	addi	x23,x0,3
    f0c0:	00098593          	addi	x11,x19,0
    f0c4:	ab5ff06f          	jal	x0,eb78 <__muldf3+0x188>

0000f0c8 <__subdf3>:
    f0c8:	001007b7          	lui	x15,0x100
    f0cc:	fff78793          	addi	x15,x15,-1 # fffff <__heap_start+0xeb8cf>
    f0d0:	fe010113          	addi	x2,x2,-32
    f0d4:	00b7f8b3          	and	x17,x15,x11
    f0d8:	00d7f833          	and	x16,x15,x13
    f0dc:	0146d793          	srli	x15,x13,0x14
    f0e0:	00389893          	slli	x17,x17,0x3
    f0e4:	00812c23          	sw	x8,24(x2)
    f0e8:	01312623          	sw	x19,12(x2)
    f0ec:	01f5d413          	srli	x8,x11,0x1f
    f0f0:	0145d993          	srli	x19,x11,0x14
    f0f4:	01d55713          	srli	x14,x10,0x1d
    f0f8:	00381813          	slli	x16,x16,0x3
    f0fc:	01d65593          	srli	x11,x12,0x1d
    f100:	00112e23          	sw	x1,28(x2)
    f104:	00912a23          	sw	x9,20(x2)
    f108:	01212823          	sw	x18,16(x2)
    f10c:	7ff7ff13          	andi	x30,x15,2047
    f110:	7ff00313          	addi	x6,x0,2047
    f114:	01176733          	or	x14,x14,x17
    f118:	7ff9f993          	andi	x19,x19,2047
    f11c:	00040e13          	addi	x28,x8,0
    f120:	00351893          	slli	x17,x10,0x3
    f124:	01f6d693          	srli	x13,x13,0x1f
    f128:	0105e5b3          	or	x11,x11,x16
    f12c:	00361e93          	slli	x29,x12,0x3
    f130:	206f0c63          	beq	x30,x6,f348 <__subdf3+0x280>
    f134:	0016c693          	xori	x13,x13,1
    f138:	41e987b3          	sub	x15,x19,x30
    f13c:	16d40263          	beq	x8,x13,f2a0 <__subdf3+0x1d8>
    f140:	00f05ae3          	bge	x0,x15,f954 <__subdf3+0x88c>
    f144:	240f0a63          	beq	x30,x0,f398 <__subdf3+0x2d0>
    f148:	3c698463          	beq	x19,x6,f510 <__subdf3+0x448>
    f14c:	03800693          	addi	x13,x0,56
    f150:	00100513          	addi	x10,x0,1
    f154:	02f6ce63          	blt	x13,x15,f190 <__subdf3+0xc8>
    f158:	008006b7          	lui	x13,0x800
    f15c:	00d5e5b3          	or	x11,x11,x13
    f160:	01f00693          	addi	x13,x0,31
    f164:	4ef6c463          	blt	x13,x15,f64c <__subdf3+0x584>
    f168:	02000693          	addi	x13,x0,32
    f16c:	40f686b3          	sub	x13,x13,x15
    f170:	00d59533          	sll	x10,x11,x13
    f174:	00fed633          	srl	x12,x29,x15
    f178:	00de96b3          	sll	x13,x29,x13
    f17c:	00c56533          	or	x10,x10,x12
    f180:	00d036b3          	sltu	x13,x0,x13
    f184:	00f5d7b3          	srl	x15,x11,x15
    f188:	00d56533          	or	x10,x10,x13
    f18c:	40f70733          	sub	x14,x14,x15
    f190:	40a88533          	sub	x10,x17,x10
    f194:	00a8b633          	sltu	x12,x17,x10
    f198:	00050493          	addi	x9,x10,0
    f19c:	40c70933          	sub	x18,x14,x12
    f1a0:	00891793          	slli	x15,x18,0x8
    f1a4:	3407d863          	bge	x15,x0,f4f4 <__subdf3+0x42c>
    f1a8:	008007b7          	lui	x15,0x800
    f1ac:	fff78793          	addi	x15,x15,-1 # 7fffff <__heap_end+0x3fffff>
    f1b0:	00f97933          	and	x18,x18,x15
    f1b4:	2e090663          	beq	x18,x0,f4a0 <__subdf3+0x3d8>
    f1b8:	00090513          	addi	x10,x18,0
    f1bc:	3ad030ef          	jal	x1,12d68 <__clzsi2>
    f1c0:	ff850793          	addi	x15,x10,-8
    f1c4:	02000693          	addi	x13,x0,32
    f1c8:	40f68733          	sub	x14,x13,x15
    f1cc:	00e4d733          	srl	x14,x9,x14
    f1d0:	00f91933          	sll	x18,x18,x15
    f1d4:	01276733          	or	x14,x14,x18
    f1d8:	00f494b3          	sll	x9,x9,x15
    f1dc:	3f37c463          	blt	x15,x19,f5c4 <__subdf3+0x4fc>
    f1e0:	413787b3          	sub	x15,x15,x19
    f1e4:	00178793          	addi	x15,x15,1
    f1e8:	40f686b3          	sub	x13,x13,x15
    f1ec:	00d49633          	sll	x12,x9,x13
    f1f0:	00f4d933          	srl	x18,x9,x15
    f1f4:	00c03633          	sltu	x12,x0,x12
    f1f8:	00c96633          	or	x12,x18,x12
    f1fc:	00d716b3          	sll	x13,x14,x13
    f200:	00c6e4b3          	or	x9,x13,x12
    f204:	00f75933          	srl	x18,x14,x15
    f208:	00000993          	addi	x19,x0,0
    f20c:	0074f793          	andi	x15,x9,7
    f210:	02078063          	beq	x15,x0,f230 <__subdf3+0x168>
    f214:	00f4f793          	andi	x15,x9,15
    f218:	00400713          	addi	x14,x0,4
    f21c:	00e78a63          	beq	x15,x14,f230 <__subdf3+0x168>
    f220:	00448793          	addi	x15,x9,4
    f224:	0097b533          	sltu	x10,x15,x9
    f228:	00a90933          	add	x18,x18,x10
    f22c:	00078493          	addi	x9,x15,0
    f230:	00891793          	slli	x15,x18,0x8
    f234:	6c07d063          	bge	x15,x0,f8f4 <__subdf3+0x82c>
    f238:	00198793          	addi	x15,x19,1
    f23c:	7ff00713          	addi	x14,x0,2047
    f240:	24e78663          	beq	x15,x14,f48c <__subdf3+0x3c4>
    f244:	ff800737          	lui	x14,0xff800
    f248:	fff70713          	addi	x14,x14,-1 # ff7fffff <__heap_end+0xff3fffff>
    f24c:	00e97733          	and	x14,x18,x14
    f250:	7ff7f793          	andi	x15,x15,2047
    f254:	01d71813          	slli	x16,x14,0x1d
    f258:	0034d513          	srli	x10,x9,0x3
    f25c:	00971713          	slli	x14,x14,0x9
    f260:	00a86833          	or	x16,x16,x10
    f264:	00c75713          	srli	x14,x14,0xc
    f268:	00147e13          	andi	x28,x8,1
    f26c:	01c12083          	lw	x1,28(x2)
    f270:	01812403          	lw	x8,24(x2)
    f274:	01479793          	slli	x15,x15,0x14
    f278:	00e7e7b3          	or	x15,x15,x14
    f27c:	01fe1713          	slli	x14,x28,0x1f
    f280:	00e7e7b3          	or	x15,x15,x14
    f284:	01412483          	lw	x9,20(x2)
    f288:	01012903          	lw	x18,16(x2)
    f28c:	00c12983          	lw	x19,12(x2)
    f290:	00080513          	addi	x10,x16,0
    f294:	00078593          	addi	x11,x15,0
    f298:	02010113          	addi	x2,x2,32
    f29c:	00008067          	jalr	x0,0(x1)
    f2a0:	70f05263          	bge	x0,x15,f9a4 <__subdf3+0x8dc>
    f2a4:	1c0f1663          	bne	x30,x0,f470 <__subdf3+0x3a8>
    f2a8:	01d5e6b3          	or	x13,x11,x29
    f2ac:	26068e63          	beq	x13,x0,f528 <__subdf3+0x460>
    f2b0:	fff78693          	addi	x13,x15,-1
    f2b4:	46068863          	beq	x13,x0,f724 <__subdf3+0x65c>
    f2b8:	24678c63          	beq	x15,x6,f510 <__subdf3+0x448>
    f2bc:	03800793          	addi	x15,x0,56
    f2c0:	00100913          	addi	x18,x0,1
    f2c4:	02d7cc63          	blt	x15,x13,f2fc <__subdf3+0x234>
    f2c8:	00068793          	addi	x15,x13,0 # 800000 <__heap_end+0x400000>
    f2cc:	01f00693          	addi	x13,x0,31
    f2d0:	48f6ca63          	blt	x13,x15,f764 <__subdf3+0x69c>
    f2d4:	02000693          	addi	x13,x0,32
    f2d8:	40f686b3          	sub	x13,x13,x15
    f2dc:	00d59933          	sll	x18,x11,x13
    f2e0:	00fed633          	srl	x12,x29,x15
    f2e4:	00de96b3          	sll	x13,x29,x13
    f2e8:	00c96933          	or	x18,x18,x12
    f2ec:	00d036b3          	sltu	x13,x0,x13
    f2f0:	00f5d7b3          	srl	x15,x11,x15
    f2f4:	00d96933          	or	x18,x18,x13
    f2f8:	00f70733          	add	x14,x14,x15
    f2fc:	01190633          	add	x12,x18,x17
    f300:	01263933          	sltu	x18,x12,x18
    f304:	00060493          	addi	x9,x12,0
    f308:	00e90933          	add	x18,x18,x14
    f30c:	00891793          	slli	x15,x18,0x8
    f310:	1e07d263          	bge	x15,x0,f4f4 <__subdf3+0x42c>
    f314:	00198993          	addi	x19,x19,1
    f318:	7ff00793          	addi	x15,x0,2047
    f31c:	16f98863          	beq	x19,x15,f48c <__subdf3+0x3c4>
    f320:	ff8007b7          	lui	x15,0xff800
    f324:	fff78793          	addi	x15,x15,-1 # ff7fffff <__heap_end+0xff3fffff>
    f328:	0014f513          	andi	x10,x9,1
    f32c:	00f977b3          	and	x15,x18,x15
    f330:	0014d713          	srli	x14,x9,0x1
    f334:	00a76733          	or	x14,x14,x10
    f338:	01f79513          	slli	x10,x15,0x1f
    f33c:	00e564b3          	or	x9,x10,x14
    f340:	0017d913          	srli	x18,x15,0x1
    f344:	ec9ff06f          	jal	x0,f20c <__subdf3+0x144>
    f348:	01d5e833          	or	x16,x11,x29
    f34c:	80198313          	addi	x6,x19,-2047
    f350:	06080863          	beq	x16,x0,f3c0 <__subdf3+0x2f8>
    f354:	06d40a63          	beq	x8,x13,f3c8 <__subdf3+0x300>
    f358:	0e030463          	beq	x6,x0,f440 <__subdf3+0x378>
    f35c:	26098e63          	beq	x19,x0,f5d8 <__subdf3+0x510>
    f360:	00361513          	slli	x10,x12,0x3
    f364:	00355513          	srli	x10,x10,0x3
    f368:	00068413          	addi	x8,x13,0
    f36c:	00058713          	addi	x14,x11,0
    f370:	01d71813          	slli	x16,x14,0x1d
    f374:	00a86833          	or	x16,x16,x10
    f378:	00375713          	srli	x14,x14,0x3
    f37c:	01076733          	or	x14,x14,x16
    f380:	10070663          	beq	x14,x0,f48c <__subdf3+0x3c4>
    f384:	00000e13          	addi	x28,x0,0
    f388:	7ff00793          	addi	x15,x0,2047
    f38c:	00080737          	lui	x14,0x80
    f390:	00000813          	addi	x16,x0,0
    f394:	ed9ff06f          	jal	x0,f26c <__subdf3+0x1a4>
    f398:	01d5e6b3          	or	x13,x11,x29
    f39c:	18068663          	beq	x13,x0,f528 <__subdf3+0x460>
    f3a0:	fff78693          	addi	x13,x15,-1
    f3a4:	3a068263          	beq	x13,x0,f748 <__subdf3+0x680>
    f3a8:	16678463          	beq	x15,x6,f510 <__subdf3+0x448>
    f3ac:	03800793          	addi	x15,x0,56
    f3b0:	00100513          	addi	x10,x0,1
    f3b4:	dcd7cee3          	blt	x15,x13,f190 <__subdf3+0xc8>
    f3b8:	00068793          	addi	x15,x13,0
    f3bc:	da5ff06f          	jal	x0,f160 <__subdf3+0x98>
    f3c0:	0016c693          	xori	x13,x13,1
    f3c4:	f8d41ae3          	bne	x8,x13,f358 <__subdf3+0x290>
    f3c8:	18030863          	beq	x6,x0,f558 <__subdf3+0x490>
    f3cc:	2c099063          	bne	x19,x0,f68c <__subdf3+0x5c4>
    f3d0:	7ff00793          	addi	x15,x0,2047
    f3d4:	011766b3          	or	x13,x14,x17
    f3d8:	48068863          	beq	x13,x0,f868 <__subdf3+0x7a0>
    f3dc:	fff78693          	addi	x13,x15,-1
    f3e0:	34068263          	beq	x13,x0,f724 <__subdf3+0x65c>
    f3e4:	7ff00513          	addi	x10,x0,2047
    f3e8:	2aa78263          	beq	x15,x10,f68c <__subdf3+0x5c4>
    f3ec:	03800793          	addi	x15,x0,56
    f3f0:	00100913          	addi	x18,x0,1
    f3f4:	02d7ca63          	blt	x15,x13,f428 <__subdf3+0x360>
    f3f8:	01f00793          	addi	x15,x0,31
    f3fc:	4cd7c663          	blt	x15,x13,f8c8 <__subdf3+0x800>
    f400:	02000793          	addi	x15,x0,32
    f404:	40d787b3          	sub	x15,x15,x13
    f408:	00f71933          	sll	x18,x14,x15
    f40c:	00d8d633          	srl	x12,x17,x13
    f410:	00f897b3          	sll	x15,x17,x15
    f414:	00c96933          	or	x18,x18,x12
    f418:	00f037b3          	sltu	x15,x0,x15
    f41c:	00d756b3          	srl	x13,x14,x13
    f420:	00f96933          	or	x18,x18,x15
    f424:	00d585b3          	add	x11,x11,x13
    f428:	01d90733          	add	x14,x18,x29
    f42c:	01273933          	sltu	x18,x14,x18
    f430:	00070493          	addi	x9,x14,0 # 80000 <__heap_start+0x6b8d0>
    f434:	00b90933          	add	x18,x18,x11
    f438:	000f0993          	addi	x19,x30,0
    f43c:	ed1ff06f          	jal	x0,f30c <__subdf3+0x244>
    f440:	00198793          	addi	x15,x19,1
    f444:	7fe7f793          	andi	x15,x15,2046
    f448:	14079463          	bne	x15,x0,f590 <__subdf3+0x4c8>
    f44c:	01d5e833          	or	x16,x11,x29
    f450:	011767b3          	or	x15,x14,x17
    f454:	2a099463          	bne	x19,x0,f6fc <__subdf3+0x634>
    f458:	38078e63          	beq	x15,x0,f7f4 <__subdf3+0x72c>
    f45c:	3c081063          	bne	x16,x0,f81c <__subdf3+0x754>
    f460:	00351513          	slli	x10,x10,0x3
    f464:	00355913          	srli	x18,x10,0x3
    f468:	00000793          	addi	x15,x0,0
    f46c:	1140006f          	jal	x0,f580 <__subdf3+0x4b8>
    f470:	0a698063          	beq	x19,x6,f510 <__subdf3+0x448>
    f474:	03800693          	addi	x13,x0,56
    f478:	00100913          	addi	x18,x0,1
    f47c:	e8f6c0e3          	blt	x13,x15,f2fc <__subdf3+0x234>
    f480:	008006b7          	lui	x13,0x800
    f484:	00d5e5b3          	or	x11,x11,x13
    f488:	e45ff06f          	jal	x0,f2cc <__subdf3+0x204>
    f48c:	00147e13          	andi	x28,x8,1
    f490:	7ff00793          	addi	x15,x0,2047
    f494:	00000713          	addi	x14,x0,0
    f498:	00000813          	addi	x16,x0,0
    f49c:	dd1ff06f          	jal	x0,f26c <__subdf3+0x1a4>
    f4a0:	00048513          	addi	x10,x9,0
    f4a4:	0c5030ef          	jal	x1,12d68 <__clzsi2>
    f4a8:	01850793          	addi	x15,x10,24
    f4ac:	01f00693          	addi	x13,x0,31
    f4b0:	d0f6dae3          	bge	x13,x15,f1c4 <__subdf3+0xfc>
    f4b4:	ff850713          	addi	x14,x10,-8
    f4b8:	00e49733          	sll	x14,x9,x14
    f4bc:	1b37ce63          	blt	x15,x19,f678 <__subdf3+0x5b0>
    f4c0:	413789b3          	sub	x19,x15,x19
    f4c4:	00198793          	addi	x15,x19,1
    f4c8:	42f6de63          	bge	x13,x15,f904 <__subdf3+0x83c>
    f4cc:	fe198993          	addi	x19,x19,-31
    f4d0:	02000693          	addi	x13,x0,32
    f4d4:	013754b3          	srl	x9,x14,x19
    f4d8:	00d78c63          	beq	x15,x13,f4f0 <__subdf3+0x428>
    f4dc:	04000693          	addi	x13,x0,64
    f4e0:	40f687b3          	sub	x15,x13,x15
    f4e4:	00f71733          	sll	x14,x14,x15
    f4e8:	00e03733          	sltu	x14,x0,x14
    f4ec:	00e4e4b3          	or	x9,x9,x14
    f4f0:	00000993          	addi	x19,x0,0
    f4f4:	0074f793          	andi	x15,x9,7
    f4f8:	d0079ee3          	bne	x15,x0,f214 <__subdf3+0x14c>
    f4fc:	00098793          	addi	x15,x19,0
    f500:	0034d513          	srli	x10,x9,0x3
    f504:	00090713          	addi	x14,x18,0
    f508:	0280006f          	jal	x0,f530 <__subdf3+0x468>
    f50c:	e6081ce3          	bne	x16,x0,f384 <__subdf3+0x2bc>
    f510:	00351513          	slli	x10,x10,0x3
    f514:	01d71813          	slli	x16,x14,0x1d
    f518:	00355513          	srli	x10,x10,0x3
    f51c:	00a86833          	or	x16,x16,x10
    f520:	00375713          	srli	x14,x14,0x3
    f524:	e59ff06f          	jal	x0,f37c <__subdf3+0x2b4>
    f528:	00351513          	slli	x10,x10,0x3
    f52c:	00355513          	srli	x10,x10,0x3
    f530:	01d71813          	slli	x16,x14,0x1d
    f534:	7ff00693          	addi	x13,x0,2047
    f538:	00a86833          	or	x16,x16,x10
    f53c:	00375713          	srli	x14,x14,0x3
    f540:	e2d78ee3          	beq	x15,x13,f37c <__subdf3+0x2b4>
    f544:	00c71713          	slli	x14,x14,0xc
    f548:	00c75713          	srli	x14,x14,0xc
    f54c:	7ff7f793          	andi	x15,x15,2047
    f550:	00147e13          	andi	x28,x8,1
    f554:	d19ff06f          	jal	x0,f26c <__subdf3+0x1a4>
    f558:	00198693          	addi	x13,x19,1
    f55c:	7fe6f793          	andi	x15,x13,2046
    f560:	12079e63          	bne	x15,x0,f69c <__subdf3+0x5d4>
    f564:	011767b3          	or	x15,x14,x17
    f568:	24099a63          	bne	x19,x0,f7bc <__subdf3+0x6f4>
    f56c:	30078663          	beq	x15,x0,f878 <__subdf3+0x7b0>
    f570:	01d5e7b3          	or	x15,x11,x29
    f574:	30079a63          	bne	x15,x0,f888 <__subdf3+0x7c0>
    f578:	00351513          	slli	x10,x10,0x3
    f57c:	00355913          	srli	x18,x10,0x3
    f580:	01d71813          	slli	x16,x14,0x1d
    f584:	01286833          	or	x16,x16,x18
    f588:	00375713          	srli	x14,x14,0x3
    f58c:	fb9ff06f          	jal	x0,f544 <__subdf3+0x47c>
    f590:	41d88833          	sub	x16,x17,x29
    f594:	0108b7b3          	sltu	x15,x17,x16
    f598:	40b70933          	sub	x18,x14,x11
    f59c:	40f90933          	sub	x18,x18,x15
    f5a0:	00891793          	slli	x15,x18,0x8
    f5a4:	00080493          	addi	x9,x16,0
    f5a8:	1207c263          	blt	x15,x0,f6cc <__subdf3+0x604>
    f5ac:	01286833          	or	x16,x16,x18
    f5b0:	c00812e3          	bne	x16,x0,f1b4 <__subdf3+0xec>
    f5b4:	00000e13          	addi	x28,x0,0
    f5b8:	00000793          	addi	x15,x0,0
    f5bc:	00000713          	addi	x14,x0,0
    f5c0:	cadff06f          	jal	x0,f26c <__subdf3+0x1a4>
    f5c4:	ff800937          	lui	x18,0xff800
    f5c8:	fff90913          	addi	x18,x18,-1 # ff7fffff <__heap_end+0xff3fffff>
    f5cc:	40f989b3          	sub	x19,x19,x15
    f5d0:	01277933          	and	x18,x14,x18
    f5d4:	c39ff06f          	jal	x0,f20c <__subdf3+0x144>
    f5d8:	7ff00793          	addi	x15,x0,2047
    f5dc:	01176533          	or	x10,x14,x17
    f5e0:	10050463          	beq	x10,x0,f6e8 <__subdf3+0x620>
    f5e4:	fff78813          	addi	x16,x15,-1
    f5e8:	1e080263          	beq	x16,x0,f7cc <__subdf3+0x704>
    f5ec:	7ff00513          	addi	x10,x0,2047
    f5f0:	d6a788e3          	beq	x15,x10,f360 <__subdf3+0x298>
    f5f4:	03800793          	addi	x15,x0,56
    f5f8:	00068413          	addi	x8,x13,0 # 800000 <__heap_end+0x400000>
    f5fc:	00100513          	addi	x10,x0,1
    f600:	0307ca63          	blt	x15,x16,f634 <__subdf3+0x56c>
    f604:	01f00793          	addi	x15,x0,31
    f608:	1907c463          	blt	x15,x16,f790 <__subdf3+0x6c8>
    f60c:	02000793          	addi	x15,x0,32
    f610:	410787b3          	sub	x15,x15,x16
    f614:	00f71533          	sll	x10,x14,x15
    f618:	0108d6b3          	srl	x13,x17,x16
    f61c:	00f897b3          	sll	x15,x17,x15
    f620:	00d56533          	or	x10,x10,x13
    f624:	00f037b3          	sltu	x15,x0,x15
    f628:	01075833          	srl	x16,x14,x16
    f62c:	00f56533          	or	x10,x10,x15
    f630:	410585b3          	sub	x11,x11,x16
    f634:	40ae8533          	sub	x10,x29,x10
    f638:	00aeb733          	sltu	x14,x29,x10
    f63c:	00050493          	addi	x9,x10,0
    f640:	40e58933          	sub	x18,x11,x14
    f644:	000f0993          	addi	x19,x30,0
    f648:	b59ff06f          	jal	x0,f1a0 <__subdf3+0xd8>
    f64c:	fe078693          	addi	x13,x15,-32
    f650:	02000613          	addi	x12,x0,32
    f654:	00d5d6b3          	srl	x13,x11,x13
    f658:	00c78a63          	beq	x15,x12,f66c <__subdf3+0x5a4>
    f65c:	04000613          	addi	x12,x0,64
    f660:	40f607b3          	sub	x15,x12,x15
    f664:	00f597b3          	sll	x15,x11,x15
    f668:	00feeeb3          	or	x29,x29,x15
    f66c:	01d03533          	sltu	x10,x0,x29
    f670:	00d56533          	or	x10,x10,x13
    f674:	b1dff06f          	jal	x0,f190 <__subdf3+0xc8>
    f678:	ff8006b7          	lui	x13,0xff800
    f67c:	fff68693          	addi	x13,x13,-1 # ff7fffff <__heap_end+0xff3fffff>
    f680:	40f987b3          	sub	x15,x19,x15
    f684:	00d77733          	and	x14,x14,x13
    f688:	ef9ff06f          	jal	x0,f580 <__subdf3+0x4b8>
    f68c:	00361513          	slli	x10,x12,0x3
    f690:	00355513          	srli	x10,x10,0x3
    f694:	00058713          	addi	x14,x11,0
    f698:	cd9ff06f          	jal	x0,f370 <__subdf3+0x2a8>
    f69c:	7ff00793          	addi	x15,x0,2047
    f6a0:	def686e3          	beq	x13,x15,f48c <__subdf3+0x3c4>
    f6a4:	01d88eb3          	add	x29,x17,x29
    f6a8:	011eb633          	sltu	x12,x29,x17
    f6ac:	00b707b3          	add	x15,x14,x11
    f6b0:	00c787b3          	add	x15,x15,x12
    f6b4:	01f79513          	slli	x10,x15,0x1f
    f6b8:	001ede93          	srli	x29,x29,0x1
    f6bc:	01d564b3          	or	x9,x10,x29
    f6c0:	0017d913          	srli	x18,x15,0x1
    f6c4:	00068993          	addi	x19,x13,0
    f6c8:	b45ff06f          	jal	x0,f20c <__subdf3+0x144>
    f6cc:	411e8633          	sub	x12,x29,x17
    f6d0:	40e587b3          	sub	x15,x11,x14
    f6d4:	00ceb733          	sltu	x14,x29,x12
    f6d8:	00060493          	addi	x9,x12,0
    f6dc:	40e78933          	sub	x18,x15,x14
    f6e0:	00068413          	addi	x8,x13,0
    f6e4:	ad1ff06f          	jal	x0,f1b4 <__subdf3+0xec>
    f6e8:	00361613          	slli	x12,x12,0x3
    f6ec:	00365513          	srli	x10,x12,0x3
    f6f0:	00068413          	addi	x8,x13,0
    f6f4:	00058713          	addi	x14,x11,0
    f6f8:	e39ff06f          	jal	x0,f530 <__subdf3+0x468>
    f6fc:	e00798e3          	bne	x15,x0,f50c <__subdf3+0x444>
    f700:	22080663          	beq	x16,x0,f92c <__subdf3+0x864>
    f704:	0035d713          	srli	x14,x11,0x3
    f708:	00361613          	slli	x12,x12,0x3
    f70c:	01d59593          	slli	x11,x11,0x1d
    f710:	00b76733          	or	x14,x14,x11
    f714:	00365613          	srli	x12,x12,0x3
    f718:	00c76733          	or	x14,x14,x12
    f71c:	00068413          	addi	x8,x13,0
    f720:	c61ff06f          	jal	x0,f380 <__subdf3+0x2b8>
    f724:	01d88eb3          	add	x29,x17,x29
    f728:	00b705b3          	add	x11,x14,x11
    f72c:	011eb633          	sltu	x12,x29,x17
    f730:	00c58933          	add	x18,x11,x12
    f734:	00891793          	slli	x15,x18,0x8
    f738:	000e8493          	addi	x9,x29,0
    f73c:	0a07d863          	bge	x15,x0,f7ec <__subdf3+0x724>
    f740:	00200993          	addi	x19,x0,2
    f744:	bddff06f          	jal	x0,f320 <__subdf3+0x258>
    f748:	41d88eb3          	sub	x29,x17,x29
    f74c:	40b705b3          	sub	x11,x14,x11
    f750:	01d8b633          	sltu	x12,x17,x29
    f754:	000e8493          	addi	x9,x29,0
    f758:	40c58933          	sub	x18,x11,x12
    f75c:	00100993          	addi	x19,x0,1
    f760:	a41ff06f          	jal	x0,f1a0 <__subdf3+0xd8>
    f764:	fe078693          	addi	x13,x15,-32
    f768:	02000613          	addi	x12,x0,32
    f76c:	00d5d6b3          	srl	x13,x11,x13
    f770:	00c78a63          	beq	x15,x12,f784 <__subdf3+0x6bc>
    f774:	04000613          	addi	x12,x0,64
    f778:	40f607b3          	sub	x15,x12,x15
    f77c:	00f597b3          	sll	x15,x11,x15
    f780:	00feeeb3          	or	x29,x29,x15
    f784:	01d03933          	sltu	x18,x0,x29
    f788:	00d96933          	or	x18,x18,x13
    f78c:	b71ff06f          	jal	x0,f2fc <__subdf3+0x234>
    f790:	fe080793          	addi	x15,x16,-32
    f794:	02000693          	addi	x13,x0,32
    f798:	00f757b3          	srl	x15,x14,x15
    f79c:	00d80a63          	beq	x16,x13,f7b0 <__subdf3+0x6e8>
    f7a0:	04000693          	addi	x13,x0,64
    f7a4:	410686b3          	sub	x13,x13,x16
    f7a8:	00d71733          	sll	x14,x14,x13
    f7ac:	00e8e8b3          	or	x17,x17,x14
    f7b0:	01103533          	sltu	x10,x0,x17
    f7b4:	00f56533          	or	x10,x10,x15
    f7b8:	e7dff06f          	jal	x0,f634 <__subdf3+0x56c>
    f7bc:	ec0788e3          	beq	x15,x0,f68c <__subdf3+0x5c4>
    f7c0:	01d5eeb3          	or	x29,x11,x29
    f7c4:	bc0e90e3          	bne	x29,x0,f384 <__subdf3+0x2bc>
    f7c8:	d49ff06f          	jal	x0,f510 <__subdf3+0x448>
    f7cc:	411e8633          	sub	x12,x29,x17
    f7d0:	40e585b3          	sub	x11,x11,x14
    f7d4:	00ceb733          	sltu	x14,x29,x12
    f7d8:	00060493          	addi	x9,x12,0
    f7dc:	40e58933          	sub	x18,x11,x14
    f7e0:	00068413          	addi	x8,x13,0
    f7e4:	00100993          	addi	x19,x0,1
    f7e8:	9b9ff06f          	jal	x0,f1a0 <__subdf3+0xd8>
    f7ec:	00100793          	addi	x15,x0,1
    f7f0:	d11ff06f          	jal	x0,f500 <__subdf3+0x438>
    f7f4:	dc0800e3          	beq	x16,x0,f5b4 <__subdf3+0x4ec>
    f7f8:	00361613          	slli	x12,x12,0x3
    f7fc:	00365793          	srli	x15,x12,0x3
    f800:	01d59813          	slli	x16,x11,0x1d
    f804:	00959713          	slli	x14,x11,0x9
    f808:	00f86833          	or	x16,x16,x15
    f80c:	00c75713          	srli	x14,x14,0xc
    f810:	00068e13          	addi	x28,x13,0
    f814:	00000793          	addi	x15,x0,0
    f818:	a55ff06f          	jal	x0,f26c <__subdf3+0x1a4>
    f81c:	41d88933          	sub	x18,x17,x29
    f820:	0128b7b3          	sltu	x15,x17,x18
    f824:	40b70633          	sub	x12,x14,x11
    f828:	40f60633          	sub	x12,x12,x15
    f82c:	00861793          	slli	x15,x12,0x8
    f830:	0e07d263          	bge	x15,x0,f914 <__subdf3+0x84c>
    f834:	411e8633          	sub	x12,x29,x17
    f838:	40e58733          	sub	x14,x11,x14
    f83c:	00cebeb3          	sltu	x29,x29,x12
    f840:	41d70733          	sub	x14,x14,x29
    f844:	00871793          	slli	x15,x14,0x8
    f848:	00060493          	addi	x9,x12,0
    f84c:	1207de63          	bge	x15,x0,f988 <__subdf3+0x8c0>
    f850:	ff8007b7          	lui	x15,0xff800
    f854:	fff78793          	addi	x15,x15,-1 # ff7fffff <__heap_end+0xff3fffff>
    f858:	00f77733          	and	x14,x14,x15
    f85c:	00068413          	addi	x8,x13,0
    f860:	00100793          	addi	x15,x0,1
    f864:	9f1ff06f          	jal	x0,f254 <__subdf3+0x18c>
    f868:	00361613          	slli	x12,x12,0x3
    f86c:	00365513          	srli	x10,x12,0x3
    f870:	00058713          	addi	x14,x11,0
    f874:	cbdff06f          	jal	x0,f530 <__subdf3+0x468>
    f878:	00361613          	slli	x12,x12,0x3
    f87c:	00365913          	srli	x18,x12,0x3
    f880:	00058713          	addi	x14,x11,0
    f884:	cfdff06f          	jal	x0,f580 <__subdf3+0x4b8>
    f888:	01d886b3          	add	x13,x17,x29
    f88c:	00b707b3          	add	x15,x14,x11
    f890:	0116b633          	sltu	x12,x13,x17
    f894:	00c787b3          	add	x15,x15,x12
    f898:	00879713          	slli	x14,x15,0x8
    f89c:	0036d813          	srli	x16,x13,0x3
    f8a0:	08075e63          	bge	x14,x0,f93c <__subdf3+0x874>
    f8a4:	ff800737          	lui	x14,0xff800
    f8a8:	fff70713          	addi	x14,x14,-1 # ff7fffff <__heap_end+0xff3fffff>
    f8ac:	00e7f7b3          	and	x15,x15,x14
    f8b0:	01d79713          	slli	x14,x15,0x1d
    f8b4:	00979793          	slli	x15,x15,0x9
    f8b8:	01076833          	or	x16,x14,x16
    f8bc:	00c7d713          	srli	x14,x15,0xc
    f8c0:	00100793          	addi	x15,x0,1
    f8c4:	9a9ff06f          	jal	x0,f26c <__subdf3+0x1a4>
    f8c8:	fe068793          	addi	x15,x13,-32
    f8cc:	02000613          	addi	x12,x0,32
    f8d0:	00f757b3          	srl	x15,x14,x15
    f8d4:	00c68a63          	beq	x13,x12,f8e8 <__subdf3+0x820>
    f8d8:	04000613          	addi	x12,x0,64
    f8dc:	40d606b3          	sub	x13,x12,x13
    f8e0:	00d71733          	sll	x14,x14,x13
    f8e4:	00e8e8b3          	or	x17,x17,x14
    f8e8:	01103933          	sltu	x18,x0,x17
    f8ec:	00f96933          	or	x18,x18,x15
    f8f0:	b39ff06f          	jal	x0,f428 <__subdf3+0x360>
    f8f4:	0034d513          	srli	x10,x9,0x3
    f8f8:	00098793          	addi	x15,x19,0
    f8fc:	00090713          	addi	x14,x18,0
    f900:	c31ff06f          	jal	x0,f530 <__subdf3+0x468>
    f904:	02000693          	addi	x13,x0,32
    f908:	40f686b3          	sub	x13,x13,x15
    f90c:	00000613          	addi	x12,x0,0
    f910:	8e9ff06f          	jal	x0,f1f8 <__subdf3+0x130>
    f914:	00c96833          	or	x16,x18,x12
    f918:	c8080ee3          	beq	x16,x0,f5b4 <__subdf3+0x4ec>
    f91c:	00395913          	srli	x18,x18,0x3
    f920:	00000793          	addi	x15,x0,0
    f924:	00060713          	addi	x14,x12,0
    f928:	c59ff06f          	jal	x0,f580 <__subdf3+0x4b8>
    f92c:	00000e13          	addi	x28,x0,0
    f930:	7ff00793          	addi	x15,x0,2047
    f934:	00080737          	lui	x14,0x80
    f938:	935ff06f          	jal	x0,f26c <__subdf3+0x1a4>
    f93c:	01d79713          	slli	x14,x15,0x1d
    f940:	00979793          	slli	x15,x15,0x9
    f944:	01076833          	or	x16,x14,x16
    f948:	00c7d713          	srli	x14,x15,0xc
    f94c:	00000793          	addi	x15,x0,0
    f950:	91dff06f          	jal	x0,f26c <__subdf3+0x1a4>
    f954:	ae0786e3          	beq	x15,x0,f440 <__subdf3+0x378>
    f958:	413f0833          	sub	x16,x30,x19
    f95c:	00080793          	addi	x15,x16,0
    f960:	c6098ee3          	beq	x19,x0,f5dc <__subdf3+0x514>
    f964:	03800793          	addi	x15,x0,56
    f968:	0107ca63          	blt	x15,x16,f97c <__subdf3+0x8b4>
    f96c:	008007b7          	lui	x15,0x800
    f970:	00f76733          	or	x14,x14,x15
    f974:	00068413          	addi	x8,x13,0
    f978:	c8dff06f          	jal	x0,f604 <__subdf3+0x53c>
    f97c:	00068413          	addi	x8,x13,0
    f980:	00100513          	addi	x10,x0,1
    f984:	cb1ff06f          	jal	x0,f634 <__subdf3+0x56c>
    f988:	01d71813          	slli	x16,x14,0x1d
    f98c:	00365613          	srli	x12,x12,0x3
    f990:	00c86833          	or	x16,x16,x12
    f994:	00375713          	srli	x14,x14,0x3
    f998:	00000793          	addi	x15,x0,0
    f99c:	00068413          	addi	x8,x13,0
    f9a0:	ba5ff06f          	jal	x0,f544 <__subdf3+0x47c>
    f9a4:	ba078ae3          	beq	x15,x0,f558 <__subdf3+0x490>
    f9a8:	413f06b3          	sub	x13,x30,x19
    f9ac:	00099663          	bne	x19,x0,f9b8 <__subdf3+0x8f0>
    f9b0:	00068793          	addi	x15,x13,0
    f9b4:	a21ff06f          	jal	x0,f3d4 <__subdf3+0x30c>
    f9b8:	03800793          	addi	x15,x0,56
    f9bc:	00100913          	addi	x18,x0,1
    f9c0:	a6d7c4e3          	blt	x15,x13,f428 <__subdf3+0x360>
    f9c4:	008007b7          	lui	x15,0x800
    f9c8:	00f76733          	or	x14,x14,x15
    f9cc:	a2dff06f          	jal	x0,f3f8 <__subdf3+0x330>

0000f9d0 <__fixdfsi>:
    f9d0:	0145d793          	srli	x15,x11,0x14
    f9d4:	001006b7          	lui	x13,0x100
    f9d8:	fff68713          	addi	x14,x13,-1 # fffff <__heap_start+0xeb8cf>
    f9dc:	7ff7f793          	andi	x15,x15,2047
    f9e0:	3fe00613          	addi	x12,x0,1022
    f9e4:	00b77733          	and	x14,x14,x11
    f9e8:	01f5d593          	srli	x11,x11,0x1f
    f9ec:	00f65e63          	bge	x12,x15,fa08 <__fixdfsi+0x38>
    f9f0:	41d00613          	addi	x12,x0,1053
    f9f4:	00f65e63          	bge	x12,x15,fa10 <__fixdfsi+0x40>
    f9f8:	80000537          	lui	x10,0x80000
    f9fc:	fff50513          	addi	x10,x10,-1 # 7fffffff <__heap_end+0x7fbfffff>
    fa00:	00a58533          	add	x10,x11,x10
    fa04:	00008067          	jalr	x0,0(x1)
    fa08:	00000513          	addi	x10,x0,0
    fa0c:	00008067          	jalr	x0,0(x1)
    fa10:	43300613          	addi	x12,x0,1075
    fa14:	40f60633          	sub	x12,x12,x15
    fa18:	01f00813          	addi	x16,x0,31
    fa1c:	00d76733          	or	x14,x14,x13
    fa20:	02c85063          	bge	x16,x12,fa40 <__fixdfsi+0x70>
    fa24:	41300693          	addi	x13,x0,1043
    fa28:	40f687b3          	sub	x15,x13,x15
    fa2c:	00f75733          	srl	x14,x14,x15
    fa30:	40e00533          	sub	x10,x0,x14
    fa34:	fc059ce3          	bne	x11,x0,fa0c <__fixdfsi+0x3c>
    fa38:	00070513          	addi	x10,x14,0 # 80000 <__heap_start+0x6b8d0>
    fa3c:	00008067          	jalr	x0,0(x1)
    fa40:	bed78793          	addi	x15,x15,-1043 # 7ffbed <__heap_end+0x3ffbed>
    fa44:	00f71733          	sll	x14,x14,x15
    fa48:	00c55533          	srl	x10,x10,x12
    fa4c:	00a76733          	or	x14,x14,x10
    fa50:	fe1ff06f          	jal	x0,fa30 <__fixdfsi+0x60>

0000fa54 <__floatsidf>:
    fa54:	ff010113          	addi	x2,x2,-16
    fa58:	00112623          	sw	x1,12(x2)
    fa5c:	00812423          	sw	x8,8(x2)
    fa60:	00912223          	sw	x9,4(x2)
    fa64:	04050a63          	beq	x10,x0,fab8 <__floatsidf+0x64>
    fa68:	41f55713          	srai	x14,x10,0x1f
    fa6c:	00a744b3          	xor	x9,x14,x10
    fa70:	40e484b3          	sub	x9,x9,x14
    fa74:	00050793          	addi	x15,x10,0
    fa78:	00048513          	addi	x10,x9,0
    fa7c:	01f7d413          	srli	x8,x15,0x1f
    fa80:	2e8030ef          	jal	x1,12d68 <__clzsi2>
    fa84:	41e00793          	addi	x15,x0,1054
    fa88:	40a787b3          	sub	x15,x15,x10
    fa8c:	00a00713          	addi	x14,x0,10
    fa90:	7ff7f793          	andi	x15,x15,2047
    fa94:	06a74063          	blt	x14,x10,faf4 <__floatsidf+0xa0>
    fa98:	00b00713          	addi	x14,x0,11
    fa9c:	40a70733          	sub	x14,x14,x10
    faa0:	00e4d733          	srl	x14,x9,x14
    faa4:	01550513          	addi	x10,x10,21
    faa8:	00c71713          	slli	x14,x14,0xc
    faac:	00a494b3          	sll	x9,x9,x10
    fab0:	00c75713          	srli	x14,x14,0xc
    fab4:	0140006f          	jal	x0,fac8 <__floatsidf+0x74>
    fab8:	00000413          	addi	x8,x0,0
    fabc:	00000793          	addi	x15,x0,0
    fac0:	00000713          	addi	x14,x0,0
    fac4:	00000493          	addi	x9,x0,0
    fac8:	01479793          	slli	x15,x15,0x14
    facc:	01f41413          	slli	x8,x8,0x1f
    fad0:	00e7e7b3          	or	x15,x15,x14
    fad4:	00c12083          	lw	x1,12(x2)
    fad8:	0087e7b3          	or	x15,x15,x8
    fadc:	00812403          	lw	x8,8(x2)
    fae0:	00048513          	addi	x10,x9,0
    fae4:	00078593          	addi	x11,x15,0
    fae8:	00412483          	lw	x9,4(x2)
    faec:	01010113          	addi	x2,x2,16
    faf0:	00008067          	jalr	x0,0(x1)
    faf4:	ff550513          	addi	x10,x10,-11
    faf8:	00a49733          	sll	x14,x9,x10
    fafc:	00c71713          	slli	x14,x14,0xc
    fb00:	00c75713          	srli	x14,x14,0xc
    fb04:	00000493          	addi	x9,x0,0
    fb08:	fc1ff06f          	jal	x0,fac8 <__floatsidf+0x74>

0000fb0c <__eqtf2>:
    fb0c:	00c52703          	lw	x14,12(x10)
    fb10:	00c5a683          	lw	x13,12(x11)
    fb14:	000087b7          	lui	x15,0x8
    fb18:	fff78793          	addi	x15,x15,-1 # 7fff <_vfiprintf_r+0x817>
    fb1c:	01075613          	srli	x12,x14,0x10
    fb20:	0106d813          	srli	x16,x13,0x10
    fb24:	01071293          	slli	x5,x14,0x10
    fb28:	01069393          	slli	x7,x13,0x10
    fb2c:	00f67633          	and	x12,x12,x15
    fb30:	00052883          	lw	x17,0(x10)
    fb34:	00452e03          	lw	x28,4(x10)
    fb38:	00852f03          	lw	x30,8(x10)
    fb3c:	0005a303          	lw	x6,0(x11)
    fb40:	0045ae83          	lw	x29,4(x11)
    fb44:	0085af83          	lw	x31,8(x11)
    fb48:	ff010113          	addi	x2,x2,-16
    fb4c:	0102d293          	srli	x5,x5,0x10
    fb50:	01f75713          	srli	x14,x14,0x1f
    fb54:	0103d393          	srli	x7,x7,0x10
    fb58:	00f875b3          	and	x11,x16,x15
    fb5c:	01f6d693          	srli	x13,x13,0x1f
    fb60:	00100513          	addi	x10,x0,1
    fb64:	00f60c63          	beq	x12,x15,fb7c <__eqtf2+0x70>
    fb68:	00f58663          	beq	x11,x15,fb74 <__eqtf2+0x68>
    fb6c:	00c59463          	bne	x11,x12,fb74 <__eqtf2+0x68>
    fb70:	02688e63          	beq	x17,x6,fbac <__eqtf2+0xa0>
    fb74:	01010113          	addi	x2,x2,16
    fb78:	00008067          	jalr	x0,0(x1)
    fb7c:	fec59ce3          	bne	x11,x12,fb74 <__eqtf2+0x68>
    fb80:	01c8e7b3          	or	x15,x17,x28
    fb84:	01e7e7b3          	or	x15,x15,x30
    fb88:	0057e7b3          	or	x15,x15,x5
    fb8c:	0067e7b3          	or	x15,x15,x6
    fb90:	01d7e7b3          	or	x15,x15,x29
    fb94:	01f7e7b3          	or	x15,x15,x31
    fb98:	0077e7b3          	or	x15,x15,x7
    fb9c:	fc079ce3          	bne	x15,x0,fb74 <__eqtf2+0x68>
    fba0:	40d70733          	sub	x14,x14,x13
    fba4:	00e03533          	sltu	x10,x0,x14
    fba8:	fcdff06f          	jal	x0,fb74 <__eqtf2+0x68>
    fbac:	fdde14e3          	bne	x28,x29,fb74 <__eqtf2+0x68>
    fbb0:	fdff12e3          	bne	x30,x31,fb74 <__eqtf2+0x68>
    fbb4:	fc7290e3          	bne	x5,x7,fb74 <__eqtf2+0x68>
    fbb8:	00d70e63          	beq	x14,x13,fbd4 <__eqtf2+0xc8>
    fbbc:	fa059ce3          	bne	x11,x0,fb74 <__eqtf2+0x68>
    fbc0:	01c8e7b3          	or	x15,x17,x28
    fbc4:	01e7e7b3          	or	x15,x15,x30
    fbc8:	0057e7b3          	or	x15,x15,x5
    fbcc:	00f03533          	sltu	x10,x0,x15
    fbd0:	fa5ff06f          	jal	x0,fb74 <__eqtf2+0x68>
    fbd4:	00000513          	addi	x10,x0,0
    fbd8:	f9dff06f          	jal	x0,fb74 <__eqtf2+0x68>

0000fbdc <__getf2>:
    fbdc:	00c52303          	lw	x6,12(x10)
    fbe0:	00c5a883          	lw	x17,12(x11)
    fbe4:	000087b7          	lui	x15,0x8
    fbe8:	fff78793          	addi	x15,x15,-1 # 7fff <_vfiprintf_r+0x817>
    fbec:	01035613          	srli	x12,x6,0x10
    fbf0:	0108d713          	srli	x14,x17,0x10
    fbf4:	01031f13          	slli	x30,x6,0x10
    fbf8:	0005a683          	lw	x13,0(x11)
    fbfc:	0045ae83          	lw	x29,4(x11)
    fc00:	0085ae03          	lw	x28,8(x11)
    fc04:	00f67633          	and	x12,x12,x15
    fc08:	01089593          	slli	x11,x17,0x10
    fc0c:	00052283          	lw	x5,0(x10)
    fc10:	00452803          	lw	x16,4(x10)
    fc14:	00852f83          	lw	x31,8(x10)
    fc18:	ff010113          	addi	x2,x2,-16
    fc1c:	010f5f13          	srli	x30,x30,0x10
    fc20:	01f35313          	srli	x6,x6,0x1f
    fc24:	0105d593          	srli	x11,x11,0x10
    fc28:	00f77533          	and	x10,x14,x15
    fc2c:	01f8d893          	srli	x17,x17,0x1f
    fc30:	06f60a63          	beq	x12,x15,fca4 <__getf2+0xc8>
    fc34:	02f50e63          	beq	x10,x15,fc70 <__getf2+0x94>
    fc38:	0c061c63          	bne	x12,x0,fd10 <__getf2+0x134>
    fc3c:	005867b3          	or	x15,x16,x5
    fc40:	01f7e7b3          	or	x15,x15,x31
    fc44:	01e7e7b3          	or	x15,x15,x30
    fc48:	0e051263          	bne	x10,x0,fd2c <__getf2+0x150>
    fc4c:	01d6e733          	or	x14,x13,x29
    fc50:	01c76733          	or	x14,x14,x28
    fc54:	00b76733          	or	x14,x14,x11
    fc58:	06071e63          	bne	x14,x0,fcd4 <__getf2+0xf8>
    fc5c:	00078663          	beq	x15,x0,fc68 <__getf2+0x8c>
    fc60:	02031e63          	bne	x6,x0,fc9c <__getf2+0xc0>
    fc64:	00100513          	addi	x10,x0,1
    fc68:	01010113          	addi	x2,x2,16
    fc6c:	00008067          	jalr	x0,0(x1)
    fc70:	01d6e6b3          	or	x13,x13,x29
    fc74:	01c6e6b3          	or	x13,x13,x28
    fc78:	00b6e6b3          	or	x13,x13,x11
    fc7c:	0a069463          	bne	x13,x0,fd24 <__getf2+0x148>
    fc80:	08061463          	bne	x12,x0,fd08 <__getf2+0x12c>
    fc84:	00586833          	or	x16,x16,x5
    fc88:	01f86833          	or	x16,x16,x31
    fc8c:	01e86833          	or	x16,x16,x30
    fc90:	06081c63          	bne	x16,x0,fd08 <__getf2+0x12c>
    fc94:	00100513          	addi	x10,x0,1
    fc98:	fc0898e3          	bne	x17,x0,fc68 <__getf2+0x8c>
    fc9c:	fff00513          	addi	x10,x0,-1
    fca0:	fc9ff06f          	jal	x0,fc68 <__getf2+0x8c>
    fca4:	00586833          	or	x16,x16,x5
    fca8:	01f86833          	or	x16,x16,x31
    fcac:	01e86833          	or	x16,x16,x30
    fcb0:	06081a63          	bne	x16,x0,fd24 <__getf2+0x148>
    fcb4:	fac516e3          	bne	x10,x12,fc60 <__getf2+0x84>
    fcb8:	01d6e6b3          	or	x13,x13,x29
    fcbc:	01c6e6b3          	or	x13,x13,x28
    fcc0:	00b6e6b3          	or	x13,x13,x11
    fcc4:	06069063          	bne	x13,x0,fd24 <__getf2+0x148>
    fcc8:	f8689ce3          	bne	x17,x6,fc60 <__getf2+0x84>
    fccc:	00000513          	addi	x10,x0,0
    fcd0:	f99ff06f          	jal	x0,fc68 <__getf2+0x8c>
    fcd4:	fc0780e3          	beq	x15,x0,fc94 <__getf2+0xb8>
    fcd8:	f86894e3          	bne	x17,x6,fc60 <__getf2+0x84>
    fcdc:	f9e5e2e3          	bltu	x11,x30,fc60 <__getf2+0x84>
    fce0:	00bf1e63          	bne	x30,x11,fcfc <__getf2+0x120>
    fce4:	f7fe6ee3          	bltu	x28,x31,fc60 <__getf2+0x84>
    fce8:	01cf9a63          	bne	x31,x28,fcfc <__getf2+0x120>
    fcec:	f70eeae3          	bltu	x29,x16,fc60 <__getf2+0x84>
    fcf0:	01d81663          	bne	x16,x29,fcfc <__getf2+0x120>
    fcf4:	f656e6e3          	bltu	x13,x5,fc60 <__getf2+0x84>
    fcf8:	fcd2fae3          	bgeu	x5,x13,fccc <__getf2+0xf0>
    fcfc:	00100513          	addi	x10,x0,1
    fd00:	f60314e3          	bne	x6,x0,fc68 <__getf2+0x8c>
    fd04:	f99ff06f          	jal	x0,fc9c <__getf2+0xc0>
    fd08:	f4689ce3          	bne	x17,x6,fc60 <__getf2+0x84>
    fd0c:	ff1ff06f          	jal	x0,fcfc <__getf2+0x120>
    fd10:	f40508e3          	beq	x10,x0,fc60 <__getf2+0x84>
    fd14:	f46896e3          	bne	x17,x6,fc60 <__getf2+0x84>
    fd18:	f4c544e3          	blt	x10,x12,fc60 <__getf2+0x84>
    fd1c:	fca650e3          	bge	x12,x10,fcdc <__getf2+0x100>
    fd20:	fddff06f          	jal	x0,fcfc <__getf2+0x120>
    fd24:	ffe00513          	addi	x10,x0,-2
    fd28:	f41ff06f          	jal	x0,fc68 <__getf2+0x8c>
    fd2c:	f60784e3          	beq	x15,x0,fc94 <__getf2+0xb8>
    fd30:	f26898e3          	bne	x17,x6,fc60 <__getf2+0x84>
    fd34:	faa654e3          	bge	x12,x10,fcdc <__getf2+0x100>
    fd38:	fc5ff06f          	jal	x0,fcfc <__getf2+0x120>

0000fd3c <__letf2>:
    fd3c:	00c52303          	lw	x6,12(x10)
    fd40:	00c5a883          	lw	x17,12(x11)
    fd44:	000087b7          	lui	x15,0x8
    fd48:	fff78793          	addi	x15,x15,-1 # 7fff <_vfiprintf_r+0x817>
    fd4c:	01035693          	srli	x13,x6,0x10
    fd50:	0108d713          	srli	x14,x17,0x10
    fd54:	01031f13          	slli	x30,x6,0x10
    fd58:	0005a603          	lw	x12,0(x11)
    fd5c:	0045ae83          	lw	x29,4(x11)
    fd60:	0085ae03          	lw	x28,8(x11)
    fd64:	00f6f6b3          	and	x13,x13,x15
    fd68:	01089593          	slli	x11,x17,0x10
    fd6c:	00052283          	lw	x5,0(x10)
    fd70:	00452803          	lw	x16,4(x10)
    fd74:	00852f83          	lw	x31,8(x10)
    fd78:	ff010113          	addi	x2,x2,-16
    fd7c:	010f5f13          	srli	x30,x30,0x10
    fd80:	01f35313          	srli	x6,x6,0x1f
    fd84:	0105d593          	srli	x11,x11,0x10
    fd88:	00f77533          	and	x10,x14,x15
    fd8c:	01f8d893          	srli	x17,x17,0x1f
    fd90:	08f68463          	beq	x13,x15,fe18 <__letf2+0xdc>
    fd94:	02f50a63          	beq	x10,x15,fdc8 <__letf2+0x8c>
    fd98:	0a069a63          	bne	x13,x0,fe4c <__letf2+0x110>
    fd9c:	005867b3          	or	x15,x16,x5
    fda0:	01f7e7b3          	or	x15,x15,x31
    fda4:	01e7e7b3          	or	x15,x15,x30
    fda8:	04051e63          	bne	x10,x0,fe04 <__letf2+0xc8>
    fdac:	01d66733          	or	x14,x12,x29
    fdb0:	01c76733          	or	x14,x14,x28
    fdb4:	00b76733          	or	x14,x14,x11
    fdb8:	04071663          	bne	x14,x0,fe04 <__letf2+0xc8>
    fdbc:	02079c63          	bne	x15,x0,fdf4 <__letf2+0xb8>
    fdc0:	01010113          	addi	x2,x2,16
    fdc4:	00008067          	jalr	x0,0(x1)
    fdc8:	01d66633          	or	x12,x12,x29
    fdcc:	01c66633          	or	x12,x12,x28
    fdd0:	00b66633          	or	x12,x12,x11
    fdd4:	00200513          	addi	x10,x0,2
    fdd8:	fe0614e3          	bne	x12,x0,fdc0 <__letf2+0x84>
    fddc:	00069a63          	bne	x13,x0,fdf0 <__letf2+0xb4>
    fde0:	00586833          	or	x16,x16,x5
    fde4:	01f86833          	or	x16,x16,x31
    fde8:	01e86833          	or	x16,x16,x30
    fdec:	00080e63          	beq	x16,x0,fe08 <__letf2+0xcc>
    fdf0:	08688663          	beq	x17,x6,fe7c <__letf2+0x140>
    fdf4:	00031e63          	bne	x6,x0,fe10 <__letf2+0xd4>
    fdf8:	00100513          	addi	x10,x0,1
    fdfc:	01010113          	addi	x2,x2,16
    fe00:	00008067          	jalr	x0,0(x1)
    fe04:	08079863          	bne	x15,x0,fe94 <__letf2+0x158>
    fe08:	00100513          	addi	x10,x0,1
    fe0c:	fa089ae3          	bne	x17,x0,fdc0 <__letf2+0x84>
    fe10:	fff00513          	addi	x10,x0,-1
    fe14:	fadff06f          	jal	x0,fdc0 <__letf2+0x84>
    fe18:	00586833          	or	x16,x16,x5
    fe1c:	01f86833          	or	x16,x16,x31
    fe20:	01e86833          	or	x16,x16,x30
    fe24:	06081263          	bne	x16,x0,fe88 <__letf2+0x14c>
    fe28:	fcd516e3          	bne	x10,x13,fdf4 <__letf2+0xb8>
    fe2c:	01d66633          	or	x12,x12,x29
    fe30:	01c66633          	or	x12,x12,x28
    fe34:	00b66633          	or	x12,x12,x11
    fe38:	00200513          	addi	x10,x0,2
    fe3c:	f80612e3          	bne	x12,x0,fdc0 <__letf2+0x84>
    fe40:	fa689ae3          	bne	x17,x6,fdf4 <__letf2+0xb8>
    fe44:	00000513          	addi	x10,x0,0
    fe48:	f79ff06f          	jal	x0,fdc0 <__letf2+0x84>
    fe4c:	fa0504e3          	beq	x10,x0,fdf4 <__letf2+0xb8>
    fe50:	fa6892e3          	bne	x17,x6,fdf4 <__letf2+0xb8>
    fe54:	fad540e3          	blt	x10,x13,fdf4 <__letf2+0xb8>
    fe58:	02a6c263          	blt	x13,x10,fe7c <__letf2+0x140>
    fe5c:	f9e5ece3          	bltu	x11,x30,fdf4 <__letf2+0xb8>
    fe60:	00bf1e63          	bne	x30,x11,fe7c <__letf2+0x140>
    fe64:	f9fe68e3          	bltu	x28,x31,fdf4 <__letf2+0xb8>
    fe68:	01cf9a63          	bne	x31,x28,fe7c <__letf2+0x140>
    fe6c:	f90ee4e3          	bltu	x29,x16,fdf4 <__letf2+0xb8>
    fe70:	01d81663          	bne	x16,x29,fe7c <__letf2+0x140>
    fe74:	f85660e3          	bltu	x12,x5,fdf4 <__letf2+0xb8>
    fe78:	fcc2f6e3          	bgeu	x5,x12,fe44 <__letf2+0x108>
    fe7c:	00100513          	addi	x10,x0,1
    fe80:	f40310e3          	bne	x6,x0,fdc0 <__letf2+0x84>
    fe84:	f8dff06f          	jal	x0,fe10 <__letf2+0xd4>
    fe88:	00200513          	addi	x10,x0,2
    fe8c:	01010113          	addi	x2,x2,16
    fe90:	00008067          	jalr	x0,0(x1)
    fe94:	f66890e3          	bne	x17,x6,fdf4 <__letf2+0xb8>
    fe98:	fc1ff06f          	jal	x0,fe58 <__letf2+0x11c>

0000fe9c <__multf3>:
    fe9c:	00c5a803          	lw	x16,12(x11)
    fea0:	f4010113          	addi	x2,x2,-192
    fea4:	0045a703          	lw	x14,4(x11)
    fea8:	0085a883          	lw	x17,8(x11)
    feac:	0a912a23          	sw	x9,180(x2)
    feb0:	0005a483          	lw	x9,0(x11)
    feb4:	01081793          	slli	x15,x16,0x10
    feb8:	000085b7          	lui	x11,0x8
    febc:	0107d793          	srli	x15,x15,0x10
    fec0:	01085693          	srli	x13,x16,0x10
    fec4:	fff58593          	addi	x11,x11,-1 # 7fff <_vfiprintf_r+0x817>
    fec8:	0a812c23          	sw	x8,184(x2)
    fecc:	0b212823          	sw	x18,176(x2)
    fed0:	0b312623          	sw	x19,172(x2)
    fed4:	0b412423          	sw	x20,168(x2)
    fed8:	0b512223          	sw	x21,164(x2)
    fedc:	09712e23          	sw	x23,156(x2)
    fee0:	0a112e23          	sw	x1,188(x2)
    fee4:	0b612023          	sw	x22,160(x2)
    fee8:	09812c23          	sw	x24,152(x2)
    feec:	09b12623          	sw	x27,140(x2)
    fef0:	06912023          	sw	x9,96(x2)
    fef4:	06e12223          	sw	x14,100(x2)
    fef8:	07112423          	sw	x17,104(x2)
    fefc:	07012623          	sw	x16,108(x2)
    ff00:	02912823          	sw	x9,48(x2)
    ff04:	02e12a23          	sw	x14,52(x2)
    ff08:	03112c23          	sw	x17,56(x2)
    ff0c:	02f12e23          	sw	x15,60(x2)
    ff10:	00b6f6b3          	and	x13,x13,x11
    ff14:	00062a83          	lw	x21,0(x12)
    ff18:	00462983          	lw	x19,4(x12)
    ff1c:	00862b83          	lw	x23,8(x12)
    ff20:	00c62903          	lw	x18,12(x12)
    ff24:	00050413          	addi	x8,x10,0
    ff28:	01f85a13          	srli	x20,x16,0x1f
    ff2c:	34068063          	beq	x13,x0,1026c <__multf3+0x3d0>
    ff30:	18b68c63          	beq	x13,x11,100c8 <__multf3+0x22c>
    ff34:	00010737          	lui	x14,0x10
    ff38:	00e7e7b3          	or	x15,x15,x14
    ff3c:	02f12e23          	sw	x15,60(x2)
    ff40:	03010513          	addi	x10,x2,48
    ff44:	03c10713          	addi	x14,x2,60
    ff48:	00379593          	slli	x11,x15,0x3
    ff4c:	ffc72783          	lw	x15,-4(x14) # fffc <__multf3+0x160>
    ff50:	ffc70713          	addi	x14,x14,-4
    ff54:	01d7d613          	srli	x12,x15,0x1d
    ff58:	00b66633          	or	x12,x12,x11
    ff5c:	00c72223          	sw	x12,4(x14)
    ff60:	fee514e3          	bne	x10,x14,ff48 <__multf3+0xac>
    ff64:	ffffc7b7          	lui	x15,0xffffc
    ff68:	00349493          	slli	x9,x9,0x3
    ff6c:	00178793          	addi	x15,x15,1 # ffffc001 <__heap_end+0xffbfc001>
    ff70:	02912823          	sw	x9,48(x2)
    ff74:	00f68db3          	add	x27,x13,x15
    ff78:	00000b13          	addi	x22,x0,0
    ff7c:	00000c13          	addi	x24,x0,0
    ff80:	01091513          	slli	x10,x18,0x10
    ff84:	000086b7          	lui	x13,0x8
    ff88:	01095793          	srli	x15,x18,0x10
    ff8c:	01055513          	srli	x10,x10,0x10
    ff90:	fff68713          	addi	x14,x13,-1 # 7fff <_vfiprintf_r+0x817>
    ff94:	07212623          	sw	x18,108(x2)
    ff98:	07512023          	sw	x21,96(x2)
    ff9c:	07312223          	sw	x19,100(x2)
    ffa0:	07712423          	sw	x23,104(x2)
    ffa4:	05512023          	sw	x21,64(x2)
    ffa8:	05312223          	sw	x19,68(x2)
    ffac:	05712423          	sw	x23,72(x2)
    ffb0:	04a12623          	sw	x10,76(x2)
    ffb4:	00e7f7b3          	and	x15,x15,x14
    ffb8:	01f95913          	srli	x18,x18,0x1f
    ffbc:	1c078463          	beq	x15,x0,10184 <__multf3+0x2e8>
    ffc0:	12e78463          	beq	x15,x14,100e8 <__multf3+0x24c>
    ffc4:	00010737          	lui	x14,0x10
    ffc8:	00e56533          	or	x10,x10,x14
    ffcc:	04a12623          	sw	x10,76(x2)
    ffd0:	04010593          	addi	x11,x2,64
    ffd4:	04c10713          	addi	x14,x2,76
    ffd8:	00351613          	slli	x12,x10,0x3
    ffdc:	ffc72503          	lw	x10,-4(x14) # fffc <__multf3+0x160>
    ffe0:	ffc70713          	addi	x14,x14,-4
    ffe4:	01d55693          	srli	x13,x10,0x1d
    ffe8:	00c6e6b3          	or	x13,x13,x12
    ffec:	00d72223          	sw	x13,4(x14)
    fff0:	fee594e3          	bne	x11,x14,ffd8 <__multf3+0x13c>
    fff4:	ffffc737          	lui	x14,0xffffc
    fff8:	00170713          	addi	x14,x14,1 # ffffc001 <__heap_end+0xffbfc001>
    fffc:	003a9a93          	slli	x21,x21,0x3
   10000:	00e787b3          	add	x15,x15,x14
   10004:	05512023          	sw	x21,64(x2)
   10008:	01b787b3          	add	x15,x15,x27
   1000c:	00000613          	addi	x12,x0,0
   10010:	00178693          	addi	x13,x15,1
   10014:	00a00713          	addi	x14,x0,10
   10018:	00d12623          	sw	x13,12(x2)
   1001c:	25674463          	blt	x14,x22,10264 <__multf3+0x3c8>
   10020:	012a4733          	xor	x14,x20,x18
   10024:	00200693          	addi	x13,x0,2
   10028:	00070813          	addi	x16,x14,0
   1002c:	3366dc63          	bge	x13,x22,10364 <__multf3+0x4c8>
   10030:	00100693          	addi	x13,x0,1
   10034:	016696b3          	sll	x13,x13,x22
   10038:	5306f593          	andi	x11,x13,1328
   1003c:	0e059863          	bne	x11,x0,1012c <__multf3+0x290>
   10040:	0886f593          	andi	x11,x13,136
   10044:	420592e3          	bne	x11,x0,10c68 <__multf3+0xdcc>
   10048:	2406f693          	andi	x13,x13,576
   1004c:	38068063          	beq	x13,x0,103cc <__multf3+0x530>
   10050:	000087b7          	lui	x15,0x8
   10054:	00000713          	addi	x14,x0,0
   10058:	fff78793          	addi	x15,x15,-1 # 7fff <_vfiprintf_r+0x817>
   1005c:	000086b7          	lui	x13,0x8
   10060:	00000613          	addi	x12,x0,0
   10064:	00000593          	addi	x11,x0,0
   10068:	00000513          	addi	x10,x0,0
   1006c:	00f71713          	slli	x14,x14,0xf
   10070:	00e7e7b3          	or	x15,x15,x14
   10074:	06d11623          	sh	x13,108(x2)
   10078:	06f11723          	sh	x15,110(x2)
   1007c:	06c12783          	lw	x15,108(x2)
   10080:	00a42023          	sw	x10,0(x8)
   10084:	0bc12083          	lw	x1,188(x2)
   10088:	00b42223          	sw	x11,4(x8)
   1008c:	00c42423          	sw	x12,8(x8)
   10090:	00f42623          	sw	x15,12(x8)
   10094:	00040513          	addi	x10,x8,0
   10098:	0b812403          	lw	x8,184(x2)
   1009c:	0b412483          	lw	x9,180(x2)
   100a0:	0b012903          	lw	x18,176(x2)
   100a4:	0ac12983          	lw	x19,172(x2)
   100a8:	0a812a03          	lw	x20,168(x2)
   100ac:	0a412a83          	lw	x21,164(x2)
   100b0:	0a012b03          	lw	x22,160(x2)
   100b4:	09c12b83          	lw	x23,156(x2)
   100b8:	09812c03          	lw	x24,152(x2)
   100bc:	08c12d83          	lw	x27,140(x2)
   100c0:	0c010113          	addi	x2,x2,192
   100c4:	00008067          	jalr	x0,0(x1)
   100c8:	00e4e733          	or	x14,x9,x14
   100cc:	01176733          	or	x14,x14,x17
   100d0:	00f76733          	or	x14,x14,x15
   100d4:	2c071e63          	bne	x14,x0,103b0 <__multf3+0x514>
   100d8:	00800b13          	addi	x22,x0,8
   100dc:	00068d93          	addi	x27,x13,0 # 8000 <_vfiprintf_r+0x818>
   100e0:	00200c13          	addi	x24,x0,2
   100e4:	e9dff06f          	jal	x0,ff80 <__multf3+0xe4>
   100e8:	013ae9b3          	or	x19,x21,x19
   100ec:	0179e9b3          	or	x19,x19,x23
   100f0:	00a9e9b3          	or	x19,x19,x10
   100f4:	00fd87b3          	add	x15,x27,x15
   100f8:	2c098463          	beq	x19,x0,103c0 <__multf3+0x524>
   100fc:	00dd86b3          	add	x13,x27,x13
   10100:	012a4733          	xor	x14,x20,x18
   10104:	003b6b13          	ori	x22,x22,3
   10108:	00a00613          	addi	x12,x0,10
   1010c:	00d12623          	sw	x13,12(x2)
   10110:	00070813          	addi	x16,x14,0
   10114:	356644e3          	blt	x12,x22,10c5c <__multf3+0xdc0>
   10118:	00100693          	addi	x13,x0,1
   1011c:	016696b3          	sll	x13,x13,x22
   10120:	5306f593          	andi	x11,x13,1328
   10124:	00300613          	addi	x12,x0,3
   10128:	f0058ce3          	beq	x11,x0,10040 <__multf3+0x1a4>
   1012c:	03412703          	lw	x14,52(x2)
   10130:	03c12783          	lw	x15,60(x2)
   10134:	000c0613          	addi	x12,x24,0
   10138:	04e12a23          	sw	x14,84(x2)
   1013c:	03012703          	lw	x14,48(x2)
   10140:	04e12823          	sw	x14,80(x2)
   10144:	03812703          	lw	x14,56(x2)
   10148:	04e12c23          	sw	x14,88(x2)
   1014c:	04f12e23          	sw	x15,92(x2)
   10150:	00200793          	addi	x15,x0,2
   10154:	1ef60863          	beq	x12,x15,10344 <__multf3+0x4a8>
   10158:	00300793          	addi	x15,x0,3
   1015c:	eef60ae3          	beq	x12,x15,10050 <__multf3+0x1b4>
   10160:	00100793          	addi	x15,x0,1
   10164:	00080713          	addi	x14,x16,0
   10168:	20f616e3          	bne	x12,x15,10b74 <__multf3+0xcd8>
   1016c:	00000793          	addi	x15,x0,0
   10170:	00000693          	addi	x13,x0,0
   10174:	00000613          	addi	x12,x0,0
   10178:	00000593          	addi	x11,x0,0
   1017c:	00000513          	addi	x10,x0,0
   10180:	eedff06f          	jal	x0,1006c <__multf3+0x1d0>
   10184:	013ae7b3          	or	x15,x21,x19
   10188:	0177e7b3          	or	x15,x15,x23
   1018c:	00a7e7b3          	or	x15,x15,x10
   10190:	20078863          	beq	x15,x0,103a0 <__multf3+0x504>
   10194:	4a0508e3          	beq	x10,x0,10e44 <__multf3+0xfa8>
   10198:	3d1020ef          	jal	x1,12d68 <__clzsi2>
   1019c:	ff450813          	addi	x16,x10,-12
   101a0:	02000313          	addi	x6,x0,32
   101a4:	41030333          	sub	x6,x6,x16
   101a8:	00000613          	addi	x12,x0,0
   101ac:	010a9ab3          	sll	x21,x21,x16
   101b0:	40c008b3          	sub	x17,x0,x12
   101b4:	00289893          	slli	x17,x17,0x2
   101b8:	04010693          	addi	x13,x2,64
   101bc:	01168733          	add	x14,x13,x17
   101c0:	00300593          	addi	x11,x0,3
   101c4:	411008b3          	sub	x17,x0,x17
   101c8:	00c72783          	lw	x15,12(x14)
   101cc:	00872e03          	lw	x28,8(x14)
   101d0:	01170eb3          	add	x29,x14,x17
   101d4:	010797b3          	sll	x15,x15,x16
   101d8:	006e5e33          	srl	x28,x28,x6
   101dc:	01c7e7b3          	or	x15,x15,x28
   101e0:	00fea623          	sw	x15,12(x29)
   101e4:	fff58593          	addi	x11,x11,-1
   101e8:	ffc70713          	addi	x14,x14,-4
   101ec:	fcb64ee3          	blt	x12,x11,101c8 <__multf3+0x32c>
   101f0:	00261713          	slli	x14,x12,0x2
   101f4:	05070793          	addi	x15,x14,80
   101f8:	03010713          	addi	x14,x2,48
   101fc:	00e78733          	add	x14,x15,x14
   10200:	fd572023          	sw	x21,-64(x14)
   10204:	fff60793          	addi	x15,x12,-1
   10208:	fff00713          	addi	x14,x0,-1
   1020c:	02e78a63          	beq	x15,x14,10240 <__multf3+0x3a4>
   10210:	00178793          	addi	x15,x15,1
   10214:	00279793          	slli	x15,x15,0x2
   10218:	00800613          	addi	x12,x0,8
   1021c:	00068713          	addi	x14,x13,0
   10220:	00c7ea63          	bltu	x15,x12,10234 <__multf3+0x398>
   10224:	04012023          	sw	x0,64(x2)
   10228:	0006a223          	sw	x0,4(x13)
   1022c:	ff878793          	addi	x15,x15,-8
   10230:	04810713          	addi	x14,x2,72
   10234:	00400693          	addi	x13,x0,4
   10238:	00d7e463          	bltu	x15,x13,10240 <__multf3+0x3a4>
   1023c:	00072023          	sw	x0,0(x14)
   10240:	ffffc7b7          	lui	x15,0xffffc
   10244:	01178793          	addi	x15,x15,17 # ffffc011 <__heap_end+0xffbfc011>
   10248:	40a787b3          	sub	x15,x15,x10
   1024c:	01b787b3          	add	x15,x15,x27
   10250:	00178693          	addi	x13,x15,1
   10254:	00a00713          	addi	x14,x0,10
   10258:	00d12623          	sw	x13,12(x2)
   1025c:	00000613          	addi	x12,x0,0
   10260:	dd6750e3          	bge	x14,x22,10020 <__multf3+0x184>
   10264:	000a0813          	addi	x16,x20,0
   10268:	ec5ff06f          	jal	x0,1012c <__multf3+0x290>
   1026c:	00e4e6b3          	or	x13,x9,x14
   10270:	0116e6b3          	or	x13,x13,x17
   10274:	00f6e6b3          	or	x13,x13,x15
   10278:	10068c63          	beq	x13,x0,10390 <__multf3+0x4f4>
   1027c:	360786e3          	beq	x15,x0,10de8 <__multf3+0xf4c>
   10280:	00078513          	addi	x10,x15,0
   10284:	2e5020ef          	jal	x1,12d68 <__clzsi2>
   10288:	ff450813          	addi	x16,x10,-12
   1028c:	02000313          	addi	x6,x0,32
   10290:	41030333          	sub	x6,x6,x16
   10294:	00000613          	addi	x12,x0,0
   10298:	010494b3          	sll	x9,x9,x16
   1029c:	40c008b3          	sub	x17,x0,x12
   102a0:	00289893          	slli	x17,x17,0x2
   102a4:	03010693          	addi	x13,x2,48
   102a8:	01168733          	add	x14,x13,x17
   102ac:	00300593          	addi	x11,x0,3
   102b0:	411008b3          	sub	x17,x0,x17
   102b4:	00c72783          	lw	x15,12(x14)
   102b8:	00872e03          	lw	x28,8(x14)
   102bc:	01170eb3          	add	x29,x14,x17
   102c0:	010797b3          	sll	x15,x15,x16
   102c4:	006e5e33          	srl	x28,x28,x6
   102c8:	01c7e7b3          	or	x15,x15,x28
   102cc:	00fea623          	sw	x15,12(x29)
   102d0:	fff58593          	addi	x11,x11,-1
   102d4:	ffc70713          	addi	x14,x14,-4
   102d8:	fcb64ee3          	blt	x12,x11,102b4 <__multf3+0x418>
   102dc:	00261713          	slli	x14,x12,0x2
   102e0:	05070793          	addi	x15,x14,80
   102e4:	03010713          	addi	x14,x2,48
   102e8:	00e78733          	add	x14,x15,x14
   102ec:	fa972823          	sw	x9,-80(x14)
   102f0:	fff60793          	addi	x15,x12,-1
   102f4:	fff00713          	addi	x14,x0,-1
   102f8:	02e78a63          	beq	x15,x14,1032c <__multf3+0x490>
   102fc:	00178793          	addi	x15,x15,1
   10300:	00279793          	slli	x15,x15,0x2
   10304:	00800613          	addi	x12,x0,8
   10308:	00068713          	addi	x14,x13,0
   1030c:	00c7ea63          	bltu	x15,x12,10320 <__multf3+0x484>
   10310:	02012823          	sw	x0,48(x2)
   10314:	0006a223          	sw	x0,4(x13)
   10318:	ff878793          	addi	x15,x15,-8
   1031c:	03810713          	addi	x14,x2,56
   10320:	00400693          	addi	x13,x0,4
   10324:	00d7e463          	bltu	x15,x13,1032c <__multf3+0x490>
   10328:	00072023          	sw	x0,0(x14)
   1032c:	ffffc6b7          	lui	x13,0xffffc
   10330:	01168693          	addi	x13,x13,17 # ffffc011 <__heap_end+0xffbfc011>
   10334:	40a68db3          	sub	x27,x13,x10
   10338:	00000b13          	addi	x22,x0,0
   1033c:	00000c13          	addi	x24,x0,0
   10340:	c41ff06f          	jal	x0,ff80 <__multf3+0xe4>
   10344:	000087b7          	lui	x15,0x8
   10348:	00080713          	addi	x14,x16,0
   1034c:	fff78793          	addi	x15,x15,-1 # 7fff <_vfiprintf_r+0x817>
   10350:	00000693          	addi	x13,x0,0
   10354:	00000613          	addi	x12,x0,0
   10358:	00000593          	addi	x11,x0,0
   1035c:	00000513          	addi	x10,x0,0
   10360:	d0dff06f          	jal	x0,1006c <__multf3+0x1d0>
   10364:	fffb0b13          	addi	x22,x22,-1
   10368:	00100693          	addi	x13,x0,1
   1036c:	0766e063          	bltu	x13,x22,103cc <__multf3+0x530>
   10370:	04412703          	lw	x14,68(x2)
   10374:	04c12783          	lw	x15,76(x2)
   10378:	04e12a23          	sw	x14,84(x2)
   1037c:	04012703          	lw	x14,64(x2)
   10380:	04e12823          	sw	x14,80(x2)
   10384:	04812703          	lw	x14,72(x2)
   10388:	04e12c23          	sw	x14,88(x2)
   1038c:	dc1ff06f          	jal	x0,1014c <__multf3+0x2b0>
   10390:	00400b13          	addi	x22,x0,4
   10394:	00000d93          	addi	x27,x0,0
   10398:	00100c13          	addi	x24,x0,1
   1039c:	be5ff06f          	jal	x0,ff80 <__multf3+0xe4>
   103a0:	001b6b13          	ori	x22,x22,1
   103a4:	000d8793          	addi	x15,x27,0
   103a8:	00100613          	addi	x12,x0,1
   103ac:	c65ff06f          	jal	x0,10010 <__multf3+0x174>
   103b0:	00c00b13          	addi	x22,x0,12
   103b4:	00068d93          	addi	x27,x13,0
   103b8:	00300c13          	addi	x24,x0,3
   103bc:	bc5ff06f          	jal	x0,ff80 <__multf3+0xe4>
   103c0:	002b6b13          	ori	x22,x22,2
   103c4:	00200613          	addi	x12,x0,2
   103c8:	c49ff06f          	jal	x0,10010 <__multf3+0x174>
   103cc:	03012303          	lw	x6,48(x2)
   103d0:	04012f83          	lw	x31,64(x2)
   103d4:	00010837          	lui	x16,0x10
   103d8:	fff80693          	addi	x13,x16,-1 # ffff <__multf3+0x163>
   103dc:	01035913          	srli	x18,x6,0x10
   103e0:	010fd493          	srli	x9,x31,0x10
   103e4:	00d37333          	and	x6,x6,x13
   103e8:	00dfffb3          	and	x31,x31,x13
   103ec:	026f86b3          	mul	x13,x31,x6
   103f0:	09912a23          	sw	x25,148(x2)
   103f4:	09a12823          	sw	x26,144(x2)
   103f8:	03f90533          	mul	x10,x18,x31
   103fc:	0106de93          	srli	x29,x13,0x10
   10400:	02648633          	mul	x12,x9,x6
   10404:	00a60633          	add	x12,x12,x10
   10408:	00ce8eb3          	add	x29,x29,x12
   1040c:	029905b3          	mul	x11,x18,x9
   10410:	00aef463          	bgeu	x29,x10,10418 <__multf3+0x57c>
   10414:	010585b3          	add	x11,x11,x16
   10418:	000108b7          	lui	x17,0x10
   1041c:	fff88813          	addi	x16,x17,-1 # ffff <__multf3+0x163>
   10420:	04412f03          	lw	x30,68(x2)
   10424:	010ef533          	and	x10,x29,x16
   10428:	01051513          	slli	x10,x10,0x10
   1042c:	0106f6b3          	and	x13,x13,x16
   10430:	010f5e13          	srli	x28,x30,0x10
   10434:	00d506b3          	add	x13,x10,x13
   10438:	010f7f33          	and	x30,x30,x16
   1043c:	026f0633          	mul	x12,x30,x6
   10440:	00d12e23          	sw	x13,28(x2)
   10444:	06d12023          	sw	x13,96(x2)
   10448:	01c12823          	sw	x28,16(x2)
   1044c:	010ede93          	srli	x29,x29,0x10
   10450:	03e90533          	mul	x10,x18,x30
   10454:	01065293          	srli	x5,x12,0x10
   10458:	026e06b3          	mul	x13,x28,x6
   1045c:	00a686b3          	add	x13,x13,x10
   10460:	00d282b3          	add	x5,x5,x13
   10464:	03c90b33          	mul	x22,x18,x28
   10468:	00a2f463          	bgeu	x5,x10,10470 <__multf3+0x5d4>
   1046c:	011b0b33          	add	x22,x22,x17
   10470:	03412883          	lw	x17,52(x2)
   10474:	00010837          	lui	x16,0x10
   10478:	fff80513          	addi	x10,x16,-1 # ffff <__multf3+0x163>
   1047c:	0108d393          	srli	x7,x17,0x10
   10480:	00a8f8b3          	and	x17,x17,x10
   10484:	00a2f9b3          	and	x19,x5,x10
   10488:	00a67633          	and	x12,x12,x10
   1048c:	03f886b3          	mul	x13,x17,x31
   10490:	01099993          	slli	x19,x19,0x10
   10494:	00c989b3          	add	x19,x19,x12
   10498:	0102d293          	srli	x5,x5,0x10
   1049c:	013e8eb3          	add	x29,x29,x19
   104a0:	03f38e33          	mul	x28,x7,x31
   104a4:	0106d613          	srli	x12,x13,0x10
   104a8:	03148533          	mul	x10,x9,x17
   104ac:	01c50533          	add	x10,x10,x28
   104b0:	00a60633          	add	x12,x12,x10
   104b4:	02748533          	mul	x10,x9,x7
   104b8:	01c67463          	bgeu	x12,x28,104c0 <__multf3+0x624>
   104bc:	01050533          	add	x10,x10,x16
   104c0:	01012b83          	lw	x23,16(x2)
   104c4:	00010e37          	lui	x28,0x10
   104c8:	fffe0813          	addi	x16,x28,-1 # ffff <__multf3+0x163>
   104cc:	01067a33          	and	x20,x12,x16
   104d0:	01065613          	srli	x12,x12,0x10
   104d4:	0106f6b3          	and	x13,x13,x16
   104d8:	00a60633          	add	x12,x12,x10
   104dc:	031b8ab3          	mul	x21,x23,x17
   104e0:	010a1a13          	slli	x20,x20,0x10
   104e4:	00da0a33          	add	x20,x20,x13
   104e8:	031f0533          	mul	x10,x30,x17
   104ec:	03e38833          	mul	x16,x7,x30
   104f0:	01055693          	srli	x13,x10,0x10
   104f4:	010a8ab3          	add	x21,x21,x16
   104f8:	015686b3          	add	x13,x13,x21
   104fc:	027b8bb3          	mul	x23,x23,x7
   10500:	0106f463          	bgeu	x13,x16,10508 <__multf3+0x66c>
   10504:	01cb8bb3          	add	x23,x23,x28
   10508:	00010837          	lui	x16,0x10
   1050c:	04812e03          	lw	x28,72(x2)
   10510:	fff80c13          	addi	x24,x16,-1 # ffff <__multf3+0x163>
   10514:	0186fab3          	and	x21,x13,x24
   10518:	0106d693          	srli	x13,x13,0x10
   1051c:	017686b3          	add	x13,x13,x23
   10520:	010a9a93          	slli	x21,x21,0x10
   10524:	01857533          	and	x10,x10,x24
   10528:	010e5d13          	srli	x26,x28,0x10
   1052c:	018e7cb3          	and	x25,x28,x24
   10530:	02d12023          	sw	x13,32(x2)
   10534:	00aa86b3          	add	x13,x21,x10
   10538:	026c8e33          	mul	x28,x25,x6
   1053c:	02d12223          	sw	x13,36(x2)
   10540:	026d0ab3          	mul	x21,x26,x6
   10544:	010e5513          	srli	x10,x28,0x10
   10548:	039906b3          	mul	x13,x18,x25
   1054c:	00da8ab3          	add	x21,x21,x13
   10550:	01550533          	add	x10,x10,x21
   10554:	03a90bb3          	mul	x23,x18,x26
   10558:	00d57463          	bgeu	x10,x13,10560 <__multf3+0x6c4>
   1055c:	010b8bb3          	add	x23,x23,x16
   10560:	03812803          	lw	x16,56(x2)
   10564:	000106b7          	lui	x13,0x10
   10568:	fff68c13          	addi	x24,x13,-1 # ffff <__multf3+0x163>
   1056c:	01085d93          	srli	x27,x16,0x10
   10570:	01887833          	and	x16,x16,x24
   10574:	018576b3          	and	x13,x10,x24
   10578:	01055513          	srli	x10,x10,0x10
   1057c:	03f80ab3          	mul	x21,x16,x31
   10580:	01750bb3          	add	x23,x10,x23
   10584:	018e7e33          	and	x28,x28,x24
   10588:	01069693          	slli	x13,x13,0x10
   1058c:	03712423          	sw	x23,40(x2)
   10590:	01c686b3          	add	x13,x13,x28
   10594:	03fd8bb3          	mul	x23,x27,x31
   10598:	010ade13          	srli	x28,x21,0x10
   1059c:	03512623          	sw	x21,44(x2)
   105a0:	03048c33          	mul	x24,x9,x16
   105a4:	03b48ab3          	mul	x21,x9,x27
   105a8:	017c0c33          	add	x24,x24,x23
   105ac:	018e0e33          	add	x28,x28,x24
   105b0:	01512a23          	sw	x21,20(x2)
   105b4:	017e7863          	bgeu	x28,x23,105c4 <__multf3+0x728>
   105b8:	00010537          	lui	x10,0x10
   105bc:	00aa8533          	add	x10,x21,x10
   105c0:	00a12a23          	sw	x10,20(x2)
   105c4:	01d585b3          	add	x11,x11,x29
   105c8:	0135b9b3          	sltu	x19,x11,x19
   105cc:	013282b3          	add	x5,x5,x19
   105d0:	016282b3          	add	x5,x5,x22
   105d4:	01458b33          	add	x22,x11,x20
   105d8:	00c28633          	add	x12,x5,x12
   105dc:	00bb35b3          	sltu	x11,x22,x11
   105e0:	00b605b3          	add	x11,x12,x11
   105e4:	04c12e83          	lw	x29,76(x2)
   105e8:	00563bb3          	sltu	x23,x12,x5
   105ec:	00010ab7          	lui	x21,0x10
   105f0:	00c5b633          	sltu	x12,x11,x12
   105f4:	fffa8a93          	addi	x21,x21,-1 # ffff <__multf3+0x163>
   105f8:	0132b9b3          	sltu	x19,x5,x19
   105fc:	02c12503          	lw	x10,44(x2)
   10600:	00cbe633          	or	x12,x23,x12
   10604:	02412283          	lw	x5,36(x2)
   10608:	010eda13          	srli	x20,x29,0x10
   1060c:	01360633          	add	x12,x12,x19
   10610:	015efeb3          	and	x29,x29,x21
   10614:	02012983          	lw	x19,32(x2)
   10618:	015e7bb3          	and	x23,x28,x21
   1061c:	03d90c33          	mul	x24,x18,x29
   10620:	01612c23          	sw	x22,24(x2)
   10624:	005582b3          	add	x5,x11,x5
   10628:	010b9b93          	slli	x23,x23,0x10
   1062c:	01557ab3          	and	x21,x10,x21
   10630:	02812503          	lw	x10,40(x2)
   10634:	013609b3          	add	x19,x12,x19
   10638:	00b2b5b3          	sltu	x11,x5,x11
   1063c:	015b8ab3          	add	x21,x23,x21
   10640:	01412b83          	lw	x23,20(x2)
   10644:	026e8b33          	mul	x22,x29,x6
   10648:	00b985b3          	add	x11,x19,x11
   1064c:	00d286b3          	add	x13,x5,x13
   10650:	00a58533          	add	x10,x11,x10
   10654:	0056b2b3          	sltu	x5,x13,x5
   10658:	010e5e13          	srli	x28,x28,0x10
   1065c:	005502b3          	add	x5,x10,x5
   10660:	01568ab3          	add	x21,x13,x21
   10664:	017e0e33          	add	x28,x28,x23
   10668:	01c28e33          	add	x28,x5,x28
   1066c:	026a0333          	mul	x6,x20,x6
   10670:	00c9b633          	sltu	x12,x19,x12
   10674:	00dab6b3          	sltu	x13,x21,x13
   10678:	0135b9b3          	sltu	x19,x11,x19
   1067c:	00b535b3          	sltu	x11,x10,x11
   10680:	00a2b533          	sltu	x10,x5,x10
   10684:	00a5e533          	or	x10,x11,x10
   10688:	00de06b3          	add	x13,x28,x13
   1068c:	01812583          	lw	x11,24(x2)
   10690:	013669b3          	or	x19,x12,x19
   10694:	005e32b3          	sltu	x5,x28,x5
   10698:	01c6be33          	sltu	x28,x13,x28
   1069c:	00a989b3          	add	x19,x19,x10
   106a0:	01c2e2b3          	or	x5,x5,x28
   106a4:	01830333          	add	x6,x6,x24
   106a8:	010b5613          	srli	x12,x22,0x10
   106ac:	06b12223          	sw	x11,100(x2)
   106b0:	013285b3          	add	x11,x5,x19
   106b4:	03512023          	sw	x21,32(x2)
   106b8:	07512423          	sw	x21,104(x2)
   106bc:	00660633          	add	x12,x12,x6
   106c0:	00b12a23          	sw	x11,20(x2)
   106c4:	03490933          	mul	x18,x18,x20
   106c8:	01867663          	bgeu	x12,x24,106d4 <__multf3+0x838>
   106cc:	00010ab7          	lui	x21,0x10
   106d0:	01590933          	add	x18,x18,x21
   106d4:	03c12283          	lw	x5,60(x2)
   106d8:	00010537          	lui	x10,0x10
   106dc:	fff50313          	addi	x6,x10,-1 # ffff <__multf3+0x163>
   106e0:	0102d993          	srli	x19,x5,0x10
   106e4:	00667ab3          	and	x21,x12,x6
   106e8:	0062f2b3          	and	x5,x5,x6
   106ec:	01065613          	srli	x12,x12,0x10
   106f0:	03f285b3          	mul	x11,x5,x31
   106f4:	01260933          	add	x18,x12,x18
   106f8:	006b7b33          	and	x22,x22,x6
   106fc:	010a9a93          	slli	x21,x21,0x10
   10700:	016a8ab3          	add	x21,x21,x22
   10704:	02548633          	mul	x12,x9,x5
   10708:	0105d313          	srli	x6,x11,0x10
   1070c:	03f98fb3          	mul	x31,x19,x31
   10710:	01f60633          	add	x12,x12,x31
   10714:	00c30333          	add	x6,x6,x12
   10718:	033484b3          	mul	x9,x9,x19
   1071c:	01f37463          	bgeu	x6,x31,10724 <__multf3+0x888>
   10720:	00a484b3          	add	x9,x9,x10
   10724:	00010637          	lui	x12,0x10
   10728:	fff60513          	addi	x10,x12,-1 # ffff <__multf3+0x163>
   1072c:	00a37e33          	and	x28,x6,x10
   10730:	01035313          	srli	x6,x6,0x10
   10734:	00a5f533          	and	x10,x11,x10
   10738:	00930333          	add	x6,x6,x9
   1073c:	010e1e13          	slli	x28,x28,0x10
   10740:	039885b3          	mul	x11,x17,x25
   10744:	00ae0e33          	add	x28,x28,x10
   10748:	03938fb3          	mul	x31,x7,x25
   1074c:	0105d513          	srli	x10,x11,0x10
   10750:	031d04b3          	mul	x9,x26,x17
   10754:	01f484b3          	add	x9,x9,x31
   10758:	00950533          	add	x10,x10,x9
   1075c:	03a38b33          	mul	x22,x7,x26
   10760:	01f57463          	bgeu	x10,x31,10768 <__multf3+0x8cc>
   10764:	00cb0b33          	add	x22,x22,x12
   10768:	01012c03          	lw	x24,16(x2)
   1076c:	000104b7          	lui	x9,0x10
   10770:	fff48f93          	addi	x31,x9,-1 # ffff <__multf3+0x163>
   10774:	01f57633          	and	x12,x10,x31
   10778:	01055513          	srli	x10,x10,0x10
   1077c:	01f5f5b3          	and	x11,x11,x31
   10780:	01650533          	add	x10,x10,x22
   10784:	03ed8fb3          	mul	x31,x27,x30
   10788:	01061613          	slli	x12,x12,0x10
   1078c:	00b60633          	add	x12,x12,x11
   10790:	030f0b33          	mul	x22,x30,x16
   10794:	030c0bb3          	mul	x23,x24,x16
   10798:	010b5593          	srli	x11,x22,0x10
   1079c:	01fb8bb3          	add	x23,x23,x31
   107a0:	017585b3          	add	x11,x11,x23
   107a4:	03bc0bb3          	mul	x23,x24,x27
   107a8:	01f5f463          	bgeu	x11,x31,107b0 <__multf3+0x914>
   107ac:	009b8bb3          	add	x23,x23,x9
   107b0:	01412483          	lw	x9,20(x2)
   107b4:	01568fb3          	add	x31,x13,x21
   107b8:	00dfb6b3          	sltu	x13,x31,x13
   107bc:	012484b3          	add	x9,x9,x18
   107c0:	00d48933          	add	x18,x9,x13
   107c4:	000106b7          	lui	x13,0x10
   107c8:	fff68693          	addi	x13,x13,-1 # ffff <__multf3+0x163>
   107cc:	00d5fab3          	and	x21,x11,x13
   107d0:	010a9a93          	slli	x21,x21,0x10
   107d4:	00db76b3          	and	x13,x22,x13
   107d8:	00da86b3          	add	x13,x21,x13
   107dc:	01412a83          	lw	x21,20(x2)
   107e0:	0105d593          	srli	x11,x11,0x10
   107e4:	017585b3          	add	x11,x11,x23
   107e8:	030c8c33          	mul	x24,x25,x16
   107ec:	0154bbb3          	sltu	x23,x9,x21
   107f0:	01cf8e33          	add	x28,x31,x28
   107f4:	00690333          	add	x6,x18,x6
   107f8:	01fe3fb3          	sltu	x31,x28,x31
   107fc:	01f30fb3          	add	x31,x6,x31
   10800:	00ce0633          	add	x12,x28,x12
   10804:	00af8533          	add	x10,x31,x10
   10808:	01c63e33          	sltu	x28,x12,x28
   1080c:	01c50e33          	add	x28,x10,x28
   10810:	039d8b33          	mul	x22,x27,x25
   10814:	00d606b3          	add	x13,x12,x13
   10818:	00be05b3          	add	x11,x28,x11
   1081c:	009934b3          	sltu	x9,x18,x9
   10820:	00c6b633          	sltu	x12,x13,x12
   10824:	01233933          	sltu	x18,x6,x18
   10828:	006fb333          	sltu	x6,x31,x6
   1082c:	009bebb3          	or	x23,x23,x9
   10830:	01f53fb3          	sltu	x31,x10,x31
   10834:	00696333          	or	x6,x18,x6
   10838:	030d0ab3          	mul	x21,x26,x16
   1083c:	00ae3533          	sltu	x10,x28,x10
   10840:	00c58633          	add	x12,x11,x12
   10844:	01c5be33          	sltu	x28,x11,x28
   10848:	006b8333          	add	x6,x23,x6
   1084c:	00afe533          	or	x10,x31,x10
   10850:	00b635b3          	sltu	x11,x12,x11
   10854:	010c5f93          	srli	x31,x24,0x10
   10858:	00650533          	add	x10,x10,x6
   1085c:	00be65b3          	or	x11,x28,x11
   10860:	016a8ab3          	add	x21,x21,x22
   10864:	06d12623          	sw	x13,108(x2)
   10868:	015f8ab3          	add	x21,x31,x21
   1086c:	03bd0e33          	mul	x28,x26,x27
   10870:	00068313          	addi	x6,x13,0
   10874:	00a585b3          	add	x11,x11,x10
   10878:	016af663          	bgeu	x21,x22,10884 <__multf3+0x9e8>
   1087c:	00010537          	lui	x10,0x10
   10880:	00ae0e33          	add	x28,x28,x10
   10884:	000104b7          	lui	x9,0x10
   10888:	fff48513          	addi	x10,x9,-1 # ffff <__multf3+0x163>
   1088c:	00aaffb3          	and	x31,x21,x10
   10890:	010f9f93          	slli	x31,x31,0x10
   10894:	00ac7533          	and	x10,x24,x10
   10898:	031e8933          	mul	x18,x29,x17
   1089c:	00af8533          	add	x10,x31,x10
   108a0:	010ada93          	srli	x21,x21,0x10
   108a4:	01ca8ab3          	add	x21,x21,x28
   108a8:	03d38fb3          	mul	x31,x7,x29
   108ac:	01095e13          	srli	x28,x18,0x10
   108b0:	031a08b3          	mul	x17,x20,x17
   108b4:	01f888b3          	add	x17,x17,x31
   108b8:	011e0e33          	add	x28,x28,x17
   108bc:	034383b3          	mul	x7,x7,x20
   108c0:	01fe7463          	bgeu	x28,x31,108c8 <__multf3+0xa2c>
   108c4:	009383b3          	add	x7,x7,x9
   108c8:	01012b03          	lw	x22,16(x2)
   108cc:	00010fb7          	lui	x31,0x10
   108d0:	ffff8893          	addi	x17,x31,-1 # ffff <__multf3+0x163>
   108d4:	011e74b3          	and	x9,x28,x17
   108d8:	010e5e13          	srli	x28,x28,0x10
   108dc:	011978b3          	and	x17,x18,x17
   108e0:	007e0e33          	add	x28,x28,x7
   108e4:	025b0933          	mul	x18,x22,x5
   108e8:	01049493          	slli	x9,x9,0x10
   108ec:	011484b3          	add	x9,x9,x17
   108f0:	03e283b3          	mul	x7,x5,x30
   108f4:	03e98f33          	mul	x30,x19,x30
   108f8:	0103d893          	srli	x17,x7,0x10
   108fc:	01e90933          	add	x18,x18,x30
   10900:	012888b3          	add	x17,x17,x18
   10904:	033b0933          	mul	x18,x22,x19
   10908:	01e8f463          	bgeu	x17,x30,10910 <__multf3+0xa74>
   1090c:	01f90933          	add	x18,x18,x31
   10910:	00010b37          	lui	x22,0x10
   10914:	fffb0f13          	addi	x30,x22,-1 # ffff <__multf3+0x163>
   10918:	01e8ffb3          	and	x31,x17,x30
   1091c:	0108d893          	srli	x17,x17,0x10
   10920:	01e3ff33          	and	x30,x7,x30
   10924:	012888b3          	add	x17,x17,x18
   10928:	010f9f93          	slli	x31,x31,0x10
   1092c:	030e83b3          	mul	x7,x29,x16
   10930:	01ef8f33          	add	x30,x31,x30
   10934:	03dd8933          	mul	x18,x27,x29
   10938:	0103df93          	srli	x31,x7,0x10
   1093c:	030a0833          	mul	x16,x20,x16
   10940:	01280833          	add	x16,x16,x18
   10944:	010f8fb3          	add	x31,x31,x16
   10948:	034d8bb3          	mul	x23,x27,x20
   1094c:	012ff463          	bgeu	x31,x18,10954 <__multf3+0xab8>
   10950:	016b8bb3          	add	x23,x23,x22
   10954:	00010b37          	lui	x22,0x10
   10958:	fffb0813          	addi	x16,x22,-1 # ffff <__multf3+0x163>
   1095c:	010ff933          	and	x18,x31,x16
   10960:	010fdf93          	srli	x31,x31,0x10
   10964:	0103f833          	and	x16,x7,x16
   10968:	017f8fb3          	add	x31,x31,x23
   1096c:	01091913          	slli	x18,x18,0x10
   10970:	039283b3          	mul	x7,x5,x25
   10974:	01090833          	add	x16,x18,x16
   10978:	03998c33          	mul	x24,x19,x25
   1097c:	0103d913          	srli	x18,x7,0x10
   10980:	025d0bb3          	mul	x23,x26,x5
   10984:	018b8bb3          	add	x23,x23,x24
   10988:	01790933          	add	x18,x18,x23
   1098c:	033d0bb3          	mul	x23,x26,x19
   10990:	01897463          	bgeu	x18,x24,10998 <__multf3+0xafc>
   10994:	016b8bb3          	add	x23,x23,x22
   10998:	00a60533          	add	x10,x12,x10
   1099c:	01558ab3          	add	x21,x11,x21
   109a0:	00c53633          	sltu	x12,x10,x12
   109a4:	00ca8633          	add	x12,x21,x12
   109a8:	009504b3          	add	x9,x10,x9
   109ac:	01c60e33          	add	x28,x12,x28
   109b0:	00a4b533          	sltu	x10,x9,x10
   109b4:	025e8c33          	mul	x24,x29,x5
   109b8:	00ae0b33          	add	x22,x28,x10
   109bc:	01e48f33          	add	x30,x9,x30
   109c0:	011b08b3          	add	x17,x22,x17
   109c4:	009f34b3          	sltu	x9,x30,x9
   109c8:	00988533          	add	x10,x17,x9
   109cc:	00bab5b3          	sltu	x11,x21,x11
   109d0:	000104b7          	lui	x9,0x10
   109d4:	01563ab3          	sltu	x21,x12,x21
   109d8:	00ce3633          	sltu	x12,x28,x12
   109dc:	03d98eb3          	mul	x29,x19,x29
   109e0:	01cb3e33          	sltu	x28,x22,x28
   109e4:	fff48c93          	addi	x25,x9,-1 # ffff <__multf3+0x163>
   109e8:	0155eab3          	or	x21,x11,x21
   109ec:	01c66e33          	or	x28,x12,x28
   109f0:	0168bb33          	sltu	x22,x17,x22
   109f4:	011538b3          	sltu	x17,x10,x17
   109f8:	01997633          	and	x12,x18,x25
   109fc:	01ca8e33          	add	x28,x21,x28
   10a00:	011b68b3          	or	x17,x22,x17
   10a04:	025a02b3          	mul	x5,x20,x5
   10a08:	01050833          	add	x16,x10,x16
   10a0c:	01c888b3          	add	x17,x17,x28
   10a10:	01061613          	slli	x12,x12,0x10
   10a14:	0193f3b3          	and	x7,x7,x25
   10a18:	01f88fb3          	add	x31,x17,x31
   10a1c:	00a835b3          	sltu	x11,x16,x10
   10a20:	00760633          	add	x12,x12,x7
   10a24:	01095913          	srli	x18,x18,0x10
   10a28:	00bf85b3          	add	x11,x31,x11
   10a2c:	00c80533          	add	x10,x16,x12
   10a30:	01790933          	add	x18,x18,x23
   10a34:	01258933          	add	x18,x11,x18
   10a38:	01053633          	sltu	x12,x10,x16
   10a3c:	00c90633          	add	x12,x18,x12
   10a40:	01d282b3          	add	x5,x5,x29
   10a44:	010c5813          	srli	x16,x24,0x10
   10a48:	011fb8b3          	sltu	x17,x31,x17
   10a4c:	07e12823          	sw	x30,112(x2)
   10a50:	01f5bfb3          	sltu	x31,x11,x31
   10a54:	06a12a23          	sw	x10,116(x2)
   10a58:	00b935b3          	sltu	x11,x18,x11
   10a5c:	00580833          	add	x16,x16,x5
   10a60:	01263933          	sltu	x18,x12,x18
   10a64:	033a09b3          	mul	x19,x20,x19
   10a68:	01f8ef33          	or	x30,x17,x31
   10a6c:	0125e5b3          	or	x11,x11,x18
   10a70:	01d87463          	bgeu	x16,x29,10a78 <__multf3+0xbdc>
   10a74:	009989b3          	add	x19,x19,x9
   10a78:	00010e37          	lui	x28,0x10
   10a7c:	fffe0e13          	addi	x28,x28,-1 # ffff <__multf3+0x163>
   10a80:	01c87533          	and	x10,x16,x28
   10a84:	01051513          	slli	x10,x10,0x10
   10a88:	01cc7c33          	and	x24,x24,x28
   10a8c:	01085893          	srli	x17,x16,0x10
   10a90:	01850533          	add	x10,x10,x24
   10a94:	00a60533          	add	x10,x12,x10
   10a98:	01e888b3          	add	x17,x17,x30
   10a9c:	011585b3          	add	x11,x11,x17
   10aa0:	00c53633          	sltu	x12,x10,x12
   10aa4:	01812803          	lw	x16,24(x2)
   10aa8:	00b60633          	add	x12,x12,x11
   10aac:	01c12583          	lw	x11,28(x2)
   10ab0:	01360633          	add	x12,x12,x19
   10ab4:	00d69693          	slli	x13,x13,0xd
   10ab8:	0105e5b3          	or	x11,x11,x16
   10abc:	02012803          	lw	x16,32(x2)
   10ac0:	06c12e23          	sw	x12,124(x2)
   10ac4:	06a12c23          	sw	x10,120(x2)
   10ac8:	0105e5b3          	or	x11,x11,x16
   10acc:	00b6e6b3          	or	x13,x13,x11
   10ad0:	06010613          	addi	x12,x2,96
   10ad4:	07010813          	addi	x16,x2,112
   10ad8:	01335513          	srli	x10,x6,0x13
   10adc:	01062303          	lw	x6,16(x12)
   10ae0:	00460613          	addi	x12,x12,4
   10ae4:	00d31593          	slli	x11,x6,0xd
   10ae8:	00a5e5b3          	or	x11,x11,x10
   10aec:	feb62e23          	sw	x11,-4(x12)
   10af0:	fec814e3          	bne	x16,x12,10ad8 <__multf3+0xc3c>
   10af4:	06012603          	lw	x12,96(x2)
   10af8:	00d036b3          	sltu	x13,x0,x13
   10afc:	06c12583          	lw	x11,108(x2)
   10b00:	00c6e6b3          	or	x13,x13,x12
   10b04:	06812603          	lw	x12,104(x2)
   10b08:	04b12e23          	sw	x11,92(x2)
   10b0c:	04d12823          	sw	x13,80(x2)
   10b10:	04c12c23          	sw	x12,88(x2)
   10b14:	06412603          	lw	x12,100(x2)
   10b18:	04c12a23          	sw	x12,84(x2)
   10b1c:	00b59613          	slli	x12,x11,0xb
   10b20:	38065063          	bge	x12,x0,10ea0 <__multf3+0x1004>
   10b24:	01f69513          	slli	x10,x13,0x1f
   10b28:	05010793          	addi	x15,x2,80
   10b2c:	05c10813          	addi	x16,x2,92
   10b30:	0016d893          	srli	x17,x13,0x1
   10b34:	0047a683          	lw	x13,4(x15)
   10b38:	00478793          	addi	x15,x15,4
   10b3c:	01f69613          	slli	x12,x13,0x1f
   10b40:	01166633          	or	x12,x12,x17
   10b44:	fec7ae23          	sw	x12,-4(x15)
   10b48:	ff0794e3          	bne	x15,x16,10b30 <__multf3+0xc94>
   10b4c:	05012783          	lw	x15,80(x2)
   10b50:	00a036b3          	sltu	x13,x0,x10
   10b54:	0015d593          	srli	x11,x11,0x1
   10b58:	00d7e7b3          	or	x15,x15,x13
   10b5c:	04f12823          	sw	x15,80(x2)
   10b60:	09412c83          	lw	x25,148(x2)
   10b64:	00c12783          	lw	x15,12(x2)
   10b68:	09012d03          	lw	x26,144(x2)
   10b6c:	04b12e23          	sw	x11,92(x2)
   10b70:	0080006f          	jal	x0,10b78 <__multf3+0xcdc>
   10b74:	00c12783          	lw	x15,12(x2)
   10b78:	00004637          	lui	x12,0x4
   10b7c:	fff60613          	addi	x12,x12,-1 # 3fff <_fflush_r+0x3>
   10b80:	00c78633          	add	x12,x15,x12
   10b84:	10c05463          	bge	x0,x12,10c8c <__multf3+0xdf0>
   10b88:	05012583          	lw	x11,80(x2)
   10b8c:	05c12683          	lw	x13,92(x2)
   10b90:	0075f513          	andi	x10,x11,7
   10b94:	04050263          	beq	x10,x0,10bd8 <__multf3+0xd3c>
   10b98:	00f5f513          	andi	x10,x11,15
   10b9c:	00400813          	addi	x16,x0,4
   10ba0:	03050c63          	beq	x10,x16,10bd8 <__multf3+0xd3c>
   10ba4:	05412803          	lw	x16,84(x2)
   10ba8:	00458593          	addi	x11,x11,4
   10bac:	05812883          	lw	x17,88(x2)
   10bb0:	0045b513          	sltiu	x10,x11,4
   10bb4:	01050833          	add	x16,x10,x16
   10bb8:	00a83533          	sltu	x10,x16,x10
   10bbc:	00a88533          	add	x10,x17,x10
   10bc0:	011538b3          	sltu	x17,x10,x17
   10bc4:	011686b3          	add	x13,x13,x17
   10bc8:	04b12823          	sw	x11,80(x2)
   10bcc:	05012a23          	sw	x16,84(x2)
   10bd0:	04a12c23          	sw	x10,88(x2)
   10bd4:	04d12e23          	sw	x13,92(x2)
   10bd8:	00b69593          	slli	x11,x13,0xb
   10bdc:	0005de63          	bge	x11,x0,10bf8 <__multf3+0xd5c>
   10be0:	fff00637          	lui	x12,0xfff00
   10be4:	fff60613          	addi	x12,x12,-1 # ffefffff <__heap_end+0xffafffff>
   10be8:	00c6f6b3          	and	x13,x13,x12
   10bec:	00004637          	lui	x12,0x4
   10bf0:	04d12e23          	sw	x13,92(x2)
   10bf4:	00c78633          	add	x12,x15,x12
   10bf8:	05012503          	lw	x10,80(x2)
   10bfc:	05010793          	addi	x15,x2,80
   10c00:	05c10893          	addi	x17,x2,92
   10c04:	00355813          	srli	x16,x10,0x3
   10c08:	0047a503          	lw	x10,4(x15)
   10c0c:	00478793          	addi	x15,x15,4
   10c10:	01d51593          	slli	x11,x10,0x1d
   10c14:	0105e5b3          	or	x11,x11,x16
   10c18:	feb7ae23          	sw	x11,-4(x15)
   10c1c:	ff1794e3          	bne	x15,x17,10c04 <__multf3+0xd68>
   10c20:	000085b7          	lui	x11,0x8
   10c24:	000087b7          	lui	x15,0x8
   10c28:	ffe58593          	addi	x11,x11,-2 # 7ffe <_vfiprintf_r+0x816>
   10c2c:	fff78793          	addi	x15,x15,-1 # 7fff <_vfiprintf_r+0x817>
   10c30:	d4c5c063          	blt	x11,x12,10170 <__multf3+0x2d4>
   10c34:	00f677b3          	and	x15,x12,x15
   10c38:	0036d693          	srli	x13,x13,0x3
   10c3c:	01069693          	slli	x13,x13,0x10
   10c40:	01079793          	slli	x15,x15,0x10
   10c44:	05012503          	lw	x10,80(x2)
   10c48:	05412583          	lw	x11,84(x2)
   10c4c:	05812603          	lw	x12,88(x2)
   10c50:	0106d693          	srli	x13,x13,0x10
   10c54:	0107d793          	srli	x15,x15,0x10
   10c58:	c14ff06f          	jal	x0,1006c <__multf3+0x1d0>
   10c5c:	00f00793          	addi	x15,x0,15
   10c60:	00300613          	addi	x12,x0,3
   10c64:	befb0663          	beq	x22,x15,10050 <__multf3+0x1b4>
   10c68:	04412703          	lw	x14,68(x2)
   10c6c:	04c12783          	lw	x15,76(x2)
   10c70:	00090813          	addi	x16,x18,0
   10c74:	04e12a23          	sw	x14,84(x2)
   10c78:	04012703          	lw	x14,64(x2)
   10c7c:	04e12823          	sw	x14,80(x2)
   10c80:	04812703          	lw	x14,72(x2)
   10c84:	04e12c23          	sw	x14,88(x2)
   10c88:	cc4ff06f          	jal	x0,1014c <__multf3+0x2b0>
   10c8c:	22061063          	bne	x12,x0,10eac <__multf3+0x1010>
   10c90:	05012783          	lw	x15,80(x2)
   10c94:	05c12303          	lw	x6,92(x2)
   10c98:	00300693          	addi	x13,x0,3
   10c9c:	01f79793          	slli	x15,x15,0x1f
   10ca0:	00135313          	srli	x6,x6,0x1
   10ca4:	00100513          	addi	x10,x0,1
   10ca8:	01f00e13          	addi	x28,x0,31
   10cac:	05010593          	addi	x11,x2,80
   10cb0:	00261613          	slli	x12,x12,0x2
   10cb4:	00269f13          	slli	x30,x13,0x2
   10cb8:	00c58833          	add	x16,x11,x12
   10cbc:	00058893          	addi	x17,x11,0
   10cc0:	01e58eb3          	add	x29,x11,x30
   10cc4:	00082603          	lw	x12,0(x16)
   10cc8:	00482f83          	lw	x31,4(x16)
   10ccc:	00488893          	addi	x17,x17,4
   10cd0:	00a65633          	srl	x12,x12,x10
   10cd4:	01cf9fb3          	sll	x31,x31,x28
   10cd8:	01f66633          	or	x12,x12,x31
   10cdc:	fec8ae23          	sw	x12,-4(x17)
   10ce0:	00480813          	addi	x16,x16,4
   10ce4:	ffd890e3          	bne	x17,x29,10cc4 <__multf3+0xe28>
   10ce8:	050f0613          	addi	x12,x30,80
   10cec:	03010513          	addi	x10,x2,48
   10cf0:	00a60f33          	add	x30,x12,x10
   10cf4:	00168693          	addi	x13,x13,1
   10cf8:	fc6f2823          	sw	x6,-48(x30)
   10cfc:	00400613          	addi	x12,x0,4
   10d00:	05012303          	lw	x6,80(x2)
   10d04:	02c68e63          	beq	x13,x12,10d40 <__multf3+0xea4>
   10d08:	00400613          	addi	x12,x0,4
   10d0c:	40d60633          	sub	x12,x12,x13
   10d10:	00261613          	slli	x12,x12,0x2
   10d14:	00269693          	slli	x13,x13,0x2
   10d18:	00800513          	addi	x10,x0,8
   10d1c:	00d586b3          	add	x13,x11,x13
   10d20:	00a66a63          	bltu	x12,x10,10d34 <__multf3+0xe98>
   10d24:	0006a023          	sw	x0,0(x13)
   10d28:	0006a223          	sw	x0,4(x13)
   10d2c:	ff860613          	addi	x12,x12,-8 # 3ff8 <__sflush_r+0x248>
   10d30:	00868693          	addi	x13,x13,8
   10d34:	00400513          	addi	x10,x0,4
   10d38:	00a66463          	bltu	x12,x10,10d40 <__multf3+0xea4>
   10d3c:	0006a023          	sw	x0,0(x13)
   10d40:	00f037b3          	sltu	x15,x0,x15
   10d44:	0067e7b3          	or	x15,x15,x6
   10d48:	04f12823          	sw	x15,80(x2)
   10d4c:	0077f613          	andi	x12,x15,7
   10d50:	05c12683          	lw	x13,92(x2)
   10d54:	04060263          	beq	x12,x0,10d98 <__multf3+0xefc>
   10d58:	00f7f613          	andi	x12,x15,15
   10d5c:	00400513          	addi	x10,x0,4
   10d60:	02a60c63          	beq	x12,x10,10d98 <__multf3+0xefc>
   10d64:	05412603          	lw	x12,84(x2)
   10d68:	00478793          	addi	x15,x15,4
   10d6c:	05812803          	lw	x16,88(x2)
   10d70:	0047b513          	sltiu	x10,x15,4
   10d74:	00a60533          	add	x10,x12,x10
   10d78:	00c53633          	sltu	x12,x10,x12
   10d7c:	00c80633          	add	x12,x16,x12
   10d80:	01063833          	sltu	x16,x12,x16
   10d84:	010686b3          	add	x13,x13,x16
   10d88:	04f12823          	sw	x15,80(x2)
   10d8c:	04a12a23          	sw	x10,84(x2)
   10d90:	04c12c23          	sw	x12,88(x2)
   10d94:	04d12e23          	sw	x13,92(x2)
   10d98:	00c69793          	slli	x15,x13,0xc
   10d9c:	1a07ca63          	blt	x15,x0,10f50 <__multf3+0x10b4>
   10da0:	05012503          	lw	x10,80(x2)
   10da4:	00058793          	addi	x15,x11,0
   10da8:	05c10813          	addi	x16,x2,92
   10dac:	00355593          	srli	x11,x10,0x3
   10db0:	0047a503          	lw	x10,4(x15)
   10db4:	00478793          	addi	x15,x15,4
   10db8:	01d51613          	slli	x12,x10,0x1d
   10dbc:	00b66633          	or	x12,x12,x11
   10dc0:	fec7ae23          	sw	x12,-4(x15)
   10dc4:	ff0794e3          	bne	x15,x16,10dac <__multf3+0xf10>
   10dc8:	0036d693          	srli	x13,x13,0x3
   10dcc:	01069693          	slli	x13,x13,0x10
   10dd0:	05012503          	lw	x10,80(x2)
   10dd4:	05412583          	lw	x11,84(x2)
   10dd8:	05812603          	lw	x12,88(x2)
   10ddc:	0106d693          	srli	x13,x13,0x10
   10de0:	00000793          	addi	x15,x0,0
   10de4:	a88ff06f          	jal	x0,1006c <__multf3+0x1d0>
   10de8:	14089c63          	bne	x17,x0,10f40 <__multf3+0x10a4>
   10dec:	1a070863          	beq	x14,x0,10f9c <__multf3+0x1100>
   10df0:	00070513          	addi	x10,x14,0
   10df4:	775010ef          	jal	x1,12d68 <__clzsi2>
   10df8:	04050513          	addi	x10,x10,64 # 10040 <__multf3+0x1a4>
   10dfc:	ff450793          	addi	x15,x10,-12
   10e00:	01f7f813          	andi	x16,x15,31
   10e04:	4057d613          	srai	x12,x15,0x5
   10e08:	20081c63          	bne	x16,x0,11020 <__multf3+0x1184>
   10e0c:	40c00733          	sub	x14,x0,x12
   10e10:	00271713          	slli	x14,x14,0x2
   10e14:	00c70793          	addi	x15,x14,12
   10e18:	03010693          	addi	x13,x2,48
   10e1c:	00f687b3          	add	x15,x13,x15
   10e20:	40e00733          	sub	x14,x0,x14
   10e24:	0007a883          	lw	x17,0(x15)
   10e28:	00e78833          	add	x16,x15,x14
   10e2c:	00078593          	addi	x11,x15,0
   10e30:	01182023          	sw	x17,0(x16)
   10e34:	ffc78793          	addi	x15,x15,-4
   10e38:	feb696e3          	bne	x13,x11,10e24 <__multf3+0xf88>
   10e3c:	fff60793          	addi	x15,x12,-1
   10e40:	cb4ff06f          	jal	x0,102f4 <__multf3+0x458>
   10e44:	0e0b9663          	bne	x23,x0,10f30 <__multf3+0x1094>
   10e48:	12098063          	beq	x19,x0,10f68 <__multf3+0x10cc>
   10e4c:	00098513          	addi	x10,x19,0
   10e50:	719010ef          	jal	x1,12d68 <__clzsi2>
   10e54:	04050513          	addi	x10,x10,64
   10e58:	ff450793          	addi	x15,x10,-12
   10e5c:	01f7f813          	andi	x16,x15,31
   10e60:	4057d613          	srai	x12,x15,0x5
   10e64:	1c081e63          	bne	x16,x0,11040 <__multf3+0x11a4>
   10e68:	40c00733          	sub	x14,x0,x12
   10e6c:	00271713          	slli	x14,x14,0x2
   10e70:	00c70793          	addi	x15,x14,12
   10e74:	04010693          	addi	x13,x2,64
   10e78:	00f687b3          	add	x15,x13,x15
   10e7c:	40e00733          	sub	x14,x0,x14
   10e80:	0007a883          	lw	x17,0(x15)
   10e84:	00e78833          	add	x16,x15,x14
   10e88:	00078593          	addi	x11,x15,0
   10e8c:	01182023          	sw	x17,0(x16)
   10e90:	ffc78793          	addi	x15,x15,-4
   10e94:	feb696e3          	bne	x13,x11,10e80 <__multf3+0xfe4>
   10e98:	fff60793          	addi	x15,x12,-1
   10e9c:	b6cff06f          	jal	x0,10208 <__multf3+0x36c>
   10ea0:	09412c83          	lw	x25,148(x2)
   10ea4:	09012d03          	lw	x26,144(x2)
   10ea8:	cd1ff06f          	jal	x0,10b78 <__multf3+0xcdc>
   10eac:	00100793          	addi	x15,x0,1
   10eb0:	40c787b3          	sub	x15,x15,x12
   10eb4:	07400693          	addi	x13,x0,116
   10eb8:	aaf6ca63          	blt	x13,x15,1016c <__multf3+0x2d0>
   10ebc:	01f7f513          	andi	x10,x15,31
   10ec0:	02000e13          	addi	x28,x0,32
   10ec4:	4057d613          	srai	x12,x15,0x5
   10ec8:	40ae0e33          	sub	x28,x28,x10
   10ecc:	16060263          	beq	x12,x0,11030 <__multf3+0x1194>
   10ed0:	05010593          	addi	x11,x2,80
   10ed4:	00261893          	slli	x17,x12,0x2
   10ed8:	00058693          	addi	x13,x11,0
   10edc:	00b888b3          	add	x17,x17,x11
   10ee0:	00000793          	addi	x15,x0,0
   10ee4:	0006a803          	lw	x16,0(x13)
   10ee8:	00468693          	addi	x13,x13,4
   10eec:	0107e7b3          	or	x15,x15,x16
   10ef0:	ff169ae3          	bne	x13,x17,10ee4 <__multf3+0x1048>
   10ef4:	00060893          	addi	x17,x12,0
   10ef8:	00300693          	addi	x13,x0,3
   10efc:	40c686b3          	sub	x13,x13,x12
   10f00:	00058813          	addi	x16,x11,0
   10f04:	00261313          	slli	x6,x12,0x2
   10f08:	0e051463          	bne	x10,x0,10ff0 <__multf3+0x1154>
   10f0c:	006808b3          	add	x17,x16,x6
   10f10:	0008a883          	lw	x17,0(x17)
   10f14:	00150513          	addi	x10,x10,1
   10f18:	00480813          	addi	x16,x16,4
   10f1c:	ff182e23          	sw	x17,-4(x16)
   10f20:	fea6d6e3          	bge	x13,x10,10f0c <__multf3+0x1070>
   10f24:	00400693          	addi	x13,x0,4
   10f28:	40c686b3          	sub	x13,x13,x12
   10f2c:	dd1ff06f          	jal	x0,10cfc <__multf3+0xe60>
   10f30:	000b8513          	addi	x10,x23,0
   10f34:	635010ef          	jal	x1,12d68 <__clzsi2>
   10f38:	02050513          	addi	x10,x10,32
   10f3c:	f1dff06f          	jal	x0,10e58 <__multf3+0xfbc>
   10f40:	00088513          	addi	x10,x17,0
   10f44:	625010ef          	jal	x1,12d68 <__clzsi2>
   10f48:	02050513          	addi	x10,x10,32
   10f4c:	eb1ff06f          	jal	x0,10dfc <__multf3+0xf60>
   10f50:	00100793          	addi	x15,x0,1
   10f54:	00000693          	addi	x13,x0,0
   10f58:	00000613          	addi	x12,x0,0
   10f5c:	00000593          	addi	x11,x0,0
   10f60:	00000513          	addi	x10,x0,0
   10f64:	908ff06f          	jal	x0,1006c <__multf3+0x1d0>
   10f68:	000a8513          	addi	x10,x21,0 # 10000 <__multf3+0x164>
   10f6c:	5fd010ef          	jal	x1,12d68 <__clzsi2>
   10f70:	05450793          	addi	x15,x10,84
   10f74:	01f7f813          	andi	x16,x15,31
   10f78:	06050513          	addi	x10,x10,96
   10f7c:	4057d613          	srai	x12,x15,0x5
   10f80:	ee0804e3          	beq	x16,x0,10e68 <__multf3+0xfcc>
   10f84:	00200793          	addi	x15,x0,2
   10f88:	010a9ab3          	sll	x21,x21,x16
   10f8c:	04f61263          	bne	x12,x15,10fd0 <__multf3+0x1134>
   10f90:	02000313          	addi	x6,x0,32
   10f94:	41030333          	sub	x6,x6,x16
   10f98:	a18ff06f          	jal	x0,101b0 <__multf3+0x314>
   10f9c:	00048513          	addi	x10,x9,0
   10fa0:	5c9010ef          	jal	x1,12d68 <__clzsi2>
   10fa4:	05450793          	addi	x15,x10,84
   10fa8:	01f7f813          	andi	x16,x15,31
   10fac:	06050513          	addi	x10,x10,96
   10fb0:	4057d613          	srai	x12,x15,0x5
   10fb4:	e4080ce3          	beq	x16,x0,10e0c <__multf3+0xf70>
   10fb8:	00200793          	addi	x15,x0,2
   10fbc:	010494b3          	sll	x9,x9,x16
   10fc0:	02f61063          	bne	x12,x15,10fe0 <__multf3+0x1144>
   10fc4:	02000313          	addi	x6,x0,32
   10fc8:	41030333          	sub	x6,x6,x16
   10fcc:	ad0ff06f          	jal	x0,1029c <__multf3+0x400>
   10fd0:	05512623          	sw	x21,76(x2)
   10fd4:	00200793          	addi	x15,x0,2
   10fd8:	04010693          	addi	x13,x2,64
   10fdc:	a34ff06f          	jal	x0,10210 <__multf3+0x374>
   10fe0:	02912e23          	sw	x9,60(x2)
   10fe4:	00200793          	addi	x15,x0,2
   10fe8:	03010693          	addi	x13,x2,48
   10fec:	b10ff06f          	jal	x0,102fc <__multf3+0x460>
   10ff0:	00289813          	slli	x16,x17,0x2
   10ff4:	05080813          	addi	x16,x16,80
   10ff8:	03010893          	addi	x17,x2,48
   10ffc:	01180833          	add	x16,x16,x17
   11000:	fd082803          	lw	x16,-48(x16)
   11004:	05c12303          	lw	x6,92(x2)
   11008:	01c81833          	sll	x16,x16,x28
   1100c:	0107e7b3          	or	x15,x15,x16
   11010:	00a35333          	srl	x6,x6,x10
   11014:	c8069ee3          	bne	x13,x0,10cb0 <__multf3+0xe14>
   11018:	00100693          	addi	x13,x0,1
   1101c:	cedff06f          	jal	x0,10d08 <__multf3+0xe6c>
   11020:	02000313          	addi	x6,x0,32
   11024:	41030333          	sub	x6,x6,x16
   11028:	010494b3          	sll	x9,x9,x16
   1102c:	a70ff06f          	jal	x0,1029c <__multf3+0x400>
   11030:	00000893          	addi	x17,x0,0
   11034:	00000793          	addi	x15,x0,0
   11038:	05010593          	addi	x11,x2,80
   1103c:	ebdff06f          	jal	x0,10ef8 <__multf3+0x105c>
   11040:	02000313          	addi	x6,x0,32
   11044:	41030333          	sub	x6,x6,x16
   11048:	010a9ab3          	sll	x21,x21,x16
   1104c:	964ff06f          	jal	x0,101b0 <__multf3+0x314>

00011050 <__subtf3>:
   11050:	fa010113          	addi	x2,x2,-96
   11054:	04912a23          	sw	x9,84(x2)
   11058:	00c5a483          	lw	x9,12(x11)
   1105c:	0045a703          	lw	x14,4(x11)
   11060:	0005a803          	lw	x16,0(x11)
   11064:	0085a783          	lw	x15,8(x11)
   11068:	01049693          	slli	x13,x9,0x10
   1106c:	00062303          	lw	x6,0(x12)
   11070:	00462f83          	lw	x31,4(x12)
   11074:	00862e03          	lw	x28,8(x12)
   11078:	00c62583          	lw	x11,12(x12)
   1107c:	04812c23          	sw	x8,88(x2)
   11080:	0106d693          	srli	x13,x13,0x10
   11084:	00149413          	slli	x8,x9,0x1
   11088:	05212823          	sw	x18,80(x2)
   1108c:	02e12a23          	sw	x14,52(x2)
   11090:	02912e23          	sw	x9,60(x2)
   11094:	00e12a23          	sw	x14,20(x2)
   11098:	04112e23          	sw	x1,92(x2)
   1109c:	00050913          	addi	x18,x10,0
   110a0:	03012823          	sw	x16,48(x2)
   110a4:	02f12c23          	sw	x15,56(x2)
   110a8:	01012823          	sw	x16,16(x2)
   110ac:	00f12c23          	sw	x15,24(x2)
   110b0:	00d12e23          	sw	x13,28(x2)
   110b4:	01145413          	srli	x8,x8,0x11
   110b8:	01f4d493          	srli	x9,x9,0x1f
   110bc:	01010e93          	addi	x29,x2,16
   110c0:	01c10713          	addi	x14,x2,28
   110c4:	00369613          	slli	x12,x13,0x3
   110c8:	ffc72683          	lw	x13,-4(x14)
   110cc:	00070f13          	addi	x30,x14,0
   110d0:	ffc70713          	addi	x14,x14,-4
   110d4:	01d6d793          	srli	x15,x13,0x1d
   110d8:	00c7e7b3          	or	x15,x15,x12
   110dc:	00f72223          	sw	x15,4(x14)
   110e0:	feee92e3          	bne	x29,x14,110c4 <__subtf3+0x74>
   110e4:	01059613          	slli	x12,x11,0x10
   110e8:	00381893          	slli	x17,x16,0x3
   110ec:	01065613          	srli	x12,x12,0x10
   110f0:	00159813          	slli	x16,x11,0x1
   110f4:	03f12a23          	sw	x31,52(x2)
   110f8:	02b12e23          	sw	x11,60(x2)
   110fc:	03f12223          	sw	x31,36(x2)
   11100:	01112823          	sw	x17,16(x2)
   11104:	02612823          	sw	x6,48(x2)
   11108:	03c12c23          	sw	x28,56(x2)
   1110c:	02612023          	sw	x6,32(x2)
   11110:	03c12423          	sw	x28,40(x2)
   11114:	02c12623          	sw	x12,44(x2)
   11118:	01185813          	srli	x16,x16,0x11
   1111c:	01f5d593          	srli	x11,x11,0x1f
   11120:	02010f93          	addi	x31,x2,32
   11124:	02c10793          	addi	x15,x2,44
   11128:	00361513          	slli	x10,x12,0x3
   1112c:	ffc7a603          	lw	x12,-4(x15)
   11130:	ffc78793          	addi	x15,x15,-4
   11134:	01d65693          	srli	x13,x12,0x1d
   11138:	00a6e6b3          	or	x13,x13,x10
   1113c:	00d7a223          	sw	x13,4(x15)
   11140:	feff94e3          	bne	x31,x15,11128 <__subtf3+0xd8>
   11144:	00331313          	slli	x6,x6,0x3
   11148:	00008637          	lui	x12,0x8
   1114c:	02612023          	sw	x6,32(x2)
   11150:	fff60613          	addi	x12,x12,-1 # 7fff <_vfiprintf_r+0x817>
   11154:	1cc80e63          	beq	x16,x12,11330 <__subtf3+0x2e0>
   11158:	0015c593          	xori	x11,x11,1
   1115c:	410406b3          	sub	x13,x8,x16
   11160:	0cb48a63          	beq	x9,x11,11234 <__subtf3+0x1e4>
   11164:	00d04463          	blt	x0,x13,1116c <__subtf3+0x11c>
   11168:	6580106f          	jal	x0,127c0 <__subtf3+0x1770>
   1116c:	01412503          	lw	x10,20(x2)
   11170:	01812e83          	lw	x29,24(x2)
   11174:	01c12e03          	lw	x28,28(x2)
   11178:	30080663          	beq	x16,x0,11484 <__subtf3+0x434>
   1117c:	00c41463          	bne	x8,x12,11184 <__subtf3+0x134>
   11180:	0000106f          	jal	x0,12180 <__subtf3+0x1130>
   11184:	02c12583          	lw	x11,44(x2)
   11188:	00080637          	lui	x12,0x80
   1118c:	07400713          	addi	x14,x0,116
   11190:	00c5e5b3          	or	x11,x11,x12
   11194:	02b12623          	sw	x11,44(x2)
   11198:	32d75063          	bge	x14,x13,114b8 <__subtf3+0x468>
   1119c:	00000613          	addi	x12,x0,0
   111a0:	00000693          	addi	x13,x0,0
   111a4:	00000813          	addi	x16,x0,0
   111a8:	00100713          	addi	x14,x0,1
   111ac:	410507b3          	sub	x15,x10,x16
   111b0:	40e88733          	sub	x14,x17,x14
   111b4:	00f53333          	sltu	x6,x10,x15
   111b8:	00e8b5b3          	sltu	x11,x17,x14
   111bc:	00030f13          	addi	x30,x6,0
   111c0:	40b787b3          	sub	x15,x15,x11
   111c4:	00e8f463          	bgeu	x17,x14,111cc <__subtf3+0x17c>
   111c8:	00a808e3          	beq	x16,x10,119d8 <__subtf3+0x988>
   111cc:	40de8533          	sub	x10,x29,x13
   111d0:	00aeb5b3          	sltu	x11,x29,x10
   111d4:	41e50533          	sub	x10,x10,x30
   111d8:	000316e3          	bne	x6,x0,119e4 <__subtf3+0x994>
   111dc:	00b606b3          	add	x13,x12,x11
   111e0:	40de0e33          	sub	x28,x28,x13
   111e4:	02f12a23          	sw	x15,52(x2)
   111e8:	03c12e23          	sw	x28,60(x2)
   111ec:	02a12c23          	sw	x10,56(x2)
   111f0:	02e12823          	sw	x14,48(x2)
   111f4:	00ce1793          	slli	x15,x28,0xc
   111f8:	5007d663          	bge	x15,x0,11704 <__subtf3+0x6b4>
   111fc:	00080537          	lui	x10,0x80
   11200:	fff50513          	addi	x10,x10,-1 # 7ffff <__heap_start+0x6b8cf>
   11204:	00ae7533          	and	x10,x28,x10
   11208:	02a12e23          	sw	x10,60(x2)
   1120c:	1c0512e3          	bne	x10,x0,11bd0 <__subtf3+0xb80>
   11210:	03812503          	lw	x10,56(x2)
   11214:	14050ce3          	beq	x10,x0,11b6c <__subtf3+0xb1c>
   11218:	351010ef          	jal	x1,12d68 <__clzsi2>
   1121c:	01450613          	addi	x12,x10,20
   11220:	01f67893          	andi	x17,x12,31
   11224:	48089ee3          	bne	x17,x0,11ec0 <__subtf3+0xe70>
   11228:	00100593          	addi	x11,x0,1
   1122c:	02000613          	addi	x12,x0,32
   11230:	1690006f          	jal	x0,11b98 <__subtf3+0xb48>
   11234:	00d04463          	blt	x0,x13,1123c <__subtf3+0x1ec>
   11238:	5980106f          	jal	x0,127d0 <__subtf3+0x1780>
   1123c:	01412e83          	lw	x29,20(x2)
   11240:	01812503          	lw	x10,24(x2)
   11244:	01c12e03          	lw	x28,28(x2)
   11248:	44081063          	bne	x16,x0,11688 <__subtf3+0x638>
   1124c:	02412703          	lw	x14,36(x2)
   11250:	02812f03          	lw	x30,40(x2)
   11254:	02c12583          	lw	x11,44(x2)
   11258:	01e76833          	or	x16,x14,x30
   1125c:	00b86833          	or	x16,x16,x11
   11260:	00686833          	or	x16,x16,x6
   11264:	6a080ce3          	beq	x16,x0,1211c <__subtf3+0x10cc>
   11268:	fff68813          	addi	x16,x13,-1
   1126c:	640804e3          	beq	x16,x0,120b4 <__subtf3+0x1064>
   11270:	6ac686e3          	beq	x13,x12,1211c <__subtf3+0x10cc>
   11274:	07400713          	addi	x14,x0,116
   11278:	43074663          	blt	x14,x16,116a4 <__subtf3+0x654>
   1127c:	00080693          	addi	x13,x16,0
   11280:	4056df13          	srai	x30,x13,0x5
   11284:	01f6f693          	andi	x13,x13,31
   11288:	660f08e3          	beq	x30,x0,120f8 <__subtf3+0x10a8>
   1128c:	002f1313          	slli	x6,x30,0x2
   11290:	00f302b3          	add	x5,x6,x15
   11294:	00078713          	addi	x14,x15,0
   11298:	00000613          	addi	x12,x0,0
   1129c:	00072803          	lw	x16,0(x14)
   112a0:	00470713          	addi	x14,x14,4
   112a4:	01066633          	or	x12,x12,x16
   112a8:	fee29ae3          	bne	x5,x14,1129c <__subtf3+0x24c>
   112ac:	00300713          	addi	x14,x0,3
   112b0:	41e70733          	sub	x14,x14,x30
   112b4:	320686e3          	beq	x13,x0,11de0 <__subtf3+0xd90>
   112b8:	04030813          	addi	x16,x6,64
   112bc:	00280833          	add	x16,x16,x2
   112c0:	fe082803          	lw	x16,-32(x16)
   112c4:	02000393          	addi	x7,x0,32
   112c8:	40d383b3          	sub	x7,x7,x13
   112cc:	00781833          	sll	x16,x16,x7
   112d0:	01066633          	or	x12,x12,x16
   112d4:	00d5d5b3          	srl	x11,x11,x13
   112d8:	00071463          	bne	x14,x0,112e0 <__subtf3+0x290>
   112dc:	3e00106f          	jal	x0,126bc <__subtf3+0x166c>
   112e0:	05312623          	sw	x19,76(x2)
   112e4:	00271813          	slli	x16,x14,0x2
   112e8:	006f8333          	add	x6,x31,x6
   112ec:	00f809b3          	add	x19,x16,x15
   112f0:	00032703          	lw	x14,0(x6)
   112f4:	00432283          	lw	x5,4(x6)
   112f8:	00478793          	addi	x15,x15,4
   112fc:	00d75733          	srl	x14,x14,x13
   11300:	007292b3          	sll	x5,x5,x7
   11304:	00576733          	or	x14,x14,x5
   11308:	fee7ae23          	sw	x14,-4(x15)
   1130c:	00430313          	addi	x6,x6,4
   11310:	ff3790e3          	bne	x15,x19,112f0 <__subtf3+0x2a0>
   11314:	04080793          	addi	x15,x16,64
   11318:	00278733          	add	x14,x15,x2
   1131c:	00400793          	addi	x15,x0,4
   11320:	04c12983          	lw	x19,76(x2)
   11324:	41e787b3          	sub	x15,x15,x30
   11328:	feb72023          	sw	x11,-32(x14)
   1132c:	2d50006f          	jal	x0,11e00 <__subtf3+0xdb0>
   11330:	02412783          	lw	x15,36(x2)
   11334:	02812f83          	lw	x31,40(x2)
   11338:	02c12e03          	lw	x28,44(x2)
   1133c:	410406b3          	sub	x13,x8,x16
   11340:	01f7e633          	or	x12,x15,x31
   11344:	01c66633          	or	x12,x12,x28
   11348:	00666633          	or	x12,x12,x6
   1134c:	20061c63          	bne	x12,x0,11564 <__subtf3+0x514>
   11350:	0015c593          	xori	x11,x11,1
   11354:	00000e13          	addi	x28,x0,0
   11358:	00000f93          	addi	x31,x0,0
   1135c:	20b48863          	beq	x9,x11,1156c <__subtf3+0x51c>
   11360:	58068663          	beq	x13,x0,118ec <__subtf3+0x89c>
   11364:	408803b3          	sub	x7,x16,x8
   11368:	70041463          	bne	x8,x0,11a70 <__subtf3+0xa20>
   1136c:	01812483          	lw	x9,24(x2)
   11370:	05312623          	sw	x19,76(x2)
   11374:	01412983          	lw	x19,20(x2)
   11378:	01c12683          	lw	x13,28(x2)
   1137c:	0099e7b3          	or	x15,x19,x9
   11380:	00d7e7b3          	or	x15,x15,x13
   11384:	0117e7b3          	or	x15,x15,x17
   11388:	48078ee3          	beq	x15,x0,12024 <__subtf3+0xfd4>
   1138c:	fff38293          	addi	x5,x7,-1
   11390:	740280e3          	beq	x5,x0,122d0 <__subtf3+0x1280>
   11394:	000087b7          	lui	x15,0x8
   11398:	fff78793          	addi	x15,x15,-1 # 7fff <_vfiprintf_r+0x817>
   1139c:	00f39463          	bne	x7,x15,113a4 <__subtf3+0x354>
   113a0:	1940106f          	jal	x0,12534 <__subtf3+0x14e4>
   113a4:	07400793          	addi	x15,x0,116
   113a8:	0057d463          	bge	x15,x5,113b0 <__subtf3+0x360>
   113ac:	1b00106f          	jal	x0,1255c <__subtf3+0x150c>
   113b0:	01f00793          	addi	x15,x0,31
   113b4:	6257d4e3          	bge	x15,x5,121dc <__subtf3+0x118c>
   113b8:	04c12983          	lw	x19,76(x2)
   113bc:	4052d513          	srai	x10,x5,0x5
   113c0:	00028393          	addi	x7,x5,0
   113c4:	00070293          	addi	x5,x14,0
   113c8:	00000793          	addi	x15,x0,0
   113cc:	00000893          	addi	x17,x0,0
   113d0:	0002a403          	lw	x8,0(x5)
   113d4:	00188893          	addi	x17,x17,1
   113d8:	00428293          	addi	x5,x5,4
   113dc:	0087e7b3          	or	x15,x15,x8
   113e0:	fea8c8e3          	blt	x17,x10,113d0 <__subtf3+0x380>
   113e4:	00050413          	addi	x8,x10,0
   113e8:	00300893          	addi	x17,x0,3
   113ec:	01f3f293          	andi	x5,x7,31
   113f0:	408888b3          	sub	x17,x17,x8
   113f4:	5e029ee3          	bne	x5,x0,121f0 <__subtf3+0x11a0>
   113f8:	00241513          	slli	x10,x8,0x2
   113fc:	00a706b3          	add	x13,x14,x10
   11400:	0006a683          	lw	x13,0(x13)
   11404:	00128293          	addi	x5,x5,1
   11408:	00470713          	addi	x14,x14,4
   1140c:	fed72e23          	sw	x13,-4(x14)
   11410:	fe58d6e3          	bge	x17,x5,113fc <__subtf3+0x3ac>
   11414:	00400713          	addi	x14,x0,4
   11418:	40870733          	sub	x14,x14,x8
   1141c:	00300693          	addi	x13,x0,3
   11420:	01012283          	lw	x5,16(x2)
   11424:	02e6ce63          	blt	x13,x14,11460 <__subtf3+0x410>
   11428:	00400693          	addi	x13,x0,4
   1142c:	40e686b3          	sub	x13,x13,x14
   11430:	00269693          	slli	x13,x13,0x2
   11434:	00271713          	slli	x14,x14,0x2
   11438:	00800513          	addi	x10,x0,8
   1143c:	00ee8733          	add	x14,x29,x14
   11440:	00a6ea63          	bltu	x13,x10,11454 <__subtf3+0x404>
   11444:	00072023          	sw	x0,0(x14)
   11448:	00072223          	sw	x0,4(x14)
   1144c:	ff868693          	addi	x13,x13,-8
   11450:	00870713          	addi	x14,x14,8
   11454:	00400513          	addi	x10,x0,4
   11458:	00a6e463          	bltu	x13,x10,11460 <__subtf3+0x410>
   1145c:	00072023          	sw	x0,0(x14)
   11460:	00f03733          	sltu	x14,x0,x15
   11464:	01412883          	lw	x17,20(x2)
   11468:	01812683          	lw	x13,24(x2)
   1146c:	01c12783          	lw	x15,28(x2)
   11470:	00576733          	or	x14,x14,x5
   11474:	41160eb3          	sub	x29,x12,x17
   11478:	40df8533          	sub	x10,x31,x13
   1147c:	40fe0e33          	sub	x28,x28,x15
   11480:	6280006f          	jal	x0,11aa8 <__subtf3+0xa58>
   11484:	02412f03          	lw	x30,36(x2)
   11488:	02812803          	lw	x16,40(x2)
   1148c:	02c12583          	lw	x11,44(x2)
   11490:	010f6733          	or	x14,x30,x16
   11494:	00b76733          	or	x14,x14,x11
   11498:	00676733          	or	x14,x14,x6
   1149c:	54070c63          	beq	x14,x0,119f4 <__subtf3+0x9a4>
   114a0:	fff68713          	addi	x14,x13,-1
   114a4:	48070ae3          	beq	x14,x0,12138 <__subtf3+0x10e8>
   114a8:	54c68663          	beq	x13,x12,119f4 <__subtf3+0x9a4>
   114ac:	07400693          	addi	x13,x0,116
   114b0:	cee6c6e3          	blt	x13,x14,1119c <__subtf3+0x14c>
   114b4:	00070693          	addi	x13,x14,0
   114b8:	4056d293          	srai	x5,x13,0x5
   114bc:	01f6f693          	andi	x13,x13,31
   114c0:	76028ee3          	beq	x5,x0,1243c <__subtf3+0x13ec>
   114c4:	00229313          	slli	x6,x5,0x2
   114c8:	00f30f33          	add	x30,x6,x15
   114cc:	00078713          	addi	x14,x15,0
   114d0:	00000613          	addi	x12,x0,0
   114d4:	00072803          	lw	x16,0(x14)
   114d8:	00470713          	addi	x14,x14,4
   114dc:	01066633          	or	x12,x12,x16
   114e0:	feef1ae3          	bne	x30,x14,114d4 <__subtf3+0x484>
   114e4:	00300713          	addi	x14,x0,3
   114e8:	40570733          	sub	x14,x14,x5
   114ec:	46068863          	beq	x13,x0,1195c <__subtf3+0x90c>
   114f0:	04030813          	addi	x16,x6,64
   114f4:	00280833          	add	x16,x16,x2
   114f8:	fe082803          	lw	x16,-32(x16)
   114fc:	02000393          	addi	x7,x0,32
   11500:	40d383b3          	sub	x7,x7,x13
   11504:	00781833          	sll	x16,x16,x7
   11508:	01066633          	or	x12,x12,x16
   1150c:	00d5d5b3          	srl	x11,x11,x13
   11510:	720702e3          	beq	x14,x0,12434 <__subtf3+0x13e4>
   11514:	05312623          	sw	x19,76(x2)
   11518:	00271813          	slli	x16,x14,0x2
   1151c:	006f8333          	add	x6,x31,x6
   11520:	00f809b3          	add	x19,x16,x15
   11524:	00032703          	lw	x14,0(x6)
   11528:	00432f03          	lw	x30,4(x6)
   1152c:	00478793          	addi	x15,x15,4
   11530:	00d75733          	srl	x14,x14,x13
   11534:	007f1f33          	sll	x30,x30,x7
   11538:	01e76733          	or	x14,x14,x30
   1153c:	fee7ae23          	sw	x14,-4(x15)
   11540:	00430313          	addi	x6,x6,4
   11544:	fef990e3          	bne	x19,x15,11524 <__subtf3+0x4d4>
   11548:	04080793          	addi	x15,x16,64
   1154c:	00278733          	add	x14,x15,x2
   11550:	00400793          	addi	x15,x0,4
   11554:	04c12983          	lw	x19,76(x2)
   11558:	405787b3          	sub	x15,x15,x5
   1155c:	feb72023          	sw	x11,-32(x14)
   11560:	41c0006f          	jal	x0,1197c <__subtf3+0x92c>
   11564:	00078613          	addi	x12,x15,0
   11568:	deb49ce3          	bne	x9,x11,11360 <__subtf3+0x310>
   1156c:	4a068263          	beq	x13,x0,11a10 <__subtf3+0x9c0>
   11570:	40880533          	sub	x10,x16,x8
   11574:	0e0414e3          	bne	x8,x0,11e5c <__subtf3+0xe0c>
   11578:	01412783          	lw	x15,20(x2)
   1157c:	01812283          	lw	x5,24(x2)
   11580:	01c12683          	lw	x13,28(x2)
   11584:	0057e5b3          	or	x11,x15,x5
   11588:	00d5e5b3          	or	x11,x11,x13
   1158c:	0115e5b3          	or	x11,x11,x17
   11590:	6c0588e3          	beq	x11,x0,12460 <__subtf3+0x1410>
   11594:	fff50593          	addi	x11,x10,-1
   11598:	00059463          	bne	x11,x0,115a0 <__subtf3+0x550>
   1159c:	09c0106f          	jal	x0,12638 <__subtf3+0x15e8>
   115a0:	000087b7          	lui	x15,0x8
   115a4:	fff78793          	addi	x15,x15,-1 # 7fff <_vfiprintf_r+0x817>
   115a8:	00f51463          	bne	x10,x15,115b0 <__subtf3+0x560>
   115ac:	1740106f          	jal	x0,12720 <__subtf3+0x16d0>
   115b0:	07400793          	addi	x15,x0,116
   115b4:	0cb7c6e3          	blt	x15,x11,11e80 <__subtf3+0xe30>
   115b8:	01f00793          	addi	x15,x0,31
   115bc:	7ab7d4e3          	bge	x15,x11,12564 <__subtf3+0x1514>
   115c0:	4055d413          	srai	x8,x11,0x5
   115c4:	00058513          	addi	x10,x11,0
   115c8:	00070893          	addi	x17,x14,0
   115cc:	00000793          	addi	x15,x0,0
   115d0:	00000593          	addi	x11,x0,0
   115d4:	0008a283          	lw	x5,0(x17)
   115d8:	00158593          	addi	x11,x11,1
   115dc:	00488893          	addi	x17,x17,4
   115e0:	0057e7b3          	or	x15,x15,x5
   115e4:	fe85c8e3          	blt	x11,x8,115d4 <__subtf3+0x584>
   115e8:	00040893          	addi	x17,x8,0
   115ec:	00300393          	addi	x7,x0,3
   115f0:	01f57593          	andi	x11,x10,31
   115f4:	411383b3          	sub	x7,x7,x17
   115f8:	76059ee3          	bne	x11,x0,12574 <__subtf3+0x1524>
   115fc:	00289513          	slli	x10,x17,0x2
   11600:	00a706b3          	add	x13,x14,x10
   11604:	0006a683          	lw	x13,0(x13)
   11608:	00158593          	addi	x11,x11,1
   1160c:	00470713          	addi	x14,x14,4
   11610:	fed72e23          	sw	x13,-4(x14)
   11614:	feb3d6e3          	bge	x7,x11,11600 <__subtf3+0x5b0>
   11618:	00400713          	addi	x14,x0,4
   1161c:	411708b3          	sub	x17,x14,x17
   11620:	00300713          	addi	x14,x0,3
   11624:	01012583          	lw	x11,16(x2)
   11628:	03174e63          	blt	x14,x17,11664 <__subtf3+0x614>
   1162c:	00400693          	addi	x13,x0,4
   11630:	411686b3          	sub	x13,x13,x17
   11634:	00269693          	slli	x13,x13,0x2
   11638:	00289893          	slli	x17,x17,0x2
   1163c:	00800513          	addi	x10,x0,8
   11640:	011e8733          	add	x14,x29,x17
   11644:	00a6ea63          	bltu	x13,x10,11658 <__subtf3+0x608>
   11648:	00072023          	sw	x0,0(x14)
   1164c:	00072223          	sw	x0,4(x14)
   11650:	ff868693          	addi	x13,x13,-8
   11654:	00870713          	addi	x14,x14,8
   11658:	00400513          	addi	x10,x0,4
   1165c:	00a6e463          	bltu	x13,x10,11664 <__subtf3+0x614>
   11660:	00072023          	sw	x0,0(x14)
   11664:	00f03733          	sltu	x14,x0,x15
   11668:	01c12683          	lw	x13,28(x2)
   1166c:	01412783          	lw	x15,20(x2)
   11670:	00b76733          	or	x14,x14,x11
   11674:	01812583          	lw	x11,24(x2)
   11678:	00f607b3          	add	x15,x12,x15
   1167c:	00de0e33          	add	x28,x28,x13
   11680:	00bf85b3          	add	x11,x31,x11
   11684:	0090006f          	jal	x0,11e8c <__subtf3+0xe3c>
   11688:	32c40ee3          	beq	x8,x12,121c4 <__subtf3+0x1174>
   1168c:	02c12583          	lw	x11,44(x2)
   11690:	00080637          	lui	x12,0x80
   11694:	07400713          	addi	x14,x0,116
   11698:	00c5e5b3          	or	x11,x11,x12
   1169c:	02b12623          	sw	x11,44(x2)
   116a0:	bed750e3          	bge	x14,x13,11280 <__subtf3+0x230>
   116a4:	00000813          	addi	x16,x0,0
   116a8:	00000693          	addi	x13,x0,0
   116ac:	00000793          	addi	x15,x0,0
   116b0:	00100713          	addi	x14,x0,1
   116b4:	00e88733          	add	x14,x17,x14
   116b8:	01d785b3          	add	x11,x15,x29
   116bc:	011738b3          	sltu	x17,x14,x17
   116c0:	011588b3          	add	x17,x11,x17
   116c4:	00f5b7b3          	sltu	x15,x11,x15
   116c8:	00b8b5b3          	sltu	x11,x17,x11
   116cc:	00a68633          	add	x12,x13,x10
   116d0:	00b7e7b3          	or	x15,x15,x11
   116d4:	00f607b3          	add	x15,x12,x15
   116d8:	00d636b3          	sltu	x13,x12,x13
   116dc:	00c7b633          	sltu	x12,x15,x12
   116e0:	00c6e6b3          	or	x13,x13,x12
   116e4:	01c80633          	add	x12,x16,x28
   116e8:	00c68e33          	add	x28,x13,x12
   116ec:	02f12c23          	sw	x15,56(x2)
   116f0:	02e12823          	sw	x14,48(x2)
   116f4:	03112a23          	sw	x17,52(x2)
   116f8:	00ce1793          	slli	x15,x28,0xc
   116fc:	1007ca63          	blt	x15,x0,11810 <__subtf3+0x7c0>
   11700:	03c12e23          	sw	x28,60(x2)
   11704:	00777693          	andi	x13,x14,7
   11708:	03010793          	addi	x15,x2,48
   1170c:	24068263          	beq	x13,x0,11950 <__subtf3+0x900>
   11710:	00f77693          	andi	x13,x14,15
   11714:	00400613          	addi	x12,x0,4
   11718:	02c68c63          	beq	x13,x12,11750 <__subtf3+0x700>
   1171c:	03412683          	lw	x13,52(x2)
   11720:	00470713          	addi	x14,x14,4
   11724:	03812583          	lw	x11,56(x2)
   11728:	00473613          	sltiu	x12,x14,4
   1172c:	00c68633          	add	x12,x13,x12
   11730:	00d636b3          	sltu	x13,x12,x13
   11734:	00d586b3          	add	x13,x11,x13
   11738:	00b6b5b3          	sltu	x11,x13,x11
   1173c:	00be0e33          	add	x28,x28,x11
   11740:	02e12823          	sw	x14,48(x2)
   11744:	02c12a23          	sw	x12,52(x2)
   11748:	02d12c23          	sw	x13,56(x2)
   1174c:	03c12e23          	sw	x28,60(x2)
   11750:	00080737          	lui	x14,0x80
   11754:	00ee7733          	and	x14,x28,x14
   11758:	12070c63          	beq	x14,x0,11890 <__subtf3+0x840>
   1175c:	00008737          	lui	x14,0x8
   11760:	00140413          	addi	x8,x8,1
   11764:	fff70713          	addi	x14,x14,-1 # 7fff <_vfiprintf_r+0x817>
   11768:	14e40a63          	beq	x8,x14,118bc <__subtf3+0x86c>
   1176c:	fff80637          	lui	x12,0xfff80
   11770:	fff60613          	addi	x12,x12,-1 # fff7ffff <__heap_end+0xffb7ffff>
   11774:	00ce7633          	and	x12,x28,x12
   11778:	02c12e23          	sw	x12,60(x2)
   1177c:	00365613          	srli	x12,x12,0x3
   11780:	03012683          	lw	x13,48(x2)
   11784:	03c10513          	addi	x10,x2,60
   11788:	0036d593          	srli	x11,x13,0x3
   1178c:	0047a683          	lw	x13,4(x15)
   11790:	00478793          	addi	x15,x15,4
   11794:	01d69713          	slli	x14,x13,0x1d
   11798:	00b76733          	or	x14,x14,x11
   1179c:	fee7ae23          	sw	x14,-4(x15)
   117a0:	fea794e3          	bne	x15,x10,11788 <__subtf3+0x738>
   117a4:	000087b7          	lui	x15,0x8
   117a8:	fff78793          	addi	x15,x15,-1 # 7fff <_vfiprintf_r+0x817>
   117ac:	03012703          	lw	x14,48(x2)
   117b0:	03412583          	lw	x11,52(x2)
   117b4:	03812683          	lw	x13,56(x2)
   117b8:	0ef40063          	beq	x8,x15,11898 <__subtf3+0x848>
   117bc:	01061793          	slli	x15,x12,0x10
   117c0:	0107d793          	srli	x15,x15,0x10
   117c4:	0014f493          	andi	x9,x9,1
   117c8:	01141413          	slli	x8,x8,0x11
   117cc:	01145413          	srli	x8,x8,0x11
   117d0:	00f49493          	slli	x9,x9,0xf
   117d4:	0084e4b3          	or	x9,x9,x8
   117d8:	00911723          	sh	x9,14(x2)
   117dc:	00f11623          	sh	x15,12(x2)
   117e0:	00c12783          	lw	x15,12(x2)
   117e4:	05c12083          	lw	x1,92(x2)
   117e8:	05812403          	lw	x8,88(x2)
   117ec:	00e92023          	sw	x14,0(x18)
   117f0:	00b92223          	sw	x11,4(x18)
   117f4:	00d92423          	sw	x13,8(x18)
   117f8:	00f92623          	sw	x15,12(x18)
   117fc:	05412483          	lw	x9,84(x2)
   11800:	00090513          	addi	x10,x18,0
   11804:	05012903          	lw	x18,80(x2)
   11808:	06010113          	addi	x2,x2,96
   1180c:	00008067          	jalr	x0,0(x1)
   11810:	fff807b7          	lui	x15,0xfff80
   11814:	fff78793          	addi	x15,x15,-1 # fff7ffff <__heap_end+0xffb7ffff>
   11818:	00fe75b3          	and	x11,x28,x15
   1181c:	03010793          	addi	x15,x2,48
   11820:	02b12e23          	sw	x11,60(x2)
   11824:	00140413          	addi	x8,x8,1
   11828:	01f71813          	slli	x16,x14,0x1f
   1182c:	00078693          	addi	x13,x15,0
   11830:	03c10893          	addi	x17,x2,60
   11834:	00175513          	srli	x10,x14,0x1
   11838:	0046a703          	lw	x14,4(x13)
   1183c:	00468693          	addi	x13,x13,4
   11840:	01f71613          	slli	x12,x14,0x1f
   11844:	00a66633          	or	x12,x12,x10
   11848:	fec6ae23          	sw	x12,-4(x13)
   1184c:	ff1694e3          	bne	x13,x17,11834 <__subtf3+0x7e4>
   11850:	03012703          	lw	x14,48(x2)
   11854:	010036b3          	sltu	x13,x0,x16
   11858:	0015de13          	srli	x28,x11,0x1
   1185c:	00e6e733          	or	x14,x13,x14
   11860:	000086b7          	lui	x13,0x8
   11864:	03c12e23          	sw	x28,60(x2)
   11868:	02e12823          	sw	x14,48(x2)
   1186c:	fff68693          	addi	x13,x13,-1 # 7fff <_vfiprintf_r+0x817>
   11870:	56d41263          	bne	x8,x13,11dd4 <__subtf3+0xd84>
   11874:	00008437          	lui	x8,0x8
   11878:	02012e23          	sw	x0,60(x2)
   1187c:	02012c23          	sw	x0,56(x2)
   11880:	02012a23          	sw	x0,52(x2)
   11884:	02012823          	sw	x0,48(x2)
   11888:	fff40413          	addi	x8,x8,-1 # 7fff <_vfiprintf_r+0x817>
   1188c:	00000e13          	addi	x28,x0,0
   11890:	003e5613          	srli	x12,x28,0x3
   11894:	eedff06f          	jal	x0,11780 <__subtf3+0x730>
   11898:	00b76733          	or	x14,x14,x11
   1189c:	00d76733          	or	x14,x14,x13
   118a0:	00c76733          	or	x14,x14,x12
   118a4:	02071863          	bne	x14,x0,118d4 <__subtf3+0x884>
   118a8:	0014f493          	andi	x9,x9,1
   118ac:	00000693          	addi	x13,x0,0
   118b0:	00000593          	addi	x11,x0,0
   118b4:	00000793          	addi	x15,x0,0
   118b8:	f11ff06f          	jal	x0,117c8 <__subtf3+0x778>
   118bc:	02012e23          	sw	x0,60(x2)
   118c0:	02012c23          	sw	x0,56(x2)
   118c4:	02012a23          	sw	x0,52(x2)
   118c8:	02012823          	sw	x0,48(x2)
   118cc:	00000613          	addi	x12,x0,0
   118d0:	eb1ff06f          	jal	x0,11780 <__subtf3+0x730>
   118d4:	00000493          	addi	x9,x0,0
   118d8:	000087b7          	lui	x15,0x8
   118dc:	00000693          	addi	x13,x0,0
   118e0:	00000593          	addi	x11,x0,0
   118e4:	00000713          	addi	x14,x0,0
   118e8:	ee1ff06f          	jal	x0,117c8 <__subtf3+0x778>
   118ec:	00140793          	addi	x15,x8,1
   118f0:	01179713          	slli	x14,x15,0x11
   118f4:	01275713          	srli	x14,x14,0x12
   118f8:	01412e83          	lw	x29,20(x2)
   118fc:	01812f03          	lw	x30,24(x2)
   11900:	01c12683          	lw	x13,28(x2)
   11904:	00008537          	lui	x10,0x8
   11908:	1c071a63          	bne	x14,x0,11adc <__subtf3+0xa8c>
   1190c:	01f66733          	or	x14,x12,x31
   11910:	01eee7b3          	or	x15,x29,x30
   11914:	00676733          	or	x14,x14,x6
   11918:	00d7e7b3          	or	x15,x15,x13
   1191c:	01c76733          	or	x14,x14,x28
   11920:	0117e7b3          	or	x15,x15,x17
   11924:	68041e63          	bne	x8,x0,11fc0 <__subtf3+0xf70>
   11928:	16078ee3          	beq	x15,x0,122a4 <__subtf3+0x1254>
   1192c:	1e0718e3          	bne	x14,x0,1231c <__subtf3+0x12cc>
   11930:	03112823          	sw	x17,48(x2)
   11934:	03d12a23          	sw	x29,52(x2)
   11938:	03e12c23          	sw	x30,56(x2)
   1193c:	02d12e23          	sw	x13,60(x2)
   11940:	00068e13          	addi	x28,x13,0
   11944:	03010793          	addi	x15,x2,48
   11948:	e09ff06f          	jal	x0,11750 <__subtf3+0x700>
   1194c:	03c12e23          	sw	x28,60(x2)
   11950:	003e5613          	srli	x12,x28,0x3
   11954:	03010793          	addi	x15,x2,48
   11958:	e29ff06f          	jal	x0,11780 <__subtf3+0x730>
   1195c:	006785b3          	add	x11,x15,x6
   11960:	0005a583          	lw	x11,0(x11)
   11964:	00168693          	addi	x13,x13,1
   11968:	00478793          	addi	x15,x15,4 # 8004 <_vfiprintf_r+0x81c>
   1196c:	feb7ae23          	sw	x11,-4(x15)
   11970:	fed756e3          	bge	x14,x13,1195c <__subtf3+0x90c>
   11974:	00400793          	addi	x15,x0,4
   11978:	405787b3          	sub	x15,x15,x5
   1197c:	00400713          	addi	x14,x0,4
   11980:	02012583          	lw	x11,32(x2)
   11984:	02e78e63          	beq	x15,x14,119c0 <__subtf3+0x970>
   11988:	00400713          	addi	x14,x0,4
   1198c:	40f70733          	sub	x14,x14,x15
   11990:	00271713          	slli	x14,x14,0x2
   11994:	00279793          	slli	x15,x15,0x2
   11998:	00800693          	addi	x13,x0,8
   1199c:	00ff87b3          	add	x15,x31,x15
   119a0:	00d76a63          	bltu	x14,x13,119b4 <__subtf3+0x964>
   119a4:	0007a023          	sw	x0,0(x15)
   119a8:	0007a223          	sw	x0,4(x15)
   119ac:	ff870713          	addi	x14,x14,-8
   119b0:	00878793          	addi	x15,x15,8
   119b4:	00400693          	addi	x13,x0,4
   119b8:	00d76463          	bltu	x14,x13,119c0 <__subtf3+0x970>
   119bc:	0007a023          	sw	x0,0(x15)
   119c0:	00c03733          	sltu	x14,x0,x12
   119c4:	02412803          	lw	x16,36(x2)
   119c8:	02812683          	lw	x13,40(x2)
   119cc:	02c12603          	lw	x12,44(x2)
   119d0:	00b76733          	or	x14,x14,x11
   119d4:	fd8ff06f          	jal	x0,111ac <__subtf3+0x15c>
   119d8:	fffe8513          	addi	x10,x29,-1
   119dc:	00deb5b3          	sltu	x11,x29,x13
   119e0:	40d50533          	sub	x10,x10,x13
   119e4:	41d686b3          	sub	x13,x13,x29
   119e8:	0016b693          	sltiu	x13,x13,1
   119ec:	00d5e5b3          	or	x11,x11,x13
   119f0:	fecff06f          	jal	x0,111dc <__subtf3+0x18c>
   119f4:	03112823          	sw	x17,48(x2)
   119f8:	02a12a23          	sw	x10,52(x2)
   119fc:	03d12c23          	sw	x29,56(x2)
   11a00:	03c12e23          	sw	x28,60(x2)
   11a04:	00068413          	addi	x8,x13,0
   11a08:	03010793          	addi	x15,x2,48
   11a0c:	d45ff06f          	jal	x0,11750 <__subtf3+0x700>
   11a10:	00140513          	addi	x10,x8,1
   11a14:	01151693          	slli	x13,x10,0x11
   11a18:	0126d693          	srli	x13,x13,0x12
   11a1c:	01412783          	lw	x15,20(x2)
   11a20:	01812703          	lw	x14,24(x2)
   11a24:	01c12583          	lw	x11,28(x2)
   11a28:	00008837          	lui	x16,0x8
   11a2c:	50069263          	bne	x13,x0,11f30 <__subtf3+0xee0>
   11a30:	00e7e6b3          	or	x13,x15,x14
   11a34:	00b6e6b3          	or	x13,x13,x11
   11a38:	0116e6b3          	or	x13,x13,x17
   11a3c:	040414e3          	bne	x8,x0,12284 <__subtf3+0x1234>
   11a40:	260688e3          	beq	x13,x0,124b0 <__subtf3+0x1460>
   11a44:	01f666b3          	or	x13,x12,x31
   11a48:	0066e6b3          	or	x13,x13,x6
   11a4c:	01c6e6b3          	or	x13,x13,x28
   11a50:	26069ce3          	bne	x13,x0,124c8 <__subtf3+0x1478>
   11a54:	02f12a23          	sw	x15,52(x2)
   11a58:	03112823          	sw	x17,48(x2)
   11a5c:	02e12c23          	sw	x14,56(x2)
   11a60:	02b12e23          	sw	x11,60(x2)
   11a64:	00058e13          	addi	x28,x11,0
   11a68:	03010793          	addi	x15,x2,48
   11a6c:	ce5ff06f          	jal	x0,11750 <__subtf3+0x700>
   11a70:	000087b7          	lui	x15,0x8
   11a74:	fff78793          	addi	x15,x15,-1 # 7fff <_vfiprintf_r+0x817>
   11a78:	2cf800e3          	beq	x16,x15,12538 <__subtf3+0x14e8>
   11a7c:	01c12683          	lw	x13,28(x2)
   11a80:	00080537          	lui	x10,0x80
   11a84:	07400793          	addi	x15,x0,116
   11a88:	00a6e6b3          	or	x13,x13,x10
   11a8c:	00d12e23          	sw	x13,28(x2)
   11a90:	4677dc63          	bge	x15,x7,11f08 <__subtf3+0xeb8>
   11a94:	000f8513          	addi	x10,x31,0
   11a98:	00060e93          	addi	x29,x12,0
   11a9c:	00000693          	addi	x13,x0,0
   11aa0:	00000893          	addi	x17,x0,0
   11aa4:	00100713          	addi	x14,x0,1
   11aa8:	40e30733          	sub	x14,x6,x14
   11aac:	00e337b3          	sltu	x15,x6,x14
   11ab0:	01d63f33          	sltu	x30,x12,x29
   11ab4:	40fe87b3          	sub	x15,x29,x15
   11ab8:	00e37463          	bgeu	x6,x14,11ac0 <__subtf3+0xa70>
   11abc:	6d160e63          	beq	x12,x17,12198 <__subtf3+0x1148>
   11ac0:	00afb8b3          	sltu	x17,x31,x10
   11ac4:	41e50533          	sub	x10,x10,x30
   11ac8:	6dd66c63          	bltu	x12,x29,121a0 <__subtf3+0x1150>
   11acc:	411e0e33          	sub	x28,x28,x17
   11ad0:	00080413          	addi	x8,x16,0 # 8000 <_vfiprintf_r+0x818>
   11ad4:	00058493          	addi	x9,x11,0
   11ad8:	f0cff06f          	jal	x0,111e4 <__subtf3+0x194>
   11adc:	40ce8733          	sub	x14,x29,x12
   11ae0:	406887b3          	sub	x15,x17,x6
   11ae4:	00eeb3b3          	sltu	x7,x29,x14
   11ae8:	05312623          	sw	x19,76(x2)
   11aec:	00f8b533          	sltu	x10,x17,x15
   11af0:	00038993          	addi	x19,x7,0
   11af4:	40a70733          	sub	x14,x14,x10
   11af8:	41ff0833          	sub	x16,x30,x31
   11afc:	01ff32b3          	sltu	x5,x30,x31
   11b00:	06f8f063          	bgeu	x17,x15,11b60 <__subtf3+0xb10>
   11b04:	05d61e63          	bne	x12,x29,11b60 <__subtf3+0xb10>
   11b08:	fff80813          	addi	x16,x16,-1
   11b0c:	41ef8533          	sub	x10,x31,x30
   11b10:	00153513          	sltiu	x10,x10,1
   11b14:	00a2e2b3          	or	x5,x5,x10
   11b18:	41c68533          	sub	x10,x13,x28
   11b1c:	40550533          	sub	x10,x10,x5
   11b20:	02a12e23          	sw	x10,60(x2)
   11b24:	03012c23          	sw	x16,56(x2)
   11b28:	02e12a23          	sw	x14,52(x2)
   11b2c:	02f12823          	sw	x15,48(x2)
   11b30:	00c51293          	slli	x5,x10,0xc
   11b34:	5002ca63          	blt	x5,x0,12048 <__subtf3+0xff8>
   11b38:	00e7e7b3          	or	x15,x15,x14
   11b3c:	0107e7b3          	or	x15,x15,x16
   11b40:	00a7e7b3          	or	x15,x15,x10
   11b44:	54079863          	bne	x15,x0,12094 <__subtf3+0x1044>
   11b48:	04c12983          	lw	x19,76(x2)
   11b4c:	00000413          	addi	x8,x0,0
   11b50:	00000493          	addi	x9,x0,0
   11b54:	03010793          	addi	x15,x2,48
   11b58:	00000e13          	addi	x28,x0,0
   11b5c:	d35ff06f          	jal	x0,11890 <__subtf3+0x840>
   11b60:	41380833          	sub	x16,x16,x19
   11b64:	fa038ae3          	beq	x7,x0,11b18 <__subtf3+0xac8>
   11b68:	fa5ff06f          	jal	x0,11b0c <__subtf3+0xabc>
   11b6c:	03412503          	lw	x10,52(x2)
   11b70:	36051663          	bne	x10,x0,11edc <__subtf3+0xe8c>
   11b74:	05312623          	sw	x19,76(x2)
   11b78:	03012983          	lw	x19,48(x2)
   11b7c:	00098513          	addi	x10,x19,0
   11b80:	1e8010ef          	jal	x1,12d68 <__clzsi2>
   11b84:	05450613          	addi	x12,x10,84 # 80054 <__heap_start+0x6b924>
   11b88:	01f67893          	andi	x17,x12,31
   11b8c:	060890e3          	bne	x17,x0,123ec <__subtf3+0x139c>
   11b90:	04c12983          	lw	x19,76(x2)
   11b94:	40565593          	srai	x11,x12,0x5
   11b98:	40b006b3          	sub	x13,x0,x11
   11b9c:	00269693          	slli	x13,x13,0x2
   11ba0:	00c68713          	addi	x14,x13,12
   11ba4:	03010793          	addi	x15,x2,48
   11ba8:	00e78733          	add	x14,x15,x14
   11bac:	40d006b3          	sub	x13,x0,x13
   11bb0:	00072883          	lw	x17,0(x14)
   11bb4:	00d70833          	add	x16,x14,x13
   11bb8:	00070513          	addi	x10,x14,0
   11bbc:	01182023          	sw	x17,0(x16)
   11bc0:	ffc70713          	addi	x14,x14,-4
   11bc4:	fef516e3          	bne	x10,x15,11bb0 <__subtf3+0xb60>
   11bc8:	fff58713          	addi	x14,x11,-1
   11bcc:	07c0006f          	jal	x0,11c48 <__subtf3+0xbf8>
   11bd0:	05312623          	sw	x19,76(x2)
   11bd4:	194010ef          	jal	x1,12d68 <__clzsi2>
   11bd8:	ff450613          	addi	x12,x10,-12
   11bdc:	00060893          	addi	x17,x12,0
   11be0:	03012983          	lw	x19,48(x2)
   11be4:	02000e13          	addi	x28,x0,32
   11be8:	40ce0e33          	sub	x28,x28,x12
   11bec:	00000593          	addi	x11,x0,0
   11bf0:	011999b3          	sll	x19,x19,x17
   11bf4:	40b00833          	sub	x16,x0,x11
   11bf8:	00281813          	slli	x16,x16,0x2
   11bfc:	00c80713          	addi	x14,x16,12
   11c00:	03010793          	addi	x15,x2,48
   11c04:	00e78733          	add	x14,x15,x14
   11c08:	41000833          	sub	x16,x0,x16
   11c0c:	00072683          	lw	x13,0(x14)
   11c10:	ffc72503          	lw	x10,-4(x14)
   11c14:	01070333          	add	x6,x14,x16
   11c18:	011696b3          	sll	x13,x13,x17
   11c1c:	01c55533          	srl	x10,x10,x28
   11c20:	00a6e6b3          	or	x13,x13,x10
   11c24:	00d32023          	sw	x13,0(x6)
   11c28:	ffc70713          	addi	x14,x14,-4
   11c2c:	fee790e3          	bne	x15,x14,11c0c <__subtf3+0xbbc>
   11c30:	00259693          	slli	x13,x11,0x2
   11c34:	04068713          	addi	x14,x13,64
   11c38:	002706b3          	add	x13,x14,x2
   11c3c:	ff36a823          	sw	x19,-16(x13)
   11c40:	04c12983          	lw	x19,76(x2)
   11c44:	fff58713          	addi	x14,x11,-1
   11c48:	fff00693          	addi	x13,x0,-1
   11c4c:	02d70a63          	beq	x14,x13,11c80 <__subtf3+0xc30>
   11c50:	00170713          	addi	x14,x14,1
   11c54:	00271713          	slli	x14,x14,0x2
   11c58:	00800593          	addi	x11,x0,8
   11c5c:	00078693          	addi	x13,x15,0
   11c60:	00b76a63          	bltu	x14,x11,11c74 <__subtf3+0xc24>
   11c64:	02012823          	sw	x0,48(x2)
   11c68:	0007a223          	sw	x0,4(x15)
   11c6c:	03810693          	addi	x13,x2,56
   11c70:	ff870713          	addi	x14,x14,-8
   11c74:	00400593          	addi	x11,x0,4
   11c78:	00b76463          	bltu	x14,x11,11c80 <__subtf3+0xc30>
   11c7c:	0006a023          	sw	x0,0(x13)
   11c80:	12864c63          	blt	x12,x8,11db8 <__subtf3+0xd68>
   11c84:	408606b3          	sub	x13,x12,x8
   11c88:	00168693          	addi	x13,x13,1
   11c8c:	4056d313          	srai	x6,x13,0x5
   11c90:	01f6f693          	andi	x13,x13,31
   11c94:	72030a63          	beq	x6,x0,123c8 <__subtf3+0x1378>
   11c98:	00231593          	slli	x11,x6,0x2
   11c9c:	00078613          	addi	x12,x15,0
   11ca0:	00f58833          	add	x16,x11,x15
   11ca4:	00000713          	addi	x14,x0,0
   11ca8:	00062503          	lw	x10,0(x12)
   11cac:	00460613          	addi	x12,x12,4
   11cb0:	00a76733          	or	x14,x14,x10
   11cb4:	fec81ae3          	bne	x16,x12,11ca8 <__subtf3+0xc58>
   11cb8:	00300513          	addi	x10,x0,3
   11cbc:	40650533          	sub	x10,x10,x6
   11cc0:	06068c63          	beq	x13,x0,11d38 <__subtf3+0xce8>
   11cc4:	04058613          	addi	x12,x11,64
   11cc8:	00260633          	add	x12,x12,x2
   11ccc:	ff062603          	lw	x12,-16(x12)
   11cd0:	03c12e83          	lw	x29,60(x2)
   11cd4:	02000e13          	addi	x28,x0,32
   11cd8:	40de0e33          	sub	x28,x28,x13
   11cdc:	01c61633          	sll	x12,x12,x28
   11ce0:	00c76733          	or	x14,x14,x12
   11ce4:	00dedeb3          	srl	x29,x29,x13
   11ce8:	6c050c63          	beq	x10,x0,123c0 <__subtf3+0x1370>
   11cec:	00251513          	slli	x10,x10,0x2
   11cf0:	00b78633          	add	x12,x15,x11
   11cf4:	00078813          	addi	x16,x15,0
   11cf8:	00a78f33          	add	x30,x15,x10
   11cfc:	00062583          	lw	x11,0(x12)
   11d00:	00462883          	lw	x17,4(x12)
   11d04:	00480813          	addi	x16,x16,4
   11d08:	00d5d5b3          	srl	x11,x11,x13
   11d0c:	01c898b3          	sll	x17,x17,x28
   11d10:	0115e5b3          	or	x11,x11,x17
   11d14:	feb82e23          	sw	x11,-4(x16)
   11d18:	00460613          	addi	x12,x12,4
   11d1c:	ff0f10e3          	bne	x30,x16,11cfc <__subtf3+0xcac>
   11d20:	04050693          	addi	x13,x10,64
   11d24:	00268533          	add	x10,x13,x2
   11d28:	00400693          	addi	x13,x0,4
   11d2c:	406686b3          	sub	x13,x13,x6
   11d30:	ffd52823          	sw	x29,-16(x10)
   11d34:	0280006f          	jal	x0,11d5c <__subtf3+0xd0c>
   11d38:	00078613          	addi	x12,x15,0
   11d3c:	00b60833          	add	x16,x12,x11
   11d40:	00082803          	lw	x16,0(x16)
   11d44:	00168693          	addi	x13,x13,1
   11d48:	00460613          	addi	x12,x12,4
   11d4c:	ff062e23          	sw	x16,-4(x12)
   11d50:	fed556e3          	bge	x10,x13,11d3c <__subtf3+0xcec>
   11d54:	00400693          	addi	x13,x0,4
   11d58:	406686b3          	sub	x13,x13,x6
   11d5c:	00400613          	addi	x12,x0,4
   11d60:	03012e83          	lw	x29,48(x2)
   11d64:	02c68e63          	beq	x13,x12,11da0 <__subtf3+0xd50>
   11d68:	00400613          	addi	x12,x0,4
   11d6c:	40d60633          	sub	x12,x12,x13
   11d70:	00261613          	slli	x12,x12,0x2
   11d74:	00269693          	slli	x13,x13,0x2
   11d78:	00800593          	addi	x11,x0,8
   11d7c:	00d786b3          	add	x13,x15,x13
   11d80:	00b66a63          	bltu	x12,x11,11d94 <__subtf3+0xd44>
   11d84:	0006a023          	sw	x0,0(x13)
   11d88:	0006a223          	sw	x0,4(x13)
   11d8c:	ff860613          	addi	x12,x12,-8
   11d90:	00868693          	addi	x13,x13,8
   11d94:	00400593          	addi	x11,x0,4
   11d98:	00b66463          	bltu	x12,x11,11da0 <__subtf3+0xd50>
   11d9c:	0006a023          	sw	x0,0(x13)
   11da0:	00e03733          	sltu	x14,x0,x14
   11da4:	01d76733          	or	x14,x14,x29
   11da8:	03c12e03          	lw	x28,60(x2)
   11dac:	02e12823          	sw	x14,48(x2)
   11db0:	00000413          	addi	x8,x0,0
   11db4:	0200006f          	jal	x0,11dd4 <__subtf3+0xd84>
   11db8:	03c12e03          	lw	x28,60(x2)
   11dbc:	fff806b7          	lui	x13,0xfff80
   11dc0:	fff68693          	addi	x13,x13,-1 # fff7ffff <__heap_end+0xffb7ffff>
   11dc4:	03012703          	lw	x14,48(x2)
   11dc8:	00de7e33          	and	x28,x28,x13
   11dcc:	40c40433          	sub	x8,x8,x12
   11dd0:	03c12e23          	sw	x28,60(x2)
   11dd4:	00777693          	andi	x13,x14,7
   11dd8:	92069ce3          	bne	x13,x0,11710 <__subtf3+0x6c0>
   11ddc:	975ff06f          	jal	x0,11750 <__subtf3+0x700>
   11de0:	006785b3          	add	x11,x15,x6
   11de4:	0005a583          	lw	x11,0(x11)
   11de8:	00168693          	addi	x13,x13,1
   11dec:	00478793          	addi	x15,x15,4
   11df0:	feb7ae23          	sw	x11,-4(x15)
   11df4:	fed756e3          	bge	x14,x13,11de0 <__subtf3+0xd90>
   11df8:	00400793          	addi	x15,x0,4
   11dfc:	41e787b3          	sub	x15,x15,x30
   11e00:	00400713          	addi	x14,x0,4
   11e04:	02012583          	lw	x11,32(x2)
   11e08:	02e78e63          	beq	x15,x14,11e44 <__subtf3+0xdf4>
   11e0c:	00400713          	addi	x14,x0,4
   11e10:	40f70733          	sub	x14,x14,x15
   11e14:	00271713          	slli	x14,x14,0x2
   11e18:	00279793          	slli	x15,x15,0x2
   11e1c:	00800693          	addi	x13,x0,8
   11e20:	00ff87b3          	add	x15,x31,x15
   11e24:	00d76a63          	bltu	x14,x13,11e38 <__subtf3+0xde8>
   11e28:	0007a023          	sw	x0,0(x15)
   11e2c:	0007a223          	sw	x0,4(x15)
   11e30:	ff870713          	addi	x14,x14,-8
   11e34:	00878793          	addi	x15,x15,8
   11e38:	00400693          	addi	x13,x0,4
   11e3c:	00d76463          	bltu	x14,x13,11e44 <__subtf3+0xdf4>
   11e40:	0007a023          	sw	x0,0(x15)
   11e44:	00c03733          	sltu	x14,x0,x12
   11e48:	02412783          	lw	x15,36(x2)
   11e4c:	02812683          	lw	x13,40(x2)
   11e50:	02c12803          	lw	x16,44(x2)
   11e54:	00b76733          	or	x14,x14,x11
   11e58:	85dff06f          	jal	x0,116b4 <__subtf3+0x664>
   11e5c:	000087b7          	lui	x15,0x8
   11e60:	fff78793          	addi	x15,x15,-1 # 7fff <_vfiprintf_r+0x817>
   11e64:	0af80ee3          	beq	x16,x15,12720 <__subtf3+0x16d0>
   11e68:	01c12683          	lw	x13,28(x2)
   11e6c:	000805b7          	lui	x11,0x80
   11e70:	07400793          	addi	x15,x0,116
   11e74:	00b6e6b3          	or	x13,x13,x11
   11e78:	00d12e23          	sw	x13,28(x2)
   11e7c:	58a7d863          	bge	x15,x10,1240c <__subtf3+0x13bc>
   11e80:	000f8593          	addi	x11,x31,0
   11e84:	00060793          	addi	x15,x12,0
   11e88:	00100713          	addi	x14,x0,1
   11e8c:	00e30733          	add	x14,x6,x14
   11e90:	00673333          	sltu	x6,x14,x6
   11e94:	00f308b3          	add	x17,x6,x15
   11e98:	0068b333          	sltu	x6,x17,x6
   11e9c:	00c7b7b3          	sltu	x15,x15,x12
   11ea0:	0067e6b3          	or	x13,x15,x6
   11ea4:	00b687b3          	add	x15,x13,x11
   11ea8:	00d7b6b3          	sltu	x13,x15,x13
   11eac:	01f5b5b3          	sltu	x11,x11,x31
   11eb0:	00d5e6b3          	or	x13,x11,x13
   11eb4:	00de0e33          	add	x28,x28,x13
   11eb8:	00080413          	addi	x8,x16,0
   11ebc:	831ff06f          	jal	x0,116ec <__subtf3+0x69c>
   11ec0:	05312623          	sw	x19,76(x2)
   11ec4:	03012983          	lw	x19,48(x2)
   11ec8:	02000e13          	addi	x28,x0,32
   11ecc:	40565593          	srai	x11,x12,0x5
   11ed0:	411e0e33          	sub	x28,x28,x17
   11ed4:	011999b3          	sll	x19,x19,x17
   11ed8:	d1dff06f          	jal	x0,11bf4 <__subtf3+0xba4>
   11edc:	68d000ef          	jal	x1,12d68 <__clzsi2>
   11ee0:	03450613          	addi	x12,x10,52
   11ee4:	01f67893          	andi	x17,x12,31
   11ee8:	40565593          	srai	x11,x12,0x5
   11eec:	ca0886e3          	beq	x17,x0,11b98 <__subtf3+0xb48>
   11ef0:	05312623          	sw	x19,76(x2)
   11ef4:	03012983          	lw	x19,48(x2)
   11ef8:	02000e13          	addi	x28,x0,32
   11efc:	411e0e33          	sub	x28,x28,x17
   11f00:	011999b3          	sll	x19,x19,x17
   11f04:	cf1ff06f          	jal	x0,11bf4 <__subtf3+0xba4>
   11f08:	41f3d513          	srai	x10,x7,0x1f
   11f0c:	01f57513          	andi	x10,x10,31
   11f10:	00750533          	add	x10,x10,x7
   11f14:	01f00793          	addi	x15,x0,31
   11f18:	40555513          	srai	x10,x10,0x5
   11f1c:	ca77c463          	blt	x15,x7,113c4 <__subtf3+0x374>
   11f20:	00050413          	addi	x8,x10,0
   11f24:	00000793          	addi	x15,x0,0
   11f28:	00000513          	addi	x10,x0,0
   11f2c:	cbcff06f          	jal	x0,113e8 <__subtf3+0x398>
   11f30:	00688333          	add	x6,x17,x6
   11f34:	00f607b3          	add	x15,x12,x15
   11f38:	01133833          	sltu	x16,x6,x17
   11f3c:	01078833          	add	x16,x15,x16
   11f40:	00c7b6b3          	sltu	x13,x15,x12
   11f44:	00f837b3          	sltu	x15,x16,x15
   11f48:	00ef8733          	add	x14,x31,x14
   11f4c:	00f6e6b3          	or	x13,x13,x15
   11f50:	00d706b3          	add	x13,x14,x13
   11f54:	01f73633          	sltu	x12,x14,x31
   11f58:	00e6b733          	sltu	x14,x13,x14
   11f5c:	00e66633          	or	x12,x12,x14
   11f60:	00be05b3          	add	x11,x28,x11
   11f64:	00b60633          	add	x12,x12,x11
   11f68:	03010793          	addi	x15,x2,48
   11f6c:	03012a23          	sw	x16,52(x2)
   11f70:	02612823          	sw	x6,48(x2)
   11f74:	02d12c23          	sw	x13,56(x2)
   11f78:	02c12e23          	sw	x12,60(x2)
   11f7c:	00078713          	addi	x14,x15,0
   11f80:	03c10813          	addi	x16,x2,60
   11f84:	00135593          	srli	x11,x6,0x1
   11f88:	00472303          	lw	x6,4(x14)
   11f8c:	00470713          	addi	x14,x14,4
   11f90:	01f31693          	slli	x13,x6,0x1f
   11f94:	00b6e6b3          	or	x13,x13,x11
   11f98:	fed72e23          	sw	x13,-4(x14)
   11f9c:	fee814e3          	bne	x16,x14,11f84 <__subtf3+0xf34>
   11fa0:	00165e13          	srli	x28,x12,0x1
   11fa4:	00008737          	lui	x14,0x8
   11fa8:	03c12e23          	sw	x28,60(x2)
   11fac:	fff70713          	addi	x14,x14,-1 # 7fff <_vfiprintf_r+0x817>
   11fb0:	8ce502e3          	beq	x10,x14,11874 <__subtf3+0x824>
   11fb4:	03012703          	lw	x14,48(x2)
   11fb8:	00050413          	addi	x8,x10,0
   11fbc:	e19ff06f          	jal	x0,11dd4 <__subtf3+0xd84>
   11fc0:	4a079e63          	bne	x15,x0,1247c <__subtf3+0x142c>
   11fc4:	72071e63          	bne	x14,x0,12700 <__subtf3+0x16b0>
   11fc8:	02a12e23          	sw	x10,60(x2)
   11fcc:	02012c23          	sw	x0,56(x2)
   11fd0:	02012a23          	sw	x0,52(x2)
   11fd4:	02012823          	sw	x0,48(x2)
   11fd8:	03010793          	addi	x15,x2,48
   11fdc:	03c10713          	addi	x14,x2,60
   11fe0:	00008637          	lui	x12,0x8
   11fe4:	00361593          	slli	x11,x12,0x3
   11fe8:	ffc72603          	lw	x12,-4(x14)
   11fec:	ffc70713          	addi	x14,x14,-4
   11ff0:	01d65693          	srli	x13,x12,0x1d
   11ff4:	00b6e6b3          	or	x13,x13,x11
   11ff8:	00d72223          	sw	x13,4(x14)
   11ffc:	fee794e3          	bne	x15,x14,11fe4 <__subtf3+0xf94>
   12000:	03c12e03          	lw	x28,60(x2)
   12004:	00080737          	lui	x14,0x80
   12008:	00000493          	addi	x9,x0,0
   1200c:	00ee7733          	and	x14,x28,x14
   12010:	00008437          	lui	x8,0x8
   12014:	f4071c63          	bne	x14,x0,1176c <__subtf3+0x71c>
   12018:	fff40413          	addi	x8,x8,-1 # 7fff <_vfiprintf_r+0x817>
   1201c:	003e5613          	srli	x12,x28,0x3
   12020:	f60ff06f          	jal	x0,11780 <__subtf3+0x730>
   12024:	04c12983          	lw	x19,76(x2)
   12028:	02612823          	sw	x6,48(x2)
   1202c:	02c12a23          	sw	x12,52(x2)
   12030:	03f12c23          	sw	x31,56(x2)
   12034:	03c12e23          	sw	x28,60(x2)
   12038:	00038413          	addi	x8,x7,0
   1203c:	00058493          	addi	x9,x11,0 # 80000 <__heap_start+0x6b8d0>
   12040:	03010793          	addi	x15,x2,48
   12044:	f0cff06f          	jal	x0,11750 <__subtf3+0x700>
   12048:	41130833          	sub	x16,x6,x17
   1204c:	41d607b3          	sub	x15,x12,x29
   12050:	01033733          	sltu	x14,x6,x16
   12054:	41ef8f33          	sub	x30,x31,x30
   12058:	00f632b3          	sltu	x5,x12,x15
   1205c:	00028893          	addi	x17,x5,0
   12060:	40e78733          	sub	x14,x15,x14
   12064:	01efb533          	sltu	x10,x31,x30
   12068:	01037463          	bgeu	x6,x16,12070 <__subtf3+0x1020>
   1206c:	43d60a63          	beq	x12,x29,124a0 <__subtf3+0x1450>
   12070:	411f0633          	sub	x12,x30,x17
   12074:	42029863          	bne	x5,x0,124a4 <__subtf3+0x1454>
   12078:	40de07b3          	sub	x15,x28,x13
   1207c:	40a78533          	sub	x10,x15,x10
   12080:	02a12e23          	sw	x10,60(x2)
   12084:	02c12c23          	sw	x12,56(x2)
   12088:	02e12a23          	sw	x14,52(x2)
   1208c:	03012823          	sw	x16,48(x2)
   12090:	00058493          	addi	x9,x11,0
   12094:	74050c63          	beq	x10,x0,127ec <__subtf3+0x179c>
   12098:	4d1000ef          	jal	x1,12d68 <__clzsi2>
   1209c:	ff450793          	addi	x15,x10,-12
   120a0:	01f7f613          	andi	x12,x15,31
   120a4:	00000593          	addi	x11,x0,0
   120a8:	72061c63          	bne	x12,x0,127e0 <__subtf3+0x1790>
   120ac:	04c12983          	lw	x19,76(x2)
   120b0:	ae9ff06f          	jal	x0,11b98 <__subtf3+0xb48>
   120b4:	00688333          	add	x6,x17,x6
   120b8:	01d70eb3          	add	x29,x14,x29
   120bc:	011338b3          	sltu	x17,x6,x17
   120c0:	011e88b3          	add	x17,x29,x17
   120c4:	00eeb7b3          	sltu	x15,x29,x14
   120c8:	01d8beb3          	sltu	x29,x17,x29
   120cc:	00af0633          	add	x12,x30,x10
   120d0:	01d7e7b3          	or	x15,x15,x29
   120d4:	00f607b3          	add	x15,x12,x15
   120d8:	01e636b3          	sltu	x13,x12,x30
   120dc:	00c7b633          	sltu	x12,x15,x12
   120e0:	00c6e6b3          	or	x13,x13,x12
   120e4:	01c585b3          	add	x11,x11,x28
   120e8:	00030713          	addi	x14,x6,0
   120ec:	00b68e33          	add	x28,x13,x11
   120f0:	00100413          	addi	x8,x0,1
   120f4:	df8ff06f          	jal	x0,116ec <__subtf3+0x69c>
   120f8:	02012703          	lw	x14,32(x2)
   120fc:	02000393          	addi	x7,x0,32
   12100:	40d383b3          	sub	x7,x7,x13
   12104:	00771633          	sll	x12,x14,x7
   12108:	05312623          	sw	x19,76(x2)
   1210c:	00d5d5b3          	srl	x11,x11,x13
   12110:	00300713          	addi	x14,x0,3
   12114:	00000313          	addi	x6,x0,0
   12118:	9ccff06f          	jal	x0,112e4 <__subtf3+0x294>
   1211c:	03112823          	sw	x17,48(x2)
   12120:	03d12a23          	sw	x29,52(x2)
   12124:	02a12c23          	sw	x10,56(x2)
   12128:	03c12e23          	sw	x28,60(x2)
   1212c:	00068413          	addi	x8,x13,0
   12130:	03010793          	addi	x15,x2,48
   12134:	e1cff06f          	jal	x0,11750 <__subtf3+0x700>
   12138:	40688333          	sub	x6,x17,x6
   1213c:	41e507b3          	sub	x15,x10,x30
   12140:	0068b6b3          	sltu	x13,x17,x6
   12144:	00030713          	addi	x14,x6,0
   12148:	00f53333          	sltu	x6,x10,x15
   1214c:	00030f93          	addi	x31,x6,0
   12150:	40d787b3          	sub	x15,x15,x13
   12154:	010eb633          	sltu	x12,x29,x16
   12158:	410e86b3          	sub	x13,x29,x16
   1215c:	00e8f463          	bgeu	x17,x14,12164 <__subtf3+0x1114>
   12160:	04af0863          	beq	x30,x10,121b0 <__subtf3+0x1160>
   12164:	41f68533          	sub	x10,x13,x31
   12168:	00060693          	addi	x13,x12,0 # 8000 <_vfiprintf_r+0x818>
   1216c:	04031463          	bne	x6,x0,121b4 <__subtf3+0x1164>
   12170:	40be05b3          	sub	x11,x28,x11
   12174:	40d58e33          	sub	x28,x11,x13
   12178:	00100413          	addi	x8,x0,1
   1217c:	868ff06f          	jal	x0,111e4 <__subtf3+0x194>
   12180:	03112823          	sw	x17,48(x2)
   12184:	02a12a23          	sw	x10,52(x2)
   12188:	03d12c23          	sw	x29,56(x2)
   1218c:	03c12e23          	sw	x28,60(x2)
   12190:	03010793          	addi	x15,x2,48
   12194:	dbcff06f          	jal	x0,11750 <__subtf3+0x700>
   12198:	00afb8b3          	sltu	x17,x31,x10
   1219c:	fff50513          	addi	x10,x10,-1
   121a0:	40df86b3          	sub	x13,x31,x13
   121a4:	0016b693          	sltiu	x13,x13,1
   121a8:	00d8e8b3          	or	x17,x17,x13
   121ac:	921ff06f          	jal	x0,11acc <__subtf3+0xa7c>
   121b0:	fff68513          	addi	x10,x13,-1
   121b4:	41d806b3          	sub	x13,x16,x29
   121b8:	0016b693          	sltiu	x13,x13,1
   121bc:	00d666b3          	or	x13,x12,x13
   121c0:	fb1ff06f          	jal	x0,12170 <__subtf3+0x1120>
   121c4:	03112823          	sw	x17,48(x2)
   121c8:	03d12a23          	sw	x29,52(x2)
   121cc:	02a12c23          	sw	x10,56(x2)
   121d0:	03c12e23          	sw	x28,60(x2)
   121d4:	03010793          	addi	x15,x2,48
   121d8:	d78ff06f          	jal	x0,11750 <__subtf3+0x700>
   121dc:	04c12983          	lw	x19,76(x2)
   121e0:	00028393          	addi	x7,x5,0
   121e4:	00000513          	addi	x10,x0,0
   121e8:	00300893          	addi	x17,x0,3
   121ec:	00000793          	addi	x15,x0,0
   121f0:	41f3d493          	srai	x9,x7,0x1f
   121f4:	00251713          	slli	x14,x10,0x2
   121f8:	01b4d493          	srli	x9,x9,0x1b
   121fc:	04070713          	addi	x14,x14,64 # 80040 <__heap_start+0x6b910>
   12200:	00938533          	add	x10,x7,x9
   12204:	00270733          	add	x14,x14,x2
   12208:	fd072703          	lw	x14,-48(x14)
   1220c:	01f57513          	andi	x10,x10,31
   12210:	40a483b3          	sub	x7,x9,x10
   12214:	02038393          	addi	x7,x7,32
   12218:	00771733          	sll	x14,x14,x7
   1221c:	00e7e7b3          	or	x15,x15,x14
   12220:	54088e63          	beq	x17,x0,1277c <__subtf3+0x172c>
   12224:	05312623          	sw	x19,76(x2)
   12228:	00241993          	slli	x19,x8,0x2
   1222c:	013e8733          	add	x14,x29,x19
   12230:	008f0f13          	addi	x30,x30,8
   12234:	413009b3          	sub	x19,x0,x19
   12238:	00072683          	lw	x13,0(x14)
   1223c:	00472503          	lw	x10,4(x14)
   12240:	013704b3          	add	x9,x14,x19
   12244:	0056d6b3          	srl	x13,x13,x5
   12248:	00751533          	sll	x10,x10,x7
   1224c:	00a6e6b3          	or	x13,x13,x10
   12250:	00d4a023          	sw	x13,0(x9)
   12254:	00470713          	addi	x14,x14,4
   12258:	feef10e3          	bne	x30,x14,12238 <__subtf3+0x11e8>
   1225c:	01c12503          	lw	x10,28(x2)
   12260:	00289693          	slli	x13,x17,0x2
   12264:	04068713          	addi	x14,x13,64
   12268:	002706b3          	add	x13,x14,x2
   1226c:	00555533          	srl	x10,x10,x5
   12270:	00400713          	addi	x14,x0,4
   12274:	04c12983          	lw	x19,76(x2)
   12278:	40870733          	sub	x14,x14,x8
   1227c:	fca6a823          	sw	x10,-48(x13)
   12280:	99cff06f          	jal	x0,1141c <__subtf3+0x3cc>
   12284:	38069263          	bne	x13,x0,12608 <__subtf3+0x15b8>
   12288:	02612823          	sw	x6,48(x2)
   1228c:	02c12a23          	sw	x12,52(x2)
   12290:	03f12c23          	sw	x31,56(x2)
   12294:	03c12e23          	sw	x28,60(x2)
   12298:	fff80413          	addi	x8,x16,-1
   1229c:	03010793          	addi	x15,x2,48
   122a0:	cb0ff06f          	jal	x0,11750 <__subtf3+0x700>
   122a4:	02612823          	sw	x6,48(x2)
   122a8:	02c12a23          	sw	x12,52(x2)
   122ac:	03f12c23          	sw	x31,56(x2)
   122b0:	03c12e23          	sw	x28,60(x2)
   122b4:	88070ce3          	beq	x14,x0,11b4c <__subtf3+0xafc>
   122b8:	00ce1793          	slli	x15,x28,0xc
   122bc:	00058493          	addi	x9,x11,0
   122c0:	4c07dc63          	bge	x15,x0,12798 <__subtf3+0x1748>
   122c4:	00100413          	addi	x8,x0,1
   122c8:	03010793          	addi	x15,x2,48
   122cc:	ca0ff06f          	jal	x0,1176c <__subtf3+0x71c>
   122d0:	41130733          	sub	x14,x6,x17
   122d4:	413607b3          	sub	x15,x12,x19
   122d8:	00e33833          	sltu	x16,x6,x14
   122dc:	00f638b3          	sltu	x17,x12,x15
   122e0:	409f8533          	sub	x10,x31,x9
   122e4:	410787b3          	sub	x15,x15,x16
   122e8:	00088e93          	addi	x29,x17,0
   122ec:	00afb833          	sltu	x16,x31,x10
   122f0:	00e37463          	bgeu	x6,x14,122f8 <__subtf3+0x12a8>
   122f4:	38c98463          	beq	x19,x12,1267c <__subtf3+0x162c>
   122f8:	41d50533          	sub	x10,x10,x29
   122fc:	00080613          	addi	x12,x16,0
   12300:	38089063          	bne	x17,x0,12680 <__subtf3+0x1630>
   12304:	40de06b3          	sub	x13,x28,x13
   12308:	04c12983          	lw	x19,76(x2)
   1230c:	40c68e33          	sub	x28,x13,x12
   12310:	00058493          	addi	x9,x11,0
   12314:	00100413          	addi	x8,x0,1
   12318:	ecdfe06f          	jal	x0,111e4 <__subtf3+0x194>
   1231c:	40ce87b3          	sub	x15,x29,x12
   12320:	406882b3          	sub	x5,x17,x6
   12324:	0058b533          	sltu	x10,x17,x5
   12328:	00feb733          	sltu	x14,x29,x15
   1232c:	00070393          	addi	x7,x14,0
   12330:	40a787b3          	sub	x15,x15,x10
   12334:	01ff3833          	sltu	x16,x30,x31
   12338:	41ff0533          	sub	x10,x30,x31
   1233c:	0058f463          	bgeu	x17,x5,12344 <__subtf3+0x12f4>
   12340:	37d60463          	beq	x12,x29,126a8 <__subtf3+0x1658>
   12344:	40750533          	sub	x10,x10,x7
   12348:	36071263          	bne	x14,x0,126ac <__subtf3+0x165c>
   1234c:	41c68733          	sub	x14,x13,x28
   12350:	41070733          	sub	x14,x14,x16
   12354:	02e12e23          	sw	x14,60(x2)
   12358:	02a12c23          	sw	x10,56(x2)
   1235c:	02f12a23          	sw	x15,52(x2)
   12360:	02512823          	sw	x5,48(x2)
   12364:	00c71813          	slli	x16,x14,0xc
   12368:	32085463          	bge	x16,x0,12690 <__subtf3+0x1640>
   1236c:	41130833          	sub	x16,x6,x17
   12370:	41d607b3          	sub	x15,x12,x29
   12374:	01033733          	sltu	x14,x6,x16
   12378:	00f638b3          	sltu	x17,x12,x15
   1237c:	41ef8f33          	sub	x30,x31,x30
   12380:	40e787b3          	sub	x15,x15,x14
   12384:	00088513          	addi	x10,x17,0
   12388:	01efb733          	sltu	x14,x31,x30
   1238c:	01037463          	bgeu	x6,x16,12394 <__subtf3+0x1344>
   12390:	3fd60c63          	beq	x12,x29,12788 <__subtf3+0x1738>
   12394:	40af0633          	sub	x12,x30,x10
   12398:	3e089a63          	bne	x17,x0,1278c <__subtf3+0x173c>
   1239c:	40de06b3          	sub	x13,x28,x13
   123a0:	40e68e33          	sub	x28,x13,x14
   123a4:	02f12a23          	sw	x15,52(x2)
   123a8:	03c12e23          	sw	x28,60(x2)
   123ac:	02c12c23          	sw	x12,56(x2)
   123b0:	03012823          	sw	x16,48(x2)
   123b4:	00058493          	addi	x9,x11,0
   123b8:	03010793          	addi	x15,x2,48
   123bc:	b94ff06f          	jal	x0,11750 <__subtf3+0x700>
   123c0:	00100693          	addi	x13,x0,1
   123c4:	9a5ff06f          	jal	x0,11d68 <__subtf3+0xd18>
   123c8:	03012703          	lw	x14,48(x2)
   123cc:	03c12e83          	lw	x29,60(x2)
   123d0:	02000e13          	addi	x28,x0,32
   123d4:	40de0e33          	sub	x28,x28,x13
   123d8:	01c71733          	sll	x14,x14,x28
   123dc:	00dedeb3          	srl	x29,x29,x13
   123e0:	00300513          	addi	x10,x0,3
   123e4:	00000593          	addi	x11,x0,0
   123e8:	905ff06f          	jal	x0,11cec <__subtf3+0xc9c>
   123ec:	05f00793          	addi	x15,x0,95
   123f0:	011999b3          	sll	x19,x19,x17
   123f4:	3ac7d863          	bge	x15,x12,127a4 <__subtf3+0x1754>
   123f8:	03312e23          	sw	x19,60(x2)
   123fc:	00200713          	addi	x14,x0,2
   12400:	04c12983          	lw	x19,76(x2)
   12404:	03010793          	addi	x15,x2,48
   12408:	849ff06f          	jal	x0,11c50 <__subtf3+0xc00>
   1240c:	41f55413          	srai	x8,x10,0x1f
   12410:	01f47413          	andi	x8,x8,31
   12414:	00a40433          	add	x8,x8,x10
   12418:	01f00793          	addi	x15,x0,31
   1241c:	40545413          	srai	x8,x8,0x5
   12420:	9aa7c463          	blt	x15,x10,115c8 <__subtf3+0x578>
   12424:	00040893          	addi	x17,x8,0
   12428:	00000793          	addi	x15,x0,0
   1242c:	00000413          	addi	x8,x0,0
   12430:	9bcff06f          	jal	x0,115ec <__subtf3+0x59c>
   12434:	00100793          	addi	x15,x0,1
   12438:	d50ff06f          	jal	x0,11988 <__subtf3+0x938>
   1243c:	02012703          	lw	x14,32(x2)
   12440:	02000393          	addi	x7,x0,32
   12444:	40d383b3          	sub	x7,x7,x13
   12448:	00771633          	sll	x12,x14,x7
   1244c:	05312623          	sw	x19,76(x2)
   12450:	00d5d5b3          	srl	x11,x11,x13
   12454:	00300713          	addi	x14,x0,3
   12458:	00000313          	addi	x6,x0,0
   1245c:	8bcff06f          	jal	x0,11518 <__subtf3+0x4c8>
   12460:	02612823          	sw	x6,48(x2)
   12464:	02c12a23          	sw	x12,52(x2)
   12468:	03f12c23          	sw	x31,56(x2)
   1246c:	03c12e23          	sw	x28,60(x2)
   12470:	00050413          	addi	x8,x10,0
   12474:	03010793          	addi	x15,x2,48
   12478:	ad8ff06f          	jal	x0,11750 <__subtf3+0x700>
   1247c:	24071463          	bne	x14,x0,126c4 <__subtf3+0x1674>
   12480:	03112823          	sw	x17,48(x2)
   12484:	03d12a23          	sw	x29,52(x2)
   12488:	03e12c23          	sw	x30,56(x2)
   1248c:	02d12e23          	sw	x13,60(x2)
   12490:	00068e13          	addi	x28,x13,0
   12494:	fff50413          	addi	x8,x10,-1
   12498:	03010793          	addi	x15,x2,48
   1249c:	ab4ff06f          	jal	x0,11750 <__subtf3+0x700>
   124a0:	ffff0613          	addi	x12,x30,-1
   124a4:	001f3f13          	sltiu	x30,x30,1
   124a8:	01e56533          	or	x10,x10,x30
   124ac:	bcdff06f          	jal	x0,12078 <__subtf3+0x1028>
   124b0:	02612823          	sw	x6,48(x2)
   124b4:	02c12a23          	sw	x12,52(x2)
   124b8:	03f12c23          	sw	x31,56(x2)
   124bc:	03c12e23          	sw	x28,60(x2)
   124c0:	03010793          	addi	x15,x2,48
   124c4:	a8cff06f          	jal	x0,11750 <__subtf3+0x700>
   124c8:	00688333          	add	x6,x17,x6
   124cc:	00f607b3          	add	x15,x12,x15
   124d0:	011336b3          	sltu	x13,x6,x17
   124d4:	00d786b3          	add	x13,x15,x13
   124d8:	00c7b633          	sltu	x12,x15,x12
   124dc:	00f6b7b3          	sltu	x15,x13,x15
   124e0:	00ef8733          	add	x14,x31,x14
   124e4:	00f667b3          	or	x15,x12,x15
   124e8:	00f707b3          	add	x15,x14,x15
   124ec:	01f73fb3          	sltu	x31,x14,x31
   124f0:	00e7b733          	sltu	x14,x15,x14
   124f4:	00efe733          	or	x14,x31,x14
   124f8:	00be05b3          	add	x11,x28,x11
   124fc:	00b70e33          	add	x28,x14,x11
   12500:	02f12c23          	sw	x15,56(x2)
   12504:	02612823          	sw	x6,48(x2)
   12508:	02d12a23          	sw	x13,52(x2)
   1250c:	00ce1793          	slli	x15,x28,0xc
   12510:	c207de63          	bge	x15,x0,1194c <__subtf3+0x8fc>
   12514:	fff807b7          	lui	x15,0xfff80
   12518:	fff78793          	addi	x15,x15,-1 # fff7ffff <__heap_end+0xffb7ffff>
   1251c:	00fe7e33          	and	x28,x28,x15
   12520:	03c12e23          	sw	x28,60(x2)
   12524:	00100413          	addi	x8,x0,1
   12528:	03010793          	addi	x15,x2,48
   1252c:	003e5613          	srli	x12,x28,0x3
   12530:	a50ff06f          	jal	x0,11780 <__subtf3+0x730>
   12534:	04c12983          	lw	x19,76(x2)
   12538:	00008437          	lui	x8,0x8
   1253c:	02612823          	sw	x6,48(x2)
   12540:	02c12a23          	sw	x12,52(x2)
   12544:	03f12c23          	sw	x31,56(x2)
   12548:	03c12e23          	sw	x28,60(x2)
   1254c:	00058493          	addi	x9,x11,0
   12550:	fff40413          	addi	x8,x8,-1 # 7fff <_vfiprintf_r+0x817>
   12554:	03010793          	addi	x15,x2,48
   12558:	9f8ff06f          	jal	x0,11750 <__subtf3+0x700>
   1255c:	04c12983          	lw	x19,76(x2)
   12560:	d34ff06f          	jal	x0,11a94 <__subtf3+0xa44>
   12564:	00058513          	addi	x10,x11,0
   12568:	00000893          	addi	x17,x0,0
   1256c:	00300393          	addi	x7,x0,3
   12570:	00000793          	addi	x15,x0,0
   12574:	41f55713          	srai	x14,x10,0x1f
   12578:	00241293          	slli	x5,x8,0x2
   1257c:	01b75713          	srli	x14,x14,0x1b
   12580:	04028293          	addi	x5,x5,64
   12584:	00e50533          	add	x10,x10,x14
   12588:	002282b3          	add	x5,x5,x2
   1258c:	fd02a403          	lw	x8,-48(x5)
   12590:	01f57513          	andi	x10,x10,31
   12594:	40a70733          	sub	x14,x14,x10
   12598:	02070293          	addi	x5,x14,32
   1259c:	00541733          	sll	x14,x8,x5
   125a0:	00e7e7b3          	or	x15,x15,x14
   125a4:	20038863          	beq	x7,x0,127b4 <__subtf3+0x1764>
   125a8:	05312623          	sw	x19,76(x2)
   125ac:	00289993          	slli	x19,x17,0x2
   125b0:	013e8733          	add	x14,x29,x19
   125b4:	008f0f13          	addi	x30,x30,8
   125b8:	413009b3          	sub	x19,x0,x19
   125bc:	00072683          	lw	x13,0(x14)
   125c0:	00472503          	lw	x10,4(x14)
   125c4:	01370433          	add	x8,x14,x19
   125c8:	00b6d6b3          	srl	x13,x13,x11
   125cc:	00551533          	sll	x10,x10,x5
   125d0:	00a6e6b3          	or	x13,x13,x10
   125d4:	00d42023          	sw	x13,0(x8)
   125d8:	00470713          	addi	x14,x14,4
   125dc:	feef10e3          	bne	x30,x14,125bc <__subtf3+0x156c>
   125e0:	01c12683          	lw	x13,28(x2)
   125e4:	00239713          	slli	x14,x7,0x2
   125e8:	04070713          	addi	x14,x14,64
   125ec:	00b6d6b3          	srl	x13,x13,x11
   125f0:	00270733          	add	x14,x14,x2
   125f4:	00400593          	addi	x11,x0,4
   125f8:	04c12983          	lw	x19,76(x2)
   125fc:	411588b3          	sub	x17,x11,x17
   12600:	fcd72823          	sw	x13,-48(x14)
   12604:	81cff06f          	jal	x0,11620 <__subtf3+0x5d0>
   12608:	01f666b3          	or	x13,x12,x31
   1260c:	0066e6b3          	or	x13,x13,x6
   12610:	01c6e6b3          	or	x13,x13,x28
   12614:	12069663          	bne	x13,x0,12740 <__subtf3+0x16f0>
   12618:	02f12a23          	sw	x15,52(x2)
   1261c:	03112823          	sw	x17,48(x2)
   12620:	02e12c23          	sw	x14,56(x2)
   12624:	02b12e23          	sw	x11,60(x2)
   12628:	00058e13          	addi	x28,x11,0
   1262c:	fff80413          	addi	x8,x16,-1
   12630:	03010793          	addi	x15,x2,48
   12634:	91cff06f          	jal	x0,11750 <__subtf3+0x700>
   12638:	00688333          	add	x6,x17,x6
   1263c:	00c78633          	add	x12,x15,x12
   12640:	011338b3          	sltu	x17,x6,x17
   12644:	011608b3          	add	x17,x12,x17
   12648:	00f637b3          	sltu	x15,x12,x15
   1264c:	00c8b633          	sltu	x12,x17,x12
   12650:	01f28fb3          	add	x31,x5,x31
   12654:	00c7e7b3          	or	x15,x15,x12
   12658:	00ff87b3          	add	x15,x31,x15
   1265c:	005fb633          	sltu	x12,x31,x5
   12660:	01f7bfb3          	sltu	x31,x15,x31
   12664:	01f66633          	or	x12,x12,x31
   12668:	01c686b3          	add	x13,x13,x28
   1266c:	00030713          	addi	x14,x6,0
   12670:	00d60e33          	add	x28,x12,x13
   12674:	00100413          	addi	x8,x0,1
   12678:	874ff06f          	jal	x0,116ec <__subtf3+0x69c>
   1267c:	fff50513          	addi	x10,x10,-1
   12680:	41f48633          	sub	x12,x9,x31
   12684:	00163613          	sltiu	x12,x12,1
   12688:	00c86633          	or	x12,x16,x12
   1268c:	c79ff06f          	jal	x0,12304 <__subtf3+0x12b4>
   12690:	00f2e7b3          	or	x15,x5,x15
   12694:	00a7e7b3          	or	x15,x15,x10
   12698:	00e7e7b3          	or	x15,x15,x14
   1269c:	00070e13          	addi	x28,x14,0
   126a0:	aa079863          	bne	x15,x0,11950 <__subtf3+0x900>
   126a4:	ca8ff06f          	jal	x0,11b4c <__subtf3+0xafc>
   126a8:	fff50513          	addi	x10,x10,-1
   126ac:	41ef8733          	sub	x14,x31,x30
   126b0:	00173713          	sltiu	x14,x14,1
   126b4:	00e86833          	or	x16,x16,x14
   126b8:	c95ff06f          	jal	x0,1234c <__subtf3+0x12fc>
   126bc:	00100793          	addi	x15,x0,1
   126c0:	f4cff06f          	jal	x0,11e0c <__subtf3+0xdbc>
   126c4:	02a12e23          	sw	x10,60(x2)
   126c8:	02012c23          	sw	x0,56(x2)
   126cc:	02012a23          	sw	x0,52(x2)
   126d0:	02012823          	sw	x0,48(x2)
   126d4:	03010793          	addi	x15,x2,48
   126d8:	03c10713          	addi	x14,x2,60
   126dc:	00008637          	lui	x12,0x8
   126e0:	00361593          	slli	x11,x12,0x3
   126e4:	ffc72603          	lw	x12,-4(x14)
   126e8:	ffc70713          	addi	x14,x14,-4
   126ec:	01d65693          	srli	x13,x12,0x1d
   126f0:	00b6e6b3          	or	x13,x13,x11
   126f4:	00d72223          	sw	x13,4(x14)
   126f8:	fee794e3          	bne	x15,x14,126e0 <__subtf3+0x1690>
   126fc:	905ff06f          	jal	x0,12000 <__subtf3+0xfb0>
   12700:	02612823          	sw	x6,48(x2)
   12704:	02c12a23          	sw	x12,52(x2)
   12708:	03f12c23          	sw	x31,56(x2)
   1270c:	03c12e23          	sw	x28,60(x2)
   12710:	00058493          	addi	x9,x11,0
   12714:	fff50413          	addi	x8,x10,-1
   12718:	03010793          	addi	x15,x2,48
   1271c:	834ff06f          	jal	x0,11750 <__subtf3+0x700>
   12720:	00008437          	lui	x8,0x8
   12724:	02612823          	sw	x6,48(x2)
   12728:	02c12a23          	sw	x12,52(x2)
   1272c:	03f12c23          	sw	x31,56(x2)
   12730:	03c12e23          	sw	x28,60(x2)
   12734:	fff40413          	addi	x8,x8,-1 # 7fff <_vfiprintf_r+0x817>
   12738:	03010793          	addi	x15,x2,48
   1273c:	814ff06f          	jal	x0,11750 <__subtf3+0x700>
   12740:	03012e23          	sw	x16,60(x2)
   12744:	02012c23          	sw	x0,56(x2)
   12748:	02012a23          	sw	x0,52(x2)
   1274c:	02012823          	sw	x0,48(x2)
   12750:	03010793          	addi	x15,x2,48
   12754:	03c10713          	addi	x14,x2,60
   12758:	00008637          	lui	x12,0x8
   1275c:	00361593          	slli	x11,x12,0x3
   12760:	ffc72603          	lw	x12,-4(x14)
   12764:	ffc70713          	addi	x14,x14,-4
   12768:	01d65693          	srli	x13,x12,0x1d
   1276c:	00b6e6b3          	or	x13,x13,x11
   12770:	00d72223          	sw	x13,4(x14)
   12774:	fee794e3          	bne	x15,x14,1275c <__subtf3+0x170c>
   12778:	889ff06f          	jal	x0,12000 <__subtf3+0xfb0>
   1277c:	0056d2b3          	srl	x5,x13,x5
   12780:	00100713          	addi	x14,x0,1
   12784:	ca5fe06f          	jal	x0,11428 <__subtf3+0x3d8>
   12788:	ffff0613          	addi	x12,x30,-1
   1278c:	001f3f13          	sltiu	x30,x30,1
   12790:	01e76733          	or	x14,x14,x30
   12794:	c09ff06f          	jal	x0,1239c <__subtf3+0x134c>
   12798:	03010793          	addi	x15,x2,48
   1279c:	003e5613          	srli	x12,x28,0x3
   127a0:	fe1fe06f          	jal	x0,11780 <__subtf3+0x730>
   127a4:	02000e13          	addi	x28,x0,32
   127a8:	411e0e33          	sub	x28,x28,x17
   127ac:	00200593          	addi	x11,x0,2
   127b0:	c44ff06f          	jal	x0,11bf4 <__subtf3+0xba4>
   127b4:	00b6d5b3          	srl	x11,x13,x11
   127b8:	00100893          	addi	x17,x0,1
   127bc:	e71fe06f          	jal	x0,1162c <__subtf3+0x5dc>
   127c0:	02412603          	lw	x12,36(x2)
   127c4:	02812f83          	lw	x31,40(x2)
   127c8:	02c12e03          	lw	x28,44(x2)
   127cc:	b95fe06f          	jal	x0,11360 <__subtf3+0x310>
   127d0:	02412603          	lw	x12,36(x2)
   127d4:	02812f83          	lw	x31,40(x2)
   127d8:	02c12e03          	lw	x28,44(x2)
   127dc:	d91fe06f          	jal	x0,1156c <__subtf3+0x51c>
   127e0:	00060893          	addi	x17,x12,0 # 8000 <_vfiprintf_r+0x818>
   127e4:	00078613          	addi	x12,x15,0
   127e8:	bf8ff06f          	jal	x0,11be0 <__subtf3+0xb90>
   127ec:	04c12983          	lw	x19,76(x2)
   127f0:	a21fe06f          	jal	x0,11210 <__subtf3+0x1c0>

000127f4 <__unordtf2>:
   127f4:	00c52803          	lw	x16,12(x10)
   127f8:	00c5a303          	lw	x6,12(x11)
   127fc:	000087b7          	lui	x15,0x8
   12800:	fff78793          	addi	x15,x15,-1 # 7fff <_vfiprintf_r+0x817>
   12804:	01085713          	srli	x14,x16,0x10
   12808:	01035693          	srli	x13,x6,0x10
   1280c:	00f77733          	and	x14,x14,x15
   12810:	00052603          	lw	x12,0(x10)
   12814:	00452e03          	lw	x28,4(x10)
   12818:	0005a883          	lw	x17,0(x11)
   1281c:	0045ae83          	lw	x29,4(x11)
   12820:	00852503          	lw	x10,8(x10)
   12824:	0085a583          	lw	x11,8(x11)
   12828:	ff010113          	addi	x2,x2,-16
   1282c:	00f6f6b3          	and	x13,x13,x15
   12830:	02f70a63          	beq	x14,x15,12864 <__unordtf2+0x70>
   12834:	000087b7          	lui	x15,0x8
   12838:	fff78793          	addi	x15,x15,-1 # 7fff <_vfiprintf_r+0x817>
   1283c:	00000513          	addi	x10,x0,0
   12840:	00f69e63          	bne	x13,x15,1285c <__unordtf2+0x68>
   12844:	01d8e533          	or	x10,x17,x29
   12848:	01031313          	slli	x6,x6,0x10
   1284c:	00b56533          	or	x10,x10,x11
   12850:	01035313          	srli	x6,x6,0x10
   12854:	00656533          	or	x10,x10,x6
   12858:	00a03533          	sltu	x10,x0,x10
   1285c:	01010113          	addi	x2,x2,16
   12860:	00008067          	jalr	x0,0(x1)
   12864:	01c66633          	or	x12,x12,x28
   12868:	01081813          	slli	x16,x16,0x10
   1286c:	00a66633          	or	x12,x12,x10
   12870:	01085813          	srli	x16,x16,0x10
   12874:	01066633          	or	x12,x12,x16
   12878:	00100513          	addi	x10,x0,1
   1287c:	fa060ce3          	beq	x12,x0,12834 <__unordtf2+0x40>
   12880:	01010113          	addi	x2,x2,16
   12884:	00008067          	jalr	x0,0(x1)

00012888 <__fixtfsi>:
   12888:	00c52783          	lw	x15,12(x10)
   1288c:	00052583          	lw	x11,0(x10)
   12890:	00852603          	lw	x12,8(x10)
   12894:	00452503          	lw	x10,4(x10)
   12898:	fe010113          	addi	x2,x2,-32
   1289c:	00179713          	slli	x14,x15,0x1
   128a0:	000046b7          	lui	x13,0x4
   128a4:	00a12223          	sw	x10,4(x2)
   128a8:	00b12023          	sw	x11,0(x2)
   128ac:	00c12423          	sw	x12,8(x2)
   128b0:	00f12623          	sw	x15,12(x2)
   128b4:	00b12823          	sw	x11,16(x2)
   128b8:	00c12c23          	sw	x12,24(x2)
   128bc:	01175713          	srli	x14,x14,0x11
   128c0:	ffe68693          	addi	x13,x13,-2 # 3ffe <_fflush_r+0x2>
   128c4:	00000513          	addi	x10,x0,0
   128c8:	02e6d063          	bge	x13,x14,128e8 <__fixtfsi+0x60>
   128cc:	000046b7          	lui	x13,0x4
   128d0:	01d68693          	addi	x13,x13,29 # 401d <_fflush_r+0x21>
   128d4:	01f7d593          	srli	x11,x15,0x1f
   128d8:	00e6dc63          	bge	x13,x14,128f0 <__fixtfsi+0x68>
   128dc:	80000537          	lui	x10,0x80000
   128e0:	fff50513          	addi	x10,x10,-1 # 7fffffff <__heap_end+0x7fbfffff>
   128e4:	00a58533          	add	x10,x11,x10
   128e8:	02010113          	addi	x2,x2,32
   128ec:	00008067          	jalr	x0,0(x1)
   128f0:	000046b7          	lui	x13,0x4
   128f4:	01079793          	slli	x15,x15,0x10
   128f8:	06f68693          	addi	x13,x13,111 # 406f <fflush+0x17>
   128fc:	40e686b3          	sub	x13,x13,x14
   12900:	0107d793          	srli	x15,x15,0x10
   12904:	00010737          	lui	x14,0x10
   12908:	00e7e7b3          	or	x15,x15,x14
   1290c:	01f6f513          	andi	x10,x13,31
   12910:	00f12e23          	sw	x15,28(x2)
   12914:	4056d693          	srai	x13,x13,0x5
   12918:	04050c63          	beq	x10,x0,12970 <__fixtfsi+0xe8>
   1291c:	00200813          	addi	x16,x0,2
   12920:	00000713          	addi	x14,x0,0
   12924:	03069063          	bne	x13,x16,12944 <__fixtfsi+0xbc>
   12928:	02000713          	addi	x14,x0,32
   1292c:	40a70733          	sub	x14,x14,x10
   12930:	00e79733          	sll	x14,x15,x14
   12934:	00a65633          	srl	x12,x12,x10
   12938:	00c76733          	or	x14,x14,x12
   1293c:	00e12823          	sw	x14,16(x2)
   12940:	00100713          	addi	x14,x0,1
   12944:	00271713          	slli	x14,x14,0x2
   12948:	02070713          	addi	x14,x14,32 # 10020 <__multf3+0x184>
   1294c:	00270733          	add	x14,x14,x2
   12950:	00a7d7b3          	srl	x15,x15,x10
   12954:	fef72823          	sw	x15,-16(x14)
   12958:	01012783          	lw	x15,16(x2)
   1295c:	40f00533          	sub	x10,x0,x15
   12960:	f80594e3          	bne	x11,x0,128e8 <__fixtfsi+0x60>
   12964:	00078513          	addi	x10,x15,0
   12968:	02010113          	addi	x2,x2,32
   1296c:	00008067          	jalr	x0,0(x1)
   12970:	00269693          	slli	x13,x13,0x2
   12974:	02068793          	addi	x15,x13,32
   12978:	002786b3          	add	x13,x15,x2
   1297c:	ff06a783          	lw	x15,-16(x13)
   12980:	00f12823          	sw	x15,16(x2)
   12984:	fd5ff06f          	jal	x0,12958 <__fixtfsi+0xd0>

00012988 <__floatsitf>:
   12988:	fd010113          	addi	x2,x2,-48
   1298c:	02912223          	sw	x9,36(x2)
   12990:	02112623          	sw	x1,44(x2)
   12994:	02812423          	sw	x8,40(x2)
   12998:	00050493          	addi	x9,x10,0
   1299c:	0a058863          	beq	x11,x0,12a4c <__floatsitf+0xc4>
   129a0:	41f5d793          	srai	x15,x11,0x1f
   129a4:	03212023          	sw	x18,32(x2)
   129a8:	00b7c933          	xor	x18,x15,x11
   129ac:	40f90933          	sub	x18,x18,x15
   129b0:	00090513          	addi	x10,x18,0
   129b4:	01f5d413          	srli	x8,x11,0x1f
   129b8:	3b0000ef          	jal	x1,12d68 <__clzsi2>
   129bc:	05150713          	addi	x14,x10,81
   129c0:	000047b7          	lui	x15,0x4
   129c4:	01e78793          	addi	x15,x15,30 # 401e <_fflush_r+0x22>
   129c8:	01f77613          	andi	x12,x14,31
   129cc:	01212823          	sw	x18,16(x2)
   129d0:	00012a23          	sw	x0,20(x2)
   129d4:	00012c23          	sw	x0,24(x2)
   129d8:	00012e23          	sw	x0,28(x2)
   129dc:	40a787b3          	sub	x15,x15,x10
   129e0:	40575713          	srai	x14,x14,0x5
   129e4:	0a061e63          	bne	x12,x0,12aa0 <__floatsitf+0x118>
   129e8:	00300613          	addi	x12,x0,3
   129ec:	40e60633          	sub	x12,x12,x14
   129f0:	00261613          	slli	x12,x12,0x2
   129f4:	02060693          	addi	x13,x12,32
   129f8:	00268633          	add	x12,x13,x2
   129fc:	00200693          	addi	x13,x0,2
   12a00:	ff062603          	lw	x12,-16(x12)
   12a04:	00d71663          	bne	x14,x13,12a10 <__floatsitf+0x88>
   12a08:	01212c23          	sw	x18,24(x2)
   12a0c:	00100693          	addi	x13,x0,1
   12a10:	00269693          	slli	x13,x13,0x2
   12a14:	00012823          	sw	x0,16(x2)
   12a18:	00012a23          	sw	x0,20(x2)
   12a1c:	ffc68693          	addi	x13,x13,-4
   12a20:	00400713          	addi	x14,x0,4
   12a24:	0ae6fe63          	bgeu	x13,x14,12ae0 <__floatsitf+0x158>
   12a28:	01179793          	slli	x15,x15,0x11
   12a2c:	01061713          	slli	x14,x12,0x10
   12a30:	01012803          	lw	x16,16(x2)
   12a34:	01412503          	lw	x10,20(x2)
   12a38:	01812683          	lw	x13,24(x2)
   12a3c:	02012903          	lw	x18,32(x2)
   12a40:	01075713          	srli	x14,x14,0x10
   12a44:	0117d793          	srli	x15,x15,0x11
   12a48:	01c0006f          	jal	x0,12a64 <__floatsitf+0xdc>
   12a4c:	00000413          	addi	x8,x0,0
   12a50:	00000793          	addi	x15,x0,0
   12a54:	00000713          	addi	x14,x0,0
   12a58:	00000693          	addi	x13,x0,0
   12a5c:	00000513          	addi	x10,x0,0
   12a60:	00000813          	addi	x16,x0,0
   12a64:	00f41593          	slli	x11,x8,0xf
   12a68:	00b7e7b3          	or	x15,x15,x11
   12a6c:	00e11623          	sh	x14,12(x2)
   12a70:	00f11723          	sh	x15,14(x2)
   12a74:	00c12783          	lw	x15,12(x2)
   12a78:	02c12083          	lw	x1,44(x2)
   12a7c:	02812403          	lw	x8,40(x2)
   12a80:	00a4a223          	sw	x10,4(x9)
   12a84:	0104a023          	sw	x16,0(x9)
   12a88:	00d4a423          	sw	x13,8(x9)
   12a8c:	00f4a623          	sw	x15,12(x9)
   12a90:	00048513          	addi	x10,x9,0
   12a94:	02412483          	lw	x9,36(x2)
   12a98:	03010113          	addi	x2,x2,48
   12a9c:	00008067          	jalr	x0,0(x1)
   12aa0:	00200693          	addi	x13,x0,2
   12aa4:	06d70263          	beq	x14,x13,12b08 <__floatsitf+0x180>
   12aa8:	00200693          	addi	x13,x0,2
   12aac:	00300713          	addi	x14,x0,3
   12ab0:	00271713          	slli	x14,x14,0x2
   12ab4:	02070713          	addi	x14,x14,32
   12ab8:	00270733          	add	x14,x14,x2
   12abc:	00c91933          	sll	x18,x18,x12
   12ac0:	ff272823          	sw	x18,-16(x14)
   12ac4:	00269693          	slli	x13,x13,0x2
   12ac8:	00012823          	sw	x0,16(x2)
   12acc:	00012a23          	sw	x0,20(x2)
   12ad0:	ffc68693          	addi	x13,x13,-4
   12ad4:	00400713          	addi	x14,x0,4
   12ad8:	01c12603          	lw	x12,28(x2)
   12adc:	f4e6e6e3          	bltu	x13,x14,12a28 <__floatsitf+0xa0>
   12ae0:	00012c23          	sw	x0,24(x2)
   12ae4:	01179793          	slli	x15,x15,0x11
   12ae8:	01061713          	slli	x14,x12,0x10
   12aec:	01012803          	lw	x16,16(x2)
   12af0:	01412503          	lw	x10,20(x2)
   12af4:	01812683          	lw	x13,24(x2)
   12af8:	02012903          	lw	x18,32(x2)
   12afc:	01075713          	srli	x14,x14,0x10
   12b00:	0117d793          	srli	x15,x15,0x11
   12b04:	f61ff06f          	jal	x0,12a64 <__floatsitf+0xdc>
   12b08:	02000693          	addi	x13,x0,32
   12b0c:	40c686b3          	sub	x13,x13,x12
   12b10:	00d956b3          	srl	x13,x18,x13
   12b14:	00d12e23          	sw	x13,28(x2)
   12b18:	00100693          	addi	x13,x0,1
   12b1c:	f95ff06f          	jal	x0,12ab0 <__floatsitf+0x128>

00012b20 <__extenddftf2>:
   12b20:	01465793          	srli	x15,x12,0x14
   12b24:	00c61713          	slli	x14,x12,0xc
   12b28:	7ff7f793          	andi	x15,x15,2047
   12b2c:	fd010113          	addi	x2,x2,-48
   12b30:	00c75713          	srli	x14,x14,0xc
   12b34:	00178693          	addi	x13,x15,1
   12b38:	02812423          	sw	x8,40(x2)
   12b3c:	02912223          	sw	x9,36(x2)
   12b40:	03212023          	sw	x18,32(x2)
   12b44:	02112623          	sw	x1,44(x2)
   12b48:	00b12823          	sw	x11,16(x2)
   12b4c:	00e12a23          	sw	x14,20(x2)
   12b50:	00012e23          	sw	x0,28(x2)
   12b54:	00012c23          	sw	x0,24(x2)
   12b58:	7fe6f693          	andi	x13,x13,2046
   12b5c:	00058413          	addi	x8,x11,0
   12b60:	00050913          	addi	x18,x10,0
   12b64:	01f65493          	srli	x9,x12,0x1f
   12b68:	06068463          	beq	x13,x0,12bd0 <__extenddftf2+0xb0>
   12b6c:	00004637          	lui	x12,0x4
   12b70:	01c71693          	slli	x13,x14,0x1c
   12b74:	0045d593          	srli	x11,x11,0x4
   12b78:	c0060613          	addi	x12,x12,-1024 # 3c00 <_realloc_r+0x3c0>
   12b7c:	00b6e6b3          	or	x13,x13,x11
   12b80:	01c41413          	slli	x8,x8,0x1c
   12b84:	00475713          	srli	x14,x14,0x4
   12b88:	00c787b3          	add	x15,x15,x12
   12b8c:	00000513          	addi	x10,x0,0
   12b90:	00f49613          	slli	x12,x9,0xf
   12b94:	00c7e7b3          	or	x15,x15,x12
   12b98:	00e11623          	sh	x14,12(x2)
   12b9c:	00f11723          	sh	x15,14(x2)
   12ba0:	00c12783          	lw	x15,12(x2)
   12ba4:	00892223          	sw	x8,4(x18)
   12ba8:	02c12083          	lw	x1,44(x2)
   12bac:	02812403          	lw	x8,40(x2)
   12bb0:	00a92023          	sw	x10,0(x18)
   12bb4:	00d92423          	sw	x13,8(x18)
   12bb8:	00f92623          	sw	x15,12(x18)
   12bbc:	02412483          	lw	x9,36(x2)
   12bc0:	00090513          	addi	x10,x18,0
   12bc4:	02012903          	lw	x18,32(x2)
   12bc8:	03010113          	addi	x2,x2,48
   12bcc:	00008067          	jalr	x0,0(x1)
   12bd0:	00b76533          	or	x10,x14,x11
   12bd4:	0a079663          	bne	x15,x0,12c80 <__extenddftf2+0x160>
   12bd8:	0e050663          	beq	x10,x0,12cc4 <__extenddftf2+0x1a4>
   12bdc:	0e070e63          	beq	x14,x0,12cd8 <__extenddftf2+0x1b8>
   12be0:	00070513          	addi	x10,x14,0
   12be4:	184000ef          	jal	x1,12d68 <__clzsi2>
   12be8:	03150793          	addi	x15,x10,49
   12bec:	01f7f593          	andi	x11,x15,31
   12bf0:	4057d793          	srai	x15,x15,0x5
   12bf4:	10059a63          	bne	x11,x0,12d08 <__extenddftf2+0x1e8>
   12bf8:	40f006b3          	sub	x13,x0,x15
   12bfc:	00269693          	slli	x13,x13,0x2
   12c00:	01010613          	addi	x12,x2,16
   12c04:	00d60733          	add	x14,x12,x13
   12c08:	00010893          	addi	x17,x2,0
   12c0c:	40d006b3          	sub	x13,x0,x13
   12c10:	00c72803          	lw	x16,12(x14)
   12c14:	00d705b3          	add	x11,x14,x13
   12c18:	ffc70713          	addi	x14,x14,-4
   12c1c:	0105a623          	sw	x16,12(x11)
   12c20:	fee898e3          	bne	x17,x14,12c10 <__extenddftf2+0xf0>
   12c24:	fff78713          	addi	x14,x15,-1
   12c28:	00170793          	addi	x15,x14,1
   12c2c:	00279793          	slli	x15,x15,0x2
   12c30:	00800693          	addi	x13,x0,8
   12c34:	00060713          	addi	x14,x12,0
   12c38:	00d7ea63          	bltu	x15,x13,12c4c <__extenddftf2+0x12c>
   12c3c:	00012823          	sw	x0,16(x2)
   12c40:	00062223          	sw	x0,4(x12)
   12c44:	ff878793          	addi	x15,x15,-8
   12c48:	01810713          	addi	x14,x2,24
   12c4c:	00400693          	addi	x13,x0,4
   12c50:	00d7e463          	bltu	x15,x13,12c58 <__extenddftf2+0x138>
   12c54:	00072023          	sw	x0,0(x14)
   12c58:	000047b7          	lui	x15,0x4
   12c5c:	c0c78793          	addi	x15,x15,-1012 # 3c0c <_realloc_r+0x3cc>
   12c60:	40a787b3          	sub	x15,x15,x10
   12c64:	01179793          	slli	x15,x15,0x11
   12c68:	01012503          	lw	x10,16(x2)
   12c6c:	01412403          	lw	x8,20(x2)
   12c70:	01812683          	lw	x13,24(x2)
   12c74:	01c15703          	lhu	x14,28(x2)
   12c78:	0117d793          	srli	x15,x15,0x11
   12c7c:	f15ff06f          	jal	x0,12b90 <__extenddftf2+0x70>
   12c80:	02050663          	beq	x10,x0,12cac <__extenddftf2+0x18c>
   12c84:	000087b7          	lui	x15,0x8
   12c88:	01c71693          	slli	x13,x14,0x1c
   12c8c:	0045d613          	srli	x12,x11,0x4
   12c90:	00475713          	srli	x14,x14,0x4
   12c94:	00f76733          	or	x14,x14,x15
   12c98:	00c6e6b3          	or	x13,x13,x12
   12c9c:	01c59413          	slli	x8,x11,0x1c
   12ca0:	fff78793          	addi	x15,x15,-1 # 7fff <_vfiprintf_r+0x817>
   12ca4:	00000513          	addi	x10,x0,0
   12ca8:	ee9ff06f          	jal	x0,12b90 <__extenddftf2+0x70>
   12cac:	000087b7          	lui	x15,0x8
   12cb0:	00000693          	addi	x13,x0,0
   12cb4:	00000413          	addi	x8,x0,0
   12cb8:	fff78793          	addi	x15,x15,-1 # 7fff <_vfiprintf_r+0x817>
   12cbc:	00000713          	addi	x14,x0,0
   12cc0:	ed1ff06f          	jal	x0,12b90 <__extenddftf2+0x70>
   12cc4:	00000693          	addi	x13,x0,0
   12cc8:	00000413          	addi	x8,x0,0
   12ccc:	00000793          	addi	x15,x0,0
   12cd0:	00000713          	addi	x14,x0,0
   12cd4:	ebdff06f          	jal	x0,12b90 <__extenddftf2+0x70>
   12cd8:	090000ef          	jal	x1,12d68 <__clzsi2>
   12cdc:	05150793          	addi	x15,x10,81
   12ce0:	01f7f593          	andi	x11,x15,31
   12ce4:	02050513          	addi	x10,x10,32
   12ce8:	4057d793          	srai	x15,x15,0x5
   12cec:	f00586e3          	beq	x11,x0,12bf8 <__extenddftf2+0xd8>
   12cf0:	00200713          	addi	x14,x0,2
   12cf4:	00e78a63          	beq	x15,x14,12d08 <__extenddftf2+0x1e8>
   12cf8:	00200713          	addi	x14,x0,2
   12cfc:	00300793          	addi	x15,x0,3
   12d00:	01010613          	addi	x12,x2,16
   12d04:	04c0006f          	jal	x0,12d50 <__extenddftf2+0x230>
   12d08:	40f008b3          	sub	x17,x0,x15
   12d0c:	00289893          	slli	x17,x17,0x2
   12d10:	00c88713          	addi	x14,x17,12
   12d14:	02000e13          	addi	x28,x0,32
   12d18:	01010613          	addi	x12,x2,16
   12d1c:	40be0e33          	sub	x28,x28,x11
   12d20:	00e60733          	add	x14,x12,x14
   12d24:	411008b3          	sub	x17,x0,x17
   12d28:	00072683          	lw	x13,0(x14)
   12d2c:	ffc72803          	lw	x16,-4(x14)
   12d30:	01170333          	add	x6,x14,x17
   12d34:	00b696b3          	sll	x13,x13,x11
   12d38:	01c85833          	srl	x16,x16,x28
   12d3c:	0106e6b3          	or	x13,x13,x16
   12d40:	00d32023          	sw	x13,0(x6)
   12d44:	ffc70713          	addi	x14,x14,-4
   12d48:	fee610e3          	bne	x12,x14,12d28 <__extenddftf2+0x208>
   12d4c:	fff78713          	addi	x14,x15,-1
   12d50:	00279793          	slli	x15,x15,0x2
   12d54:	02078793          	addi	x15,x15,32
   12d58:	002787b3          	add	x15,x15,x2
   12d5c:	00b415b3          	sll	x11,x8,x11
   12d60:	feb7a823          	sw	x11,-16(x15)
   12d64:	ec5ff06f          	jal	x0,12c28 <__extenddftf2+0x108>

00012d68 <__clzsi2>:
   12d68:	000107b7          	lui	x15,0x10
   12d6c:	02f57a63          	bgeu	x10,x15,12da0 <__clzsi2+0x38>
   12d70:	10053713          	sltiu	x14,x10,256
   12d74:	00173713          	sltiu	x14,x14,1
   12d78:	00371713          	slli	x14,x14,0x3
   12d7c:	000147b7          	lui	x15,0x14
   12d80:	00e55533          	srl	x10,x10,x14
   12d84:	b4c78793          	addi	x15,x15,-1204 # 13b4c <__clz_tab>
   12d88:	00a787b3          	add	x15,x15,x10
   12d8c:	0007c503          	lbu	x10,0(x15)
   12d90:	02000693          	addi	x13,x0,32
   12d94:	40e686b3          	sub	x13,x13,x14
   12d98:	40a68533          	sub	x10,x13,x10
   12d9c:	00008067          	jalr	x0,0(x1)
   12da0:	010007b7          	lui	x15,0x1000
   12da4:	02f57463          	bgeu	x10,x15,12dcc <__clzsi2+0x64>
   12da8:	01000713          	addi	x14,x0,16
   12dac:	000147b7          	lui	x15,0x14
   12db0:	00e55533          	srl	x10,x10,x14
   12db4:	b4c78793          	addi	x15,x15,-1204 # 13b4c <__clz_tab>
   12db8:	00a787b3          	add	x15,x15,x10
   12dbc:	0007c503          	lbu	x10,0(x15)
   12dc0:	01000693          	addi	x13,x0,16
   12dc4:	40a68533          	sub	x10,x13,x10
   12dc8:	00008067          	jalr	x0,0(x1)
   12dcc:	01800713          	addi	x14,x0,24
   12dd0:	000147b7          	lui	x15,0x14
   12dd4:	00e55533          	srl	x10,x10,x14
   12dd8:	b4c78793          	addi	x15,x15,-1204 # 13b4c <__clz_tab>
   12ddc:	00a787b3          	add	x15,x15,x10
   12de0:	0007c503          	lbu	x10,0(x15)
   12de4:	00800693          	addi	x13,x0,8
   12de8:	40a68533          	sub	x10,x13,x10
   12dec:	00008067          	jalr	x0,0(x1)
