
/home/mike/GitHubRepos/openhwgroup/core-v-verif/master/cv32e40p/tests/programs/custom/hello-world/hello-world.elf:     file format elf32-littleriscv


Disassembly of section .vectors:

00000000 <__vector_start>:
.section .vectors, "ax"
.option norvc
.global vector_table

vector_table:
	j u_sw_irq_handler
   0:	1fc0006f          	jal	x0,1fc <u_sw_irq_handler>
	j __no_irq_handler
   4:	1c40006f          	jal	x0,1c8 <__no_irq_handler>
	j __no_irq_handler
   8:	1c00006f          	jal	x0,1c8 <__no_irq_handler>
	j m_software_irq_handler
   c:	1ca0006f          	jal	x0,1d6 <m_software_irq_handler>
	j __no_irq_handler
  10:	1b80006f          	jal	x0,1c8 <__no_irq_handler>
	j __no_irq_handler
  14:	1b40006f          	jal	x0,1c8 <__no_irq_handler>
	j __no_irq_handler
  18:	1b00006f          	jal	x0,1c8 <__no_irq_handler>
	j m_timer_irq_handler
  1c:	1bc0006f          	jal	x0,1d8 <m_timer_irq_handler>
	j __no_irq_handler
  20:	1a80006f          	jal	x0,1c8 <__no_irq_handler>
	j __no_irq_handler
  24:	1a40006f          	jal	x0,1c8 <__no_irq_handler>
	j __no_irq_handler
  28:	1a00006f          	jal	x0,1c8 <__no_irq_handler>
	j m_external_irq_handler
  2c:	1ae0006f          	jal	x0,1da <m_external_irq_handler>
	j __no_irq_handler
  30:	1980006f          	jal	x0,1c8 <__no_irq_handler>
	j __no_irq_handler
  34:	1940006f          	jal	x0,1c8 <__no_irq_handler>
	j __no_irq_handler
  38:	1900006f          	jal	x0,1c8 <__no_irq_handler>
	j __no_irq_handler
  3c:	18c0006f          	jal	x0,1c8 <__no_irq_handler>
	j m_fast0_irq_handler
  40:	19c0006f          	jal	x0,1dc <m_fast0_irq_handler>
	j m_fast1_irq_handler
  44:	19a0006f          	jal	x0,1de <m_fast1_irq_handler>
	j m_fast2_irq_handler
  48:	1980006f          	jal	x0,1e0 <m_fast2_irq_handler>
	j m_fast3_irq_handler
  4c:	1960006f          	jal	x0,1e2 <m_fast3_irq_handler>
	j m_fast4_irq_handler
  50:	1940006f          	jal	x0,1e4 <m_fast4_irq_handler>
	j m_fast5_irq_handler
  54:	1920006f          	jal	x0,1e6 <m_fast5_irq_handler>
	j m_fast6_irq_handler
  58:	1900006f          	jal	x0,1e8 <m_fast6_irq_handler>
	j m_fast7_irq_handler
  5c:	18e0006f          	jal	x0,1ea <m_fast7_irq_handler>
	j m_fast8_irq_handler
  60:	18c0006f          	jal	x0,1ec <m_fast8_irq_handler>
	j m_fast9_irq_handler
  64:	18a0006f          	jal	x0,1ee <m_fast9_irq_handler>
	j m_fast10_irq_handler
  68:	1880006f          	jal	x0,1f0 <m_fast10_irq_handler>
	j m_fast11_irq_handler
  6c:	1860006f          	jal	x0,1f2 <m_fast11_irq_handler>
	j m_fast12_irq_handler
  70:	1840006f          	jal	x0,1f4 <m_fast12_irq_handler>
	j m_fast13_irq_handler
  74:	1820006f          	jal	x0,1f6 <m_fast13_irq_handler>
	j m_fast14_irq_handler
  78:	1800006f          	jal	x0,1f8 <m_fast14_irq_handler>
	j m_fast15_irq_handler
  7c:	17e0006f          	jal	x0,1fa <m_fast15_irq_handler>

Disassembly of section .init:

00000080 <_start>:

_start:
/* initialize global pointer */
.option push
.option norelax
1:	auipc gp, %pcrel_hi(__global_pointer$)
  80:	00013197          	auipc	x3,0x13
	addi  gp, gp, %pcrel_lo(1b)
  84:	b3018193          	addi	x3,x3,-1232 # 12bb0 <__global_pointer$>
.option pop

/* initialize stack pointer */
	la sp, __stack_end
  88:	00400117          	auipc	x2,0x400
  8c:	f7810113          	addi	x2,x2,-136 # 400000 <__heap_end>

/* set vector table address */
	la a0, __vector_start
  90:	00000517          	auipc	x10,0x0
  94:	f7050513          	addi	x10,x10,-144 # 0 <__vector_start>
	ori a0, a0, 1 /*vector mode = vectored */
  98:	00156513          	ori	x10,x10,1
	csrw mtvec, a0
  9c:	30551073          	csrrw	x0,mtvec,x10

/* clear the bss segment */
	la a0, _edata
  a0:	f1818513          	addi	x10,x3,-232 # 12ac8 <errno>
	la a2, _end
  a4:	22418613          	addi	x12,x3,548 # 12dd4 <__bss_end>
	sub a2, a2, a0
  a8:	8e09                	c.sub	x12,x10
	li a1, 0
  aa:	4581                	c.li	x11,0
	call memset
  ac:	5e5010ef          	jal	x1,1e90 <memset>

/* new-style constructors and destructors */
	la a0, __libc_fini_array
  b0:	00001517          	auipc	x10,0x1
  b4:	7dc50513          	addi	x10,x10,2012 # 188c <__libc_fini_array>
	call atexit
  b8:	0cd020ef          	jal	x1,2984 <atexit>
	call __libc_init_array
  bc:	009020ef          	jal	x1,28c4 <__libc_init_array>
//	lw a0, 0(sp)                    /* a0 = argc */
//	addi a1, sp, __SIZEOF_POINTER__ /* a1 = argv */
//	li a2, 0                        /* a2 = envp = NULL */
// Initialize these variables to 0. Cannot use argc or argv
// since the stack is not initialized
	li a0, 0
  c0:	4501                	c.li	x10,0
	li a1, 0
  c2:	4581                	c.li	x11,0
	li a2, 0
  c4:	4601                	c.li	x12,0

	call main
  c6:	2029                	c.jal	d0 <main>
	tail exit
  c8:	0910206f          	jal	x0,2958 <exit>

000000cc <_fini>:
.type   _fini, @function
_init:
_fini:
 /* These don't have to do anything since we use init_array/fini_array. Prevent
    missing symbol error */
	ret
  cc:	8082                	c.jr	x1

Disassembly of section .text:

000000d0 <main>:
#define EXP_MISA 0x40801104
#endif


int main(int argc, char *argv[])
{
      d0:	1141                	c.addi	x2,-16
      d2:	c606                	c.swsp	x1,12(x2)
      d4:	c422                	c.swsp	x8,8(x2)
             int reserved, tentative, nonstd, user, super;

    mxl = 0; reserved = 0; tentative = 0; nonstd = 0; user = 0; super = 0;

    /* inline assembly: read mvendorid and misa */
    __asm__ volatile("csrr %0, 0xF11" : "=r"(mvendorid_rval));
      d6:	f11025f3          	csrrs	x11,mvendorid,x0
    __asm__ volatile("csrr %0, 0x301" : "=r"(misa_rval));
      da:	30102473          	csrrs	x8,misa,x0
    __asm__ volatile("csrr %0, 0xF12" : "=r"(marchid_rval));
      de:	f1202773          	csrrs	x14,marchid,x0
    __asm__ volatile("csrr %0, 0xF13" : "=r"(mimpid_rval));
      e2:	f13027f3          	csrrs	x15,mimpid,x0

    /* Check MVENDORID CSR: 0x602 is the value assigned by JEDEC to the OpenHW Group */
    if (mvendorid_rval != 0x00000602) {
      e6:	60200693          	addi	x13,x0,1538
      ea:	00d58763          	beq	x11,x13,f8 <main+0x28>
      printf("\tERROR: CSR MVENDORID reads as 0x%x - should be 0x00000602 for the OpenHW Group.\n\n", mvendorid_rval);
      ee:	6545                	c.lui	x10,0x11
      f0:	71050513          	addi	x10,x10,1808 # 11710 <__clzsi2+0x94>
      return EXIT_FAILURE;
    }

    /* Check MARCHID CSR: 0x4 is the value assigned by the RISC-V Foundation to CV32E40P */
    if (marchid_rval != 0x00000004) {
      printf("\tERROR: CSR MARCHID reads as 0x%x - should be 0x00000004 for CV32E40P.\n\n", marchid_rval);
      f4:	2315                	c.jal	618 <printf>
      return EXIT_FAILURE;
      f6:	a821                	c.j	10e <main+0x3e>
    if (misa_rval != EXP_MISA) {
      f8:	40001637          	lui	x12,0x40001
      fc:	10460613          	addi	x12,x12,260 # 40001104 <__heap_end+0x3fc01104>
     100:	00c40c63          	beq	x8,x12,118 <main+0x48>
      printf("\tERROR: CSR MISA reads as 0x%x - should be 0x%x for this release of CV32E40P!\n\n", misa_rval, EXP_MISA);
     104:	6545                	c.lui	x10,0x11
     106:	85a2                	c.mv	x11,x8
     108:	76450513          	addi	x10,x10,1892 # 11764 <__clzsi2+0xe8>
     10c:	2331                	c.jal	618 <printf>
      return EXIT_FAILURE;
     10e:	4505                	c.li	x10,1
    }
    else {
      printf("\n");
      return EXIT_SUCCESS;
    }
}
     110:	40b2                	c.lwsp	x1,12(x2)
     112:	4422                	c.lwsp	x8,8(x2)
     114:	0141                	c.addi	x2,16
     116:	8082                	c.jr	x1
    if (marchid_rval != 0x00000004) {
     118:	4691                	c.li	x13,4
     11a:	00d70763          	beq	x14,x13,128 <main+0x58>
      printf("\tERROR: CSR MARCHID reads as 0x%x - should be 0x00000004 for CV32E40P.\n\n", marchid_rval);
     11e:	6545                	c.lui	x10,0x11
     120:	85ba                	c.mv	x11,x14
     122:	7b450513          	addi	x10,x10,1972 # 117b4 <__clzsi2+0x138>
     126:	b7f9                	c.j	f4 <main+0x24>
    if (mimpid_rval != 0x00000000) {
     128:	c791                	c.beqz	x15,134 <main+0x64>
      printf("\tERROR: CSR MIMPID reads as 0x%x - should be 0x00000000 for this release of CV32E40P.\n\n", mimpid_rval);
     12a:	6549                	c.lui	x10,0x12
     12c:	85be                	c.mv	x11,x15
     12e:	80050513          	addi	x10,x10,-2048 # 11800 <__clzsi2+0x184>
     132:	b7c9                	c.j	f4 <main+0x24>
    printf("\nHELLO WORLD!!!\n");
     134:	6549                	c.lui	x10,0x12
     136:	85850513          	addi	x10,x10,-1960 # 11858 <__clzsi2+0x1dc>
     13a:	2bed                	c.jal	734 <puts>
    printf("This is the OpenHW Group CV32E40P CORE-V processor core.\n");
     13c:	6549                	c.lui	x10,0x12
     13e:	86850513          	addi	x10,x10,-1944 # 11868 <__clzsi2+0x1ec>
     142:	2bcd                	c.jal	734 <puts>
    printf("CV32E40P is a RISC-V ISA compliant core with the following attributes:\n");
     144:	6549                	c.lui	x10,0x12
     146:	8a450513          	addi	x10,x10,-1884 # 118a4 <__clzsi2+0x228>
     14a:	23ed                	c.jal	734 <puts>
    printf("\tmvendorid = 0x%x\n", mvendorid_rval);
     14c:	6549                	c.lui	x10,0x12
     14e:	60200593          	addi	x11,x0,1538
     152:	8ec50513          	addi	x10,x10,-1812 # 118ec <__clzsi2+0x270>
     156:	21c9                	c.jal	618 <printf>
    printf("\tmarchid   = 0x%x\n", marchid_rval);
     158:	6549                	c.lui	x10,0x12
     15a:	4591                	c.li	x11,4
     15c:	90050513          	addi	x10,x10,-1792 # 11900 <__clzsi2+0x284>
     160:	2965                	c.jal	618 <printf>
    printf("\tmimpid    = 0x%x\n", mimpid_rval);
     162:	6549                	c.lui	x10,0x12
     164:	4581                	c.li	x11,0
     166:	91450513          	addi	x10,x10,-1772 # 11914 <__clzsi2+0x298>
     16a:	217d                	c.jal	618 <printf>
    printf("\tmisa      = 0x%x\n", misa_rval);
     16c:	6549                	c.lui	x10,0x12
     16e:	85a2                	c.mv	x11,x8
     170:	92850513          	addi	x10,x10,-1752 # 11928 <__clzsi2+0x2ac>
     174:	2155                	c.jal	618 <printf>
      case 1:  printf("\tXLEN is 32-bits\n");
     176:	6549                	c.lui	x10,0x12
     178:	93c50513          	addi	x10,x10,-1732 # 1193c <__clzsi2+0x2c0>
     17c:	2b65                	c.jal	734 <puts>
    printf("\tSupported Instructions Extensions: ");
     17e:	6549                	c.lui	x10,0x12
     180:	95050513          	addi	x10,x10,-1712 # 11950 <__clzsi2+0x2d4>
     184:	2951                	c.jal	618 <printf>
    if ((misa_rval >> 12) & 0x00000001) printf("M");
     186:	04d00513          	addi	x10,x0,77
     18a:	3a3010ef          	jal	x1,1d2c <putchar>
    if ((misa_rval >>  8) & 0x00000001) printf("I");
     18e:	04900513          	addi	x10,x0,73
     192:	39b010ef          	jal	x1,1d2c <putchar>
    if ((misa_rval >>  2) & 0x00000001) printf("C");
     196:	04300513          	addi	x10,x0,67
     19a:	393010ef          	jal	x1,1d2c <putchar>
    printf("\n");
     19e:	4529                	c.li	x10,10
     1a0:	38d010ef          	jal	x1,1d2c <putchar>
      printf("\n");
     1a4:	4529                	c.li	x10,10
     1a6:	387010ef          	jal	x1,1d2c <putchar>
      return EXIT_SUCCESS;
     1aa:	4501                	c.li	x10,0
     1ac:	b795                	c.j	110 <main+0x40>
	...

000001b0 <register_fini>:
     1b0:	00000793          	addi	x15,x0,0
     1b4:	00078863          	beq	x15,x0,1c4 <register_fini+0x14>
     1b8:	00001517          	auipc	x10,0x1
     1bc:	6d450513          	addi	x10,x10,1748 # 188c <__libc_fini_array>
     1c0:	7c40206f          	jal	x0,2984 <atexit>
     1c4:	00008067          	jalr	x0,0(x1)

000001c8 <__no_irq_handler>:
.weak m_fast15_irq_handler


/* exception handling */
__no_irq_handler:
	la a0, no_exception_handler_msg
     1c8:	00012517          	auipc	x10,0x12
     1cc:	99450513          	addi	x10,x10,-1644 # 11b5c <no_exception_handler_msg>
	jal ra, puts
     1d0:	564000ef          	jal	x1,734 <puts>
	j __no_irq_handler
     1d4:	bfd5                	c.j	1c8 <__no_irq_handler>

000001d6 <m_software_irq_handler>:

m_software_irq_handler:
	j __no_irq_handler
     1d6:	bfcd                	c.j	1c8 <__no_irq_handler>

000001d8 <m_timer_irq_handler>:

m_timer_irq_handler:
	j __no_irq_handler
     1d8:	bfc5                	c.j	1c8 <__no_irq_handler>

000001da <m_external_irq_handler>:

m_external_irq_handler:
	j __no_irq_handler
     1da:	b7fd                	c.j	1c8 <__no_irq_handler>

000001dc <m_fast0_irq_handler>:

m_fast0_irq_handler:
	j __no_irq_handler
     1dc:	b7f5                	c.j	1c8 <__no_irq_handler>

000001de <m_fast1_irq_handler>:

m_fast1_irq_handler:
	j __no_irq_handler
     1de:	b7ed                	c.j	1c8 <__no_irq_handler>

000001e0 <m_fast2_irq_handler>:

m_fast2_irq_handler:
	j __no_irq_handler
     1e0:	b7e5                	c.j	1c8 <__no_irq_handler>

000001e2 <m_fast3_irq_handler>:

m_fast3_irq_handler:
	j __no_irq_handler
     1e2:	b7dd                	c.j	1c8 <__no_irq_handler>

000001e4 <m_fast4_irq_handler>:

m_fast4_irq_handler:
	j __no_irq_handler
     1e4:	b7d5                	c.j	1c8 <__no_irq_handler>

000001e6 <m_fast5_irq_handler>:

m_fast5_irq_handler:
	j __no_irq_handler
     1e6:	b7cd                	c.j	1c8 <__no_irq_handler>

000001e8 <m_fast6_irq_handler>:

m_fast6_irq_handler:
	j __no_irq_handler
     1e8:	b7c5                	c.j	1c8 <__no_irq_handler>

000001ea <m_fast7_irq_handler>:

m_fast7_irq_handler:
	j __no_irq_handler
     1ea:	bff9                	c.j	1c8 <__no_irq_handler>

000001ec <m_fast8_irq_handler>:

m_fast8_irq_handler:
	j __no_irq_handler
     1ec:	bff1                	c.j	1c8 <__no_irq_handler>

000001ee <m_fast9_irq_handler>:

m_fast9_irq_handler:
	j __no_irq_handler
     1ee:	bfe9                	c.j	1c8 <__no_irq_handler>

000001f0 <m_fast10_irq_handler>:

m_fast10_irq_handler:
	j __no_irq_handler
     1f0:	bfe1                	c.j	1c8 <__no_irq_handler>

000001f2 <m_fast11_irq_handler>:

m_fast11_irq_handler:
	j __no_irq_handler
     1f2:	bfd9                	c.j	1c8 <__no_irq_handler>

000001f4 <m_fast12_irq_handler>:

m_fast12_irq_handler:
	j __no_irq_handler
     1f4:	bfd1                	c.j	1c8 <__no_irq_handler>

000001f6 <m_fast13_irq_handler>:

m_fast13_irq_handler:
	j __no_irq_handler
     1f6:	bfc9                	c.j	1c8 <__no_irq_handler>

000001f8 <m_fast14_irq_handler>:

m_fast14_irq_handler:
	j __no_irq_handler
     1f8:	bfc1                	c.j	1c8 <__no_irq_handler>

000001fa <m_fast15_irq_handler>:

m_fast15_irq_handler:
	j __no_irq_handler
     1fa:	b7f9                	c.j	1c8 <__no_irq_handler>

000001fc <u_sw_irq_handler>:

u_sw_irq_handler:
	/* While we are still using puts in handlers, save all caller saved
	   regs.  Eventually, some of these saves could be deferred.  */
	addi sp,sp,-64
     1fc:	7139                	c.addi16sp	x2,-64
	sw ra, 0(sp)
     1fe:	c006                	c.swsp	x1,0(x2)
	sw a0, 4(sp)
     200:	c22a                	c.swsp	x10,4(x2)
	sw a1, 8(sp)
     202:	c42e                	c.swsp	x11,8(x2)
	sw a2, 12(sp)
     204:	c632                	c.swsp	x12,12(x2)
	sw a3, 16(sp)
     206:	c836                	c.swsp	x13,16(x2)
	sw a4, 20(sp)
     208:	ca3a                	c.swsp	x14,20(x2)
	sw a5, 24(sp)
     20a:	cc3e                	c.swsp	x15,24(x2)
	sw a6, 28(sp)
     20c:	ce42                	c.swsp	x16,28(x2)
	sw a7, 32(sp)
     20e:	d046                	c.swsp	x17,32(x2)
	sw t0, 36(sp)
     210:	d216                	c.swsp	x5,36(x2)
	sw t1, 40(sp)
     212:	d41a                	c.swsp	x6,40(x2)
	sw t2, 44(sp)
     214:	d61e                	c.swsp	x7,44(x2)
	sw t3, 48(sp)
     216:	d872                	c.swsp	x28,48(x2)
	sw t4, 52(sp)
     218:	da76                	c.swsp	x29,52(x2)
	sw t5, 56(sp)
     21a:	dc7a                	c.swsp	x30,56(x2)
	sw t6, 60(sp)
     21c:	de7e                	c.swsp	x31,60(x2)
	csrr t0, mcause
     21e:	342022f3          	csrrs	x5,mcause,x0
	li t1, EXCEPTION_ILLEGAL_INSN
     222:	4309                	c.li	x6,2
	beq t0, t1, handle_illegal_insn
     224:	02628363          	beq	x5,x6,24a <handle_illegal_insn>
	li t1, EXCEPTION_ECALL_M
     228:	432d                	c.li	x6,11
	beq t0, t1, handle_ecall
     22a:	00628663          	beq	x5,x6,236 <handle_ecall>
	li t1, EXCEPTION_BREAKPOINT
     22e:	430d                	c.li	x6,3
	beq t0, t1, handle_ebreak
     230:	00628663          	beq	x5,x6,23c <handle_ebreak>
	j handle_unknown
     234:	a015                	c.j	258 <handle_unknown>

00000236 <handle_ecall>:

handle_ecall:
	jal ra, handle_syscall
     236:	204000ef          	jal	x1,43a <handle_syscall>
	j end_handler_incr_mepc
     23a:	a035                	c.j	266 <end_handler_incr_mepc>

0000023c <handle_ebreak>:

handle_ebreak:
	/* TODO support debug handling requirements.  */
	la a0, ebreak_msg
     23c:	00012517          	auipc	x10,0x12
     240:	8bf50513          	addi	x10,x10,-1857 # 11afb <ebreak_msg>
	jal ra, puts
     244:	4f0000ef          	jal	x1,734 <puts>
	j end_handler_incr_mepc
     248:	a839                	c.j	266 <end_handler_incr_mepc>

0000024a <handle_illegal_insn>:

handle_illegal_insn:
	la a0, illegal_insn_msg
     24a:	00012517          	auipc	x10,0x12
     24e:	84550513          	addi	x10,x10,-1979 # 11a8f <illegal_insn_msg>
	jal ra, puts
     252:	4e2000ef          	jal	x1,734 <puts>
	j end_handler_incr_mepc
     256:	a801                	c.j	266 <end_handler_incr_mepc>

00000258 <handle_unknown>:

handle_unknown:
	la a0, unknown_msg
     258:	00012517          	auipc	x10,0x12
     25c:	8d350513          	addi	x10,x10,-1837 # 11b2b <unknown_msg>
	jal ra, puts
     260:	4d4000ef          	jal	x1,734 <puts>
	/* We don't know what interrupt/exception is being handled, so don't
	   increment mepc.  */
	j end_handler_ret
     264:	a831                	c.j	280 <end_handler_ret>

00000266 <end_handler_incr_mepc>:

end_handler_incr_mepc:
	csrr t0, mepc
     266:	341022f3          	csrrs	x5,mepc,x0
	lb t1, 0(t0)
     26a:	00028303          	lb	x6,0(x5)
	li a0, 0x3
     26e:	450d                	c.li	x10,3
	and t1, t1, a0
     270:	00a37333          	and	x6,x6,x10
	/* Increment mepc by 2 or 4 depending on whether the instruction at mepc
	   is compressed or not.  */
	bne t1, a0, end_handler_incr_mepc2
     274:	00a31363          	bne	x6,x10,27a <end_handler_incr_mepc2>
	addi t0, t0, 2
     278:	0289                	c.addi	x5,2

0000027a <end_handler_incr_mepc2>:
end_handler_incr_mepc2:
	addi t0, t0, 2
     27a:	0289                	c.addi	x5,2
	csrw mepc, t0
     27c:	34129073          	csrrw	x0,mepc,x5

00000280 <end_handler_ret>:
end_handler_ret:
	lw ra, 0(sp)
     280:	4082                	c.lwsp	x1,0(x2)
	lw a0, 4(sp)
     282:	4512                	c.lwsp	x10,4(x2)
	lw a1, 8(sp)
     284:	45a2                	c.lwsp	x11,8(x2)
	lw a2, 12(sp)
     286:	4632                	c.lwsp	x12,12(x2)
	lw a3, 16(sp)
     288:	46c2                	c.lwsp	x13,16(x2)
	lw a4, 20(sp)
     28a:	4752                	c.lwsp	x14,20(x2)
	lw a5, 24(sp)
     28c:	47e2                	c.lwsp	x15,24(x2)
	lw a6, 28(sp)
     28e:	4872                	c.lwsp	x16,28(x2)
	lw a7, 32(sp)
     290:	5882                	c.lwsp	x17,32(x2)
	lw t0, 36(sp)
     292:	5292                	c.lwsp	x5,36(x2)
	lw t1, 40(sp)
     294:	5322                	c.lwsp	x6,40(x2)
	lw t2, 44(sp)
     296:	53b2                	c.lwsp	x7,44(x2)
	lw t3, 48(sp)
     298:	5e42                	c.lwsp	x28,48(x2)
	lw t4, 52(sp)
     29a:	5ed2                	c.lwsp	x29,52(x2)
	lw t5, 56(sp)
     29c:	5f62                	c.lwsp	x30,56(x2)
	lw t6, 60(sp)
     29e:	5ff2                	c.lwsp	x31,60(x2)
	addi sp,sp,64
     2a0:	6121                	c.addi16sp	x2,64
	mret
     2a2:	30200073          	mret

000002a6 <__syscall_error>:
#endif
/* Upstream newlib now defines this in libgloss/riscv/internal_syscall.h.  */
long
__syscall_error(long a0)
{
  errno = -a0;
     2a6:	40a00533          	sub	x10,x0,x10
     2aa:	f0a1ac23          	sw	x10,-232(x3) # 12ac8 <errno>
  return -1;
}
     2ae:	557d                	c.li	x10,-1
     2b0:	8082                	c.jr	x1

000002b2 <unimplemented_syscall>:

void unimplemented_syscall()
{
  const char *p = "BSP: Unimplemented system call called!\n";
     2b2:	67c9                	c.lui	x15,0x12
     2b4:	97878793          	addi	x15,x15,-1672 # 11978 <__clzsi2+0x2fc>
  while (*p)
    *(volatile int *)STDOUT_REG = *(p++);
     2b8:	100006b7          	lui	x13,0x10000
  while (*p)
     2bc:	0007c703          	lbu	x14,0(x15)
     2c0:	e311                	c.bnez	x14,2c4 <unimplemented_syscall+0x12>
}
     2c2:	8082                	c.jr	x1
    *(volatile int *)STDOUT_REG = *(p++);
     2c4:	0785                	c.addi	x15,1
     2c6:	c298                	c.sw	x14,0(x13)
     2c8:	bfd5                	c.j	2bc <unimplemented_syscall+0xa>

000002ca <nanosleep>:

int nanosleep(const struct timespec *rqtp, struct timespec *rmtp)
{
  errno = ENOSYS;
     2ca:	05800713          	addi	x14,x0,88
     2ce:	f0e1ac23          	sw	x14,-232(x3) # 12ac8 <errno>
  return -1;
}
     2d2:	557d                	c.li	x10,-1
     2d4:	8082                	c.jr	x1

000002d6 <_access>:

int _access(const char *file, int mode)
{
  errno = ENOSYS;
     2d6:	05800713          	addi	x14,x0,88
     2da:	f0e1ac23          	sw	x14,-232(x3) # 12ac8 <errno>
  return -1;
}
     2de:	557d                	c.li	x10,-1
     2e0:	8082                	c.jr	x1

000002e2 <_chdir>:

int _chdir(const char *path)
{
  errno = ENOSYS;
     2e2:	05800713          	addi	x14,x0,88
     2e6:	f0e1ac23          	sw	x14,-232(x3) # 12ac8 <errno>
  return -1;
}
     2ea:	557d                	c.li	x10,-1
     2ec:	8082                	c.jr	x1

000002ee <_chmod>:

int _chmod(const char *path, mode_t mode)
{
  errno = ENOSYS;
     2ee:	05800713          	addi	x14,x0,88
     2f2:	f0e1ac23          	sw	x14,-232(x3) # 12ac8 <errno>
  return -1;
}
     2f6:	557d                	c.li	x10,-1
     2f8:	8082                	c.jr	x1

000002fa <_chown>:

int _chown(const char *path, uid_t owner, gid_t group)
{
  errno = ENOSYS;
     2fa:	05800713          	addi	x14,x0,88
     2fe:	f0e1ac23          	sw	x14,-232(x3) # 12ac8 <errno>
  return -1;
}
     302:	557d                	c.li	x10,-1
     304:	8082                	c.jr	x1

00000306 <_close>:

int _close(int file)
{
  return -1;
}
     306:	557d                	c.li	x10,-1
     308:	8082                	c.jr	x1

0000030a <_execve>:

int _execve(const char *name, char *const argv[], char *const env[])
{
  errno = ENOMEM;
     30a:	4731                	c.li	x14,12
     30c:	f0e1ac23          	sw	x14,-232(x3) # 12ac8 <errno>
  return -1;
}
     310:	557d                	c.li	x10,-1
     312:	8082                	c.jr	x1

00000314 <_exit>:

void _exit(int exit_status)
{
  *(volatile int *)EXIT_REG = exit_status;
     314:	200007b7          	lui	x15,0x20000
     318:	c3c8                	c.sw	x10,4(x15)
  asm volatile("wfi");
     31a:	10500073          	wfi
  /* _exit should not return */
  while (1) {};
     31e:	a001                	c.j	31e <_exit+0xa>

00000320 <_faccessat>:
}

int _faccessat(int dirfd, const char *file, int mode, int flags)
{
  errno = ENOSYS;
     320:	05800713          	addi	x14,x0,88
     324:	f0e1ac23          	sw	x14,-232(x3) # 12ac8 <errno>
  return -1;
}
     328:	557d                	c.li	x10,-1
     32a:	8082                	c.jr	x1

0000032c <_fork>:

int _fork(void)
{
  errno = EAGAIN;
     32c:	472d                	c.li	x14,11
     32e:	f0e1ac23          	sw	x14,-232(x3) # 12ac8 <errno>
  return -1;
}
     332:	557d                	c.li	x10,-1
     334:	8082                	c.jr	x1

00000336 <_fstat>:

int _fstat(int file, struct stat *st)
{
  st->st_mode = S_IFCHR;
     336:	6789                	c.lui	x15,0x2
     338:	c1dc                	c.sw	x15,4(x11)
  return 0;
  // errno = -ENOSYS;
  // return -1;
}
     33a:	4501                	c.li	x10,0
     33c:	8082                	c.jr	x1

0000033e <_fstatat>:

int _fstatat(int dirfd, const char *file, struct stat *st, int flags)
{
  errno = ENOSYS;
     33e:	05800713          	addi	x14,x0,88
     342:	f0e1ac23          	sw	x14,-232(x3) # 12ac8 <errno>
  return -1;
}
     346:	557d                	c.li	x10,-1
     348:	8082                	c.jr	x1

0000034a <_ftime>:

int _ftime(struct timeb *tp)
     34a:	05800713          	addi	x14,x0,88
     34e:	f0e1ac23          	sw	x14,-232(x3) # 12ac8 <errno>
     352:	557d                	c.li	x10,-1
     354:	8082                	c.jr	x1

00000356 <_getcwd>:
  return -1;
}

char *_getcwd(char *buf, size_t size)
{
  errno = -ENOSYS;
     356:	fa800713          	addi	x14,x0,-88
     35a:	f0e1ac23          	sw	x14,-232(x3) # 12ac8 <errno>
  return NULL;
}
     35e:	4501                	c.li	x10,0
     360:	8082                	c.jr	x1

00000362 <_getpid>:

int _getpid()
{
  return 1;
}
     362:	4505                	c.li	x10,1
     364:	8082                	c.jr	x1

00000366 <_gettimeofday>:

int _gettimeofday(struct timeval *tp, void *tzp)
{
  errno = -ENOSYS;
     366:	fa800713          	addi	x14,x0,-88
     36a:	f0e1ac23          	sw	x14,-232(x3) # 12ac8 <errno>
  return -1;
}
     36e:	557d                	c.li	x10,-1
     370:	8082                	c.jr	x1

00000372 <_isatty>:

int _isatty(int file)
{
  return (file == STDOUT_FILENO);
     372:	157d                	c.addi	x10,-1
}
     374:	00153513          	sltiu	x10,x10,1
     378:	8082                	c.jr	x1

0000037a <_kill>:

int _kill(int pid, int sig)
{
  errno = EINVAL;
     37a:	4759                	c.li	x14,22
     37c:	f0e1ac23          	sw	x14,-232(x3) # 12ac8 <errno>
  return -1;
}
     380:	557d                	c.li	x10,-1
     382:	8082                	c.jr	x1

00000384 <_link>:

int _link(const char *old_name, const char *new_name)
{
  errno = EMLINK;
     384:	477d                	c.li	x14,31
     386:	f0e1ac23          	sw	x14,-232(x3) # 12ac8 <errno>
  return -1;
}
     38a:	557d                	c.li	x10,-1
     38c:	8082                	c.jr	x1

0000038e <_lseek>:

off_t _lseek(int file, off_t ptr, int dir)
{
  return 0;
}
     38e:	4501                	c.li	x10,0
     390:	8082                	c.jr	x1

00000392 <_lstat>:

int _lstat(const char *file, struct stat *st)
     392:	05800713          	addi	x14,x0,88
     396:	f0e1ac23          	sw	x14,-232(x3) # 12ac8 <errno>
     39a:	557d                	c.li	x10,-1
     39c:	8082                	c.jr	x1

0000039e <_open>:
}

int _open(const char *name, int flags, int mode)
{
  return -1;
}
     39e:	557d                	c.li	x10,-1
     3a0:	8082                	c.jr	x1

000003a2 <_openat>:

int _openat(int dirfd, const char *name, int flags, int mode)
     3a2:	05800713          	addi	x14,x0,88
     3a6:	f0e1ac23          	sw	x14,-232(x3) # 12ac8 <errno>
     3aa:	557d                	c.li	x10,-1
     3ac:	8082                	c.jr	x1

000003ae <_read>:
}

ssize_t _read(int file, void *ptr, size_t len)
{
  return 0;
}
     3ae:	4501                	c.li	x10,0
     3b0:	8082                	c.jr	x1

000003b2 <_stat>:

int _stat(const char *file, struct stat *st)
{
  st->st_mode = S_IFCHR;
     3b2:	6789                	c.lui	x15,0x2
     3b4:	c1dc                	c.sw	x15,4(x11)
  return 0;
  // errno = ENOSYS;
  // return -1;
}
     3b6:	4501                	c.li	x10,0
     3b8:	8082                	c.jr	x1

000003ba <_sysconf>:

long _sysconf(int name)
     3ba:	557d                	c.li	x10,-1
     3bc:	8082                	c.jr	x1

000003be <_times>:
}

clock_t _times(struct tms *buf)
{
  return -1;
}
     3be:	557d                	c.li	x10,-1
     3c0:	8082                	c.jr	x1

000003c2 <_unlink>:

int _unlink(const char *name)
{
  errno = ENOENT;
     3c2:	4709                	c.li	x14,2
     3c4:	f0e1ac23          	sw	x14,-232(x3) # 12ac8 <errno>
  return -1;
}
     3c8:	557d                	c.li	x10,-1
     3ca:	8082                	c.jr	x1

000003cc <_utime>:

int _utime(const char *path, const struct utimbuf *times)
     3cc:	05800713          	addi	x14,x0,88
     3d0:	f0e1ac23          	sw	x14,-232(x3) # 12ac8 <errno>
     3d4:	557d                	c.li	x10,-1
     3d6:	8082                	c.jr	x1

000003d8 <_wait>:
  return -1;
}

int _wait(int *status)
{
  errno = ECHILD;
     3d8:	4729                	c.li	x14,10
     3da:	f0e1ac23          	sw	x14,-232(x3) # 12ac8 <errno>
  return -1;
}
     3de:	557d                	c.li	x10,-1
     3e0:	8082                	c.jr	x1

000003e2 <_write>:

ssize_t _write(int file, const void *ptr, size_t len)
{
  const char *cptr = (char *)ptr;
  if (file != STDOUT_FILENO)
     3e2:	4685                	c.li	x13,1
    {
      errno = ENOSYS;
      return -1;
    }

  const void *eptr = cptr + len;
     3e4:	00c587b3          	add	x15,x11,x12
  while (cptr != eptr)
    *(volatile int *)STDOUT_REG = *cptr++;
     3e8:	10000737          	lui	x14,0x10000
  if (file != STDOUT_FILENO)
     3ec:	00d50c63          	beq	x10,x13,404 <_write+0x22>
      errno = ENOSYS;
     3f0:	05800713          	addi	x14,x0,88
     3f4:	f0e1ac23          	sw	x14,-232(x3) # 12ac8 <errno>
      return -1;
     3f8:	557d                	c.li	x10,-1
     3fa:	8082                	c.jr	x1
    *(volatile int *)STDOUT_REG = *cptr++;
     3fc:	0005c683          	lbu	x13,0(x11)
     400:	0585                	c.addi	x11,1
     402:	c314                	c.sw	x13,0(x14)
  while (cptr != eptr)
     404:	fef59ce3          	bne	x11,x15,3fc <_write+0x1a>
  return len;
     408:	8532                	c.mv	x10,x12
}
     40a:	8082                	c.jr	x1

0000040c <_brk>:
extern char __heap_end[];
static char *brk = __heap_start;

int _brk(void *addr)
{
  brk = addr;
     40c:	f0a1a423          	sw	x10,-248(x3) # 12ab8 <brk>
  return 0;
}
     410:	4501                	c.li	x10,0
     412:	8082                	c.jr	x1

00000414 <_sbrk>:

void *_sbrk(ptrdiff_t incr)
{
     414:	87aa                	c.mv	x15,x10
  char *old_brk = brk;
     416:	f081a503          	lw	x10,-248(x3) # 12ab8 <brk>
  register long sp asm("sp");

  char *new_brk = brk += incr;
     41a:	97aa                	c.add	x15,x10
     41c:	f0f1a423          	sw	x15,-248(x3) # 12ab8 <brk>
  if (new_brk < (char *) sp && new_brk < __heap_end)
     420:	0027f863          	bgeu	x15,x2,430 <_sbrk+0x1c>
     424:	00400737          	lui	x14,0x400
     428:	00070713          	addi	x14,x14,0 # 400000 <__heap_end>
     42c:	00e7e663          	bltu	x15,x14,438 <_sbrk+0x24>

      return old_brk;
    }
  else
    {
      errno = ENOMEM;
     430:	4731                	c.li	x14,12
     432:	f0e1ac23          	sw	x14,-232(x3) # 12ac8 <errno>
      return (void *) -1;
     436:	557d                	c.li	x10,-1
    }
}
     438:	8082                	c.jr	x1

0000043a <handle_syscall>:
    register long syscall_id asm("t0");
  #else
    long syscall_id = a7;
  #endif

  switch (syscall_id) {
     43a:	08100793          	addi	x15,x0,129
     43e:	0af88c63          	beq	x17,x15,4f6 <handle_syscall+0xbc>
     442:	0717c763          	blt	x15,x17,4b0 <handle_syscall+0x76>
     446:	04000793          	addi	x15,x0,64
     44a:	0517c663          	blt	x15,x17,496 <handle_syscall+0x5c>
     44e:	02f00793          	addi	x15,x0,47
     452:	0317c563          	blt	x15,x17,47c <handle_syscall+0x42>
     456:	47c5                	c.li	x15,17
     458:	04f89b63          	bne	x17,x15,4ae <handle_syscall+0x74>
  errno = -ENOSYS;
     45c:	fa800713          	addi	x14,x0,-88
     460:	a861                	c.j	4f8 <handle_syscall+0xbe>
  switch (syscall_id) {
     462:	c0088893          	addi	x17,x17,-1024
     466:	47bd                	c.li	x15,15
     468:	0517e363          	bltu	x15,x17,4ae <handle_syscall+0x74>
     46c:	67c9                	c.lui	x15,0x12
     46e:	b8c78793          	addi	x15,x15,-1140 # 11b8c <no_exception_handler_msg+0x30>
     472:	088a                	c.slli	x17,0x2
     474:	98be                	c.add	x17,x15
     476:	0008a783          	lw	x15,0(x17)
     47a:	8782                	c.jr	x15
     47c:	fd088893          	addi	x17,x17,-48
     480:	47c1                	c.li	x15,16
     482:	0317e663          	bltu	x15,x17,4ae <handle_syscall+0x74>
     486:	67c9                	c.lui	x15,0x12
     488:	bcc78793          	addi	x15,x15,-1076 # 11bcc <no_exception_handler_msg+0x70>
     48c:	088a                	c.slli	x17,0x2
     48e:	98be                	c.add	x17,x15
     490:	0008a783          	lw	x15,0(x17)
     494:	8782                	c.jr	x15
     496:	05000793          	addi	x15,x0,80
     49a:	06f88963          	beq	x17,x15,50c <handle_syscall+0xd2>
     49e:	05d00793          	addi	x15,x0,93
     4a2:	04f88363          	beq	x17,x15,4e8 <handle_syscall+0xae>
     4a6:	04f00793          	addi	x15,x0,79
     4aa:	04f88a63          	beq	x17,x15,4fe <handle_syscall+0xc4>
      break;
    case SYS_times:
      _times ((struct tms *) a0);
      break;
    default:
      unimplemented_syscall ();
     4ae:	b511                	c.j	2b2 <unimplemented_syscall>
  switch (syscall_id) {
     4b0:	40f00793          	addi	x15,x0,1039
     4b4:	ff17cde3          	blt	x15,x17,4ae <handle_syscall+0x74>
     4b8:	3ff00793          	addi	x15,x0,1023
     4bc:	fb17c3e3          	blt	x15,x17,462 <handle_syscall+0x28>
     4c0:	0ac00793          	addi	x15,x0,172
     4c4:	04f88763          	beq	x17,x15,512 <handle_syscall+0xd8>
     4c8:	0117c963          	blt	x15,x17,4da <handle_syscall+0xa0>
     4cc:	09900793          	addi	x15,x0,153
     4d0:	04f88163          	beq	x17,x15,512 <handle_syscall+0xd8>
     4d4:	0a900793          	addi	x15,x0,169
     4d8:	b741                	c.j	458 <handle_syscall+0x1e>
     4da:	0d600793          	addi	x15,x0,214
     4de:	fcf898e3          	bne	x17,x15,4ae <handle_syscall+0x74>
  brk = addr;
     4e2:	f0a1a423          	sw	x10,-248(x3) # 12ab8 <brk>
  return 0;
     4e6:	8082                	c.jr	x1
  *(volatile int *)EXIT_REG = exit_status;
     4e8:	200007b7          	lui	x15,0x20000
     4ec:	c3c8                	c.sw	x10,4(x15)
  asm volatile("wfi");
     4ee:	10500073          	wfi
  while (1) {};
     4f2:	a001                	c.j	4f2 <handle_syscall+0xb8>
      _write (a0, (const void *) a1, a2);
     4f4:	b5fd                	c.j	3e2 <_write>
  errno = EINVAL;
     4f6:	4759                	c.li	x14,22
  errno = ENOSYS;
     4f8:	f0e1ac23          	sw	x14,-232(x3) # 12ac8 <errno>
  return -1;
     4fc:	8082                	c.jr	x1
  errno = ENOSYS;
     4fe:	05800713          	addi	x14,x0,88
     502:	bfdd                	c.j	4f8 <handle_syscall+0xbe>
  errno = EMLINK;
     504:	477d                	c.li	x14,31
     506:	bfcd                	c.j	4f8 <handle_syscall+0xbe>
  errno = ENOENT;
     508:	4709                	c.li	x14,2
     50a:	b7fd                	c.j	4f8 <handle_syscall+0xbe>
  st->st_mode = S_IFCHR;
     50c:	6789                	c.lui	x15,0x2
     50e:	c1dc                	c.sw	x15,4(x11)
  return 0;
     510:	8082                	c.jr	x1
      break;
  }
}
     512:	8082                	c.jr	x1

00000514 <_reclaim_reent>:
     514:	f141a783          	lw	x15,-236(x3) # 12ac4 <_impure_ptr>
     518:	0aa78e63          	beq	x15,x10,5d4 <_reclaim_reent+0xc0>
     51c:	04452583          	lw	x11,68(x10)
     520:	fe010113          	addi	x2,x2,-32
     524:	00912a23          	sw	x9,20(x2)
     528:	00112e23          	sw	x1,28(x2)
     52c:	00050493          	addi	x9,x10,0
     530:	04058c63          	beq	x11,x0,588 <_reclaim_reent+0x74>
     534:	01212823          	sw	x18,16(x2)
     538:	01312623          	sw	x19,12(x2)
     53c:	00812c23          	sw	x8,24(x2)
     540:	00000913          	addi	x18,x0,0
     544:	08000993          	addi	x19,x0,128
     548:	012587b3          	add	x15,x11,x18
     54c:	0007a403          	lw	x8,0(x15) # 2000 <_fwalk_sglue+0x94>
     550:	00040e63          	beq	x8,x0,56c <_reclaim_reent+0x58>
     554:	00040593          	addi	x11,x8,0
     558:	00042403          	lw	x8,0(x8)
     55c:	00048513          	addi	x10,x9,0
     560:	4c0010ef          	jal	x1,1a20 <_free_r>
     564:	fe0418e3          	bne	x8,x0,554 <_reclaim_reent+0x40>
     568:	0444a583          	lw	x11,68(x9)
     56c:	00490913          	addi	x18,x18,4
     570:	fd391ce3          	bne	x18,x19,548 <_reclaim_reent+0x34>
     574:	00048513          	addi	x10,x9,0
     578:	4a8010ef          	jal	x1,1a20 <_free_r>
     57c:	01812403          	lw	x8,24(x2)
     580:	01012903          	lw	x18,16(x2)
     584:	00c12983          	lw	x19,12(x2)
     588:	0384a583          	lw	x11,56(x9)
     58c:	00058663          	beq	x11,x0,598 <_reclaim_reent+0x84>
     590:	00048513          	addi	x10,x9,0
     594:	48c010ef          	jal	x1,1a20 <_free_r>
     598:	04c4a583          	lw	x11,76(x9)
     59c:	00058663          	beq	x11,x0,5a8 <_reclaim_reent+0x94>
     5a0:	00048513          	addi	x10,x9,0
     5a4:	47c010ef          	jal	x1,1a20 <_free_r>
     5a8:	0344a783          	lw	x15,52(x9)
     5ac:	00078c63          	beq	x15,x0,5c4 <_reclaim_reent+0xb0>
     5b0:	01c12083          	lw	x1,28(x2)
     5b4:	00048513          	addi	x10,x9,0
     5b8:	01412483          	lw	x9,20(x2)
     5bc:	02010113          	addi	x2,x2,32
     5c0:	00078067          	jalr	x0,0(x15)
     5c4:	01c12083          	lw	x1,28(x2)
     5c8:	01412483          	lw	x9,20(x2)
     5cc:	02010113          	addi	x2,x2,32
     5d0:	00008067          	jalr	x0,0(x1)
     5d4:	00008067          	jalr	x0,0(x1)

000005d8 <_printf_r>:
     5d8:	fc010113          	addi	x2,x2,-64
     5dc:	02c12423          	sw	x12,40(x2)
     5e0:	02d12623          	sw	x13,44(x2)
     5e4:	02e12823          	sw	x14,48(x2)
     5e8:	02f12a23          	sw	x15,52(x2)
     5ec:	03012c23          	sw	x16,56(x2)
     5f0:	03112e23          	sw	x17,60(x2)
     5f4:	00058613          	addi	x12,x11,0
     5f8:	00852583          	lw	x11,8(x10)
     5fc:	02810693          	addi	x13,x2,40
     600:	00112e23          	sw	x1,28(x2)
     604:	00d12623          	sw	x13,12(x2)
     608:	63c020ef          	jal	x1,2c44 <_vfprintf_r>
     60c:	01c12083          	lw	x1,28(x2)
     610:	04010113          	addi	x2,x2,64
     614:	00008067          	jalr	x0,0(x1)

00000618 <printf>:
     618:	fc010113          	addi	x2,x2,-64
     61c:	02c12423          	sw	x12,40(x2)
     620:	02d12623          	sw	x13,44(x2)
     624:	f141a303          	lw	x6,-236(x3) # 12ac4 <_impure_ptr>
     628:	02b12223          	sw	x11,36(x2)
     62c:	02e12823          	sw	x14,48(x2)
     630:	02f12a23          	sw	x15,52(x2)
     634:	03012c23          	sw	x16,56(x2)
     638:	03112e23          	sw	x17,60(x2)
     63c:	00832583          	lw	x11,8(x6)
     640:	02410693          	addi	x13,x2,36
     644:	00050613          	addi	x12,x10,0
     648:	00030513          	addi	x10,x6,0
     64c:	00112e23          	sw	x1,28(x2)
     650:	00d12623          	sw	x13,12(x2)
     654:	5f0020ef          	jal	x1,2c44 <_vfprintf_r>
     658:	01c12083          	lw	x1,28(x2)
     65c:	04010113          	addi	x2,x2,64
     660:	00008067          	jalr	x0,0(x1)

00000664 <_puts_r>:
     664:	fc010113          	addi	x2,x2,-64
     668:	02812c23          	sw	x8,56(x2)
     66c:	00050413          	addi	x8,x10,0
     670:	00058513          	addi	x10,x11,0
     674:	02912a23          	sw	x9,52(x2)
     678:	02112e23          	sw	x1,60(x2)
     67c:	00058493          	addi	x9,x11,0
     680:	6c0010ef          	jal	x1,1d40 <strlen>
     684:	00150713          	addi	x14,x10,1
     688:	00011697          	auipc	x13,0x11
     68c:	31868693          	addi	x13,x13,792 # 119a0 <__clzsi2+0x324>
     690:	00e12e23          	sw	x14,28(x2)
     694:	03442783          	lw	x15,52(x8)
     698:	02010713          	addi	x14,x2,32
     69c:	02d12423          	sw	x13,40(x2)
     6a0:	00e12a23          	sw	x14,20(x2)
     6a4:	00100693          	addi	x13,x0,1
     6a8:	00200713          	addi	x14,x0,2
     6ac:	02912023          	sw	x9,32(x2)
     6b0:	02a12223          	sw	x10,36(x2)
     6b4:	02d12623          	sw	x13,44(x2)
     6b8:	00e12c23          	sw	x14,24(x2)
     6bc:	00842583          	lw	x11,8(x8)
     6c0:	06078063          	beq	x15,x0,720 <_puts_r+0xbc>
     6c4:	00c59783          	lh	x15,12(x11)
     6c8:	01279713          	slli	x14,x15,0x12
     6cc:	02074263          	blt	x14,x0,6f0 <_puts_r+0x8c>
     6d0:	0645a703          	lw	x14,100(x11)
     6d4:	ffffe6b7          	lui	x13,0xffffe
     6d8:	fff68693          	addi	x13,x13,-1 # ffffdfff <__heap_end+0xffbfdfff>
     6dc:	00002637          	lui	x12,0x2
     6e0:	00c7e7b3          	or	x15,x15,x12
     6e4:	00d77733          	and	x14,x14,x13
     6e8:	00f59623          	sh	x15,12(x11)
     6ec:	06e5a223          	sw	x14,100(x11)
     6f0:	01410613          	addi	x12,x2,20
     6f4:	00040513          	addi	x10,x8,0
     6f8:	3ac000ef          	jal	x1,aa4 <__sfvwrite_r>
     6fc:	03c12083          	lw	x1,60(x2)
     700:	03812403          	lw	x8,56(x2)
     704:	00153513          	sltiu	x10,x10,1
     708:	40a00533          	sub	x10,x0,x10
     70c:	00b57513          	andi	x10,x10,11
     710:	03412483          	lw	x9,52(x2)
     714:	fff50513          	addi	x10,x10,-1
     718:	04010113          	addi	x2,x2,64
     71c:	00008067          	jalr	x0,0(x1)
     720:	00040513          	addi	x10,x8,0
     724:	00b12623          	sw	x11,12(x2)
     728:	320000ef          	jal	x1,a48 <__sinit>
     72c:	00c12583          	lw	x11,12(x2)
     730:	f95ff06f          	jal	x0,6c4 <_puts_r+0x60>

00000734 <puts>:
     734:	00050593          	addi	x11,x10,0
     738:	f141a503          	lw	x10,-236(x3) # 12ac4 <_impure_ptr>
     73c:	f29ff06f          	jal	x0,664 <_puts_r>

00000740 <__fp_lock>:
     740:	00000513          	addi	x10,x0,0
     744:	00008067          	jalr	x0,0(x1)

00000748 <stdio_exit_handler>:
     748:	00012617          	auipc	x12,0x12
     74c:	c6860613          	addi	x12,x12,-920 # 123b0 <__sglue>
     750:	00001597          	auipc	x11,0x1
     754:	86458593          	addi	x11,x11,-1948 # fb4 <_fclose_r>
     758:	c1818513          	addi	x10,x3,-1000 # 127c8 <_impure_data>
     75c:	0110106f          	jal	x0,1f6c <_fwalk_sglue>

00000760 <cleanup_stdio>:
     760:	00452583          	lw	x11,4(x10)
     764:	ff010113          	addi	x2,x2,-16
     768:	00812423          	sw	x8,8(x2)
     76c:	00112623          	sw	x1,12(x2)
     770:	f3418793          	addi	x15,x3,-204 # 12ae4 <__sf>
     774:	00050413          	addi	x8,x10,0
     778:	00f58463          	beq	x11,x15,780 <cleanup_stdio+0x20>
     77c:	039000ef          	jal	x1,fb4 <_fclose_r>
     780:	00842583          	lw	x11,8(x8)
     784:	f9c18793          	addi	x15,x3,-100 # 12b4c <__sf+0x68>
     788:	00f58663          	beq	x11,x15,794 <cleanup_stdio+0x34>
     78c:	00040513          	addi	x10,x8,0
     790:	025000ef          	jal	x1,fb4 <_fclose_r>
     794:	00c42583          	lw	x11,12(x8)
     798:	00418793          	addi	x15,x3,4 # 12bb4 <__global_pointer$+0x4>
     79c:	00f58c63          	beq	x11,x15,7b4 <cleanup_stdio+0x54>
     7a0:	00040513          	addi	x10,x8,0
     7a4:	00812403          	lw	x8,8(x2)
     7a8:	00c12083          	lw	x1,12(x2)
     7ac:	01010113          	addi	x2,x2,16
     7b0:	0050006f          	jal	x0,fb4 <_fclose_r>
     7b4:	00c12083          	lw	x1,12(x2)
     7b8:	00812403          	lw	x8,8(x2)
     7bc:	01010113          	addi	x2,x2,16
     7c0:	00008067          	jalr	x0,0(x1)

000007c4 <__fp_unlock>:
     7c4:	00000513          	addi	x10,x0,0
     7c8:	00008067          	jalr	x0,0(x1)

000007cc <global_stdio_init.part.0>:
     7cc:	fe010113          	addi	x2,x2,-32
     7d0:	00000797          	auipc	x15,0x0
     7d4:	f7878793          	addi	x15,x15,-136 # 748 <stdio_exit_handler>
     7d8:	00112e23          	sw	x1,28(x2)
     7dc:	00812c23          	sw	x8,24(x2)
     7e0:	00912a23          	sw	x9,20(x2)
     7e4:	f3418413          	addi	x8,x3,-204 # 12ae4 <__sf>
     7e8:	01212823          	sw	x18,16(x2)
     7ec:	01312623          	sw	x19,12(x2)
     7f0:	01412423          	sw	x20,8(x2)
     7f4:	f0f1ae23          	sw	x15,-228(x3) # 12acc <__stdio_exit_handler>
     7f8:	00800613          	addi	x12,x0,8
     7fc:	00400793          	addi	x15,x0,4
     800:	00000593          	addi	x11,x0,0
     804:	f9018513          	addi	x10,x3,-112 # 12b40 <__sf+0x5c>
     808:	00f42623          	sw	x15,12(x8)
     80c:	00042023          	sw	x0,0(x8)
     810:	00042223          	sw	x0,4(x8)
     814:	00042423          	sw	x0,8(x8)
     818:	06042223          	sw	x0,100(x8)
     81c:	00042823          	sw	x0,16(x8)
     820:	00042a23          	sw	x0,20(x8)
     824:	00042c23          	sw	x0,24(x8)
     828:	668010ef          	jal	x1,1e90 <memset>
     82c:	000107b7          	lui	x15,0x10
     830:	00002a17          	auipc	x20,0x2
     834:	2a8a0a13          	addi	x20,x20,680 # 2ad8 <__sread>
     838:	00002997          	auipc	x19,0x2
     83c:	30498993          	addi	x19,x19,772 # 2b3c <__swrite>
     840:	00002917          	auipc	x18,0x2
     844:	38490913          	addi	x18,x18,900 # 2bc4 <__sseek>
     848:	00002497          	auipc	x9,0x2
     84c:	3f448493          	addi	x9,x9,1012 # 2c3c <__sclose>
     850:	00978793          	addi	x15,x15,9 # 10009 <__subtf3+0x6a5>
     854:	00800613          	addi	x12,x0,8
     858:	00000593          	addi	x11,x0,0
     85c:	ff818513          	addi	x10,x3,-8 # 12ba8 <__sf+0xc4>
     860:	03442023          	sw	x20,32(x8)
     864:	03342223          	sw	x19,36(x8)
     868:	03242423          	sw	x18,40(x8)
     86c:	02942623          	sw	x9,44(x8)
     870:	06f42a23          	sw	x15,116(x8)
     874:	00842e23          	sw	x8,28(x8)
     878:	06042423          	sw	x0,104(x8)
     87c:	06042623          	sw	x0,108(x8)
     880:	06042823          	sw	x0,112(x8)
     884:	0c042623          	sw	x0,204(x8)
     888:	06042c23          	sw	x0,120(x8)
     88c:	06042e23          	sw	x0,124(x8)
     890:	08042023          	sw	x0,128(x8)
     894:	5fc010ef          	jal	x1,1e90 <memset>
     898:	000207b7          	lui	x15,0x20
     89c:	01278793          	addi	x15,x15,18 # 20012 <__heap_start+0xd232>
     8a0:	f9c18713          	addi	x14,x3,-100 # 12b4c <__sf+0x68>
     8a4:	00800613          	addi	x12,x0,8
     8a8:	00000593          	addi	x11,x0,0
     8ac:	06018513          	addi	x10,x3,96 # 12c10 <__global_pointer$+0x60>
     8b0:	09442423          	sw	x20,136(x8)
     8b4:	09342623          	sw	x19,140(x8)
     8b8:	09242823          	sw	x18,144(x8)
     8bc:	08942a23          	sw	x9,148(x8)
     8c0:	0cf42e23          	sw	x15,220(x8)
     8c4:	08e42223          	sw	x14,132(x8)
     8c8:	0c042823          	sw	x0,208(x8)
     8cc:	0c042a23          	sw	x0,212(x8)
     8d0:	0c042c23          	sw	x0,216(x8)
     8d4:	12042a23          	sw	x0,308(x8)
     8d8:	0e042023          	sw	x0,224(x8)
     8dc:	0e042223          	sw	x0,228(x8)
     8e0:	0e042423          	sw	x0,232(x8)
     8e4:	5ac010ef          	jal	x1,1e90 <memset>
     8e8:	00418793          	addi	x15,x3,4 # 12bb4 <__global_pointer$+0x4>
     8ec:	0f442823          	sw	x20,240(x8)
     8f0:	0f342a23          	sw	x19,244(x8)
     8f4:	0f242c23          	sw	x18,248(x8)
     8f8:	0e942e23          	sw	x9,252(x8)
     8fc:	01c12083          	lw	x1,28(x2)
     900:	0ef42623          	sw	x15,236(x8)
     904:	01812403          	lw	x8,24(x2)
     908:	01412483          	lw	x9,20(x2)
     90c:	01012903          	lw	x18,16(x2)
     910:	00c12983          	lw	x19,12(x2)
     914:	00812a03          	lw	x20,8(x2)
     918:	02010113          	addi	x2,x2,32
     91c:	00008067          	jalr	x0,0(x1)

00000920 <__sfp>:
     920:	fe010113          	addi	x2,x2,-32
     924:	01312623          	sw	x19,12(x2)
     928:	00112e23          	sw	x1,28(x2)
     92c:	00812c23          	sw	x8,24(x2)
     930:	00912a23          	sw	x9,20(x2)
     934:	01212823          	sw	x18,16(x2)
     938:	f1c1a783          	lw	x15,-228(x3) # 12acc <__stdio_exit_handler>
     93c:	00050993          	addi	x19,x10,0
     940:	0e078863          	beq	x15,x0,a30 <__sfp+0x110>
     944:	00012917          	auipc	x18,0x12
     948:	a6c90913          	addi	x18,x18,-1428 # 123b0 <__sglue>
     94c:	fff00493          	addi	x9,x0,-1
     950:	00492783          	lw	x15,4(x18)
     954:	00892403          	lw	x8,8(x18)
     958:	fff78793          	addi	x15,x15,-1
     95c:	0007d863          	bge	x15,x0,96c <__sfp+0x4c>
     960:	0800006f          	jal	x0,9e0 <__sfp+0xc0>
     964:	06840413          	addi	x8,x8,104
     968:	06978c63          	beq	x15,x9,9e0 <__sfp+0xc0>
     96c:	00c41703          	lh	x14,12(x8)
     970:	fff78793          	addi	x15,x15,-1
     974:	fe0718e3          	bne	x14,x0,964 <__sfp+0x44>
     978:	ffff07b7          	lui	x15,0xffff0
     97c:	00178793          	addi	x15,x15,1 # ffff0001 <__heap_end+0xffbf0001>
     980:	00f42623          	sw	x15,12(x8)
     984:	06042223          	sw	x0,100(x8)
     988:	00042023          	sw	x0,0(x8)
     98c:	00042423          	sw	x0,8(x8)
     990:	00042223          	sw	x0,4(x8)
     994:	00042823          	sw	x0,16(x8)
     998:	00042a23          	sw	x0,20(x8)
     99c:	00042c23          	sw	x0,24(x8)
     9a0:	00800613          	addi	x12,x0,8
     9a4:	00000593          	addi	x11,x0,0
     9a8:	05c40513          	addi	x10,x8,92
     9ac:	4e4010ef          	jal	x1,1e90 <memset>
     9b0:	02042823          	sw	x0,48(x8)
     9b4:	02042a23          	sw	x0,52(x8)
     9b8:	04042223          	sw	x0,68(x8)
     9bc:	04042423          	sw	x0,72(x8)
     9c0:	01c12083          	lw	x1,28(x2)
     9c4:	00040513          	addi	x10,x8,0
     9c8:	01812403          	lw	x8,24(x2)
     9cc:	01412483          	lw	x9,20(x2)
     9d0:	01012903          	lw	x18,16(x2)
     9d4:	00c12983          	lw	x19,12(x2)
     9d8:	02010113          	addi	x2,x2,32
     9dc:	00008067          	jalr	x0,0(x1)
     9e0:	00092403          	lw	x8,0(x18)
     9e4:	00040663          	beq	x8,x0,9f0 <__sfp+0xd0>
     9e8:	00040913          	addi	x18,x8,0
     9ec:	f65ff06f          	jal	x0,950 <__sfp+0x30>
     9f0:	1ac00593          	addi	x11,x0,428
     9f4:	00098513          	addi	x10,x19,0
     9f8:	6d0000ef          	jal	x1,10c8 <_malloc_r>
     9fc:	00050413          	addi	x8,x10,0
     a00:	02050c63          	beq	x10,x0,a38 <__sfp+0x118>
     a04:	00c50513          	addi	x10,x10,12
     a08:	00400793          	addi	x15,x0,4
     a0c:	00042023          	sw	x0,0(x8)
     a10:	00f42223          	sw	x15,4(x8)
     a14:	00a42423          	sw	x10,8(x8)
     a18:	1a000613          	addi	x12,x0,416
     a1c:	00000593          	addi	x11,x0,0
     a20:	470010ef          	jal	x1,1e90 <memset>
     a24:	00892023          	sw	x8,0(x18)
     a28:	00040913          	addi	x18,x8,0
     a2c:	f25ff06f          	jal	x0,950 <__sfp+0x30>
     a30:	d9dff0ef          	jal	x1,7cc <global_stdio_init.part.0>
     a34:	f11ff06f          	jal	x0,944 <__sfp+0x24>
     a38:	00092023          	sw	x0,0(x18)
     a3c:	00c00793          	addi	x15,x0,12
     a40:	00f9a023          	sw	x15,0(x19)
     a44:	f7dff06f          	jal	x0,9c0 <__sfp+0xa0>

00000a48 <__sinit>:
     a48:	03452783          	lw	x15,52(x10)
     a4c:	00078463          	beq	x15,x0,a54 <__sinit+0xc>
     a50:	00008067          	jalr	x0,0(x1)
     a54:	00000797          	auipc	x15,0x0
     a58:	d0c78793          	addi	x15,x15,-756 # 760 <cleanup_stdio>
     a5c:	02f52a23          	sw	x15,52(x10)
     a60:	f1c1a783          	lw	x15,-228(x3) # 12acc <__stdio_exit_handler>
     a64:	fe0796e3          	bne	x15,x0,a50 <__sinit+0x8>
     a68:	d65ff06f          	jal	x0,7cc <global_stdio_init.part.0>

00000a6c <__sfp_lock_acquire>:
     a6c:	00008067          	jalr	x0,0(x1)

00000a70 <__sfp_lock_release>:
     a70:	00008067          	jalr	x0,0(x1)

00000a74 <__fp_lock_all>:
     a74:	00012617          	auipc	x12,0x12
     a78:	93c60613          	addi	x12,x12,-1732 # 123b0 <__sglue>
     a7c:	00000597          	auipc	x11,0x0
     a80:	cc458593          	addi	x11,x11,-828 # 740 <__fp_lock>
     a84:	00000513          	addi	x10,x0,0
     a88:	4e40106f          	jal	x0,1f6c <_fwalk_sglue>

00000a8c <__fp_unlock_all>:
     a8c:	00012617          	auipc	x12,0x12
     a90:	92460613          	addi	x12,x12,-1756 # 123b0 <__sglue>
     a94:	00000597          	auipc	x11,0x0
     a98:	d3058593          	addi	x11,x11,-720 # 7c4 <__fp_unlock>
     a9c:	00000513          	addi	x10,x0,0
     aa0:	4cc0106f          	jal	x0,1f6c <_fwalk_sglue>

00000aa4 <__sfvwrite_r>:
     aa4:	00862783          	lw	x15,8(x12)
     aa8:	2c078463          	beq	x15,x0,d70 <__sfvwrite_r+0x2cc>
     aac:	00c59683          	lh	x13,12(x11)
     ab0:	fd010113          	addi	x2,x2,-48
     ab4:	02812423          	sw	x8,40(x2)
     ab8:	01412c23          	sw	x20,24(x2)
     abc:	01612823          	sw	x22,16(x2)
     ac0:	02112623          	sw	x1,44(x2)
     ac4:	0086f793          	andi	x15,x13,8
     ac8:	00060b13          	addi	x22,x12,0
     acc:	00050a13          	addi	x20,x10,0
     ad0:	00058413          	addi	x8,x11,0
     ad4:	08078e63          	beq	x15,x0,b70 <__sfvwrite_r+0xcc>
     ad8:	0105a783          	lw	x15,16(x11)
     adc:	08078a63          	beq	x15,x0,b70 <__sfvwrite_r+0xcc>
     ae0:	02912223          	sw	x9,36(x2)
     ae4:	03212023          	sw	x18,32(x2)
     ae8:	01312e23          	sw	x19,28(x2)
     aec:	01512a23          	sw	x21,20(x2)
     af0:	0026f793          	andi	x15,x13,2
     af4:	000b2483          	lw	x9,0(x22)
     af8:	0a078463          	beq	x15,x0,ba0 <__sfvwrite_r+0xfc>
     afc:	02442783          	lw	x15,36(x8)
     b00:	01c42583          	lw	x11,28(x8)
     b04:	80000ab7          	lui	x21,0x80000
     b08:	00000993          	addi	x19,x0,0
     b0c:	00000913          	addi	x18,x0,0
     b10:	c00a8a93          	addi	x21,x21,-1024 # 7ffffc00 <__heap_end+0x7fbffc00>
     b14:	00098613          	addi	x12,x19,0
     b18:	000a0513          	addi	x10,x20,0
     b1c:	04090263          	beq	x18,x0,b60 <__sfvwrite_r+0xbc>
     b20:	00090693          	addi	x13,x18,0
     b24:	012af463          	bgeu	x21,x18,b2c <__sfvwrite_r+0x88>
     b28:	000a8693          	addi	x13,x21,0
     b2c:	000780e7          	jalr	x1,0(x15)
     b30:	46a05063          	bge	x0,x10,f90 <__sfvwrite_r+0x4ec>
     b34:	008b2783          	lw	x15,8(x22)
     b38:	00a989b3          	add	x19,x19,x10
     b3c:	40a90933          	sub	x18,x18,x10
     b40:	40a787b3          	sub	x15,x15,x10
     b44:	00fb2423          	sw	x15,8(x22)
     b48:	1a078663          	beq	x15,x0,cf4 <__sfvwrite_r+0x250>
     b4c:	02442783          	lw	x15,36(x8)
     b50:	01c42583          	lw	x11,28(x8)
     b54:	00098613          	addi	x12,x19,0
     b58:	000a0513          	addi	x10,x20,0
     b5c:	fc0912e3          	bne	x18,x0,b20 <__sfvwrite_r+0x7c>
     b60:	0004a983          	lw	x19,0(x9)
     b64:	0044a903          	lw	x18,4(x9)
     b68:	00848493          	addi	x9,x9,8
     b6c:	fa9ff06f          	jal	x0,b14 <__sfvwrite_r+0x70>
     b70:	00040593          	addi	x11,x8,0
     b74:	000a0513          	addi	x10,x20,0
     b78:	621010ef          	jal	x1,2998 <__swsetup_r>
     b7c:	1c051c63          	bne	x10,x0,d54 <__sfvwrite_r+0x2b0>
     b80:	00c41683          	lh	x13,12(x8)
     b84:	02912223          	sw	x9,36(x2)
     b88:	03212023          	sw	x18,32(x2)
     b8c:	01312e23          	sw	x19,28(x2)
     b90:	01512a23          	sw	x21,20(x2)
     b94:	0026f793          	andi	x15,x13,2
     b98:	000b2483          	lw	x9,0(x22)
     b9c:	f60790e3          	bne	x15,x0,afc <__sfvwrite_r+0x58>
     ba0:	01712623          	sw	x23,12(x2)
     ba4:	01812423          	sw	x24,8(x2)
     ba8:	0016f793          	andi	x15,x13,1
     bac:	1c079663          	bne	x15,x0,d78 <__sfvwrite_r+0x2d4>
     bb0:	00042783          	lw	x15,0(x8)
     bb4:	00842703          	lw	x14,8(x8)
     bb8:	80000ab7          	lui	x21,0x80000
     bbc:	01912223          	sw	x25,4(x2)
     bc0:	00000b93          	addi	x23,x0,0
     bc4:	00000993          	addi	x19,x0,0
     bc8:	fffa8a93          	addi	x21,x21,-1 # 7fffffff <__heap_end+0x7fbfffff>
     bcc:	00078513          	addi	x10,x15,0
     bd0:	00070c13          	addi	x24,x14,0
     bd4:	10098263          	beq	x19,x0,cd8 <__sfvwrite_r+0x234>
     bd8:	2006f613          	andi	x12,x13,512
     bdc:	28060863          	beq	x12,x0,e6c <__sfvwrite_r+0x3c8>
     be0:	00070c93          	addi	x25,x14,0
     be4:	32e9e663          	bltu	x19,x14,f10 <__sfvwrite_r+0x46c>
     be8:	4806f713          	andi	x14,x13,1152
     bec:	08070a63          	beq	x14,x0,c80 <__sfvwrite_r+0x1dc>
     bf0:	01442603          	lw	x12,20(x8)
     bf4:	01042583          	lw	x11,16(x8)
     bf8:	00161713          	slli	x14,x12,0x1
     bfc:	00c70733          	add	x14,x14,x12
     c00:	40b78933          	sub	x18,x15,x11
     c04:	01f75c13          	srli	x24,x14,0x1f
     c08:	00ec0c33          	add	x24,x24,x14
     c0c:	00190793          	addi	x15,x18,1
     c10:	401c5c13          	srai	x24,x24,0x1
     c14:	013787b3          	add	x15,x15,x19
     c18:	000c0613          	addi	x12,x24,0
     c1c:	00fc7663          	bgeu	x24,x15,c28 <__sfvwrite_r+0x184>
     c20:	00078c13          	addi	x24,x15,0
     c24:	00078613          	addi	x12,x15,0
     c28:	4006f693          	andi	x13,x13,1024
     c2c:	30068e63          	beq	x13,x0,f48 <__sfvwrite_r+0x4a4>
     c30:	00060593          	addi	x11,x12,0
     c34:	000a0513          	addi	x10,x20,0
     c38:	490000ef          	jal	x1,10c8 <_malloc_r>
     c3c:	00050c93          	addi	x25,x10,0
     c40:	34050c63          	beq	x10,x0,f98 <__sfvwrite_r+0x4f4>
     c44:	01042583          	lw	x11,16(x8)
     c48:	00090613          	addi	x12,x18,0
     c4c:	791040ef          	jal	x1,5bdc <memcpy>
     c50:	00c45783          	lhu	x15,12(x8)
     c54:	b7f7f793          	andi	x15,x15,-1153
     c58:	0807e793          	ori	x15,x15,128
     c5c:	00f41623          	sh	x15,12(x8)
     c60:	012c8533          	add	x10,x25,x18
     c64:	412c07b3          	sub	x15,x24,x18
     c68:	01942823          	sw	x25,16(x8)
     c6c:	01842a23          	sw	x24,20(x8)
     c70:	00a42023          	sw	x10,0(x8)
     c74:	00098c13          	addi	x24,x19,0
     c78:	00f42423          	sw	x15,8(x8)
     c7c:	00098c93          	addi	x25,x19,0
     c80:	000c8613          	addi	x12,x25,0
     c84:	000b8593          	addi	x11,x23,0
     c88:	0f8050ef          	jal	x1,5d80 <memmove>
     c8c:	00842703          	lw	x14,8(x8)
     c90:	00042783          	lw	x15,0(x8)
     c94:	00098913          	addi	x18,x19,0
     c98:	41870733          	sub	x14,x14,x24
     c9c:	019787b3          	add	x15,x15,x25
     ca0:	00e42423          	sw	x14,8(x8)
     ca4:	00f42023          	sw	x15,0(x8)
     ca8:	00000993          	addi	x19,x0,0
     cac:	008b2783          	lw	x15,8(x22)
     cb0:	012b8bb3          	add	x23,x23,x18
     cb4:	412787b3          	sub	x15,x15,x18
     cb8:	00fb2423          	sw	x15,8(x22)
     cbc:	02078663          	beq	x15,x0,ce8 <__sfvwrite_r+0x244>
     cc0:	00042783          	lw	x15,0(x8)
     cc4:	00842703          	lw	x14,8(x8)
     cc8:	00c41683          	lh	x13,12(x8)
     ccc:	00078513          	addi	x10,x15,0
     cd0:	00070c13          	addi	x24,x14,0
     cd4:	f00992e3          	bne	x19,x0,bd8 <__sfvwrite_r+0x134>
     cd8:	0004ab83          	lw	x23,0(x9)
     cdc:	0044a983          	lw	x19,4(x9)
     ce0:	00848493          	addi	x9,x9,8
     ce4:	ee9ff06f          	jal	x0,bcc <__sfvwrite_r+0x128>
     ce8:	00c12b83          	lw	x23,12(x2)
     cec:	00812c03          	lw	x24,8(x2)
     cf0:	00412c83          	lw	x25,4(x2)
     cf4:	02c12083          	lw	x1,44(x2)
     cf8:	02812403          	lw	x8,40(x2)
     cfc:	02412483          	lw	x9,36(x2)
     d00:	02012903          	lw	x18,32(x2)
     d04:	01c12983          	lw	x19,28(x2)
     d08:	01412a83          	lw	x21,20(x2)
     d0c:	01812a03          	lw	x20,24(x2)
     d10:	01012b03          	lw	x22,16(x2)
     d14:	00000513          	addi	x10,x0,0
     d18:	03010113          	addi	x2,x2,48
     d1c:	00008067          	jalr	x0,0(x1)
     d20:	00040593          	addi	x11,x8,0
     d24:	000a0513          	addi	x10,x20,0
     d28:	2b5010ef          	jal	x1,27dc <_fflush_r>
     d2c:	0a050e63          	beq	x10,x0,de8 <__sfvwrite_r+0x344>
     d30:	00c41783          	lh	x15,12(x8)
     d34:	00c12b83          	lw	x23,12(x2)
     d38:	00812c03          	lw	x24,8(x2)
     d3c:	02412483          	lw	x9,36(x2)
     d40:	02012903          	lw	x18,32(x2)
     d44:	01c12983          	lw	x19,28(x2)
     d48:	01412a83          	lw	x21,20(x2)
     d4c:	0407e793          	ori	x15,x15,64
     d50:	00f41623          	sh	x15,12(x8)
     d54:	02c12083          	lw	x1,44(x2)
     d58:	02812403          	lw	x8,40(x2)
     d5c:	01812a03          	lw	x20,24(x2)
     d60:	01012b03          	lw	x22,16(x2)
     d64:	fff00513          	addi	x10,x0,-1
     d68:	03010113          	addi	x2,x2,48
     d6c:	00008067          	jalr	x0,0(x1)
     d70:	00000513          	addi	x10,x0,0
     d74:	00008067          	jalr	x0,0(x1)
     d78:	00000a93          	addi	x21,x0,0
     d7c:	00000513          	addi	x10,x0,0
     d80:	00000c13          	addi	x24,x0,0
     d84:	00000993          	addi	x19,x0,0
     d88:	08098263          	beq	x19,x0,e0c <__sfvwrite_r+0x368>
     d8c:	08050a63          	beq	x10,x0,e20 <__sfvwrite_r+0x37c>
     d90:	000a8793          	addi	x15,x21,0
     d94:	00098b93          	addi	x23,x19,0
     d98:	0137f463          	bgeu	x15,x19,da0 <__sfvwrite_r+0x2fc>
     d9c:	00078b93          	addi	x23,x15,0
     da0:	00042503          	lw	x10,0(x8)
     da4:	01042783          	lw	x15,16(x8)
     da8:	00842903          	lw	x18,8(x8)
     dac:	01442683          	lw	x13,20(x8)
     db0:	00a7f663          	bgeu	x15,x10,dbc <__sfvwrite_r+0x318>
     db4:	00d90933          	add	x18,x18,x13
     db8:	09794463          	blt	x18,x23,e40 <__sfvwrite_r+0x39c>
     dbc:	16dbc063          	blt	x23,x13,f1c <__sfvwrite_r+0x478>
     dc0:	02442783          	lw	x15,36(x8)
     dc4:	01c42583          	lw	x11,28(x8)
     dc8:	000c0613          	addi	x12,x24,0
     dcc:	000a0513          	addi	x10,x20,0
     dd0:	000780e7          	jalr	x1,0(x15)
     dd4:	00050913          	addi	x18,x10,0
     dd8:	f4a05ce3          	bge	x0,x10,d30 <__sfvwrite_r+0x28c>
     ddc:	412a8ab3          	sub	x21,x21,x18
     de0:	00100513          	addi	x10,x0,1
     de4:	f20a8ee3          	beq	x21,x0,d20 <__sfvwrite_r+0x27c>
     de8:	008b2783          	lw	x15,8(x22)
     dec:	012c0c33          	add	x24,x24,x18
     df0:	412989b3          	sub	x19,x19,x18
     df4:	412787b3          	sub	x15,x15,x18
     df8:	00fb2423          	sw	x15,8(x22)
     dfc:	f80796e3          	bne	x15,x0,d88 <__sfvwrite_r+0x2e4>
     e00:	00c12b83          	lw	x23,12(x2)
     e04:	00812c03          	lw	x24,8(x2)
     e08:	eedff06f          	jal	x0,cf4 <__sfvwrite_r+0x250>
     e0c:	0044a983          	lw	x19,4(x9)
     e10:	00048793          	addi	x15,x9,0
     e14:	00848493          	addi	x9,x9,8
     e18:	fe098ae3          	beq	x19,x0,e0c <__sfvwrite_r+0x368>
     e1c:	0007ac03          	lw	x24,0(x15)
     e20:	00098613          	addi	x12,x19,0
     e24:	00a00593          	addi	x11,x0,10
     e28:	000c0513          	addi	x10,x24,0
     e2c:	7a1000ef          	jal	x1,1dcc <memchr>
     e30:	14050a63          	beq	x10,x0,f84 <__sfvwrite_r+0x4e0>
     e34:	00150513          	addi	x10,x10,1
     e38:	41850ab3          	sub	x21,x10,x24
     e3c:	f55ff06f          	jal	x0,d90 <__sfvwrite_r+0x2ec>
     e40:	000c0593          	addi	x11,x24,0
     e44:	00090613          	addi	x12,x18,0
     e48:	739040ef          	jal	x1,5d80 <memmove>
     e4c:	00042783          	lw	x15,0(x8)
     e50:	00040593          	addi	x11,x8,0
     e54:	000a0513          	addi	x10,x20,0
     e58:	012787b3          	add	x15,x15,x18
     e5c:	00f42023          	sw	x15,0(x8)
     e60:	17d010ef          	jal	x1,27dc <_fflush_r>
     e64:	f6050ce3          	beq	x10,x0,ddc <__sfvwrite_r+0x338>
     e68:	ec9ff06f          	jal	x0,d30 <__sfvwrite_r+0x28c>
     e6c:	01042683          	lw	x13,16(x8)
     e70:	04f6e263          	bltu	x13,x15,eb4 <__sfvwrite_r+0x410>
     e74:	01442603          	lw	x12,20(x8)
     e78:	02c9ee63          	bltu	x19,x12,eb4 <__sfvwrite_r+0x410>
     e7c:	00098793          	addi	x15,x19,0
     e80:	013af463          	bgeu	x21,x19,e88 <__sfvwrite_r+0x3e4>
     e84:	000a8793          	addi	x15,x21,0
     e88:	02c7e6b3          	rem	x13,x15,x12
     e8c:	02442703          	lw	x14,36(x8)
     e90:	01c42583          	lw	x11,28(x8)
     e94:	000b8613          	addi	x12,x23,0
     e98:	000a0513          	addi	x10,x20,0
     e9c:	40d786b3          	sub	x13,x15,x13
     ea0:	000700e7          	jalr	x1,0(x14)
     ea4:	00050913          	addi	x18,x10,0
     ea8:	04a05a63          	bge	x0,x10,efc <__sfvwrite_r+0x458>
     eac:	412989b3          	sub	x19,x19,x18
     eb0:	dfdff06f          	jal	x0,cac <__sfvwrite_r+0x208>
     eb4:	00070913          	addi	x18,x14,0
     eb8:	00e9f463          	bgeu	x19,x14,ec0 <__sfvwrite_r+0x41c>
     ebc:	00098913          	addi	x18,x19,0
     ec0:	00078513          	addi	x10,x15,0
     ec4:	00090613          	addi	x12,x18,0
     ec8:	000b8593          	addi	x11,x23,0
     ecc:	6b5040ef          	jal	x1,5d80 <memmove>
     ed0:	00842703          	lw	x14,8(x8)
     ed4:	00042783          	lw	x15,0(x8)
     ed8:	41270733          	sub	x14,x14,x18
     edc:	012787b3          	add	x15,x15,x18
     ee0:	00e42423          	sw	x14,8(x8)
     ee4:	00f42023          	sw	x15,0(x8)
     ee8:	fc0712e3          	bne	x14,x0,eac <__sfvwrite_r+0x408>
     eec:	00040593          	addi	x11,x8,0
     ef0:	000a0513          	addi	x10,x20,0
     ef4:	0e9010ef          	jal	x1,27dc <_fflush_r>
     ef8:	fa050ae3          	beq	x10,x0,eac <__sfvwrite_r+0x408>
     efc:	00c41783          	lh	x15,12(x8)
     f00:	00c12b83          	lw	x23,12(x2)
     f04:	00812c03          	lw	x24,8(x2)
     f08:	00412c83          	lw	x25,4(x2)
     f0c:	e31ff06f          	jal	x0,d3c <__sfvwrite_r+0x298>
     f10:	00098c13          	addi	x24,x19,0
     f14:	00098c93          	addi	x25,x19,0
     f18:	d69ff06f          	jal	x0,c80 <__sfvwrite_r+0x1dc>
     f1c:	000b8613          	addi	x12,x23,0
     f20:	000c0593          	addi	x11,x24,0
     f24:	65d040ef          	jal	x1,5d80 <memmove>
     f28:	00842703          	lw	x14,8(x8)
     f2c:	00042783          	lw	x15,0(x8)
     f30:	000b8913          	addi	x18,x23,0
     f34:	41770733          	sub	x14,x14,x23
     f38:	017787b3          	add	x15,x15,x23
     f3c:	00e42423          	sw	x14,8(x8)
     f40:	00f42023          	sw	x15,0(x8)
     f44:	e99ff06f          	jal	x0,ddc <__sfvwrite_r+0x338>
     f48:	000a0513          	addi	x10,x20,0
     f4c:	0d4010ef          	jal	x1,2020 <_realloc_r>
     f50:	00050c93          	addi	x25,x10,0
     f54:	d00516e3          	bne	x10,x0,c60 <__sfvwrite_r+0x1bc>
     f58:	01042583          	lw	x11,16(x8)
     f5c:	000a0513          	addi	x10,x20,0
     f60:	2c1000ef          	jal	x1,1a20 <_free_r>
     f64:	00c41783          	lh	x15,12(x8)
     f68:	00c00713          	addi	x14,x0,12
     f6c:	00c12b83          	lw	x23,12(x2)
     f70:	00812c03          	lw	x24,8(x2)
     f74:	00412c83          	lw	x25,4(x2)
     f78:	00ea2023          	sw	x14,0(x20)
     f7c:	f7f7f793          	andi	x15,x15,-129
     f80:	dbdff06f          	jal	x0,d3c <__sfvwrite_r+0x298>
     f84:	00198793          	addi	x15,x19,1
     f88:	00078a93          	addi	x21,x15,0
     f8c:	e09ff06f          	jal	x0,d94 <__sfvwrite_r+0x2f0>
     f90:	00c41783          	lh	x15,12(x8)
     f94:	da9ff06f          	jal	x0,d3c <__sfvwrite_r+0x298>
     f98:	00c00713          	addi	x14,x0,12
     f9c:	00c41783          	lh	x15,12(x8)
     fa0:	00c12b83          	lw	x23,12(x2)
     fa4:	00812c03          	lw	x24,8(x2)
     fa8:	00412c83          	lw	x25,4(x2)
     fac:	00ea2023          	sw	x14,0(x20)
     fb0:	d8dff06f          	jal	x0,d3c <__sfvwrite_r+0x298>

00000fb4 <_fclose_r>:
     fb4:	ff010113          	addi	x2,x2,-16
     fb8:	00112623          	sw	x1,12(x2)
     fbc:	01212023          	sw	x18,0(x2)
     fc0:	02058863          	beq	x11,x0,ff0 <_fclose_r+0x3c>
     fc4:	00812423          	sw	x8,8(x2)
     fc8:	00912223          	sw	x9,4(x2)
     fcc:	00058413          	addi	x8,x11,0
     fd0:	00050493          	addi	x9,x10,0
     fd4:	00050663          	beq	x10,x0,fe0 <_fclose_r+0x2c>
     fd8:	03452783          	lw	x15,52(x10)
     fdc:	0c078c63          	beq	x15,x0,10b4 <_fclose_r+0x100>
     fe0:	00c41783          	lh	x15,12(x8)
     fe4:	02079263          	bne	x15,x0,1008 <_fclose_r+0x54>
     fe8:	00812403          	lw	x8,8(x2)
     fec:	00412483          	lw	x9,4(x2)
     ff0:	00c12083          	lw	x1,12(x2)
     ff4:	00000913          	addi	x18,x0,0
     ff8:	00090513          	addi	x10,x18,0
     ffc:	00012903          	lw	x18,0(x2)
    1000:	01010113          	addi	x2,x2,16
    1004:	00008067          	jalr	x0,0(x1)
    1008:	00040593          	addi	x11,x8,0
    100c:	00048513          	addi	x10,x9,0
    1010:	580010ef          	jal	x1,2590 <__sflush_r>
    1014:	02c42783          	lw	x15,44(x8)
    1018:	00050913          	addi	x18,x10,0
    101c:	00078a63          	beq	x15,x0,1030 <_fclose_r+0x7c>
    1020:	01c42583          	lw	x11,28(x8)
    1024:	00048513          	addi	x10,x9,0
    1028:	000780e7          	jalr	x1,0(x15)
    102c:	06054463          	blt	x10,x0,1094 <_fclose_r+0xe0>
    1030:	00c45783          	lhu	x15,12(x8)
    1034:	0807f793          	andi	x15,x15,128
    1038:	06079663          	bne	x15,x0,10a4 <_fclose_r+0xf0>
    103c:	03042583          	lw	x11,48(x8)
    1040:	00058c63          	beq	x11,x0,1058 <_fclose_r+0xa4>
    1044:	04040793          	addi	x15,x8,64
    1048:	00f58663          	beq	x11,x15,1054 <_fclose_r+0xa0>
    104c:	00048513          	addi	x10,x9,0
    1050:	1d1000ef          	jal	x1,1a20 <_free_r>
    1054:	02042823          	sw	x0,48(x8)
    1058:	04442583          	lw	x11,68(x8)
    105c:	00058863          	beq	x11,x0,106c <_fclose_r+0xb8>
    1060:	00048513          	addi	x10,x9,0
    1064:	1bd000ef          	jal	x1,1a20 <_free_r>
    1068:	04042223          	sw	x0,68(x8)
    106c:	a01ff0ef          	jal	x1,a6c <__sfp_lock_acquire>
    1070:	00041623          	sh	x0,12(x8)
    1074:	9fdff0ef          	jal	x1,a70 <__sfp_lock_release>
    1078:	00c12083          	lw	x1,12(x2)
    107c:	00812403          	lw	x8,8(x2)
    1080:	00412483          	lw	x9,4(x2)
    1084:	00090513          	addi	x10,x18,0
    1088:	00012903          	lw	x18,0(x2)
    108c:	01010113          	addi	x2,x2,16
    1090:	00008067          	jalr	x0,0(x1)
    1094:	00c45783          	lhu	x15,12(x8)
    1098:	fff00913          	addi	x18,x0,-1
    109c:	0807f793          	andi	x15,x15,128
    10a0:	f8078ee3          	beq	x15,x0,103c <_fclose_r+0x88>
    10a4:	01042583          	lw	x11,16(x8)
    10a8:	00048513          	addi	x10,x9,0
    10ac:	175000ef          	jal	x1,1a20 <_free_r>
    10b0:	f8dff06f          	jal	x0,103c <_fclose_r+0x88>
    10b4:	995ff0ef          	jal	x1,a48 <__sinit>
    10b8:	f29ff06f          	jal	x0,fe0 <_fclose_r+0x2c>

000010bc <fclose>:
    10bc:	00050593          	addi	x11,x10,0
    10c0:	f141a503          	lw	x10,-236(x3) # 12ac4 <_impure_ptr>
    10c4:	ef1ff06f          	jal	x0,fb4 <_fclose_r>

000010c8 <_malloc_r>:
    10c8:	fd010113          	addi	x2,x2,-48
    10cc:	03212023          	sw	x18,32(x2)
    10d0:	02112623          	sw	x1,44(x2)
    10d4:	02812423          	sw	x8,40(x2)
    10d8:	02912223          	sw	x9,36(x2)
    10dc:	01312e23          	sw	x19,28(x2)
    10e0:	00b58793          	addi	x15,x11,11
    10e4:	01600713          	addi	x14,x0,22
    10e8:	00050913          	addi	x18,x10,0
    10ec:	08f76263          	bltu	x14,x15,1170 <_malloc_r+0xa8>
    10f0:	01000793          	addi	x15,x0,16
    10f4:	20b7e463          	bltu	x15,x11,12fc <_malloc_r+0x234>
    10f8:	7c4010ef          	jal	x1,28bc <__malloc_lock>
    10fc:	01800793          	addi	x15,x0,24
    1100:	00200593          	addi	x11,x0,2
    1104:	01000493          	addi	x9,x0,16
    1108:	00011997          	auipc	x19,0x11
    110c:	2b498993          	addi	x19,x19,692 # 123bc <__malloc_av_>
    1110:	00f987b3          	add	x15,x19,x15
    1114:	0047a403          	lw	x8,4(x15)
    1118:	ff878713          	addi	x14,x15,-8
    111c:	34e40863          	beq	x8,x14,146c <_malloc_r+0x3a4>
    1120:	00442783          	lw	x15,4(x8)
    1124:	00c42683          	lw	x13,12(x8)
    1128:	00842603          	lw	x12,8(x8)
    112c:	ffc7f793          	andi	x15,x15,-4
    1130:	00f407b3          	add	x15,x8,x15
    1134:	0047a703          	lw	x14,4(x15)
    1138:	00d62623          	sw	x13,12(x12)
    113c:	00c6a423          	sw	x12,8(x13)
    1140:	00176713          	ori	x14,x14,1
    1144:	00090513          	addi	x10,x18,0
    1148:	00e7a223          	sw	x14,4(x15)
    114c:	774010ef          	jal	x1,28c0 <__malloc_unlock>
    1150:	00840513          	addi	x10,x8,8
    1154:	02c12083          	lw	x1,44(x2)
    1158:	02812403          	lw	x8,40(x2)
    115c:	02412483          	lw	x9,36(x2)
    1160:	02012903          	lw	x18,32(x2)
    1164:	01c12983          	lw	x19,28(x2)
    1168:	03010113          	addi	x2,x2,48
    116c:	00008067          	jalr	x0,0(x1)
    1170:	ff87f493          	andi	x9,x15,-8
    1174:	1807c463          	blt	x15,x0,12fc <_malloc_r+0x234>
    1178:	18b4e263          	bltu	x9,x11,12fc <_malloc_r+0x234>
    117c:	740010ef          	jal	x1,28bc <__malloc_lock>
    1180:	1f700793          	addi	x15,x0,503
    1184:	3e97fe63          	bgeu	x15,x9,1580 <_malloc_r+0x4b8>
    1188:	0094d793          	srli	x15,x9,0x9
    118c:	18078063          	beq	x15,x0,130c <_malloc_r+0x244>
    1190:	00400713          	addi	x14,x0,4
    1194:	34f76463          	bltu	x14,x15,14dc <_malloc_r+0x414>
    1198:	0064d793          	srli	x15,x9,0x6
    119c:	03978593          	addi	x11,x15,57
    11a0:	03878813          	addi	x16,x15,56
    11a4:	00359613          	slli	x12,x11,0x3
    11a8:	00011997          	auipc	x19,0x11
    11ac:	21498993          	addi	x19,x19,532 # 123bc <__malloc_av_>
    11b0:	00c98633          	add	x12,x19,x12
    11b4:	00462403          	lw	x8,4(x12)
    11b8:	ff860613          	addi	x12,x12,-8
    11bc:	02860863          	beq	x12,x8,11ec <_malloc_r+0x124>
    11c0:	00f00513          	addi	x10,x0,15
    11c4:	0140006f          	jal	x0,11d8 <_malloc_r+0x110>
    11c8:	00c42683          	lw	x13,12(x8)
    11cc:	28075c63          	bge	x14,x0,1464 <_malloc_r+0x39c>
    11d0:	00d60e63          	beq	x12,x13,11ec <_malloc_r+0x124>
    11d4:	00068413          	addi	x8,x13,0
    11d8:	00442783          	lw	x15,4(x8)
    11dc:	ffc7f793          	andi	x15,x15,-4
    11e0:	40978733          	sub	x14,x15,x9
    11e4:	fee552e3          	bge	x10,x14,11c8 <_malloc_r+0x100>
    11e8:	00080593          	addi	x11,x16,0
    11ec:	0109a403          	lw	x8,16(x19)
    11f0:	81418893          	addi	x17,x3,-2028 # 123c4 <__malloc_av_+0x8>
    11f4:	27140463          	beq	x8,x17,145c <_malloc_r+0x394>
    11f8:	00442783          	lw	x15,4(x8)
    11fc:	00f00693          	addi	x13,x0,15
    1200:	ffc7f793          	andi	x15,x15,-4
    1204:	40978733          	sub	x14,x15,x9
    1208:	38e6c263          	blt	x13,x14,158c <_malloc_r+0x4c4>
    120c:	0119aa23          	sw	x17,20(x19)
    1210:	0119a823          	sw	x17,16(x19)
    1214:	34075663          	bge	x14,x0,1560 <_malloc_r+0x498>
    1218:	1ff00713          	addi	x14,x0,511
    121c:	0049a503          	lw	x10,4(x19)
    1220:	24f76e63          	bltu	x14,x15,147c <_malloc_r+0x3b4>
    1224:	ff87f713          	andi	x14,x15,-8
    1228:	00870713          	addi	x14,x14,8
    122c:	00e98733          	add	x14,x19,x14
    1230:	00072683          	lw	x13,0(x14)
    1234:	0057d613          	srli	x12,x15,0x5
    1238:	00100793          	addi	x15,x0,1
    123c:	00c797b3          	sll	x15,x15,x12
    1240:	00f56533          	or	x10,x10,x15
    1244:	ff870793          	addi	x15,x14,-8
    1248:	00f42623          	sw	x15,12(x8)
    124c:	00d42423          	sw	x13,8(x8)
    1250:	00a9a223          	sw	x10,4(x19)
    1254:	00872023          	sw	x8,0(x14)
    1258:	0086a623          	sw	x8,12(x13)
    125c:	4025d793          	srai	x15,x11,0x2
    1260:	00100613          	addi	x12,x0,1
    1264:	00f61633          	sll	x12,x12,x15
    1268:	0ac56a63          	bltu	x10,x12,131c <_malloc_r+0x254>
    126c:	00a677b3          	and	x15,x12,x10
    1270:	02079463          	bne	x15,x0,1298 <_malloc_r+0x1d0>
    1274:	00161613          	slli	x12,x12,0x1
    1278:	ffc5f593          	andi	x11,x11,-4
    127c:	00a677b3          	and	x15,x12,x10
    1280:	00458593          	addi	x11,x11,4
    1284:	00079a63          	bne	x15,x0,1298 <_malloc_r+0x1d0>
    1288:	00161613          	slli	x12,x12,0x1
    128c:	00a677b3          	and	x15,x12,x10
    1290:	00458593          	addi	x11,x11,4
    1294:	fe078ae3          	beq	x15,x0,1288 <_malloc_r+0x1c0>
    1298:	00f00813          	addi	x16,x0,15
    129c:	00359313          	slli	x6,x11,0x3
    12a0:	00698333          	add	x6,x19,x6
    12a4:	00030513          	addi	x10,x6,0
    12a8:	00c52783          	lw	x15,12(x10)
    12ac:	00058e13          	addi	x28,x11,0
    12b0:	24f50863          	beq	x10,x15,1500 <_malloc_r+0x438>
    12b4:	0047a703          	lw	x14,4(x15)
    12b8:	00078413          	addi	x8,x15,0
    12bc:	00c7a783          	lw	x15,12(x15)
    12c0:	ffc77713          	andi	x14,x14,-4
    12c4:	409706b3          	sub	x13,x14,x9
    12c8:	24d84863          	blt	x16,x13,1518 <_malloc_r+0x450>
    12cc:	fe06c2e3          	blt	x13,x0,12b0 <_malloc_r+0x1e8>
    12d0:	00e40733          	add	x14,x8,x14
    12d4:	00472683          	lw	x13,4(x14)
    12d8:	00842603          	lw	x12,8(x8)
    12dc:	00090513          	addi	x10,x18,0
    12e0:	0016e693          	ori	x13,x13,1
    12e4:	00d72223          	sw	x13,4(x14)
    12e8:	00f62623          	sw	x15,12(x12)
    12ec:	00c7a423          	sw	x12,8(x15)
    12f0:	5d0010ef          	jal	x1,28c0 <__malloc_unlock>
    12f4:	00840513          	addi	x10,x8,8
    12f8:	e5dff06f          	jal	x0,1154 <_malloc_r+0x8c>
    12fc:	00c00793          	addi	x15,x0,12
    1300:	00f92023          	sw	x15,0(x18)
    1304:	00000513          	addi	x10,x0,0
    1308:	e4dff06f          	jal	x0,1154 <_malloc_r+0x8c>
    130c:	20000613          	addi	x12,x0,512
    1310:	04000593          	addi	x11,x0,64
    1314:	03f00813          	addi	x16,x0,63
    1318:	e91ff06f          	jal	x0,11a8 <_malloc_r+0xe0>
    131c:	0089a403          	lw	x8,8(x19)
    1320:	01612823          	sw	x22,16(x2)
    1324:	00442783          	lw	x15,4(x8)
    1328:	ffc7fb13          	andi	x22,x15,-4
    132c:	009b6863          	bltu	x22,x9,133c <_malloc_r+0x274>
    1330:	409b0733          	sub	x14,x22,x9
    1334:	00f00793          	addi	x15,x0,15
    1338:	0ee7c063          	blt	x15,x14,1418 <_malloc_r+0x350>
    133c:	01912223          	sw	x25,4(x2)
    1340:	f0c18c93          	addi	x25,x3,-244 # 12abc <__malloc_sbrk_base>
    1344:	000ca703          	lw	x14,0(x25)
    1348:	01412c23          	sw	x20,24(x2)
    134c:	01512a23          	sw	x21,20(x2)
    1350:	01712623          	sw	x23,12(x2)
    1354:	f281aa83          	lw	x21,-216(x3) # 12ad8 <__malloc_top_pad>
    1358:	fff00793          	addi	x15,x0,-1
    135c:	01640a33          	add	x20,x8,x22
    1360:	01548ab3          	add	x21,x9,x21
    1364:	3cf70a63          	beq	x14,x15,1738 <_malloc_r+0x670>
    1368:	000017b7          	lui	x15,0x1
    136c:	00f78793          	addi	x15,x15,15 # 100f <_fclose_r+0x5b>
    1370:	00fa8ab3          	add	x21,x21,x15
    1374:	fffff7b7          	lui	x15,0xfffff
    1378:	00fafab3          	and	x21,x21,x15
    137c:	000a8593          	addi	x11,x21,0
    1380:	00090513          	addi	x10,x18,0
    1384:	1b8060ef          	jal	x1,753c <_sbrk_r>
    1388:	fff00793          	addi	x15,x0,-1
    138c:	00050b93          	addi	x23,x10,0
    1390:	44f50e63          	beq	x10,x15,17ec <_malloc_r+0x724>
    1394:	01812423          	sw	x24,8(x2)
    1398:	25456263          	bltu	x10,x20,15dc <_malloc_r+0x514>
    139c:	06c18c13          	addi	x24,x3,108 # 12c1c <__malloc_current_mallinfo>
    13a0:	000c2583          	lw	x11,0(x24)
    13a4:	00ba85b3          	add	x11,x21,x11
    13a8:	00bc2023          	sw	x11,0(x24)
    13ac:	00058713          	addi	x14,x11,0
    13b0:	2aaa1a63          	bne	x20,x10,1664 <_malloc_r+0x59c>
    13b4:	01451793          	slli	x15,x10,0x14
    13b8:	2a079663          	bne	x15,x0,1664 <_malloc_r+0x59c>
    13bc:	0089ab83          	lw	x23,8(x19)
    13c0:	015b07b3          	add	x15,x22,x21
    13c4:	0017e793          	ori	x15,x15,1
    13c8:	00fba223          	sw	x15,4(x23)
    13cc:	f2418713          	addi	x14,x3,-220 # 12ad4 <__malloc_max_sbrked_mem>
    13d0:	00072683          	lw	x13,0(x14)
    13d4:	00b6f463          	bgeu	x13,x11,13dc <_malloc_r+0x314>
    13d8:	00b72023          	sw	x11,0(x14)
    13dc:	f2018713          	addi	x14,x3,-224 # 12ad0 <__malloc_max_total_mem>
    13e0:	00072683          	lw	x13,0(x14)
    13e4:	00b6f463          	bgeu	x13,x11,13ec <_malloc_r+0x324>
    13e8:	00b72023          	sw	x11,0(x14)
    13ec:	00812c03          	lw	x24,8(x2)
    13f0:	000b8413          	addi	x8,x23,0
    13f4:	ffc7f793          	andi	x15,x15,-4
    13f8:	40978733          	sub	x14,x15,x9
    13fc:	3897ea63          	bltu	x15,x9,1790 <_malloc_r+0x6c8>
    1400:	00f00793          	addi	x15,x0,15
    1404:	38e7d663          	bge	x15,x14,1790 <_malloc_r+0x6c8>
    1408:	01812a03          	lw	x20,24(x2)
    140c:	01412a83          	lw	x21,20(x2)
    1410:	00c12b83          	lw	x23,12(x2)
    1414:	00412c83          	lw	x25,4(x2)
    1418:	0014e793          	ori	x15,x9,1
    141c:	00f42223          	sw	x15,4(x8)
    1420:	009404b3          	add	x9,x8,x9
    1424:	0099a423          	sw	x9,8(x19)
    1428:	00176713          	ori	x14,x14,1
    142c:	00090513          	addi	x10,x18,0
    1430:	00e4a223          	sw	x14,4(x9)
    1434:	48c010ef          	jal	x1,28c0 <__malloc_unlock>
    1438:	02c12083          	lw	x1,44(x2)
    143c:	00840513          	addi	x10,x8,8
    1440:	02812403          	lw	x8,40(x2)
    1444:	01012b03          	lw	x22,16(x2)
    1448:	02412483          	lw	x9,36(x2)
    144c:	02012903          	lw	x18,32(x2)
    1450:	01c12983          	lw	x19,28(x2)
    1454:	03010113          	addi	x2,x2,48
    1458:	00008067          	jalr	x0,0(x1)
    145c:	0049a503          	lw	x10,4(x19)
    1460:	dfdff06f          	jal	x0,125c <_malloc_r+0x194>
    1464:	00842603          	lw	x12,8(x8)
    1468:	cc9ff06f          	jal	x0,1130 <_malloc_r+0x68>
    146c:	00c7a403          	lw	x8,12(x15) # fffff00c <__heap_end+0xffbff00c>
    1470:	00258593          	addi	x11,x11,2
    1474:	d6878ce3          	beq	x15,x8,11ec <_malloc_r+0x124>
    1478:	ca9ff06f          	jal	x0,1120 <_malloc_r+0x58>
    147c:	0097d713          	srli	x14,x15,0x9
    1480:	00400693          	addi	x13,x0,4
    1484:	14e6f263          	bgeu	x13,x14,15c8 <_malloc_r+0x500>
    1488:	01400693          	addi	x13,x0,20
    148c:	32e6e463          	bltu	x13,x14,17b4 <_malloc_r+0x6ec>
    1490:	05c70613          	addi	x12,x14,92
    1494:	05b70693          	addi	x13,x14,91
    1498:	00361613          	slli	x12,x12,0x3
    149c:	00c98633          	add	x12,x19,x12
    14a0:	00062703          	lw	x14,0(x12)
    14a4:	ff860613          	addi	x12,x12,-8
    14a8:	00e61863          	bne	x12,x14,14b8 <_malloc_r+0x3f0>
    14ac:	2940006f          	jal	x0,1740 <_malloc_r+0x678>
    14b0:	00872703          	lw	x14,8(x14)
    14b4:	00e60863          	beq	x12,x14,14c4 <_malloc_r+0x3fc>
    14b8:	00472683          	lw	x13,4(x14)
    14bc:	ffc6f693          	andi	x13,x13,-4
    14c0:	fed7e8e3          	bltu	x15,x13,14b0 <_malloc_r+0x3e8>
    14c4:	00c72603          	lw	x12,12(x14)
    14c8:	00c42623          	sw	x12,12(x8)
    14cc:	00e42423          	sw	x14,8(x8)
    14d0:	00862423          	sw	x8,8(x12)
    14d4:	00872623          	sw	x8,12(x14)
    14d8:	d85ff06f          	jal	x0,125c <_malloc_r+0x194>
    14dc:	01400713          	addi	x14,x0,20
    14e0:	10f77863          	bgeu	x14,x15,15f0 <_malloc_r+0x528>
    14e4:	05400713          	addi	x14,x0,84
    14e8:	2ef76463          	bltu	x14,x15,17d0 <_malloc_r+0x708>
    14ec:	00c4d793          	srli	x15,x9,0xc
    14f0:	06f78593          	addi	x11,x15,111
    14f4:	06e78813          	addi	x16,x15,110
    14f8:	00359613          	slli	x12,x11,0x3
    14fc:	cadff06f          	jal	x0,11a8 <_malloc_r+0xe0>
    1500:	001e0e13          	addi	x28,x28,1
    1504:	003e7793          	andi	x15,x28,3
    1508:	00850513          	addi	x10,x10,8
    150c:	10078063          	beq	x15,x0,160c <_malloc_r+0x544>
    1510:	00c52783          	lw	x15,12(x10)
    1514:	d9dff06f          	jal	x0,12b0 <_malloc_r+0x1e8>
    1518:	00842603          	lw	x12,8(x8)
    151c:	0014e593          	ori	x11,x9,1
    1520:	00b42223          	sw	x11,4(x8)
    1524:	00f62623          	sw	x15,12(x12)
    1528:	00c7a423          	sw	x12,8(x15)
    152c:	009404b3          	add	x9,x8,x9
    1530:	0099aa23          	sw	x9,20(x19)
    1534:	0099a823          	sw	x9,16(x19)
    1538:	0016e793          	ori	x15,x13,1
    153c:	0114a623          	sw	x17,12(x9)
    1540:	0114a423          	sw	x17,8(x9)
    1544:	00f4a223          	sw	x15,4(x9)
    1548:	00e40733          	add	x14,x8,x14
    154c:	00090513          	addi	x10,x18,0
    1550:	00d72023          	sw	x13,0(x14)
    1554:	36c010ef          	jal	x1,28c0 <__malloc_unlock>
    1558:	00840513          	addi	x10,x8,8
    155c:	bf9ff06f          	jal	x0,1154 <_malloc_r+0x8c>
    1560:	00f407b3          	add	x15,x8,x15
    1564:	0047a703          	lw	x14,4(x15)
    1568:	00090513          	addi	x10,x18,0
    156c:	00176713          	ori	x14,x14,1
    1570:	00e7a223          	sw	x14,4(x15)
    1574:	34c010ef          	jal	x1,28c0 <__malloc_unlock>
    1578:	00840513          	addi	x10,x8,8
    157c:	bd9ff06f          	jal	x0,1154 <_malloc_r+0x8c>
    1580:	0034d593          	srli	x11,x9,0x3
    1584:	00848793          	addi	x15,x9,8
    1588:	b81ff06f          	jal	x0,1108 <_malloc_r+0x40>
    158c:	0014e693          	ori	x13,x9,1
    1590:	00d42223          	sw	x13,4(x8)
    1594:	009404b3          	add	x9,x8,x9
    1598:	0099aa23          	sw	x9,20(x19)
    159c:	0099a823          	sw	x9,16(x19)
    15a0:	00176693          	ori	x13,x14,1
    15a4:	0114a623          	sw	x17,12(x9)
    15a8:	0114a423          	sw	x17,8(x9)
    15ac:	00d4a223          	sw	x13,4(x9)
    15b0:	00f407b3          	add	x15,x8,x15
    15b4:	00090513          	addi	x10,x18,0
    15b8:	00e7a023          	sw	x14,0(x15)
    15bc:	304010ef          	jal	x1,28c0 <__malloc_unlock>
    15c0:	00840513          	addi	x10,x8,8
    15c4:	b91ff06f          	jal	x0,1154 <_malloc_r+0x8c>
    15c8:	0067d713          	srli	x14,x15,0x6
    15cc:	03970613          	addi	x12,x14,57
    15d0:	03870693          	addi	x13,x14,56
    15d4:	00361613          	slli	x12,x12,0x3
    15d8:	ec5ff06f          	jal	x0,149c <_malloc_r+0x3d4>
    15dc:	07340c63          	beq	x8,x19,1654 <_malloc_r+0x58c>
    15e0:	0089a403          	lw	x8,8(x19)
    15e4:	00812c03          	lw	x24,8(x2)
    15e8:	00442783          	lw	x15,4(x8)
    15ec:	e09ff06f          	jal	x0,13f4 <_malloc_r+0x32c>
    15f0:	05c78593          	addi	x11,x15,92
    15f4:	05b78813          	addi	x16,x15,91
    15f8:	00359613          	slli	x12,x11,0x3
    15fc:	badff06f          	jal	x0,11a8 <_malloc_r+0xe0>
    1600:	00832783          	lw	x15,8(x6)
    1604:	fff58593          	addi	x11,x11,-1
    1608:	26679e63          	bne	x15,x6,1884 <_malloc_r+0x7bc>
    160c:	0035f793          	andi	x15,x11,3
    1610:	ff830313          	addi	x6,x6,-8
    1614:	fe0796e3          	bne	x15,x0,1600 <_malloc_r+0x538>
    1618:	0049a703          	lw	x14,4(x19)
    161c:	fff64793          	xori	x15,x12,-1
    1620:	00e7f7b3          	and	x15,x15,x14
    1624:	00f9a223          	sw	x15,4(x19)
    1628:	00161613          	slli	x12,x12,0x1
    162c:	cec7e8e3          	bltu	x15,x12,131c <_malloc_r+0x254>
    1630:	ce0606e3          	beq	x12,x0,131c <_malloc_r+0x254>
    1634:	00f67733          	and	x14,x12,x15
    1638:	00071a63          	bne	x14,x0,164c <_malloc_r+0x584>
    163c:	00161613          	slli	x12,x12,0x1
    1640:	00f67733          	and	x14,x12,x15
    1644:	004e0e13          	addi	x28,x28,4
    1648:	fe070ae3          	beq	x14,x0,163c <_malloc_r+0x574>
    164c:	000e0593          	addi	x11,x28,0
    1650:	c4dff06f          	jal	x0,129c <_malloc_r+0x1d4>
    1654:	06c18c13          	addi	x24,x3,108 # 12c1c <__malloc_current_mallinfo>
    1658:	000c2703          	lw	x14,0(x24)
    165c:	00ea8733          	add	x14,x21,x14
    1660:	00ec2023          	sw	x14,0(x24)
    1664:	000ca683          	lw	x13,0(x25)
    1668:	fff00793          	addi	x15,x0,-1
    166c:	18f68663          	beq	x13,x15,17f8 <_malloc_r+0x730>
    1670:	414b87b3          	sub	x15,x23,x20
    1674:	00e787b3          	add	x15,x15,x14
    1678:	00fc2023          	sw	x15,0(x24)
    167c:	007bfc93          	andi	x25,x23,7
    1680:	0c0c8c63          	beq	x25,x0,1758 <_malloc_r+0x690>
    1684:	419b8bb3          	sub	x23,x23,x25
    1688:	000017b7          	lui	x15,0x1
    168c:	00878793          	addi	x15,x15,8 # 1008 <_fclose_r+0x54>
    1690:	008b8b93          	addi	x23,x23,8
    1694:	419785b3          	sub	x11,x15,x25
    1698:	015b8ab3          	add	x21,x23,x21
    169c:	415585b3          	sub	x11,x11,x21
    16a0:	01459593          	slli	x11,x11,0x14
    16a4:	0145da13          	srli	x20,x11,0x14
    16a8:	000a0593          	addi	x11,x20,0
    16ac:	00090513          	addi	x10,x18,0
    16b0:	68d050ef          	jal	x1,753c <_sbrk_r>
    16b4:	fff00793          	addi	x15,x0,-1
    16b8:	18f50063          	beq	x10,x15,1838 <_malloc_r+0x770>
    16bc:	41750533          	sub	x10,x10,x23
    16c0:	01450ab3          	add	x21,x10,x20
    16c4:	000c2703          	lw	x14,0(x24)
    16c8:	0179a423          	sw	x23,8(x19)
    16cc:	001ae793          	ori	x15,x21,1
    16d0:	00ea05b3          	add	x11,x20,x14
    16d4:	00bc2023          	sw	x11,0(x24)
    16d8:	00fba223          	sw	x15,4(x23)
    16dc:	cf3408e3          	beq	x8,x19,13cc <_malloc_r+0x304>
    16e0:	00f00693          	addi	x13,x0,15
    16e4:	0b66f063          	bgeu	x13,x22,1784 <_malloc_r+0x6bc>
    16e8:	00442703          	lw	x14,4(x8)
    16ec:	ff4b0793          	addi	x15,x22,-12
    16f0:	ff87f793          	andi	x15,x15,-8
    16f4:	00177713          	andi	x14,x14,1
    16f8:	00f76733          	or	x14,x14,x15
    16fc:	00e42223          	sw	x14,4(x8)
    1700:	00500613          	addi	x12,x0,5
    1704:	00f40733          	add	x14,x8,x15
    1708:	00c72223          	sw	x12,4(x14)
    170c:	00c72423          	sw	x12,8(x14)
    1710:	00f6e663          	bltu	x13,x15,171c <_malloc_r+0x654>
    1714:	004ba783          	lw	x15,4(x23)
    1718:	cb5ff06f          	jal	x0,13cc <_malloc_r+0x304>
    171c:	00840593          	addi	x11,x8,8
    1720:	00090513          	addi	x10,x18,0
    1724:	2fc000ef          	jal	x1,1a20 <_free_r>
    1728:	0089ab83          	lw	x23,8(x19)
    172c:	000c2583          	lw	x11,0(x24)
    1730:	004ba783          	lw	x15,4(x23)
    1734:	c99ff06f          	jal	x0,13cc <_malloc_r+0x304>
    1738:	010a8a93          	addi	x21,x21,16
    173c:	c41ff06f          	jal	x0,137c <_malloc_r+0x2b4>
    1740:	4026d693          	srai	x13,x13,0x2
    1744:	00100793          	addi	x15,x0,1
    1748:	00d797b3          	sll	x15,x15,x13
    174c:	00f56533          	or	x10,x10,x15
    1750:	00a9a223          	sw	x10,4(x19)
    1754:	d75ff06f          	jal	x0,14c8 <_malloc_r+0x400>
    1758:	015b85b3          	add	x11,x23,x21
    175c:	40b005b3          	sub	x11,x0,x11
    1760:	01459593          	slli	x11,x11,0x14
    1764:	0145da13          	srli	x20,x11,0x14
    1768:	000a0593          	addi	x11,x20,0
    176c:	00090513          	addi	x10,x18,0
    1770:	5cd050ef          	jal	x1,753c <_sbrk_r>
    1774:	fff00793          	addi	x15,x0,-1
    1778:	f4f512e3          	bne	x10,x15,16bc <_malloc_r+0x5f4>
    177c:	00000a13          	addi	x20,x0,0
    1780:	f45ff06f          	jal	x0,16c4 <_malloc_r+0x5fc>
    1784:	00812c03          	lw	x24,8(x2)
    1788:	00100793          	addi	x15,x0,1
    178c:	00fba223          	sw	x15,4(x23)
    1790:	00090513          	addi	x10,x18,0
    1794:	12c010ef          	jal	x1,28c0 <__malloc_unlock>
    1798:	00000513          	addi	x10,x0,0
    179c:	01812a03          	lw	x20,24(x2)
    17a0:	01412a83          	lw	x21,20(x2)
    17a4:	01012b03          	lw	x22,16(x2)
    17a8:	00c12b83          	lw	x23,12(x2)
    17ac:	00412c83          	lw	x25,4(x2)
    17b0:	9a5ff06f          	jal	x0,1154 <_malloc_r+0x8c>
    17b4:	05400693          	addi	x13,x0,84
    17b8:	04e6e463          	bltu	x13,x14,1800 <_malloc_r+0x738>
    17bc:	00c7d713          	srli	x14,x15,0xc
    17c0:	06f70613          	addi	x12,x14,111
    17c4:	06e70693          	addi	x13,x14,110
    17c8:	00361613          	slli	x12,x12,0x3
    17cc:	cd1ff06f          	jal	x0,149c <_malloc_r+0x3d4>
    17d0:	15400713          	addi	x14,x0,340
    17d4:	04f76463          	bltu	x14,x15,181c <_malloc_r+0x754>
    17d8:	00f4d793          	srli	x15,x9,0xf
    17dc:	07878593          	addi	x11,x15,120
    17e0:	07778813          	addi	x16,x15,119
    17e4:	00359613          	slli	x12,x11,0x3
    17e8:	9c1ff06f          	jal	x0,11a8 <_malloc_r+0xe0>
    17ec:	0089a403          	lw	x8,8(x19)
    17f0:	00442783          	lw	x15,4(x8)
    17f4:	c01ff06f          	jal	x0,13f4 <_malloc_r+0x32c>
    17f8:	017ca023          	sw	x23,0(x25)
    17fc:	e81ff06f          	jal	x0,167c <_malloc_r+0x5b4>
    1800:	15400693          	addi	x13,x0,340
    1804:	04e6e463          	bltu	x13,x14,184c <_malloc_r+0x784>
    1808:	00f7d713          	srli	x14,x15,0xf
    180c:	07870613          	addi	x12,x14,120
    1810:	07770693          	addi	x13,x14,119
    1814:	00361613          	slli	x12,x12,0x3
    1818:	c85ff06f          	jal	x0,149c <_malloc_r+0x3d4>
    181c:	55400713          	addi	x14,x0,1364
    1820:	04f76463          	bltu	x14,x15,1868 <_malloc_r+0x7a0>
    1824:	0124d793          	srli	x15,x9,0x12
    1828:	07d78593          	addi	x11,x15,125
    182c:	07c78813          	addi	x16,x15,124
    1830:	00359613          	slli	x12,x11,0x3
    1834:	975ff06f          	jal	x0,11a8 <_malloc_r+0xe0>
    1838:	ff8c8c93          	addi	x25,x25,-8
    183c:	019a8ab3          	add	x21,x21,x25
    1840:	417a8ab3          	sub	x21,x21,x23
    1844:	00000a13          	addi	x20,x0,0
    1848:	e7dff06f          	jal	x0,16c4 <_malloc_r+0x5fc>
    184c:	55400693          	addi	x13,x0,1364
    1850:	02e6e463          	bltu	x13,x14,1878 <_malloc_r+0x7b0>
    1854:	0127d713          	srli	x14,x15,0x12
    1858:	07d70613          	addi	x12,x14,125
    185c:	07c70693          	addi	x13,x14,124
    1860:	00361613          	slli	x12,x12,0x3
    1864:	c39ff06f          	jal	x0,149c <_malloc_r+0x3d4>
    1868:	3f800613          	addi	x12,x0,1016
    186c:	07f00593          	addi	x11,x0,127
    1870:	07e00813          	addi	x16,x0,126
    1874:	935ff06f          	jal	x0,11a8 <_malloc_r+0xe0>
    1878:	3f800613          	addi	x12,x0,1016
    187c:	07e00693          	addi	x13,x0,126
    1880:	c1dff06f          	jal	x0,149c <_malloc_r+0x3d4>
    1884:	0049a783          	lw	x15,4(x19)
    1888:	da1ff06f          	jal	x0,1628 <_malloc_r+0x560>

0000188c <__libc_fini_array>:
    188c:	ff010113          	addi	x2,x2,-16
    1890:	00812423          	sw	x8,8(x2)
    1894:	00011797          	auipc	x15,0x11
    1898:	b1c78793          	addi	x15,x15,-1252 # 123b0 <__sglue>
    189c:	00011417          	auipc	x8,0x11
    18a0:	b1440413          	addi	x8,x8,-1260 # 123b0 <__sglue>
    18a4:	40f40433          	sub	x8,x8,x15
    18a8:	00912223          	sw	x9,4(x2)
    18ac:	00112623          	sw	x1,12(x2)
    18b0:	40245493          	srai	x9,x8,0x2
    18b4:	02048063          	beq	x9,x0,18d4 <__libc_fini_array+0x48>
    18b8:	ffc40413          	addi	x8,x8,-4
    18bc:	00f40433          	add	x8,x8,x15
    18c0:	00042783          	lw	x15,0(x8)
    18c4:	fff48493          	addi	x9,x9,-1
    18c8:	ffc40413          	addi	x8,x8,-4
    18cc:	000780e7          	jalr	x1,0(x15)
    18d0:	fe0498e3          	bne	x9,x0,18c0 <__libc_fini_array+0x34>
    18d4:	00c12083          	lw	x1,12(x2)
    18d8:	00812403          	lw	x8,8(x2)
    18dc:	00412483          	lw	x9,4(x2)
    18e0:	01010113          	addi	x2,x2,16
    18e4:	00008067          	jalr	x0,0(x1)

000018e8 <_malloc_trim_r>:
    18e8:	fe010113          	addi	x2,x2,-32
    18ec:	00812c23          	sw	x8,24(x2)
    18f0:	00912a23          	sw	x9,20(x2)
    18f4:	01212823          	sw	x18,16(x2)
    18f8:	01312623          	sw	x19,12(x2)
    18fc:	01412423          	sw	x20,8(x2)
    1900:	00058993          	addi	x19,x11,0
    1904:	00112e23          	sw	x1,28(x2)
    1908:	00050913          	addi	x18,x10,0
    190c:	00011a17          	auipc	x20,0x11
    1910:	ab0a0a13          	addi	x20,x20,-1360 # 123bc <__malloc_av_>
    1914:	7a9000ef          	jal	x1,28bc <__malloc_lock>
    1918:	008a2703          	lw	x14,8(x20)
    191c:	000017b7          	lui	x15,0x1
    1920:	fef78793          	addi	x15,x15,-17 # fef <_fclose_r+0x3b>
    1924:	00472483          	lw	x9,4(x14)
    1928:	00001737          	lui	x14,0x1
    192c:	ffc4f493          	andi	x9,x9,-4
    1930:	00f48433          	add	x8,x9,x15
    1934:	41340433          	sub	x8,x8,x19
    1938:	00c45413          	srli	x8,x8,0xc
    193c:	fff40413          	addi	x8,x8,-1
    1940:	00c41413          	slli	x8,x8,0xc
    1944:	00e44e63          	blt	x8,x14,1960 <_malloc_trim_r+0x78>
    1948:	00000593          	addi	x11,x0,0
    194c:	00090513          	addi	x10,x18,0
    1950:	3ed050ef          	jal	x1,753c <_sbrk_r>
    1954:	008a2783          	lw	x15,8(x20)
    1958:	009787b3          	add	x15,x15,x9
    195c:	02f50863          	beq	x10,x15,198c <_malloc_trim_r+0xa4>
    1960:	00090513          	addi	x10,x18,0
    1964:	75d000ef          	jal	x1,28c0 <__malloc_unlock>
    1968:	01c12083          	lw	x1,28(x2)
    196c:	01812403          	lw	x8,24(x2)
    1970:	01412483          	lw	x9,20(x2)
    1974:	01012903          	lw	x18,16(x2)
    1978:	00c12983          	lw	x19,12(x2)
    197c:	00812a03          	lw	x20,8(x2)
    1980:	00000513          	addi	x10,x0,0
    1984:	02010113          	addi	x2,x2,32
    1988:	00008067          	jalr	x0,0(x1)
    198c:	408005b3          	sub	x11,x0,x8
    1990:	00090513          	addi	x10,x18,0
    1994:	3a9050ef          	jal	x1,753c <_sbrk_r>
    1998:	fff00793          	addi	x15,x0,-1
    199c:	04f50863          	beq	x10,x15,19ec <_malloc_trim_r+0x104>
    19a0:	06c18713          	addi	x14,x3,108 # 12c1c <__malloc_current_mallinfo>
    19a4:	00072783          	lw	x15,0(x14) # 1000 <_fclose_r+0x4c>
    19a8:	008a2683          	lw	x13,8(x20)
    19ac:	408484b3          	sub	x9,x9,x8
    19b0:	0014e493          	ori	x9,x9,1
    19b4:	408787b3          	sub	x15,x15,x8
    19b8:	00090513          	addi	x10,x18,0
    19bc:	0096a223          	sw	x9,4(x13)
    19c0:	00f72023          	sw	x15,0(x14)
    19c4:	6fd000ef          	jal	x1,28c0 <__malloc_unlock>
    19c8:	01c12083          	lw	x1,28(x2)
    19cc:	01812403          	lw	x8,24(x2)
    19d0:	01412483          	lw	x9,20(x2)
    19d4:	01012903          	lw	x18,16(x2)
    19d8:	00c12983          	lw	x19,12(x2)
    19dc:	00812a03          	lw	x20,8(x2)
    19e0:	00100513          	addi	x10,x0,1
    19e4:	02010113          	addi	x2,x2,32
    19e8:	00008067          	jalr	x0,0(x1)
    19ec:	00000593          	addi	x11,x0,0
    19f0:	00090513          	addi	x10,x18,0
    19f4:	349050ef          	jal	x1,753c <_sbrk_r>
    19f8:	008a2703          	lw	x14,8(x20)
    19fc:	00f00693          	addi	x13,x0,15
    1a00:	40e507b3          	sub	x15,x10,x14
    1a04:	f4f6dee3          	bge	x13,x15,1960 <_malloc_trim_r+0x78>
    1a08:	f0c1a683          	lw	x13,-244(x3) # 12abc <__malloc_sbrk_base>
    1a0c:	40d50533          	sub	x10,x10,x13
    1a10:	0017e793          	ori	x15,x15,1
    1a14:	06a1a623          	sw	x10,108(x3) # 12c1c <__malloc_current_mallinfo>
    1a18:	00f72223          	sw	x15,4(x14)
    1a1c:	f45ff06f          	jal	x0,1960 <_malloc_trim_r+0x78>

00001a20 <_free_r>:
    1a20:	18058263          	beq	x11,x0,1ba4 <_free_r+0x184>
    1a24:	ff010113          	addi	x2,x2,-16
    1a28:	00812423          	sw	x8,8(x2)
    1a2c:	00912223          	sw	x9,4(x2)
    1a30:	00058413          	addi	x8,x11,0
    1a34:	00050493          	addi	x9,x10,0
    1a38:	00112623          	sw	x1,12(x2)
    1a3c:	681000ef          	jal	x1,28bc <__malloc_lock>
    1a40:	ffc42583          	lw	x11,-4(x8)
    1a44:	ff840713          	addi	x14,x8,-8
    1a48:	00011517          	auipc	x10,0x11
    1a4c:	97450513          	addi	x10,x10,-1676 # 123bc <__malloc_av_>
    1a50:	ffe5f793          	andi	x15,x11,-2
    1a54:	00f70633          	add	x12,x14,x15
    1a58:	00462683          	lw	x13,4(x12)
    1a5c:	00852803          	lw	x16,8(x10)
    1a60:	ffc6f693          	andi	x13,x13,-4
    1a64:	1ac80263          	beq	x16,x12,1c08 <_free_r+0x1e8>
    1a68:	00d62223          	sw	x13,4(x12)
    1a6c:	0015f593          	andi	x11,x11,1
    1a70:	00d60833          	add	x16,x12,x13
    1a74:	0a059063          	bne	x11,x0,1b14 <_free_r+0xf4>
    1a78:	ff842303          	lw	x6,-8(x8)
    1a7c:	00482583          	lw	x11,4(x16)
    1a80:	00011897          	auipc	x17,0x11
    1a84:	94488893          	addi	x17,x17,-1724 # 123c4 <__malloc_av_+0x8>
    1a88:	40670733          	sub	x14,x14,x6
    1a8c:	00872803          	lw	x16,8(x14)
    1a90:	006787b3          	add	x15,x15,x6
    1a94:	0015f593          	andi	x11,x11,1
    1a98:	15180263          	beq	x16,x17,1bdc <_free_r+0x1bc>
    1a9c:	00c72303          	lw	x6,12(x14)
    1aa0:	00682623          	sw	x6,12(x16)
    1aa4:	01032423          	sw	x16,8(x6)
    1aa8:	1a058663          	beq	x11,x0,1c54 <_free_r+0x234>
    1aac:	0017e693          	ori	x13,x15,1
    1ab0:	00d72223          	sw	x13,4(x14)
    1ab4:	00f62023          	sw	x15,0(x12)
    1ab8:	1ff00693          	addi	x13,x0,511
    1abc:	06f6ec63          	bltu	x13,x15,1b34 <_free_r+0x114>
    1ac0:	ff87f693          	andi	x13,x15,-8
    1ac4:	00868693          	addi	x13,x13,8
    1ac8:	00452583          	lw	x11,4(x10)
    1acc:	00d506b3          	add	x13,x10,x13
    1ad0:	0006a603          	lw	x12,0(x13)
    1ad4:	0057d813          	srli	x16,x15,0x5
    1ad8:	00100793          	addi	x15,x0,1
    1adc:	010797b3          	sll	x15,x15,x16
    1ae0:	00b7e7b3          	or	x15,x15,x11
    1ae4:	ff868593          	addi	x11,x13,-8
    1ae8:	00b72623          	sw	x11,12(x14)
    1aec:	00c72423          	sw	x12,8(x14)
    1af0:	00f52223          	sw	x15,4(x10)
    1af4:	00e6a023          	sw	x14,0(x13)
    1af8:	00e62623          	sw	x14,12(x12)
    1afc:	00812403          	lw	x8,8(x2)
    1b00:	00c12083          	lw	x1,12(x2)
    1b04:	00048513          	addi	x10,x9,0
    1b08:	00412483          	lw	x9,4(x2)
    1b0c:	01010113          	addi	x2,x2,16
    1b10:	5b10006f          	jal	x0,28c0 <__malloc_unlock>
    1b14:	00482583          	lw	x11,4(x16)
    1b18:	0015f593          	andi	x11,x11,1
    1b1c:	08058663          	beq	x11,x0,1ba8 <_free_r+0x188>
    1b20:	0017e693          	ori	x13,x15,1
    1b24:	fed42e23          	sw	x13,-4(x8)
    1b28:	00f62023          	sw	x15,0(x12)
    1b2c:	1ff00693          	addi	x13,x0,511
    1b30:	f8f6f8e3          	bgeu	x13,x15,1ac0 <_free_r+0xa0>
    1b34:	0097d693          	srli	x13,x15,0x9
    1b38:	00400613          	addi	x12,x0,4
    1b3c:	12d66063          	bltu	x12,x13,1c5c <_free_r+0x23c>
    1b40:	0067d693          	srli	x13,x15,0x6
    1b44:	03968593          	addi	x11,x13,57
    1b48:	03868613          	addi	x12,x13,56
    1b4c:	00359593          	slli	x11,x11,0x3
    1b50:	00b505b3          	add	x11,x10,x11
    1b54:	0005a683          	lw	x13,0(x11)
    1b58:	ff858593          	addi	x11,x11,-8
    1b5c:	00d59863          	bne	x11,x13,1b6c <_free_r+0x14c>
    1b60:	1540006f          	jal	x0,1cb4 <_free_r+0x294>
    1b64:	0086a683          	lw	x13,8(x13)
    1b68:	00d58863          	beq	x11,x13,1b78 <_free_r+0x158>
    1b6c:	0046a603          	lw	x12,4(x13)
    1b70:	ffc67613          	andi	x12,x12,-4
    1b74:	fec7e8e3          	bltu	x15,x12,1b64 <_free_r+0x144>
    1b78:	00c6a583          	lw	x11,12(x13)
    1b7c:	00b72623          	sw	x11,12(x14)
    1b80:	00d72423          	sw	x13,8(x14)
    1b84:	00812403          	lw	x8,8(x2)
    1b88:	00c12083          	lw	x1,12(x2)
    1b8c:	00e5a423          	sw	x14,8(x11)
    1b90:	00048513          	addi	x10,x9,0
    1b94:	00412483          	lw	x9,4(x2)
    1b98:	00e6a623          	sw	x14,12(x13)
    1b9c:	01010113          	addi	x2,x2,16
    1ba0:	5210006f          	jal	x0,28c0 <__malloc_unlock>
    1ba4:	00008067          	jalr	x0,0(x1)
    1ba8:	00d787b3          	add	x15,x15,x13
    1bac:	00011897          	auipc	x17,0x11
    1bb0:	81888893          	addi	x17,x17,-2024 # 123c4 <__malloc_av_+0x8>
    1bb4:	00862683          	lw	x13,8(x12)
    1bb8:	0d168c63          	beq	x13,x17,1c90 <_free_r+0x270>
    1bbc:	00c62803          	lw	x16,12(x12)
    1bc0:	0017e593          	ori	x11,x15,1
    1bc4:	00f70633          	add	x12,x14,x15
    1bc8:	0106a623          	sw	x16,12(x13)
    1bcc:	00d82423          	sw	x13,8(x16)
    1bd0:	00b72223          	sw	x11,4(x14)
    1bd4:	00f62023          	sw	x15,0(x12)
    1bd8:	ee1ff06f          	jal	x0,1ab8 <_free_r+0x98>
    1bdc:	12059c63          	bne	x11,x0,1d14 <_free_r+0x2f4>
    1be0:	00862583          	lw	x11,8(x12)
    1be4:	00c62603          	lw	x12,12(x12)
    1be8:	00f686b3          	add	x13,x13,x15
    1bec:	0016e793          	ori	x15,x13,1
    1bf0:	00c5a623          	sw	x12,12(x11)
    1bf4:	00b62423          	sw	x11,8(x12)
    1bf8:	00f72223          	sw	x15,4(x14)
    1bfc:	00d70733          	add	x14,x14,x13
    1c00:	00d72023          	sw	x13,0(x14)
    1c04:	ef9ff06f          	jal	x0,1afc <_free_r+0xdc>
    1c08:	0015f593          	andi	x11,x11,1
    1c0c:	00d786b3          	add	x13,x15,x13
    1c10:	02059063          	bne	x11,x0,1c30 <_free_r+0x210>
    1c14:	ff842583          	lw	x11,-8(x8)
    1c18:	40b70733          	sub	x14,x14,x11
    1c1c:	00c72783          	lw	x15,12(x14)
    1c20:	00872603          	lw	x12,8(x14)
    1c24:	00b686b3          	add	x13,x13,x11
    1c28:	00f62623          	sw	x15,12(x12)
    1c2c:	00c7a423          	sw	x12,8(x15)
    1c30:	0016e793          	ori	x15,x13,1
    1c34:	00f72223          	sw	x15,4(x14)
    1c38:	00e52423          	sw	x14,8(x10)
    1c3c:	f101a783          	lw	x15,-240(x3) # 12ac0 <__malloc_trim_threshold>
    1c40:	eaf6eee3          	bltu	x13,x15,1afc <_free_r+0xdc>
    1c44:	f281a583          	lw	x11,-216(x3) # 12ad8 <__malloc_top_pad>
    1c48:	00048513          	addi	x10,x9,0
    1c4c:	c9dff0ef          	jal	x1,18e8 <_malloc_trim_r>
    1c50:	eadff06f          	jal	x0,1afc <_free_r+0xdc>
    1c54:	00d787b3          	add	x15,x15,x13
    1c58:	f5dff06f          	jal	x0,1bb4 <_free_r+0x194>
    1c5c:	01400613          	addi	x12,x0,20
    1c60:	02d67063          	bgeu	x12,x13,1c80 <_free_r+0x260>
    1c64:	05400613          	addi	x12,x0,84
    1c68:	06d66463          	bltu	x12,x13,1cd0 <_free_r+0x2b0>
    1c6c:	00c7d693          	srli	x13,x15,0xc
    1c70:	06f68593          	addi	x11,x13,111
    1c74:	06e68613          	addi	x12,x13,110
    1c78:	00359593          	slli	x11,x11,0x3
    1c7c:	ed5ff06f          	jal	x0,1b50 <_free_r+0x130>
    1c80:	05c68593          	addi	x11,x13,92
    1c84:	05b68613          	addi	x12,x13,91
    1c88:	00359593          	slli	x11,x11,0x3
    1c8c:	ec5ff06f          	jal	x0,1b50 <_free_r+0x130>
    1c90:	00e52a23          	sw	x14,20(x10)
    1c94:	00e52823          	sw	x14,16(x10)
    1c98:	0017e693          	ori	x13,x15,1
    1c9c:	01172623          	sw	x17,12(x14)
    1ca0:	01172423          	sw	x17,8(x14)
    1ca4:	00d72223          	sw	x13,4(x14)
    1ca8:	00f70733          	add	x14,x14,x15
    1cac:	00f72023          	sw	x15,0(x14)
    1cb0:	e4dff06f          	jal	x0,1afc <_free_r+0xdc>
    1cb4:	00452803          	lw	x16,4(x10)
    1cb8:	40265613          	srai	x12,x12,0x2
    1cbc:	00100793          	addi	x15,x0,1
    1cc0:	00c797b3          	sll	x15,x15,x12
    1cc4:	0107e7b3          	or	x15,x15,x16
    1cc8:	00f52223          	sw	x15,4(x10)
    1ccc:	eb1ff06f          	jal	x0,1b7c <_free_r+0x15c>
    1cd0:	15400613          	addi	x12,x0,340
    1cd4:	00d66c63          	bltu	x12,x13,1cec <_free_r+0x2cc>
    1cd8:	00f7d693          	srli	x13,x15,0xf
    1cdc:	07868593          	addi	x11,x13,120
    1ce0:	07768613          	addi	x12,x13,119
    1ce4:	00359593          	slli	x11,x11,0x3
    1ce8:	e69ff06f          	jal	x0,1b50 <_free_r+0x130>
    1cec:	55400613          	addi	x12,x0,1364
    1cf0:	00d66c63          	bltu	x12,x13,1d08 <_free_r+0x2e8>
    1cf4:	0127d693          	srli	x13,x15,0x12
    1cf8:	07d68593          	addi	x11,x13,125
    1cfc:	07c68613          	addi	x12,x13,124
    1d00:	00359593          	slli	x11,x11,0x3
    1d04:	e4dff06f          	jal	x0,1b50 <_free_r+0x130>
    1d08:	3f800593          	addi	x11,x0,1016
    1d0c:	07e00613          	addi	x12,x0,126
    1d10:	e41ff06f          	jal	x0,1b50 <_free_r+0x130>
    1d14:	0017e693          	ori	x13,x15,1
    1d18:	00d72223          	sw	x13,4(x14)
    1d1c:	00f62023          	sw	x15,0(x12)
    1d20:	dddff06f          	jal	x0,1afc <_free_r+0xdc>

00001d24 <_putchar_r>:
    1d24:	00852603          	lw	x12,8(x10)
    1d28:	6e00506f          	jal	x0,7408 <_putc_r>

00001d2c <putchar>:
    1d2c:	f141a783          	lw	x15,-236(x3) # 12ac4 <_impure_ptr>
    1d30:	0087a603          	lw	x12,8(x15)
    1d34:	00050593          	addi	x11,x10,0
    1d38:	00078513          	addi	x10,x15,0
    1d3c:	6cc0506f          	jal	x0,7408 <_putc_r>

00001d40 <strlen>:
    1d40:	00357793          	andi	x15,x10,3
    1d44:	00050713          	addi	x14,x10,0
    1d48:	04079c63          	bne	x15,x0,1da0 <strlen+0x60>
    1d4c:	7f7f86b7          	lui	x13,0x7f7f8
    1d50:	f7f68693          	addi	x13,x13,-129 # 7f7f7f7f <__heap_end+0x7f3f7f7f>
    1d54:	fff00593          	addi	x11,x0,-1
    1d58:	00072603          	lw	x12,0(x14)
    1d5c:	00470713          	addi	x14,x14,4
    1d60:	00d677b3          	and	x15,x12,x13
    1d64:	00d787b3          	add	x15,x15,x13
    1d68:	00c7e7b3          	or	x15,x15,x12
    1d6c:	00d7e7b3          	or	x15,x15,x13
    1d70:	feb784e3          	beq	x15,x11,1d58 <strlen+0x18>
    1d74:	ffc74683          	lbu	x13,-4(x14)
    1d78:	40a707b3          	sub	x15,x14,x10
    1d7c:	04068463          	beq	x13,x0,1dc4 <strlen+0x84>
    1d80:	ffd74683          	lbu	x13,-3(x14)
    1d84:	02068c63          	beq	x13,x0,1dbc <strlen+0x7c>
    1d88:	ffe74503          	lbu	x10,-2(x14)
    1d8c:	00a03533          	sltu	x10,x0,x10
    1d90:	00f50533          	add	x10,x10,x15
    1d94:	ffe50513          	addi	x10,x10,-2
    1d98:	00008067          	jalr	x0,0(x1)
    1d9c:	fa0688e3          	beq	x13,x0,1d4c <strlen+0xc>
    1da0:	00074783          	lbu	x15,0(x14)
    1da4:	00170713          	addi	x14,x14,1
    1da8:	00377693          	andi	x13,x14,3
    1dac:	fe0798e3          	bne	x15,x0,1d9c <strlen+0x5c>
    1db0:	40a70733          	sub	x14,x14,x10
    1db4:	fff70513          	addi	x10,x14,-1
    1db8:	00008067          	jalr	x0,0(x1)
    1dbc:	ffd78513          	addi	x10,x15,-3
    1dc0:	00008067          	jalr	x0,0(x1)
    1dc4:	ffc78513          	addi	x10,x15,-4
    1dc8:	00008067          	jalr	x0,0(x1)

00001dcc <memchr>:
    1dcc:	00357793          	andi	x15,x10,3
    1dd0:	0ff5f693          	andi	x13,x11,255
    1dd4:	02078a63          	beq	x15,x0,1e08 <memchr+0x3c>
    1dd8:	fff60793          	addi	x15,x12,-1
    1ddc:	02060e63          	beq	x12,x0,1e18 <memchr+0x4c>
    1de0:	fff00613          	addi	x12,x0,-1
    1de4:	0180006f          	jal	x0,1dfc <memchr+0x30>
    1de8:	00150513          	addi	x10,x10,1
    1dec:	00357713          	andi	x14,x10,3
    1df0:	00070e63          	beq	x14,x0,1e0c <memchr+0x40>
    1df4:	fff78793          	addi	x15,x15,-1
    1df8:	02c78063          	beq	x15,x12,1e18 <memchr+0x4c>
    1dfc:	00054703          	lbu	x14,0(x10)
    1e00:	fed714e3          	bne	x14,x13,1de8 <memchr+0x1c>
    1e04:	00008067          	jalr	x0,0(x1)
    1e08:	00060793          	addi	x15,x12,0
    1e0c:	00300713          	addi	x14,x0,3
    1e10:	00f76863          	bltu	x14,x15,1e20 <memchr+0x54>
    1e14:	06079063          	bne	x15,x0,1e74 <memchr+0xa8>
    1e18:	00000513          	addi	x10,x0,0
    1e1c:	00008067          	jalr	x0,0(x1)
    1e20:	0ff5f593          	andi	x11,x11,255
    1e24:	00859713          	slli	x14,x11,0x8
    1e28:	00b705b3          	add	x11,x14,x11
    1e2c:	01059713          	slli	x14,x11,0x10
    1e30:	feff08b7          	lui	x17,0xfeff0
    1e34:	80808837          	lui	x16,0x80808
    1e38:	00e585b3          	add	x11,x11,x14
    1e3c:	eff88893          	addi	x17,x17,-257 # fefefeff <__heap_end+0xfebefeff>
    1e40:	08080813          	addi	x16,x16,128 # 80808080 <__heap_end+0x80408080>
    1e44:	00300313          	addi	x6,x0,3
    1e48:	0100006f          	jal	x0,1e58 <memchr+0x8c>
    1e4c:	ffc78793          	addi	x15,x15,-4
    1e50:	00450513          	addi	x10,x10,4
    1e54:	fcf370e3          	bgeu	x6,x15,1e14 <memchr+0x48>
    1e58:	00052703          	lw	x14,0(x10)
    1e5c:	00e5c733          	xor	x14,x11,x14
    1e60:	01170633          	add	x12,x14,x17
    1e64:	fff74713          	xori	x14,x14,-1
    1e68:	00e67733          	and	x14,x12,x14
    1e6c:	01077733          	and	x14,x14,x16
    1e70:	fc070ee3          	beq	x14,x0,1e4c <memchr+0x80>
    1e74:	00f507b3          	add	x15,x10,x15
    1e78:	00c0006f          	jal	x0,1e84 <memchr+0xb8>
    1e7c:	00150513          	addi	x10,x10,1
    1e80:	f8a78ce3          	beq	x15,x10,1e18 <memchr+0x4c>
    1e84:	00054703          	lbu	x14,0(x10)
    1e88:	fed71ae3          	bne	x14,x13,1e7c <memchr+0xb0>
    1e8c:	00008067          	jalr	x0,0(x1)

00001e90 <memset>:
    1e90:	00f00313          	addi	x6,x0,15
    1e94:	00050713          	addi	x14,x10,0
    1e98:	02c37e63          	bgeu	x6,x12,1ed4 <memset+0x44>
    1e9c:	00f77793          	andi	x15,x14,15
    1ea0:	0a079063          	bne	x15,x0,1f40 <memset+0xb0>
    1ea4:	08059263          	bne	x11,x0,1f28 <memset+0x98>
    1ea8:	ff067693          	andi	x13,x12,-16
    1eac:	00f67613          	andi	x12,x12,15
    1eb0:	00e686b3          	add	x13,x13,x14
    1eb4:	00b72023          	sw	x11,0(x14)
    1eb8:	00b72223          	sw	x11,4(x14)
    1ebc:	00b72423          	sw	x11,8(x14)
    1ec0:	00b72623          	sw	x11,12(x14)
    1ec4:	01070713          	addi	x14,x14,16
    1ec8:	fed766e3          	bltu	x14,x13,1eb4 <memset+0x24>
    1ecc:	00061463          	bne	x12,x0,1ed4 <memset+0x44>
    1ed0:	00008067          	jalr	x0,0(x1)
    1ed4:	40c306b3          	sub	x13,x6,x12
    1ed8:	00269693          	slli	x13,x13,0x2
    1edc:	00000297          	auipc	x5,0x0
    1ee0:	005686b3          	add	x13,x13,x5
    1ee4:	00c68067          	jalr	x0,12(x13)
    1ee8:	00b70723          	sb	x11,14(x14)
    1eec:	00b706a3          	sb	x11,13(x14)
    1ef0:	00b70623          	sb	x11,12(x14)
    1ef4:	00b705a3          	sb	x11,11(x14)
    1ef8:	00b70523          	sb	x11,10(x14)
    1efc:	00b704a3          	sb	x11,9(x14)
    1f00:	00b70423          	sb	x11,8(x14)
    1f04:	00b703a3          	sb	x11,7(x14)
    1f08:	00b70323          	sb	x11,6(x14)
    1f0c:	00b702a3          	sb	x11,5(x14)
    1f10:	00b70223          	sb	x11,4(x14)
    1f14:	00b701a3          	sb	x11,3(x14)
    1f18:	00b70123          	sb	x11,2(x14)
    1f1c:	00b700a3          	sb	x11,1(x14)
    1f20:	00b70023          	sb	x11,0(x14)
    1f24:	00008067          	jalr	x0,0(x1)
    1f28:	0ff5f593          	andi	x11,x11,255
    1f2c:	00859693          	slli	x13,x11,0x8
    1f30:	00d5e5b3          	or	x11,x11,x13
    1f34:	01059693          	slli	x13,x11,0x10
    1f38:	00d5e5b3          	or	x11,x11,x13
    1f3c:	f6dff06f          	jal	x0,1ea8 <memset+0x18>
    1f40:	00279693          	slli	x13,x15,0x2
    1f44:	00000297          	auipc	x5,0x0
    1f48:	005686b3          	add	x13,x13,x5
    1f4c:	00008293          	addi	x5,x1,0
    1f50:	fa0680e7          	jalr	x1,-96(x13)
    1f54:	00028093          	addi	x1,x5,0 # 1f44 <memset+0xb4>
    1f58:	ff078793          	addi	x15,x15,-16
    1f5c:	40f70733          	sub	x14,x14,x15
    1f60:	00f60633          	add	x12,x12,x15
    1f64:	f6c378e3          	bgeu	x6,x12,1ed4 <memset+0x44>
    1f68:	f3dff06f          	jal	x0,1ea4 <memset+0x14>

00001f6c <_fwalk_sglue>:
    1f6c:	fd010113          	addi	x2,x2,-48
    1f70:	03212023          	sw	x18,32(x2)
    1f74:	01312e23          	sw	x19,28(x2)
    1f78:	01412c23          	sw	x20,24(x2)
    1f7c:	01512a23          	sw	x21,20(x2)
    1f80:	01612823          	sw	x22,16(x2)
    1f84:	01712623          	sw	x23,12(x2)
    1f88:	02112623          	sw	x1,44(x2)
    1f8c:	02812423          	sw	x8,40(x2)
    1f90:	02912223          	sw	x9,36(x2)
    1f94:	00050b13          	addi	x22,x10,0
    1f98:	00058b93          	addi	x23,x11,0
    1f9c:	00060a93          	addi	x21,x12,0
    1fa0:	00000a13          	addi	x20,x0,0
    1fa4:	00100993          	addi	x19,x0,1
    1fa8:	fff00913          	addi	x18,x0,-1
    1fac:	004aa483          	lw	x9,4(x21)
    1fb0:	008aa403          	lw	x8,8(x21)
    1fb4:	fff48493          	addi	x9,x9,-1
    1fb8:	0204c863          	blt	x9,x0,1fe8 <_fwalk_sglue+0x7c>
    1fbc:	00c45783          	lhu	x15,12(x8)
    1fc0:	00f9fe63          	bgeu	x19,x15,1fdc <_fwalk_sglue+0x70>
    1fc4:	00e41783          	lh	x15,14(x8)
    1fc8:	00040593          	addi	x11,x8,0
    1fcc:	000b0513          	addi	x10,x22,0
    1fd0:	01278663          	beq	x15,x18,1fdc <_fwalk_sglue+0x70>
    1fd4:	000b80e7          	jalr	x1,0(x23)
    1fd8:	00aa6a33          	or	x20,x20,x10
    1fdc:	fff48493          	addi	x9,x9,-1
    1fe0:	06840413          	addi	x8,x8,104
    1fe4:	fd249ce3          	bne	x9,x18,1fbc <_fwalk_sglue+0x50>
    1fe8:	000aaa83          	lw	x21,0(x21)
    1fec:	fc0a90e3          	bne	x21,x0,1fac <_fwalk_sglue+0x40>
    1ff0:	02c12083          	lw	x1,44(x2)
    1ff4:	02812403          	lw	x8,40(x2)
    1ff8:	02412483          	lw	x9,36(x2)
    1ffc:	02012903          	lw	x18,32(x2)
    2000:	01c12983          	lw	x19,28(x2)
    2004:	01412a83          	lw	x21,20(x2)
    2008:	01012b03          	lw	x22,16(x2)
    200c:	00c12b83          	lw	x23,12(x2)
    2010:	000a0513          	addi	x10,x20,0
    2014:	01812a03          	lw	x20,24(x2)
    2018:	03010113          	addi	x2,x2,48
    201c:	00008067          	jalr	x0,0(x1)

00002020 <_realloc_r>:
    2020:	fd010113          	addi	x2,x2,-48
    2024:	02912223          	sw	x9,36(x2)
    2028:	02112623          	sw	x1,44(x2)
    202c:	00060493          	addi	x9,x12,0
    2030:	1e058863          	beq	x11,x0,2220 <_realloc_r+0x200>
    2034:	02812423          	sw	x8,40(x2)
    2038:	03212023          	sw	x18,32(x2)
    203c:	00058413          	addi	x8,x11,0
    2040:	01312e23          	sw	x19,28(x2)
    2044:	01512a23          	sw	x21,20(x2)
    2048:	01412c23          	sw	x20,24(x2)
    204c:	00050913          	addi	x18,x10,0
    2050:	06d000ef          	jal	x1,28bc <__malloc_lock>
    2054:	ffc42703          	lw	x14,-4(x8)
    2058:	00b48793          	addi	x15,x9,11
    205c:	01600693          	addi	x13,x0,22
    2060:	ff840a93          	addi	x21,x8,-8
    2064:	ffc77993          	andi	x19,x14,-4
    2068:	10f6f263          	bgeu	x13,x15,216c <_realloc_r+0x14c>
    206c:	ff87fa13          	andi	x20,x15,-8
    2070:	1007c263          	blt	x15,x0,2174 <_realloc_r+0x154>
    2074:	109a6063          	bltu	x20,x9,2174 <_realloc_r+0x154>
    2078:	1349d263          	bge	x19,x20,219c <_realloc_r+0x17c>
    207c:	01812423          	sw	x24,8(x2)
    2080:	00010c17          	auipc	x24,0x10
    2084:	33cc0c13          	addi	x24,x24,828 # 123bc <__malloc_av_>
    2088:	008c2603          	lw	x12,8(x24)
    208c:	013a86b3          	add	x13,x21,x19
    2090:	0046a783          	lw	x15,4(x13)
    2094:	1cd60863          	beq	x12,x13,2264 <_realloc_r+0x244>
    2098:	ffe7f613          	andi	x12,x15,-2
    209c:	00c68633          	add	x12,x13,x12
    20a0:	00462603          	lw	x12,4(x12)
    20a4:	00167613          	andi	x12,x12,1
    20a8:	14061a63          	bne	x12,x0,21fc <_realloc_r+0x1dc>
    20ac:	ffc7f793          	andi	x15,x15,-4
    20b0:	00f98633          	add	x12,x19,x15
    20b4:	0d465863          	bge	x12,x20,2184 <_realloc_r+0x164>
    20b8:	00177713          	andi	x14,x14,1
    20bc:	02071c63          	bne	x14,x0,20f4 <_realloc_r+0xd4>
    20c0:	01712623          	sw	x23,12(x2)
    20c4:	ff842b83          	lw	x23,-8(x8)
    20c8:	01612823          	sw	x22,16(x2)
    20cc:	417a8bb3          	sub	x23,x21,x23
    20d0:	004ba703          	lw	x14,4(x23)
    20d4:	ffc77713          	andi	x14,x14,-4
    20d8:	00e787b3          	add	x15,x15,x14
    20dc:	01378b33          	add	x22,x15,x19
    20e0:	334b5c63          	bge	x22,x20,2418 <_realloc_r+0x3f8>
    20e4:	00e98b33          	add	x22,x19,x14
    20e8:	294b5863          	bge	x22,x20,2378 <_realloc_r+0x358>
    20ec:	01012b03          	lw	x22,16(x2)
    20f0:	00c12b83          	lw	x23,12(x2)
    20f4:	00048593          	addi	x11,x9,0
    20f8:	00090513          	addi	x10,x18,0
    20fc:	fcdfe0ef          	jal	x1,10c8 <_malloc_r>
    2100:	00050493          	addi	x9,x10,0
    2104:	40050863          	beq	x10,x0,2514 <_realloc_r+0x4f4>
    2108:	ffc42783          	lw	x15,-4(x8)
    210c:	ff850713          	addi	x14,x10,-8
    2110:	ffe7f793          	andi	x15,x15,-2
    2114:	00fa87b3          	add	x15,x21,x15
    2118:	24e78663          	beq	x15,x14,2364 <_realloc_r+0x344>
    211c:	ffc98613          	addi	x12,x19,-4
    2120:	02400793          	addi	x15,x0,36
    2124:	2ec7e463          	bltu	x15,x12,240c <_realloc_r+0x3ec>
    2128:	01300713          	addi	x14,x0,19
    212c:	20c76a63          	bltu	x14,x12,2340 <_realloc_r+0x320>
    2130:	00050793          	addi	x15,x10,0
    2134:	00040713          	addi	x14,x8,0
    2138:	00072683          	lw	x13,0(x14)
    213c:	00d7a023          	sw	x13,0(x15)
    2140:	00472683          	lw	x13,4(x14)
    2144:	00d7a223          	sw	x13,4(x15)
    2148:	00872703          	lw	x14,8(x14)
    214c:	00e7a423          	sw	x14,8(x15)
    2150:	00040593          	addi	x11,x8,0
    2154:	00090513          	addi	x10,x18,0
    2158:	8c9ff0ef          	jal	x1,1a20 <_free_r>
    215c:	00090513          	addi	x10,x18,0
    2160:	760000ef          	jal	x1,28c0 <__malloc_unlock>
    2164:	00812c03          	lw	x24,8(x2)
    2168:	06c0006f          	jal	x0,21d4 <_realloc_r+0x1b4>
    216c:	01000a13          	addi	x20,x0,16
    2170:	f09a74e3          	bgeu	x20,x9,2078 <_realloc_r+0x58>
    2174:	00c00793          	addi	x15,x0,12
    2178:	00f92023          	sw	x15,0(x18)
    217c:	00000493          	addi	x9,x0,0
    2180:	0540006f          	jal	x0,21d4 <_realloc_r+0x1b4>
    2184:	00c6a783          	lw	x15,12(x13)
    2188:	0086a703          	lw	x14,8(x13)
    218c:	00812c03          	lw	x24,8(x2)
    2190:	00060993          	addi	x19,x12,0
    2194:	00f72623          	sw	x15,12(x14)
    2198:	00e7a423          	sw	x14,8(x15)
    219c:	004aa783          	lw	x15,4(x21)
    21a0:	414986b3          	sub	x13,x19,x20
    21a4:	00f00613          	addi	x12,x0,15
    21a8:	0017f793          	andi	x15,x15,1
    21ac:	013a8733          	add	x14,x21,x19
    21b0:	08d66263          	bltu	x12,x13,2234 <_realloc_r+0x214>
    21b4:	0137e7b3          	or	x15,x15,x19
    21b8:	00faa223          	sw	x15,4(x21)
    21bc:	00472783          	lw	x15,4(x14)
    21c0:	0017e793          	ori	x15,x15,1
    21c4:	00f72223          	sw	x15,4(x14)
    21c8:	00090513          	addi	x10,x18,0
    21cc:	6f4000ef          	jal	x1,28c0 <__malloc_unlock>
    21d0:	00040493          	addi	x9,x8,0
    21d4:	02812403          	lw	x8,40(x2)
    21d8:	02c12083          	lw	x1,44(x2)
    21dc:	02012903          	lw	x18,32(x2)
    21e0:	01c12983          	lw	x19,28(x2)
    21e4:	01812a03          	lw	x20,24(x2)
    21e8:	01412a83          	lw	x21,20(x2)
    21ec:	00048513          	addi	x10,x9,0
    21f0:	02412483          	lw	x9,36(x2)
    21f4:	03010113          	addi	x2,x2,48
    21f8:	00008067          	jalr	x0,0(x1)
    21fc:	00177713          	andi	x14,x14,1
    2200:	ee071ae3          	bne	x14,x0,20f4 <_realloc_r+0xd4>
    2204:	01712623          	sw	x23,12(x2)
    2208:	ff842b83          	lw	x23,-8(x8)
    220c:	01612823          	sw	x22,16(x2)
    2210:	417a8bb3          	sub	x23,x21,x23
    2214:	004ba703          	lw	x14,4(x23)
    2218:	ffc77713          	andi	x14,x14,-4
    221c:	ec9ff06f          	jal	x0,20e4 <_realloc_r+0xc4>
    2220:	02c12083          	lw	x1,44(x2)
    2224:	02412483          	lw	x9,36(x2)
    2228:	00060593          	addi	x11,x12,0
    222c:	03010113          	addi	x2,x2,48
    2230:	e99fe06f          	jal	x0,10c8 <_malloc_r>
    2234:	0147e7b3          	or	x15,x15,x20
    2238:	00faa223          	sw	x15,4(x21)
    223c:	014a85b3          	add	x11,x21,x20
    2240:	0016e693          	ori	x13,x13,1
    2244:	00d5a223          	sw	x13,4(x11)
    2248:	00472783          	lw	x15,4(x14)
    224c:	00858593          	addi	x11,x11,8
    2250:	00090513          	addi	x10,x18,0
    2254:	0017e793          	ori	x15,x15,1
    2258:	00f72223          	sw	x15,4(x14)
    225c:	fc4ff0ef          	jal	x1,1a20 <_free_r>
    2260:	f69ff06f          	jal	x0,21c8 <_realloc_r+0x1a8>
    2264:	ffc7f793          	andi	x15,x15,-4
    2268:	013786b3          	add	x13,x15,x19
    226c:	010a0613          	addi	x12,x20,16
    2270:	26c6d063          	bge	x13,x12,24d0 <_realloc_r+0x4b0>
    2274:	00177713          	andi	x14,x14,1
    2278:	e6071ee3          	bne	x14,x0,20f4 <_realloc_r+0xd4>
    227c:	01712623          	sw	x23,12(x2)
    2280:	ff842b83          	lw	x23,-8(x8)
    2284:	01612823          	sw	x22,16(x2)
    2288:	417a8bb3          	sub	x23,x21,x23
    228c:	004ba703          	lw	x14,4(x23)
    2290:	ffc77713          	andi	x14,x14,-4
    2294:	00e787b3          	add	x15,x15,x14
    2298:	01378b33          	add	x22,x15,x19
    229c:	e4cb44e3          	blt	x22,x12,20e4 <_realloc_r+0xc4>
    22a0:	00cba783          	lw	x15,12(x23)
    22a4:	008ba703          	lw	x14,8(x23)
    22a8:	ffc98613          	addi	x12,x19,-4
    22ac:	02400693          	addi	x13,x0,36
    22b0:	00f72623          	sw	x15,12(x14)
    22b4:	00e7a423          	sw	x14,8(x15)
    22b8:	008b8493          	addi	x9,x23,8
    22bc:	28c6e463          	bltu	x13,x12,2544 <_realloc_r+0x524>
    22c0:	01300713          	addi	x14,x0,19
    22c4:	00048793          	addi	x15,x9,0
    22c8:	02c77263          	bgeu	x14,x12,22ec <_realloc_r+0x2cc>
    22cc:	00042703          	lw	x14,0(x8)
    22d0:	01b00793          	addi	x15,x0,27
    22d4:	00eba423          	sw	x14,8(x23)
    22d8:	00442703          	lw	x14,4(x8)
    22dc:	00eba623          	sw	x14,12(x23)
    22e0:	26c7ea63          	bltu	x15,x12,2554 <_realloc_r+0x534>
    22e4:	00840413          	addi	x8,x8,8
    22e8:	010b8793          	addi	x15,x23,16
    22ec:	00042703          	lw	x14,0(x8)
    22f0:	00e7a023          	sw	x14,0(x15)
    22f4:	00442703          	lw	x14,4(x8)
    22f8:	00e7a223          	sw	x14,4(x15)
    22fc:	00842703          	lw	x14,8(x8)
    2300:	00e7a423          	sw	x14,8(x15)
    2304:	014b8733          	add	x14,x23,x20
    2308:	414b07b3          	sub	x15,x22,x20
    230c:	00ec2423          	sw	x14,8(x24)
    2310:	0017e793          	ori	x15,x15,1
    2314:	00f72223          	sw	x15,4(x14)
    2318:	004ba783          	lw	x15,4(x23)
    231c:	00090513          	addi	x10,x18,0
    2320:	0017f793          	andi	x15,x15,1
    2324:	0147e7b3          	or	x15,x15,x20
    2328:	00fba223          	sw	x15,4(x23)
    232c:	594000ef          	jal	x1,28c0 <__malloc_unlock>
    2330:	01012b03          	lw	x22,16(x2)
    2334:	00c12b83          	lw	x23,12(x2)
    2338:	00812c03          	lw	x24,8(x2)
    233c:	e99ff06f          	jal	x0,21d4 <_realloc_r+0x1b4>
    2340:	00042683          	lw	x13,0(x8)
    2344:	01b00713          	addi	x14,x0,27
    2348:	00d52023          	sw	x13,0(x10)
    234c:	00442683          	lw	x13,4(x8)
    2350:	00d52223          	sw	x13,4(x10)
    2354:	14c76e63          	bltu	x14,x12,24b0 <_realloc_r+0x490>
    2358:	00840713          	addi	x14,x8,8
    235c:	00850793          	addi	x15,x10,8
    2360:	dd9ff06f          	jal	x0,2138 <_realloc_r+0x118>
    2364:	ffc52783          	lw	x15,-4(x10)
    2368:	00812c03          	lw	x24,8(x2)
    236c:	ffc7f793          	andi	x15,x15,-4
    2370:	00f989b3          	add	x19,x19,x15
    2374:	e29ff06f          	jal	x0,219c <_realloc_r+0x17c>
    2378:	00cba783          	lw	x15,12(x23)
    237c:	008ba703          	lw	x14,8(x23)
    2380:	ffc98613          	addi	x12,x19,-4
    2384:	02400693          	addi	x13,x0,36
    2388:	00f72623          	sw	x15,12(x14)
    238c:	00e7a423          	sw	x14,8(x15)
    2390:	008b8493          	addi	x9,x23,8
    2394:	10c6e663          	bltu	x13,x12,24a0 <_realloc_r+0x480>
    2398:	01300713          	addi	x14,x0,19
    239c:	00048793          	addi	x15,x9,0
    23a0:	02c77c63          	bgeu	x14,x12,23d8 <_realloc_r+0x3b8>
    23a4:	00042703          	lw	x14,0(x8)
    23a8:	01b00793          	addi	x15,x0,27
    23ac:	00eba423          	sw	x14,8(x23)
    23b0:	00442703          	lw	x14,4(x8)
    23b4:	00eba623          	sw	x14,12(x23)
    23b8:	14c7f863          	bgeu	x15,x12,2508 <_realloc_r+0x4e8>
    23bc:	00842783          	lw	x15,8(x8)
    23c0:	00fba823          	sw	x15,16(x23)
    23c4:	00c42783          	lw	x15,12(x8)
    23c8:	00fbaa23          	sw	x15,20(x23)
    23cc:	0ad60c63          	beq	x12,x13,2484 <_realloc_r+0x464>
    23d0:	01040413          	addi	x8,x8,16
    23d4:	018b8793          	addi	x15,x23,24
    23d8:	00042703          	lw	x14,0(x8)
    23dc:	00e7a023          	sw	x14,0(x15)
    23e0:	00442703          	lw	x14,4(x8)
    23e4:	00e7a223          	sw	x14,4(x15)
    23e8:	00842703          	lw	x14,8(x8)
    23ec:	00e7a423          	sw	x14,8(x15)
    23f0:	000b0993          	addi	x19,x22,0
    23f4:	000b8a93          	addi	x21,x23,0
    23f8:	01012b03          	lw	x22,16(x2)
    23fc:	00c12b83          	lw	x23,12(x2)
    2400:	00812c03          	lw	x24,8(x2)
    2404:	00048413          	addi	x8,x9,0
    2408:	d95ff06f          	jal	x0,219c <_realloc_r+0x17c>
    240c:	00040593          	addi	x11,x8,0
    2410:	171030ef          	jal	x1,5d80 <memmove>
    2414:	d3dff06f          	jal	x0,2150 <_realloc_r+0x130>
    2418:	00c6a783          	lw	x15,12(x13)
    241c:	0086a703          	lw	x14,8(x13)
    2420:	ffc98613          	addi	x12,x19,-4
    2424:	02400693          	addi	x13,x0,36
    2428:	00f72623          	sw	x15,12(x14)
    242c:	00e7a423          	sw	x14,8(x15)
    2430:	008ba703          	lw	x14,8(x23)
    2434:	00cba783          	lw	x15,12(x23)
    2438:	008b8493          	addi	x9,x23,8
    243c:	00f72623          	sw	x15,12(x14)
    2440:	00e7a423          	sw	x14,8(x15)
    2444:	04c6ee63          	bltu	x13,x12,24a0 <_realloc_r+0x480>
    2448:	01300713          	addi	x14,x0,19
    244c:	00048793          	addi	x15,x9,0
    2450:	f8c774e3          	bgeu	x14,x12,23d8 <_realloc_r+0x3b8>
    2454:	00042703          	lw	x14,0(x8)
    2458:	01b00793          	addi	x15,x0,27
    245c:	00eba423          	sw	x14,8(x23)
    2460:	00442703          	lw	x14,4(x8)
    2464:	00eba623          	sw	x14,12(x23)
    2468:	0ac7f063          	bgeu	x15,x12,2508 <_realloc_r+0x4e8>
    246c:	00842703          	lw	x14,8(x8)
    2470:	02400793          	addi	x15,x0,36
    2474:	00eba823          	sw	x14,16(x23)
    2478:	00c42703          	lw	x14,12(x8)
    247c:	00ebaa23          	sw	x14,20(x23)
    2480:	f4f618e3          	bne	x12,x15,23d0 <_realloc_r+0x3b0>
    2484:	01042703          	lw	x14,16(x8)
    2488:	020b8793          	addi	x15,x23,32
    248c:	01840413          	addi	x8,x8,24
    2490:	00ebac23          	sw	x14,24(x23)
    2494:	ffc42703          	lw	x14,-4(x8)
    2498:	00ebae23          	sw	x14,28(x23)
    249c:	f3dff06f          	jal	x0,23d8 <_realloc_r+0x3b8>
    24a0:	00040593          	addi	x11,x8,0
    24a4:	00048513          	addi	x10,x9,0
    24a8:	0d9030ef          	jal	x1,5d80 <memmove>
    24ac:	f45ff06f          	jal	x0,23f0 <_realloc_r+0x3d0>
    24b0:	00842703          	lw	x14,8(x8)
    24b4:	00e52423          	sw	x14,8(x10)
    24b8:	00c42703          	lw	x14,12(x8)
    24bc:	00e52623          	sw	x14,12(x10)
    24c0:	06f60463          	beq	x12,x15,2528 <_realloc_r+0x508>
    24c4:	01040713          	addi	x14,x8,16
    24c8:	01050793          	addi	x15,x10,16
    24cc:	c6dff06f          	jal	x0,2138 <_realloc_r+0x118>
    24d0:	014a8ab3          	add	x21,x21,x20
    24d4:	414687b3          	sub	x15,x13,x20
    24d8:	015c2423          	sw	x21,8(x24)
    24dc:	0017e793          	ori	x15,x15,1
    24e0:	00faa223          	sw	x15,4(x21)
    24e4:	ffc42783          	lw	x15,-4(x8)
    24e8:	00090513          	addi	x10,x18,0
    24ec:	00040493          	addi	x9,x8,0
    24f0:	0017f793          	andi	x15,x15,1
    24f4:	0147e7b3          	or	x15,x15,x20
    24f8:	fef42e23          	sw	x15,-4(x8)
    24fc:	3c4000ef          	jal	x1,28c0 <__malloc_unlock>
    2500:	00812c03          	lw	x24,8(x2)
    2504:	cd1ff06f          	jal	x0,21d4 <_realloc_r+0x1b4>
    2508:	00840413          	addi	x8,x8,8
    250c:	010b8793          	addi	x15,x23,16
    2510:	ec9ff06f          	jal	x0,23d8 <_realloc_r+0x3b8>
    2514:	00090513          	addi	x10,x18,0
    2518:	3a8000ef          	jal	x1,28c0 <__malloc_unlock>
    251c:	00000493          	addi	x9,x0,0
    2520:	00812c03          	lw	x24,8(x2)
    2524:	cb1ff06f          	jal	x0,21d4 <_realloc_r+0x1b4>
    2528:	01042683          	lw	x13,16(x8)
    252c:	01840713          	addi	x14,x8,24
    2530:	01850793          	addi	x15,x10,24
    2534:	00d52823          	sw	x13,16(x10)
    2538:	01442683          	lw	x13,20(x8)
    253c:	00d52a23          	sw	x13,20(x10)
    2540:	bf9ff06f          	jal	x0,2138 <_realloc_r+0x118>
    2544:	00040593          	addi	x11,x8,0
    2548:	00048513          	addi	x10,x9,0
    254c:	035030ef          	jal	x1,5d80 <memmove>
    2550:	db5ff06f          	jal	x0,2304 <_realloc_r+0x2e4>
    2554:	00842783          	lw	x15,8(x8)
    2558:	00fba823          	sw	x15,16(x23)
    255c:	00c42783          	lw	x15,12(x8)
    2560:	00fbaa23          	sw	x15,20(x23)
    2564:	00d60863          	beq	x12,x13,2574 <_realloc_r+0x554>
    2568:	01040413          	addi	x8,x8,16
    256c:	018b8793          	addi	x15,x23,24
    2570:	d7dff06f          	jal	x0,22ec <_realloc_r+0x2cc>
    2574:	01042703          	lw	x14,16(x8)
    2578:	020b8793          	addi	x15,x23,32
    257c:	01840413          	addi	x8,x8,24
    2580:	00ebac23          	sw	x14,24(x23)
    2584:	ffc42703          	lw	x14,-4(x8)
    2588:	00ebae23          	sw	x14,28(x23)
    258c:	d61ff06f          	jal	x0,22ec <_realloc_r+0x2cc>

00002590 <__sflush_r>:
    2590:	00c59703          	lh	x14,12(x11)
    2594:	fe010113          	addi	x2,x2,-32
    2598:	00812c23          	sw	x8,24(x2)
    259c:	01312623          	sw	x19,12(x2)
    25a0:	00112e23          	sw	x1,28(x2)
    25a4:	00877793          	andi	x15,x14,8
    25a8:	00058413          	addi	x8,x11,0
    25ac:	00050993          	addi	x19,x10,0
    25b0:	12079063          	bne	x15,x0,26d0 <__sflush_r+0x140>
    25b4:	000017b7          	lui	x15,0x1
    25b8:	80078793          	addi	x15,x15,-2048 # 800 <global_stdio_init.part.0+0x34>
    25bc:	0045a683          	lw	x13,4(x11)
    25c0:	00f767b3          	or	x15,x14,x15
    25c4:	00f59623          	sh	x15,12(x11)
    25c8:	18d05263          	bge	x0,x13,274c <__sflush_r+0x1bc>
    25cc:	02842803          	lw	x16,40(x8)
    25d0:	0e080463          	beq	x16,x0,26b8 <__sflush_r+0x128>
    25d4:	00912a23          	sw	x9,20(x2)
    25d8:	01371693          	slli	x13,x14,0x13
    25dc:	0009a483          	lw	x9,0(x19)
    25e0:	0009a023          	sw	x0,0(x19)
    25e4:	01c42583          	lw	x11,28(x8)
    25e8:	1606ce63          	blt	x13,x0,2764 <__sflush_r+0x1d4>
    25ec:	00000613          	addi	x12,x0,0
    25f0:	00100693          	addi	x13,x0,1
    25f4:	00098513          	addi	x10,x19,0
    25f8:	000800e7          	jalr	x1,0(x16)
    25fc:	fff00793          	addi	x15,x0,-1
    2600:	00050613          	addi	x12,x10,0
    2604:	1af50463          	beq	x10,x15,27ac <__sflush_r+0x21c>
    2608:	00c41783          	lh	x15,12(x8)
    260c:	02842803          	lw	x16,40(x8)
    2610:	01c42583          	lw	x11,28(x8)
    2614:	0047f793          	andi	x15,x15,4
    2618:	00078e63          	beq	x15,x0,2634 <__sflush_r+0xa4>
    261c:	00442703          	lw	x14,4(x8)
    2620:	03042783          	lw	x15,48(x8)
    2624:	40e60633          	sub	x12,x12,x14
    2628:	00078663          	beq	x15,x0,2634 <__sflush_r+0xa4>
    262c:	03c42783          	lw	x15,60(x8)
    2630:	40f60633          	sub	x12,x12,x15
    2634:	00000693          	addi	x13,x0,0
    2638:	00098513          	addi	x10,x19,0
    263c:	000800e7          	jalr	x1,0(x16)
    2640:	fff00793          	addi	x15,x0,-1
    2644:	12f51463          	bne	x10,x15,276c <__sflush_r+0x1dc>
    2648:	0009a683          	lw	x13,0(x19)
    264c:	01d00793          	addi	x15,x0,29
    2650:	00c41703          	lh	x14,12(x8)
    2654:	16d7ea63          	bltu	x15,x13,27c8 <__sflush_r+0x238>
    2658:	204007b7          	lui	x15,0x20400
    265c:	00178793          	addi	x15,x15,1 # 20400001 <__heap_end+0x20000001>
    2660:	00d7d7b3          	srl	x15,x15,x13
    2664:	0017f793          	andi	x15,x15,1
    2668:	16078063          	beq	x15,x0,27c8 <__sflush_r+0x238>
    266c:	01042603          	lw	x12,16(x8)
    2670:	fffff7b7          	lui	x15,0xfffff
    2674:	7ff78793          	addi	x15,x15,2047 # fffff7ff <__heap_end+0xffbff7ff>
    2678:	00f777b3          	and	x15,x14,x15
    267c:	00f41623          	sh	x15,12(x8)
    2680:	00042223          	sw	x0,4(x8)
    2684:	00c42023          	sw	x12,0(x8)
    2688:	01371793          	slli	x15,x14,0x13
    268c:	0007d463          	bge	x15,x0,2694 <__sflush_r+0x104>
    2690:	10068263          	beq	x13,x0,2794 <__sflush_r+0x204>
    2694:	03042583          	lw	x11,48(x8)
    2698:	0099a023          	sw	x9,0(x19)
    269c:	10058463          	beq	x11,x0,27a4 <__sflush_r+0x214>
    26a0:	04040793          	addi	x15,x8,64
    26a4:	00f58663          	beq	x11,x15,26b0 <__sflush_r+0x120>
    26a8:	00098513          	addi	x10,x19,0
    26ac:	b74ff0ef          	jal	x1,1a20 <_free_r>
    26b0:	01412483          	lw	x9,20(x2)
    26b4:	02042823          	sw	x0,48(x8)
    26b8:	00000513          	addi	x10,x0,0
    26bc:	01c12083          	lw	x1,28(x2)
    26c0:	01812403          	lw	x8,24(x2)
    26c4:	00c12983          	lw	x19,12(x2)
    26c8:	02010113          	addi	x2,x2,32
    26cc:	00008067          	jalr	x0,0(x1)
    26d0:	01212823          	sw	x18,16(x2)
    26d4:	0105a903          	lw	x18,16(x11)
    26d8:	08090263          	beq	x18,x0,275c <__sflush_r+0x1cc>
    26dc:	00912a23          	sw	x9,20(x2)
    26e0:	0005a483          	lw	x9,0(x11)
    26e4:	00377713          	andi	x14,x14,3
    26e8:	0125a023          	sw	x18,0(x11)
    26ec:	412484b3          	sub	x9,x9,x18
    26f0:	00000793          	addi	x15,x0,0
    26f4:	00071463          	bne	x14,x0,26fc <__sflush_r+0x16c>
    26f8:	0145a783          	lw	x15,20(x11)
    26fc:	00f42423          	sw	x15,8(x8)
    2700:	00904863          	blt	x0,x9,2710 <__sflush_r+0x180>
    2704:	0540006f          	jal	x0,2758 <__sflush_r+0x1c8>
    2708:	00a90933          	add	x18,x18,x10
    270c:	04905663          	bge	x0,x9,2758 <__sflush_r+0x1c8>
    2710:	02442783          	lw	x15,36(x8)
    2714:	01c42583          	lw	x11,28(x8)
    2718:	00048693          	addi	x13,x9,0
    271c:	00090613          	addi	x12,x18,0
    2720:	00098513          	addi	x10,x19,0
    2724:	000780e7          	jalr	x1,0(x15)
    2728:	40a484b3          	sub	x9,x9,x10
    272c:	fca04ee3          	blt	x0,x10,2708 <__sflush_r+0x178>
    2730:	00c41703          	lh	x14,12(x8)
    2734:	01012903          	lw	x18,16(x2)
    2738:	04076713          	ori	x14,x14,64
    273c:	01412483          	lw	x9,20(x2)
    2740:	00e41623          	sh	x14,12(x8)
    2744:	fff00513          	addi	x10,x0,-1
    2748:	f75ff06f          	jal	x0,26bc <__sflush_r+0x12c>
    274c:	03c5a683          	lw	x13,60(x11)
    2750:	e6d04ee3          	blt	x0,x13,25cc <__sflush_r+0x3c>
    2754:	f65ff06f          	jal	x0,26b8 <__sflush_r+0x128>
    2758:	01412483          	lw	x9,20(x2)
    275c:	01012903          	lw	x18,16(x2)
    2760:	f59ff06f          	jal	x0,26b8 <__sflush_r+0x128>
    2764:	05042603          	lw	x12,80(x8)
    2768:	eadff06f          	jal	x0,2614 <__sflush_r+0x84>
    276c:	00c41703          	lh	x14,12(x8)
    2770:	01042683          	lw	x13,16(x8)
    2774:	fffff7b7          	lui	x15,0xfffff
    2778:	7ff78793          	addi	x15,x15,2047 # fffff7ff <__heap_end+0xffbff7ff>
    277c:	00f777b3          	and	x15,x14,x15
    2780:	00f41623          	sh	x15,12(x8)
    2784:	00042223          	sw	x0,4(x8)
    2788:	00d42023          	sw	x13,0(x8)
    278c:	01371793          	slli	x15,x14,0x13
    2790:	f007d2e3          	bge	x15,x0,2694 <__sflush_r+0x104>
    2794:	03042583          	lw	x11,48(x8)
    2798:	04a42823          	sw	x10,80(x8)
    279c:	0099a023          	sw	x9,0(x19)
    27a0:	f00590e3          	bne	x11,x0,26a0 <__sflush_r+0x110>
    27a4:	01412483          	lw	x9,20(x2)
    27a8:	f11ff06f          	jal	x0,26b8 <__sflush_r+0x128>
    27ac:	0009a783          	lw	x15,0(x19)
    27b0:	e4078ce3          	beq	x15,x0,2608 <__sflush_r+0x78>
    27b4:	01d00713          	addi	x14,x0,29
    27b8:	00e78c63          	beq	x15,x14,27d0 <__sflush_r+0x240>
    27bc:	01600713          	addi	x14,x0,22
    27c0:	00e78863          	beq	x15,x14,27d0 <__sflush_r+0x240>
    27c4:	00c41703          	lh	x14,12(x8)
    27c8:	04076713          	ori	x14,x14,64
    27cc:	f71ff06f          	jal	x0,273c <__sflush_r+0x1ac>
    27d0:	0099a023          	sw	x9,0(x19)
    27d4:	01412483          	lw	x9,20(x2)
    27d8:	ee1ff06f          	jal	x0,26b8 <__sflush_r+0x128>

000027dc <_fflush_r>:
    27dc:	fe010113          	addi	x2,x2,-32
    27e0:	00812c23          	sw	x8,24(x2)
    27e4:	00112e23          	sw	x1,28(x2)
    27e8:	00050413          	addi	x8,x10,0
    27ec:	00050663          	beq	x10,x0,27f8 <_fflush_r+0x1c>
    27f0:	03452783          	lw	x15,52(x10)
    27f4:	02078a63          	beq	x15,x0,2828 <_fflush_r+0x4c>
    27f8:	00c59783          	lh	x15,12(x11)
    27fc:	00079c63          	bne	x15,x0,2814 <_fflush_r+0x38>
    2800:	01c12083          	lw	x1,28(x2)
    2804:	01812403          	lw	x8,24(x2)
    2808:	00000513          	addi	x10,x0,0
    280c:	02010113          	addi	x2,x2,32
    2810:	00008067          	jalr	x0,0(x1)
    2814:	00040513          	addi	x10,x8,0
    2818:	01812403          	lw	x8,24(x2)
    281c:	01c12083          	lw	x1,28(x2)
    2820:	02010113          	addi	x2,x2,32
    2824:	d6dff06f          	jal	x0,2590 <__sflush_r>
    2828:	00b12623          	sw	x11,12(x2)
    282c:	a1cfe0ef          	jal	x1,a48 <__sinit>
    2830:	00c12583          	lw	x11,12(x2)
    2834:	fc5ff06f          	jal	x0,27f8 <_fflush_r+0x1c>

00002838 <fflush>:
    2838:	06050063          	beq	x10,x0,2898 <fflush+0x60>
    283c:	00050593          	addi	x11,x10,0
    2840:	f141a503          	lw	x10,-236(x3) # 12ac4 <_impure_ptr>
    2844:	00050663          	beq	x10,x0,2850 <fflush+0x18>
    2848:	03452783          	lw	x15,52(x10)
    284c:	00078c63          	beq	x15,x0,2864 <fflush+0x2c>
    2850:	00c59783          	lh	x15,12(x11)
    2854:	00079663          	bne	x15,x0,2860 <fflush+0x28>
    2858:	00000513          	addi	x10,x0,0
    285c:	00008067          	jalr	x0,0(x1)
    2860:	d31ff06f          	jal	x0,2590 <__sflush_r>
    2864:	fe010113          	addi	x2,x2,-32
    2868:	00b12623          	sw	x11,12(x2)
    286c:	00a12423          	sw	x10,8(x2)
    2870:	00112e23          	sw	x1,28(x2)
    2874:	9d4fe0ef          	jal	x1,a48 <__sinit>
    2878:	00c12583          	lw	x11,12(x2)
    287c:	00812503          	lw	x10,8(x2)
    2880:	00c59783          	lh	x15,12(x11)
    2884:	02079663          	bne	x15,x0,28b0 <fflush+0x78>
    2888:	01c12083          	lw	x1,28(x2)
    288c:	00000513          	addi	x10,x0,0
    2890:	02010113          	addi	x2,x2,32
    2894:	00008067          	jalr	x0,0(x1)
    2898:	00010617          	auipc	x12,0x10
    289c:	b1860613          	addi	x12,x12,-1256 # 123b0 <__sglue>
    28a0:	00000597          	auipc	x11,0x0
    28a4:	f3c58593          	addi	x11,x11,-196 # 27dc <_fflush_r>
    28a8:	c1818513          	addi	x10,x3,-1000 # 127c8 <_impure_data>
    28ac:	ec0ff06f          	jal	x0,1f6c <_fwalk_sglue>
    28b0:	01c12083          	lw	x1,28(x2)
    28b4:	02010113          	addi	x2,x2,32
    28b8:	cd9ff06f          	jal	x0,2590 <__sflush_r>

000028bc <__malloc_lock>:
    28bc:	00008067          	jalr	x0,0(x1)

000028c0 <__malloc_unlock>:
    28c0:	00008067          	jalr	x0,0(x1)

000028c4 <__libc_init_array>:
    28c4:	ff010113          	addi	x2,x2,-16
    28c8:	00812423          	sw	x8,8(x2)
    28cc:	01212023          	sw	x18,0(x2)
    28d0:	00010797          	auipc	x15,0x10
    28d4:	adc78793          	addi	x15,x15,-1316 # 123ac <__init_array_start>
    28d8:	00010417          	auipc	x8,0x10
    28dc:	ad440413          	addi	x8,x8,-1324 # 123ac <__init_array_start>
    28e0:	00112623          	sw	x1,12(x2)
    28e4:	00912223          	sw	x9,4(x2)
    28e8:	40878933          	sub	x18,x15,x8
    28ec:	02878063          	beq	x15,x8,290c <__libc_init_array+0x48>
    28f0:	40295913          	srai	x18,x18,0x2
    28f4:	00000493          	addi	x9,x0,0
    28f8:	00042783          	lw	x15,0(x8)
    28fc:	00148493          	addi	x9,x9,1
    2900:	00440413          	addi	x8,x8,4
    2904:	000780e7          	jalr	x1,0(x15)
    2908:	ff24e8e3          	bltu	x9,x18,28f8 <__libc_init_array+0x34>
    290c:	00010797          	auipc	x15,0x10
    2910:	aa478793          	addi	x15,x15,-1372 # 123b0 <__sglue>
    2914:	00010417          	auipc	x8,0x10
    2918:	a9840413          	addi	x8,x8,-1384 # 123ac <__init_array_start>
    291c:	40878933          	sub	x18,x15,x8
    2920:	40295913          	srai	x18,x18,0x2
    2924:	00878e63          	beq	x15,x8,2940 <__libc_init_array+0x7c>
    2928:	00000493          	addi	x9,x0,0
    292c:	00042783          	lw	x15,0(x8)
    2930:	00148493          	addi	x9,x9,1
    2934:	00440413          	addi	x8,x8,4
    2938:	000780e7          	jalr	x1,0(x15)
    293c:	ff24e8e3          	bltu	x9,x18,292c <__libc_init_array+0x68>
    2940:	00c12083          	lw	x1,12(x2)
    2944:	00812403          	lw	x8,8(x2)
    2948:	00412483          	lw	x9,4(x2)
    294c:	00012903          	lw	x18,0(x2)
    2950:	01010113          	addi	x2,x2,16
    2954:	00008067          	jalr	x0,0(x1)

00002958 <exit>:
    2958:	ff010113          	addi	x2,x2,-16
    295c:	00000593          	addi	x11,x0,0
    2960:	00812423          	sw	x8,8(x2)
    2964:	00112623          	sw	x1,12(x2)
    2968:	00050413          	addi	x8,x10,0
    296c:	09d060ef          	jal	x1,9208 <__call_exitprocs>
    2970:	f1c1a783          	lw	x15,-228(x3) # 12acc <__stdio_exit_handler>
    2974:	00078463          	beq	x15,x0,297c <exit+0x24>
    2978:	000780e7          	jalr	x1,0(x15)
    297c:	00040513          	addi	x10,x8,0
    2980:	995fd0ef          	jal	x1,314 <_exit>

00002984 <atexit>:
    2984:	00050593          	addi	x11,x10,0
    2988:	00000693          	addi	x13,x0,0
    298c:	00000613          	addi	x12,x0,0
    2990:	00000513          	addi	x10,x0,0
    2994:	2090606f          	jal	x0,939c <__register_exitproc>

00002998 <__swsetup_r>:
    2998:	ff010113          	addi	x2,x2,-16
    299c:	00812423          	sw	x8,8(x2)
    29a0:	00912223          	sw	x9,4(x2)
    29a4:	00112623          	sw	x1,12(x2)
    29a8:	f141a783          	lw	x15,-236(x3) # 12ac4 <_impure_ptr>
    29ac:	00050493          	addi	x9,x10,0
    29b0:	00058413          	addi	x8,x11,0
    29b4:	00078663          	beq	x15,x0,29c0 <__swsetup_r+0x28>
    29b8:	0347a703          	lw	x14,52(x15)
    29bc:	0e070c63          	beq	x14,x0,2ab4 <__swsetup_r+0x11c>
    29c0:	00c41783          	lh	x15,12(x8)
    29c4:	0087f713          	andi	x14,x15,8
    29c8:	06070a63          	beq	x14,x0,2a3c <__swsetup_r+0xa4>
    29cc:	01042703          	lw	x14,16(x8)
    29d0:	08070663          	beq	x14,x0,2a5c <__swsetup_r+0xc4>
    29d4:	0017f693          	andi	x13,x15,1
    29d8:	02068863          	beq	x13,x0,2a08 <__swsetup_r+0x70>
    29dc:	01442683          	lw	x13,20(x8)
    29e0:	00042423          	sw	x0,8(x8)
    29e4:	00000513          	addi	x10,x0,0
    29e8:	40d006b3          	sub	x13,x0,x13
    29ec:	00d42c23          	sw	x13,24(x8)
    29f0:	02070a63          	beq	x14,x0,2a24 <__swsetup_r+0x8c>
    29f4:	00c12083          	lw	x1,12(x2)
    29f8:	00812403          	lw	x8,8(x2)
    29fc:	00412483          	lw	x9,4(x2)
    2a00:	01010113          	addi	x2,x2,16
    2a04:	00008067          	jalr	x0,0(x1)
    2a08:	0027f693          	andi	x13,x15,2
    2a0c:	00000613          	addi	x12,x0,0
    2a10:	00069463          	bne	x13,x0,2a18 <__swsetup_r+0x80>
    2a14:	01442603          	lw	x12,20(x8)
    2a18:	00c42423          	sw	x12,8(x8)
    2a1c:	00000513          	addi	x10,x0,0
    2a20:	fc071ae3          	bne	x14,x0,29f4 <__swsetup_r+0x5c>
    2a24:	0807f713          	andi	x14,x15,128
    2a28:	fc0706e3          	beq	x14,x0,29f4 <__swsetup_r+0x5c>
    2a2c:	0407e793          	ori	x15,x15,64
    2a30:	00f41623          	sh	x15,12(x8)
    2a34:	fff00513          	addi	x10,x0,-1
    2a38:	fbdff06f          	jal	x0,29f4 <__swsetup_r+0x5c>
    2a3c:	0107f713          	andi	x14,x15,16
    2a40:	08070063          	beq	x14,x0,2ac0 <__swsetup_r+0x128>
    2a44:	0047f713          	andi	x14,x15,4
    2a48:	02071c63          	bne	x14,x0,2a80 <__swsetup_r+0xe8>
    2a4c:	01042703          	lw	x14,16(x8)
    2a50:	0087e793          	ori	x15,x15,8
    2a54:	00f41623          	sh	x15,12(x8)
    2a58:	f6071ee3          	bne	x14,x0,29d4 <__swsetup_r+0x3c>
    2a5c:	2807f693          	andi	x13,x15,640
    2a60:	20000613          	addi	x12,x0,512
    2a64:	f6c688e3          	beq	x13,x12,29d4 <__swsetup_r+0x3c>
    2a68:	00040593          	addi	x11,x8,0
    2a6c:	00048513          	addi	x10,x9,0
    2a70:	461060ef          	jal	x1,96d0 <__smakebuf_r>
    2a74:	00c41783          	lh	x15,12(x8)
    2a78:	01042703          	lw	x14,16(x8)
    2a7c:	f59ff06f          	jal	x0,29d4 <__swsetup_r+0x3c>
    2a80:	03042583          	lw	x11,48(x8)
    2a84:	00058e63          	beq	x11,x0,2aa0 <__swsetup_r+0x108>
    2a88:	04040713          	addi	x14,x8,64
    2a8c:	00e58863          	beq	x11,x14,2a9c <__swsetup_r+0x104>
    2a90:	00048513          	addi	x10,x9,0
    2a94:	f8dfe0ef          	jal	x1,1a20 <_free_r>
    2a98:	00c41783          	lh	x15,12(x8)
    2a9c:	02042823          	sw	x0,48(x8)
    2aa0:	01042703          	lw	x14,16(x8)
    2aa4:	fdb7f793          	andi	x15,x15,-37
    2aa8:	00042223          	sw	x0,4(x8)
    2aac:	00e42023          	sw	x14,0(x8)
    2ab0:	fa1ff06f          	jal	x0,2a50 <__swsetup_r+0xb8>
    2ab4:	00078513          	addi	x10,x15,0
    2ab8:	f91fd0ef          	jal	x1,a48 <__sinit>
    2abc:	f05ff06f          	jal	x0,29c0 <__swsetup_r+0x28>
    2ac0:	00900713          	addi	x14,x0,9
    2ac4:	00e4a023          	sw	x14,0(x9)
    2ac8:	0407e793          	ori	x15,x15,64
    2acc:	00f41623          	sh	x15,12(x8)
    2ad0:	fff00513          	addi	x10,x0,-1
    2ad4:	f21ff06f          	jal	x0,29f4 <__swsetup_r+0x5c>

00002ad8 <__sread>:
    2ad8:	ff010113          	addi	x2,x2,-16
    2adc:	00812423          	sw	x8,8(x2)
    2ae0:	00058413          	addi	x8,x11,0
    2ae4:	00e59583          	lh	x11,14(x11)
    2ae8:	00112623          	sw	x1,12(x2)
    2aec:	510070ef          	jal	x1,9ffc <_read_r>
    2af0:	02054063          	blt	x10,x0,2b10 <__sread+0x38>
    2af4:	05042783          	lw	x15,80(x8)
    2af8:	00c12083          	lw	x1,12(x2)
    2afc:	00a787b3          	add	x15,x15,x10
    2b00:	04f42823          	sw	x15,80(x8)
    2b04:	00812403          	lw	x8,8(x2)
    2b08:	01010113          	addi	x2,x2,16
    2b0c:	00008067          	jalr	x0,0(x1)
    2b10:	00c45783          	lhu	x15,12(x8)
    2b14:	fffff737          	lui	x14,0xfffff
    2b18:	fff70713          	addi	x14,x14,-1 # ffffefff <__heap_end+0xffbfefff>
    2b1c:	00e7f7b3          	and	x15,x15,x14
    2b20:	00c12083          	lw	x1,12(x2)
    2b24:	00f41623          	sh	x15,12(x8)
    2b28:	00812403          	lw	x8,8(x2)
    2b2c:	01010113          	addi	x2,x2,16
    2b30:	00008067          	jalr	x0,0(x1)

00002b34 <__seofread>:
    2b34:	00000513          	addi	x10,x0,0
    2b38:	00008067          	jalr	x0,0(x1)

00002b3c <__swrite>:
    2b3c:	00c59783          	lh	x15,12(x11)
    2b40:	fe010113          	addi	x2,x2,-32
    2b44:	00812c23          	sw	x8,24(x2)
    2b48:	00912a23          	sw	x9,20(x2)
    2b4c:	01212823          	sw	x18,16(x2)
    2b50:	01312623          	sw	x19,12(x2)
    2b54:	00112e23          	sw	x1,28(x2)
    2b58:	1007f713          	andi	x14,x15,256
    2b5c:	00058413          	addi	x8,x11,0
    2b60:	00050493          	addi	x9,x10,0
    2b64:	00060913          	addi	x18,x12,0
    2b68:	00068993          	addi	x19,x13,0
    2b6c:	04071063          	bne	x14,x0,2bac <__swrite+0x70>
    2b70:	fffff737          	lui	x14,0xfffff
    2b74:	fff70713          	addi	x14,x14,-1 # ffffefff <__heap_end+0xffbfefff>
    2b78:	00e7f7b3          	and	x15,x15,x14
    2b7c:	00e41583          	lh	x11,14(x8)
    2b80:	00f41623          	sh	x15,12(x8)
    2b84:	01812403          	lw	x8,24(x2)
    2b88:	01c12083          	lw	x1,28(x2)
    2b8c:	00098693          	addi	x13,x19,0
    2b90:	00090613          	addi	x12,x18,0
    2b94:	00c12983          	lw	x19,12(x2)
    2b98:	01012903          	lw	x18,16(x2)
    2b9c:	00048513          	addi	x10,x9,0
    2ba0:	01412483          	lw	x9,20(x2)
    2ba4:	02010113          	addi	x2,x2,32
    2ba8:	7980606f          	jal	x0,9340 <_write_r>
    2bac:	00e59583          	lh	x11,14(x11)
    2bb0:	00200693          	addi	x13,x0,2
    2bb4:	00000613          	addi	x12,x0,0
    2bb8:	09c070ef          	jal	x1,9c54 <_lseek_r>
    2bbc:	00c41783          	lh	x15,12(x8)
    2bc0:	fb1ff06f          	jal	x0,2b70 <__swrite+0x34>

00002bc4 <__sseek>:
    2bc4:	ff010113          	addi	x2,x2,-16
    2bc8:	00812423          	sw	x8,8(x2)
    2bcc:	00058413          	addi	x8,x11,0
    2bd0:	00e59583          	lh	x11,14(x11)
    2bd4:	00112623          	sw	x1,12(x2)
    2bd8:	07c070ef          	jal	x1,9c54 <_lseek_r>
    2bdc:	fff00793          	addi	x15,x0,-1
    2be0:	02f50863          	beq	x10,x15,2c10 <__sseek+0x4c>
    2be4:	00c45783          	lhu	x15,12(x8)
    2be8:	00001737          	lui	x14,0x1
    2bec:	00c12083          	lw	x1,12(x2)
    2bf0:	00e7e7b3          	or	x15,x15,x14
    2bf4:	01079793          	slli	x15,x15,0x10
    2bf8:	4107d793          	srai	x15,x15,0x10
    2bfc:	04a42823          	sw	x10,80(x8)
    2c00:	00f41623          	sh	x15,12(x8)
    2c04:	00812403          	lw	x8,8(x2)
    2c08:	01010113          	addi	x2,x2,16
    2c0c:	00008067          	jalr	x0,0(x1)
    2c10:	00c45783          	lhu	x15,12(x8)
    2c14:	fffff737          	lui	x14,0xfffff
    2c18:	fff70713          	addi	x14,x14,-1 # ffffefff <__heap_end+0xffbfefff>
    2c1c:	00e7f7b3          	and	x15,x15,x14
    2c20:	01079793          	slli	x15,x15,0x10
    2c24:	4107d793          	srai	x15,x15,0x10
    2c28:	00c12083          	lw	x1,12(x2)
    2c2c:	00f41623          	sh	x15,12(x8)
    2c30:	00812403          	lw	x8,8(x2)
    2c34:	01010113          	addi	x2,x2,16
    2c38:	00008067          	jalr	x0,0(x1)

00002c3c <__sclose>:
    2c3c:	00e59583          	lh	x11,14(x11)
    2c40:	7f40606f          	jal	x0,9434 <_close_r>

00002c44 <_vfprintf_r>:
    2c44:	e3010113          	addi	x2,x2,-464
    2c48:	1c112623          	sw	x1,460(x2)
    2c4c:	1c812423          	sw	x8,456(x2)
    2c50:	1d212023          	sw	x18,448(x2)
    2c54:	00b12023          	sw	x11,0(x2)
    2c58:	00060913          	addi	x18,x12,0
    2c5c:	00d12623          	sw	x13,12(x2)
    2c60:	00050413          	addi	x8,x10,0
    2c64:	02a12023          	sw	x10,32(x2)
    2c68:	384070ef          	jal	x1,9fec <_localeconv_r>
    2c6c:	00052703          	lw	x14,0(x10)
    2c70:	00070513          	addi	x10,x14,0
    2c74:	02e12423          	sw	x14,40(x2)
    2c78:	8c8ff0ef          	jal	x1,1d40 <strlen>
    2c7c:	02a12223          	sw	x10,36(x2)
    2c80:	0c012823          	sw	x0,208(x2)
    2c84:	0c012a23          	sw	x0,212(x2)
    2c88:	0c012c23          	sw	x0,216(x2)
    2c8c:	0c012e23          	sw	x0,220(x2)
    2c90:	00040863          	beq	x8,x0,2ca0 <_vfprintf_r+0x5c>
    2c94:	03442703          	lw	x14,52(x8)
    2c98:	00071463          	bne	x14,x0,2ca0 <_vfprintf_r+0x5c>
    2c9c:	2010106f          	jal	x0,469c <_vfprintf_r+0x1a58>
    2ca0:	00012783          	lw	x15,0(x2)
    2ca4:	00c79703          	lh	x14,12(x15)
    2ca8:	01271693          	slli	x13,x14,0x12
    2cac:	0206c663          	blt	x13,x0,2cd8 <_vfprintf_r+0x94>
    2cb0:	0647a683          	lw	x13,100(x15)
    2cb4:	000025b7          	lui	x11,0x2
    2cb8:	ffffe637          	lui	x12,0xffffe
    2cbc:	00b76733          	or	x14,x14,x11
    2cc0:	fff60613          	addi	x12,x12,-1 # ffffdfff <__heap_end+0xffbfdfff>
    2cc4:	01071713          	slli	x14,x14,0x10
    2cc8:	41075713          	srai	x14,x14,0x10
    2ccc:	00c6f6b3          	and	x13,x13,x12
    2cd0:	00e79623          	sh	x14,12(x15)
    2cd4:	06d7a223          	sw	x13,100(x15)
    2cd8:	00877693          	andi	x13,x14,8
    2cdc:	30068a63          	beq	x13,x0,2ff0 <_vfprintf_r+0x3ac>
    2ce0:	00012783          	lw	x15,0(x2)
    2ce4:	0107a683          	lw	x13,16(x15)
    2ce8:	30068463          	beq	x13,x0,2ff0 <_vfprintf_r+0x3ac>
    2cec:	01a77713          	andi	x14,x14,26
    2cf0:	00a00693          	addi	x13,x0,10
    2cf4:	32d70263          	beq	x14,x13,3018 <_vfprintf_r+0x3d4>
    2cf8:	1c912223          	sw	x9,452(x2)
    2cfc:	1b512a23          	sw	x21,436(x2)
    2d00:	1b812423          	sw	x24,424(x2)
    2d04:	1ba12023          	sw	x26,416(x2)
    2d08:	1b312e23          	sw	x19,444(x2)
    2d0c:	1b412c23          	sw	x20,440(x2)
    2d10:	1b612823          	sw	x22,432(x2)
    2d14:	1b712623          	sw	x23,428(x2)
    2d18:	1b912223          	sw	x25,420(x2)
    2d1c:	19b12e23          	sw	x27,412(x2)
    2d20:	00090d13          	addi	x26,x18,0
    2d24:	000d4703          	lbu	x14,0(x26)
    2d28:	0ec10c13          	addi	x24,x2,236
    2d2c:	0d812223          	sw	x24,196(x2)
    2d30:	0c012623          	sw	x0,204(x2)
    2d34:	0c012423          	sw	x0,200(x2)
    2d38:	00012823          	sw	x0,16(x2)
    2d3c:	02012623          	sw	x0,44(x2)
    2d40:	02012c23          	sw	x0,56(x2)
    2d44:	02012a23          	sw	x0,52(x2)
    2d48:	04012223          	sw	x0,68(x2)
    2d4c:	02012e23          	sw	x0,60(x2)
    2d50:	00012223          	sw	x0,4(x2)
    2d54:	02012a83          	lw	x21,32(x2)
    2d58:	01000413          	addi	x8,x0,16
    2d5c:	000c0493          	addi	x9,x24,0
    2d60:	22070863          	beq	x14,x0,2f90 <_vfprintf_r+0x34c>
    2d64:	000d0993          	addi	x19,x26,0
    2d68:	02500693          	addi	x13,x0,37
    2d6c:	32d70263          	beq	x14,x13,3090 <_vfprintf_r+0x44c>
    2d70:	0019c703          	lbu	x14,1(x19)
    2d74:	00198993          	addi	x19,x19,1
    2d78:	fe071ae3          	bne	x14,x0,2d6c <_vfprintf_r+0x128>
    2d7c:	41a98933          	sub	x18,x19,x26
    2d80:	21a98863          	beq	x19,x26,2f90 <_vfprintf_r+0x34c>
    2d84:	0cc12683          	lw	x13,204(x2)
    2d88:	0c812703          	lw	x14,200(x2)
    2d8c:	01a4a023          	sw	x26,0(x9)
    2d90:	012686b3          	add	x13,x13,x18
    2d94:	00170713          	addi	x14,x14,1
    2d98:	0124a223          	sw	x18,4(x9)
    2d9c:	0cd12623          	sw	x13,204(x2)
    2da0:	0ce12423          	sw	x14,200(x2)
    2da4:	00700693          	addi	x13,x0,7
    2da8:	00848493          	addi	x9,x9,8
    2dac:	2ee6ca63          	blt	x13,x14,30a0 <_vfprintf_r+0x45c>
    2db0:	00412783          	lw	x15,4(x2)
    2db4:	0009c703          	lbu	x14,0(x19)
    2db8:	012787b3          	add	x15,x15,x18
    2dbc:	00f12223          	sw	x15,4(x2)
    2dc0:	1c070863          	beq	x14,x0,2f90 <_vfprintf_r+0x34c>
    2dc4:	00000e13          	addi	x28,x0,0
    2dc8:	0019c883          	lbu	x17,1(x19)
    2dcc:	0a0103a3          	sb	x0,167(x2)
    2dd0:	00198993          	addi	x19,x19,1
    2dd4:	fff00a13          	addi	x20,x0,-1
    2dd8:	00000c93          	addi	x25,x0,0
    2ddc:	05a00913          	addi	x18,x0,90
    2de0:	000e0b13          	addi	x22,x28,0
    2de4:	00198993          	addi	x19,x19,1
    2de8:	fe088793          	addi	x15,x17,-32
    2dec:	04f96a63          	bltu	x18,x15,2e40 <_vfprintf_r+0x1fc>
    2df0:	0000f717          	auipc	x14,0xf
    2df4:	e2070713          	addi	x14,x14,-480 # 11c10 <no_exception_handler_msg+0xb4>
    2df8:	00279793          	slli	x15,x15,0x2
    2dfc:	00e787b3          	add	x15,x15,x14
    2e00:	0007a783          	lw	x15,0(x15)
    2e04:	00e787b3          	add	x15,x15,x14
    2e08:	00078067          	jalr	x0,0(x15)
    2e0c:	00000c93          	addi	x25,x0,0
    2e10:	fd088793          	addi	x15,x17,-48
    2e14:	00900693          	addi	x13,x0,9
    2e18:	0009c883          	lbu	x17,0(x19)
    2e1c:	002c9713          	slli	x14,x25,0x2
    2e20:	01970cb3          	add	x25,x14,x25
    2e24:	001c9c93          	slli	x25,x25,0x1
    2e28:	01978cb3          	add	x25,x15,x25
    2e2c:	fd088793          	addi	x15,x17,-48
    2e30:	00198993          	addi	x19,x19,1
    2e34:	fef6f2e3          	bgeu	x13,x15,2e18 <_vfprintf_r+0x1d4>
    2e38:	fe088793          	addi	x15,x17,-32
    2e3c:	faf97ae3          	bgeu	x18,x15,2df0 <_vfprintf_r+0x1ac>
    2e40:	000b0e13          	addi	x28,x22,0
    2e44:	14088663          	beq	x17,x0,2f90 <_vfprintf_r+0x34c>
    2e48:	13110623          	sb	x17,300(x2)
    2e4c:	0a0103a3          	sb	x0,167(x2)
    2e50:	00100d93          	addi	x27,x0,1
    2e54:	00100913          	addi	x18,x0,1
    2e58:	12c10d13          	addi	x26,x2,300
    2e5c:	00012423          	sw	x0,8(x2)
    2e60:	00000a13          	addi	x20,x0,0
    2e64:	00012e23          	sw	x0,28(x2)
    2e68:	00012c23          	sw	x0,24(x2)
    2e6c:	00012a23          	sw	x0,20(x2)
    2e70:	002e7293          	andi	x5,x28,2
    2e74:	00028463          	beq	x5,x0,2e7c <_vfprintf_r+0x238>
    2e78:	002d8d93          	addi	x27,x27,2
    2e7c:	084e7f93          	andi	x31,x28,132
    2e80:	0cc12603          	lw	x12,204(x2)
    2e84:	000f9663          	bne	x31,x0,2e90 <_vfprintf_r+0x24c>
    2e88:	41bc8733          	sub	x14,x25,x27
    2e8c:	42e042e3          	blt	x0,x14,3ab0 <_vfprintf_r+0xe6c>
    2e90:	0a714703          	lbu	x14,167(x2)
    2e94:	02070a63          	beq	x14,x0,2ec8 <_vfprintf_r+0x284>
    2e98:	0c812703          	lw	x14,200(x2)
    2e9c:	0a710593          	addi	x11,x2,167
    2ea0:	00b4a023          	sw	x11,0(x9)
    2ea4:	00160613          	addi	x12,x12,1
    2ea8:	00100593          	addi	x11,x0,1
    2eac:	00170713          	addi	x14,x14,1
    2eb0:	00b4a223          	sw	x11,4(x9)
    2eb4:	0cc12623          	sw	x12,204(x2)
    2eb8:	0ce12423          	sw	x14,200(x2)
    2ebc:	00700593          	addi	x11,x0,7
    2ec0:	00848493          	addi	x9,x9,8
    2ec4:	30e5c263          	blt	x11,x14,31c8 <_vfprintf_r+0x584>
    2ec8:	02028a63          	beq	x5,x0,2efc <_vfprintf_r+0x2b8>
    2ecc:	0c812703          	lw	x14,200(x2)
    2ed0:	00200593          	addi	x11,x0,2
    2ed4:	00260613          	addi	x12,x12,2
    2ed8:	00170713          	addi	x14,x14,1
    2edc:	0a810793          	addi	x15,x2,168
    2ee0:	00b4a223          	sw	x11,4(x9)
    2ee4:	00f4a023          	sw	x15,0(x9)
    2ee8:	0cc12623          	sw	x12,204(x2)
    2eec:	0ce12423          	sw	x14,200(x2)
    2ef0:	00700593          	addi	x11,x0,7
    2ef4:	00848493          	addi	x9,x9,8
    2ef8:	4ce5cee3          	blt	x11,x14,3bd4 <_vfprintf_r+0xf90>
    2efc:	08000713          	addi	x14,x0,128
    2f00:	18ef8ce3          	beq	x31,x14,3898 <_vfprintf_r+0xc54>
    2f04:	412a0a33          	sub	x20,x20,x18
    2f08:	29404ae3          	blt	x0,x20,399c <_vfprintf_r+0xd58>
    2f0c:	100e7713          	andi	x14,x28,256
    2f10:	76071863          	bne	x14,x0,3680 <_vfprintf_r+0xa3c>
    2f14:	0c812783          	lw	x15,200(x2)
    2f18:	01260633          	add	x12,x12,x18
    2f1c:	01a4a023          	sw	x26,0(x9)
    2f20:	00178793          	addi	x15,x15,1
    2f24:	0124a223          	sw	x18,4(x9)
    2f28:	0cc12623          	sw	x12,204(x2)
    2f2c:	0cf12423          	sw	x15,200(x2)
    2f30:	00700713          	addi	x14,x0,7
    2f34:	3ef74263          	blt	x14,x15,3318 <_vfprintf_r+0x6d4>
    2f38:	00848493          	addi	x9,x9,8
    2f3c:	004e7e13          	andi	x28,x28,4
    2f40:	000e0663          	beq	x28,x0,2f4c <_vfprintf_r+0x308>
    2f44:	41bc8933          	sub	x18,x25,x27
    2f48:	4d2042e3          	blt	x0,x18,3c0c <_vfprintf_r+0xfc8>
    2f4c:	000c8313          	addi	x6,x25,0
    2f50:	01bcd463          	bge	x25,x27,2f58 <_vfprintf_r+0x314>
    2f54:	000d8313          	addi	x6,x27,0
    2f58:	00412783          	lw	x15,4(x2)
    2f5c:	006787b3          	add	x15,x15,x6
    2f60:	00f12223          	sw	x15,4(x2)
    2f64:	320612e3          	bne	x12,x0,3a88 <_vfprintf_r+0xe44>
    2f68:	00812783          	lw	x15,8(x2)
    2f6c:	0c012423          	sw	x0,200(x2)
    2f70:	00078863          	beq	x15,x0,2f80 <_vfprintf_r+0x33c>
    2f74:	00812583          	lw	x11,8(x2)
    2f78:	000a8513          	addi	x10,x21,0
    2f7c:	aa5fe0ef          	jal	x1,1a20 <_free_r>
    2f80:	000c0493          	addi	x9,x24,0
    2f84:	00098d13          	addi	x26,x19,0
    2f88:	000d4703          	lbu	x14,0(x26)
    2f8c:	dc071ce3          	bne	x14,x0,2d64 <_vfprintf_r+0x120>
    2f90:	0cc12783          	lw	x15,204(x2)
    2f94:	00078463          	beq	x15,x0,2f9c <_vfprintf_r+0x358>
    2f98:	4a90106f          	jal	x0,4c40 <_vfprintf_r+0x1ffc>
    2f9c:	00012783          	lw	x15,0(x2)
    2fa0:	1c412483          	lw	x9,452(x2)
    2fa4:	1bc12983          	lw	x19,444(x2)
    2fa8:	00c7d783          	lhu	x15,12(x15)
    2fac:	1b812a03          	lw	x20,440(x2)
    2fb0:	1b412a83          	lw	x21,436(x2)
    2fb4:	0407f793          	andi	x15,x15,64
    2fb8:	1b012b03          	lw	x22,432(x2)
    2fbc:	1ac12b83          	lw	x23,428(x2)
    2fc0:	1a812c03          	lw	x24,424(x2)
    2fc4:	1a412c83          	lw	x25,420(x2)
    2fc8:	1a012d03          	lw	x26,416(x2)
    2fcc:	19c12d83          	lw	x27,412(x2)
    2fd0:	00078463          	beq	x15,x0,2fd8 <_vfprintf_r+0x394>
    2fd4:	4000206f          	jal	x0,53d4 <_vfprintf_r+0x2790>
    2fd8:	1cc12083          	lw	x1,460(x2)
    2fdc:	1c812403          	lw	x8,456(x2)
    2fe0:	00412503          	lw	x10,4(x2)
    2fe4:	1c012903          	lw	x18,448(x2)
    2fe8:	1d010113          	addi	x2,x2,464
    2fec:	00008067          	jalr	x0,0(x1)
    2ff0:	00012583          	lw	x11,0(x2)
    2ff4:	02012503          	lw	x10,32(x2)
    2ff8:	9a1ff0ef          	jal	x1,2998 <__swsetup_r>
    2ffc:	00050463          	beq	x10,x0,3004 <_vfprintf_r+0x3c0>
    3000:	3d40206f          	jal	x0,53d4 <_vfprintf_r+0x2790>
    3004:	00012783          	lw	x15,0(x2)
    3008:	00a00693          	addi	x13,x0,10
    300c:	00c79703          	lh	x14,12(x15)
    3010:	01a77713          	andi	x14,x14,26
    3014:	ced712e3          	bne	x14,x13,2cf8 <_vfprintf_r+0xb4>
    3018:	00012783          	lw	x15,0(x2)
    301c:	00e79703          	lh	x14,14(x15)
    3020:	cc074ce3          	blt	x14,x0,2cf8 <_vfprintf_r+0xb4>
    3024:	00c12683          	lw	x13,12(x2)
    3028:	02012503          	lw	x10,32(x2)
    302c:	00090613          	addi	x12,x18,0
    3030:	00078593          	addi	x11,x15,0
    3034:	6dc020ef          	jal	x1,5710 <__sbprintf>
    3038:	00a12223          	sw	x10,4(x2)
    303c:	f9dff06f          	jal	x0,2fd8 <_vfprintf_r+0x394>
    3040:	000a8513          	addi	x10,x21,0
    3044:	7a9060ef          	jal	x1,9fec <_localeconv_r>
    3048:	00452783          	lw	x15,4(x10)
    304c:	00078513          	addi	x10,x15,0
    3050:	02f12e23          	sw	x15,60(x2)
    3054:	cedfe0ef          	jal	x1,1d40 <strlen>
    3058:	00050793          	addi	x15,x10,0
    305c:	000a8513          	addi	x10,x21,0
    3060:	00078b93          	addi	x23,x15,0
    3064:	04f12223          	sw	x15,68(x2)
    3068:	785060ef          	jal	x1,9fec <_localeconv_r>
    306c:	00852703          	lw	x14,8(x10)
    3070:	02e12a23          	sw	x14,52(x2)
    3074:	000b8463          	beq	x23,x0,307c <_vfprintf_r+0x438>
    3078:	0080106f          	jal	x0,4080 <_vfprintf_r+0x143c>
    307c:	0009c883          	lbu	x17,0(x19)
    3080:	d65ff06f          	jal	x0,2de4 <_vfprintf_r+0x1a0>
    3084:	0009c883          	lbu	x17,0(x19)
    3088:	020b6b13          	ori	x22,x22,32
    308c:	d59ff06f          	jal	x0,2de4 <_vfprintf_r+0x1a0>
    3090:	41a98933          	sub	x18,x19,x26
    3094:	cfa998e3          	bne	x19,x26,2d84 <_vfprintf_r+0x140>
    3098:	0009c703          	lbu	x14,0(x19)
    309c:	d25ff06f          	jal	x0,2dc0 <_vfprintf_r+0x17c>
    30a0:	00012583          	lw	x11,0(x2)
    30a4:	0c410613          	addi	x12,x2,196
    30a8:	000a8513          	addi	x10,x21,0
    30ac:	705020ef          	jal	x1,5fb0 <__sprint_r>
    30b0:	ee0516e3          	bne	x10,x0,2f9c <_vfprintf_r+0x358>
    30b4:	000c0493          	addi	x9,x24,0
    30b8:	cf9ff06f          	jal	x0,2db0 <_vfprintf_r+0x16c>
    30bc:	008b7713          	andi	x14,x22,8
    30c0:	000b0e13          	addi	x28,x22,0
    30c4:	740704e3          	beq	x14,x0,400c <_vfprintf_r+0x13c8>
    30c8:	00c12783          	lw	x15,12(x2)
    30cc:	0007a703          	lw	x14,0(x15)
    30d0:	00478793          	addi	x15,x15,4
    30d4:	00f12623          	sw	x15,12(x2)
    30d8:	00072583          	lw	x11,0(x14)
    30dc:	00472603          	lw	x12,4(x14)
    30e0:	00872683          	lw	x13,8(x14)
    30e4:	00c72703          	lw	x14,12(x14)
    30e8:	0d010513          	addi	x10,x2,208
    30ec:	01c12a23          	sw	x28,20(x2)
    30f0:	01112423          	sw	x17,8(x2)
    30f4:	0ce12e23          	sw	x14,220(x2)
    30f8:	0cb12823          	sw	x11,208(x2)
    30fc:	0cc12a23          	sw	x12,212(x2)
    3100:	0cd12c23          	sw	x13,216(x2)
    3104:	1b9020ef          	jal	x1,5abc <_ldcheck>
    3108:	0aa12623          	sw	x10,172(x2)
    310c:	00200713          	addi	x14,x0,2
    3110:	00812883          	lw	x17,8(x2)
    3114:	01412e03          	lw	x28,20(x2)
    3118:	00e51463          	bne	x10,x14,3120 <_vfprintf_r+0x4dc>
    311c:	5cc0106f          	jal	x0,46e8 <_vfprintf_r+0x1aa4>
    3120:	00100713          	addi	x14,x0,1
    3124:	00e51463          	bne	x10,x14,312c <_vfprintf_r+0x4e8>
    3128:	7300106f          	jal	x0,4858 <_vfprintf_r+0x1c14>
    312c:	06100713          	addi	x14,x0,97
    3130:	00e89463          	bne	x17,x14,3138 <_vfprintf_r+0x4f4>
    3134:	14c0106f          	jal	x0,4280 <_vfprintf_r+0x163c>
    3138:	04100713          	addi	x14,x0,65
    313c:	05800793          	addi	x15,x0,88
    3140:	00e89463          	bne	x17,x14,3148 <_vfprintf_r+0x504>
    3144:	1400106f          	jal	x0,4284 <_vfprintf_r+0x1640>
    3148:	fff00713          	addi	x14,x0,-1
    314c:	00ea1463          	bne	x20,x14,3154 <_vfprintf_r+0x510>
    3150:	3a00206f          	jal	x0,54f0 <_vfprintf_r+0x28ac>
    3154:	fdf8f713          	andi	x14,x17,-33
    3158:	04700693          	addi	x13,x0,71
    315c:	00012423          	sw	x0,8(x2)
    3160:	00d71663          	bne	x14,x13,316c <_vfprintf_r+0x528>
    3164:	000a1463          	bne	x20,x0,316c <_vfprintf_r+0x528>
    3168:	00100a13          	addi	x20,x0,1
    316c:	0dc12e83          	lw	x29,220(x2)
    3170:	100e6793          	ori	x15,x28,256
    3174:	04f12023          	sw	x15,64(x2)
    3178:	02012823          	sw	x0,48(x2)
    317c:	0d012f03          	lw	x30,208(x2)
    3180:	0d412f83          	lw	x31,212(x2)
    3184:	0d812283          	lw	x5,216(x2)
    3188:	000eda63          	bge	x29,x0,319c <_vfprintf_r+0x558>
    318c:	80000737          	lui	x14,0x80000
    3190:	02d00793          	addi	x15,x0,45
    3194:	01d74eb3          	xor	x29,x14,x29
    3198:	02f12823          	sw	x15,48(x2)
    319c:	fbf88713          	addi	x14,x17,-65
    31a0:	02500693          	addi	x13,x0,37
    31a4:	00e6f463          	bgeu	x13,x14,31ac <_vfprintf_r+0x568>
    31a8:	1300106f          	jal	x0,42d8 <_vfprintf_r+0x1694>
    31ac:	0000f697          	auipc	x13,0xf
    31b0:	bd068693          	addi	x13,x13,-1072 # 11d7c <no_exception_handler_msg+0x220>
    31b4:	00271713          	slli	x14,x14,0x2
    31b8:	00d70733          	add	x14,x14,x13
    31bc:	00072703          	lw	x14,0(x14) # 80000000 <__heap_end+0x7fc00000>
    31c0:	00d70733          	add	x14,x14,x13
    31c4:	00070067          	jalr	x0,0(x14)
    31c8:	00012583          	lw	x11,0(x2)
    31cc:	0c410613          	addi	x12,x2,196
    31d0:	000a8513          	addi	x10,x21,0
    31d4:	05c12623          	sw	x28,76(x2)
    31d8:	05112423          	sw	x17,72(x2)
    31dc:	05f12023          	sw	x31,64(x2)
    31e0:	02512823          	sw	x5,48(x2)
    31e4:	5cd020ef          	jal	x1,5fb0 <__sprint_r>
    31e8:	0a051ae3          	bne	x10,x0,3a9c <_vfprintf_r+0xe58>
    31ec:	0cc12603          	lw	x12,204(x2)
    31f0:	04c12e03          	lw	x28,76(x2)
    31f4:	04812883          	lw	x17,72(x2)
    31f8:	04012f83          	lw	x31,64(x2)
    31fc:	03012283          	lw	x5,48(x2)
    3200:	000c0493          	addi	x9,x24,0
    3204:	cc5ff06f          	jal	x0,2ec8 <_vfprintf_r+0x284>
    3208:	0c812903          	lw	x18,200(x2)
    320c:	01012783          	lw	x15,16(x2)
    3210:	00100713          	addi	x14,x0,1
    3214:	01a4a023          	sw	x26,0(x9)
    3218:	00160b93          	addi	x23,x12,1
    321c:	00190913          	addi	x18,x18,1
    3220:	00848a13          	addi	x20,x9,8
    3224:	3ef754e3          	bge	x14,x15,3e0c <_vfprintf_r+0x11c8>
    3228:	00100713          	addi	x14,x0,1
    322c:	00e4a223          	sw	x14,4(x9)
    3230:	0d712623          	sw	x23,204(x2)
    3234:	0d212423          	sw	x18,200(x2)
    3238:	00700713          	addi	x14,x0,7
    323c:	01275463          	bge	x14,x18,3244 <_vfprintf_r+0x600>
    3240:	2680106f          	jal	x0,44a8 <_vfprintf_r+0x1864>
    3244:	02412783          	lw	x15,36(x2)
    3248:	02812703          	lw	x14,40(x2)
    324c:	00190913          	addi	x18,x18,1
    3250:	00fb8bb3          	add	x23,x23,x15
    3254:	00ea2023          	sw	x14,0(x20)
    3258:	00fa2223          	sw	x15,4(x20)
    325c:	0d712623          	sw	x23,204(x2)
    3260:	0d212423          	sw	x18,200(x2)
    3264:	00700713          	addi	x14,x0,7
    3268:	008a0a13          	addi	x20,x20,8
    326c:	01275463          	bge	x14,x18,3274 <_vfprintf_r+0x630>
    3270:	2640106f          	jal	x0,44d4 <_vfprintf_r+0x1890>
    3274:	0d012703          	lw	x14,208(x2)
    3278:	01012783          	lw	x15,16(x2)
    327c:	08010593          	addi	x11,x2,128
    3280:	08e12823          	sw	x14,144(x2)
    3284:	0d412703          	lw	x14,212(x2)
    3288:	09010513          	addi	x10,x2,144
    328c:	01c12a23          	sw	x28,20(x2)
    3290:	08e12a23          	sw	x14,148(x2)
    3294:	0d812703          	lw	x14,216(x2)
    3298:	08012023          	sw	x0,128(x2)
    329c:	08012223          	sw	x0,132(x2)
    32a0:	08e12c23          	sw	x14,152(x2)
    32a4:	0dc12703          	lw	x14,220(x2)
    32a8:	08012423          	sw	x0,136(x2)
    32ac:	08012623          	sw	x0,140(x2)
    32b0:	08e12e23          	sw	x14,156(x2)
    32b4:	fff78493          	addi	x9,x15,-1
    32b8:	1680b0ef          	jal	x1,e420 <__eqtf2>
    32bc:	01412e03          	lw	x28,20(x2)
    32c0:	38050ae3          	beq	x10,x0,3e54 <_vfprintf_r+0x1210>
    32c4:	001d0793          	addi	x15,x26,1
    32c8:	00190913          	addi	x18,x18,1
    32cc:	009b8bb3          	add	x23,x23,x9
    32d0:	00fa2023          	sw	x15,0(x20)
    32d4:	009a2223          	sw	x9,4(x20)
    32d8:	0d712623          	sw	x23,204(x2)
    32dc:	0d212423          	sw	x18,200(x2)
    32e0:	00700793          	addi	x15,x0,7
    32e4:	008a0a13          	addi	x20,x20,8
    32e8:	3527c0e3          	blt	x15,x18,3e28 <_vfprintf_r+0x11e4>
    32ec:	03812683          	lw	x13,56(x2)
    32f0:	0b410713          	addi	x14,x2,180
    32f4:	00190793          	addi	x15,x18,1
    32f8:	01768633          	add	x12,x13,x23
    32fc:	00ea2023          	sw	x14,0(x20)
    3300:	00da2223          	sw	x13,4(x20)
    3304:	0cc12623          	sw	x12,204(x2)
    3308:	0cf12423          	sw	x15,200(x2)
    330c:	00700713          	addi	x14,x0,7
    3310:	008a0493          	addi	x9,x20,8
    3314:	c2f754e3          	bge	x14,x15,2f3c <_vfprintf_r+0x2f8>
    3318:	00012583          	lw	x11,0(x2)
    331c:	0c410613          	addi	x12,x2,196
    3320:	000a8513          	addi	x10,x21,0
    3324:	01c12a23          	sw	x28,20(x2)
    3328:	489020ef          	jal	x1,5fb0 <__sprint_r>
    332c:	76051863          	bne	x10,x0,3a9c <_vfprintf_r+0xe58>
    3330:	0cc12603          	lw	x12,204(x2)
    3334:	01412e03          	lw	x28,20(x2)
    3338:	000c0493          	addi	x9,x24,0
    333c:	c01ff06f          	jal	x0,2f3c <_vfprintf_r+0x2f8>
    3340:	00c12703          	lw	x14,12(x2)
    3344:	000b0e13          	addi	x28,x22,0
    3348:	0a0103a3          	sb	x0,167(x2)
    334c:	00072783          	lw	x15,0(x14)
    3350:	00470713          	addi	x14,x14,4
    3354:	00e12623          	sw	x14,12(x2)
    3358:	12f10623          	sb	x15,300(x2)
    335c:	00100d93          	addi	x27,x0,1
    3360:	00100913          	addi	x18,x0,1
    3364:	12c10d13          	addi	x26,x2,300
    3368:	af5ff06f          	jal	x0,2e5c <_vfprintf_r+0x218>
    336c:	00c12783          	lw	x15,12(x2)
    3370:	0a0103a3          	sb	x0,167(x2)
    3374:	000b0e13          	addi	x28,x22,0
    3378:	0007ad03          	lw	x26,0(x15)
    337c:	00478b93          	addi	x23,x15,4
    3380:	600d04e3          	beq	x26,x0,4188 <_vfprintf_r+0x1544>
    3384:	000a5463          	bge	x20,x0,338c <_vfprintf_r+0x748>
    3388:	4800106f          	jal	x0,4808 <_vfprintf_r+0x1bc4>
    338c:	000a0613          	addi	x12,x20,0
    3390:	00000593          	addi	x11,x0,0
    3394:	000d0513          	addi	x10,x26,0
    3398:	01112623          	sw	x17,12(x2)
    339c:	01612a23          	sw	x22,20(x2)
    33a0:	a2dfe0ef          	jal	x1,1dcc <memchr>
    33a4:	00a12423          	sw	x10,8(x2)
    33a8:	00c12883          	lw	x17,12(x2)
    33ac:	01412e03          	lw	x28,20(x2)
    33b0:	00051463          	bne	x10,x0,33b8 <_vfprintf_r+0x774>
    33b4:	78d0106f          	jal	x0,5340 <_vfprintf_r+0x26fc>
    33b8:	00812783          	lw	x15,8(x2)
    33bc:	0a714703          	lbu	x14,167(x2)
    33c0:	01712623          	sw	x23,12(x2)
    33c4:	41a78933          	sub	x18,x15,x26
    33c8:	fff94693          	xori	x13,x18,-1
    33cc:	41f6d693          	srai	x13,x13,0x1f
    33d0:	00012423          	sw	x0,8(x2)
    33d4:	00012e23          	sw	x0,28(x2)
    33d8:	00012c23          	sw	x0,24(x2)
    33dc:	00012a23          	sw	x0,20(x2)
    33e0:	00d97db3          	and	x27,x18,x13
    33e4:	00000a13          	addi	x20,x0,0
    33e8:	a80704e3          	beq	x14,x0,2e70 <_vfprintf_r+0x22c>
    33ec:	001d8d93          	addi	x27,x27,1
    33f0:	a81ff06f          	jal	x0,2e70 <_vfprintf_r+0x22c>
    33f4:	00c12783          	lw	x15,12(x2)
    33f8:	0007ac83          	lw	x25,0(x15)
    33fc:	00478793          	addi	x15,x15,4
    3400:	3a0cdae3          	bge	x25,x0,3fb4 <_vfprintf_r+0x1370>
    3404:	41900cb3          	sub	x25,x0,x25
    3408:	00f12623          	sw	x15,12(x2)
    340c:	0009c883          	lbu	x17,0(x19)
    3410:	004b6b13          	ori	x22,x22,4
    3414:	9d1ff06f          	jal	x0,2de4 <_vfprintf_r+0x1a0>
    3418:	02b00793          	addi	x15,x0,43
    341c:	0009c883          	lbu	x17,0(x19)
    3420:	0af103a3          	sb	x15,167(x2)
    3424:	9c1ff06f          	jal	x0,2de4 <_vfprintf_r+0x1a0>
    3428:	0009c883          	lbu	x17,0(x19)
    342c:	080b6b13          	ori	x22,x22,128
    3430:	9b5ff06f          	jal	x0,2de4 <_vfprintf_r+0x1a0>
    3434:	0009c883          	lbu	x17,0(x19)
    3438:	02a00793          	addi	x15,x0,42
    343c:	00198693          	addi	x13,x19,1
    3440:	00f89463          	bne	x17,x15,3448 <_vfprintf_r+0x804>
    3444:	2580206f          	jal	x0,569c <_vfprintf_r+0x2a58>
    3448:	fd088793          	addi	x15,x17,-48
    344c:	00900713          	addi	x14,x0,9
    3450:	00000a13          	addi	x20,x0,0
    3454:	00900613          	addi	x12,x0,9
    3458:	02f76463          	bltu	x14,x15,3480 <_vfprintf_r+0x83c>
    345c:	0006c883          	lbu	x17,0(x13)
    3460:	002a1713          	slli	x14,x20,0x2
    3464:	01470a33          	add	x20,x14,x20
    3468:	001a1a13          	slli	x20,x20,0x1
    346c:	00fa0a33          	add	x20,x20,x15
    3470:	fd088793          	addi	x15,x17,-48
    3474:	00168693          	addi	x13,x13,1
    3478:	fef672e3          	bgeu	x12,x15,345c <_vfprintf_r+0x818>
    347c:	420a4ae3          	blt	x20,x0,40b0 <_vfprintf_r+0x146c>
    3480:	00068993          	addi	x19,x13,0
    3484:	965ff06f          	jal	x0,2de8 <_vfprintf_r+0x1a4>
    3488:	0009c883          	lbu	x17,0(x19)
    348c:	001b6b13          	ori	x22,x22,1
    3490:	955ff06f          	jal	x0,2de4 <_vfprintf_r+0x1a0>
    3494:	0a714783          	lbu	x15,167(x2)
    3498:	0009c883          	lbu	x17,0(x19)
    349c:	940794e3          	bne	x15,x0,2de4 <_vfprintf_r+0x1a0>
    34a0:	02000793          	addi	x15,x0,32
    34a4:	0af103a3          	sb	x15,167(x2)
    34a8:	93dff06f          	jal	x0,2de4 <_vfprintf_r+0x1a0>
    34ac:	010b6e93          	ori	x29,x22,16
    34b0:	020ef793          	andi	x15,x29,32
    34b4:	2a0784e3          	beq	x15,x0,3f5c <_vfprintf_r+0x1318>
    34b8:	00c12783          	lw	x15,12(x2)
    34bc:	00778b93          	addi	x23,x15,7
    34c0:	ff8bfb93          	andi	x23,x23,-8
    34c4:	000ba903          	lw	x18,0(x23)
    34c8:	004bad83          	lw	x27,4(x23)
    34cc:	008b8793          	addi	x15,x23,8
    34d0:	00f12623          	sw	x15,12(x2)
    34d4:	00100793          	addi	x15,x0,1
    34d8:	00000713          	addi	x14,x0,0
    34dc:	0ae103a3          	sb	x14,167(x2)
    34e0:	2e0a4863          	blt	x20,x0,37d0 <_vfprintf_r+0xb8c>
    34e4:	01b96733          	or	x14,x18,x27
    34e8:	f7fefe13          	andi	x28,x29,-129
    34ec:	2e071063          	bne	x14,x0,37cc <_vfprintf_r+0xb88>
    34f0:	340a1663          	bne	x20,x0,383c <_vfprintf_r+0xbf8>
    34f4:	28079ee3          	bne	x15,x0,3f90 <_vfprintf_r+0x134c>
    34f8:	001ef913          	andi	x18,x29,1
    34fc:	19010d13          	addi	x26,x2,400
    3500:	2c0910e3          	bne	x18,x0,3fc0 <_vfprintf_r+0x137c>
    3504:	0a714703          	lbu	x14,167(x2)
    3508:	00090d93          	addi	x27,x18,0
    350c:	01495463          	bge	x18,x20,3514 <_vfprintf_r+0x8d0>
    3510:	000a0d93          	addi	x27,x20,0
    3514:	00012423          	sw	x0,8(x2)
    3518:	00012e23          	sw	x0,28(x2)
    351c:	00012c23          	sw	x0,24(x2)
    3520:	00012a23          	sw	x0,20(x2)
    3524:	ec0714e3          	bne	x14,x0,33ec <_vfprintf_r+0x7a8>
    3528:	949ff06f          	jal	x0,2e70 <_vfprintf_r+0x22c>
    352c:	0009c883          	lbu	x17,0(x19)
    3530:	008b6b13          	ori	x22,x22,8
    3534:	8b1ff06f          	jal	x0,2de4 <_vfprintf_r+0x1a0>
    3538:	010b6e13          	ori	x28,x22,16
    353c:	020e7793          	andi	x15,x28,32
    3540:	1c0784e3          	beq	x15,x0,3f08 <_vfprintf_r+0x12c4>
    3544:	00c12783          	lw	x15,12(x2)
    3548:	00778b93          	addi	x23,x15,7
    354c:	ff8bfb93          	andi	x23,x23,-8
    3550:	004ba783          	lw	x15,4(x23)
    3554:	000ba903          	lw	x18,0(x23)
    3558:	008b8713          	addi	x14,x23,8
    355c:	00e12623          	sw	x14,12(x2)
    3560:	00078d93          	addi	x27,x15,0
    3564:	1c07cce3          	blt	x15,x0,3f3c <_vfprintf_r+0x12f8>
    3568:	000e0e93          	addi	x29,x28,0
    356c:	020a4263          	blt	x20,x0,3590 <_vfprintf_r+0x94c>
    3570:	01b967b3          	or	x15,x18,x27
    3574:	f7fe7e93          	andi	x29,x28,-129
    3578:	00079c63          	bne	x15,x0,3590 <_vfprintf_r+0x94c>
    357c:	020a1063          	bne	x20,x0,359c <_vfprintf_r+0x958>
    3580:	00000913          	addi	x18,x0,0
    3584:	000e8e13          	addi	x28,x29,0
    3588:	19010d13          	addi	x26,x2,400
    358c:	f79ff06f          	jal	x0,3504 <_vfprintf_r+0x8c0>
    3590:	780d90e3          	bne	x27,x0,4510 <_vfprintf_r+0x18cc>
    3594:	00900793          	addi	x15,x0,9
    3598:	7727ece3          	bltu	x15,x18,4510 <_vfprintf_r+0x18cc>
    359c:	03090913          	addi	x18,x18,48
    35a0:	192107a3          	sb	x18,399(x2)
    35a4:	000e8e13          	addi	x28,x29,0
    35a8:	00100913          	addi	x18,x0,1
    35ac:	18f10d13          	addi	x26,x2,399
    35b0:	f55ff06f          	jal	x0,3504 <_vfprintf_r+0x8c0>
    35b4:	010b6e13          	ori	x28,x22,16
    35b8:	020e7793          	andi	x15,x28,32
    35bc:	10078ee3          	beq	x15,x0,3ed8 <_vfprintf_r+0x1294>
    35c0:	00c12783          	lw	x15,12(x2)
    35c4:	00778b93          	addi	x23,x15,7
    35c8:	ff8bfb93          	andi	x23,x23,-8
    35cc:	000ba903          	lw	x18,0(x23)
    35d0:	004bad83          	lw	x27,4(x23)
    35d4:	008b8793          	addi	x15,x23,8
    35d8:	00f12623          	sw	x15,12(x2)
    35dc:	bffe7e93          	andi	x29,x28,-1025
    35e0:	00000793          	addi	x15,x0,0
    35e4:	ef5ff06f          	jal	x0,34d8 <_vfprintf_r+0x894>
    35e8:	0009c883          	lbu	x17,0(x19)
    35ec:	06800793          	addi	x15,x0,104
    35f0:	36f88ce3          	beq	x17,x15,4168 <_vfprintf_r+0x1524>
    35f4:	040b6b13          	ori	x22,x22,64
    35f8:	fecff06f          	jal	x0,2de4 <_vfprintf_r+0x1a0>
    35fc:	00c12703          	lw	x14,12(x2)
    3600:	000087b7          	lui	x15,0x8
    3604:	83078793          	addi	x15,x15,-2000 # 7830 <__gdtoa+0x2a4>
    3608:	0af11423          	sh	x15,168(x2)
    360c:	00470793          	addi	x15,x14,4
    3610:	00f12623          	sw	x15,12(x2)
    3614:	0000e797          	auipc	x15,0xe
    3618:	3a078793          	addi	x15,x15,928 # 119b4 <__clzsi2+0x338>
    361c:	02f12623          	sw	x15,44(x2)
    3620:	00072903          	lw	x18,0(x14)
    3624:	00000d93          	addi	x27,x0,0
    3628:	002b6e93          	ori	x29,x22,2
    362c:	00200793          	addi	x15,x0,2
    3630:	07800893          	addi	x17,x0,120
    3634:	ea5ff06f          	jal	x0,34d8 <_vfprintf_r+0x894>
    3638:	020b7793          	andi	x15,x22,32
    363c:	20078ce3          	beq	x15,x0,4054 <_vfprintf_r+0x1410>
    3640:	00c12783          	lw	x15,12(x2)
    3644:	00412683          	lw	x13,4(x2)
    3648:	0007a783          	lw	x15,0(x15)
    364c:	41f6d713          	srai	x14,x13,0x1f
    3650:	00d7a023          	sw	x13,0(x15)
    3654:	00e7a223          	sw	x14,4(x15)
    3658:	00c12783          	lw	x15,12(x2)
    365c:	00098d13          	addi	x26,x19,0
    3660:	00478793          	addi	x15,x15,4
    3664:	00f12623          	sw	x15,12(x2)
    3668:	921ff06f          	jal	x0,2f88 <_vfprintf_r+0x344>
    366c:	0009c883          	lbu	x17,0(x19)
    3670:	06c00793          	addi	x15,x0,108
    3674:	30f882e3          	beq	x17,x15,4178 <_vfprintf_r+0x1534>
    3678:	010b6b13          	ori	x22,x22,16
    367c:	f68ff06f          	jal	x0,2de4 <_vfprintf_r+0x1a0>
    3680:	06500713          	addi	x14,x0,101
    3684:	b91752e3          	bge	x14,x17,3208 <_vfprintf_r+0x5c4>
    3688:	0d012703          	lw	x14,208(x2)
    368c:	08010593          	addi	x11,x2,128
    3690:	09010513          	addi	x10,x2,144
    3694:	08e12823          	sw	x14,144(x2)
    3698:	0d412703          	lw	x14,212(x2)
    369c:	04c12023          	sw	x12,64(x2)
    36a0:	03c12823          	sw	x28,48(x2)
    36a4:	08e12a23          	sw	x14,148(x2)
    36a8:	0d812703          	lw	x14,216(x2)
    36ac:	08012023          	sw	x0,128(x2)
    36b0:	08012223          	sw	x0,132(x2)
    36b4:	08e12c23          	sw	x14,152(x2)
    36b8:	0dc12703          	lw	x14,220(x2)
    36bc:	08012423          	sw	x0,136(x2)
    36c0:	08012623          	sw	x0,140(x2)
    36c4:	08e12e23          	sw	x14,156(x2)
    36c8:	5590a0ef          	jal	x1,e420 <__eqtf2>
    36cc:	03012e03          	lw	x28,48(x2)
    36d0:	04012603          	lw	x12,64(x2)
    36d4:	5e051463          	bne	x10,x0,3cbc <_vfprintf_r+0x1078>
    36d8:	0c812783          	lw	x15,200(x2)
    36dc:	0000e717          	auipc	x14,0xe
    36e0:	30870713          	addi	x14,x14,776 # 119e4 <__clzsi2+0x368>
    36e4:	00e4a023          	sw	x14,0(x9)
    36e8:	00160613          	addi	x12,x12,1
    36ec:	00100713          	addi	x14,x0,1
    36f0:	00178793          	addi	x15,x15,1
    36f4:	00e4a223          	sw	x14,4(x9)
    36f8:	0cc12623          	sw	x12,204(x2)
    36fc:	0cf12423          	sw	x15,200(x2)
    3700:	00700713          	addi	x14,x0,7
    3704:	00848493          	addi	x9,x9,8
    3708:	00f75463          	bge	x14,x15,3710 <_vfprintf_r+0xacc>
    370c:	79d0006f          	jal	x0,46a8 <_vfprintf_r+0x1a64>
    3710:	0ac12783          	lw	x15,172(x2)
    3714:	01012703          	lw	x14,16(x2)
    3718:	08e7d2e3          	bge	x15,x14,3f9c <_vfprintf_r+0x1358>
    371c:	02812783          	lw	x15,40(x2)
    3720:	02412703          	lw	x14,36(x2)
    3724:	00848493          	addi	x9,x9,8
    3728:	fef4ac23          	sw	x15,-8(x9)
    372c:	0c812783          	lw	x15,200(x2)
    3730:	00e60633          	add	x12,x12,x14
    3734:	fee4ae23          	sw	x14,-4(x9)
    3738:	00178793          	addi	x15,x15,1
    373c:	0cc12623          	sw	x12,204(x2)
    3740:	0cf12423          	sw	x15,200(x2)
    3744:	00700713          	addi	x14,x0,7
    3748:	1cf74ee3          	blt	x14,x15,4124 <_vfprintf_r+0x14e0>
    374c:	01012783          	lw	x15,16(x2)
    3750:	fff78913          	addi	x18,x15,-1
    3754:	ff205463          	bge	x0,x18,2f3c <_vfprintf_r+0x2f8>
    3758:	01000713          	addi	x14,x0,16
    375c:	0c812783          	lw	x15,200(x2)
    3760:	0000ee97          	auipc	x29,0xe
    3764:	6c4e8e93          	addi	x29,x29,1732 # 11e24 <zeroes.0>
    3768:	772758e3          	bge	x14,x18,46d8 <_vfprintf_r+0x1a94>
    376c:	01000a13          	addi	x20,x0,16
    3770:	00700b93          	addi	x23,x0,7
    3774:	000e0d13          	addi	x26,x28,0
    3778:	000e8b13          	addi	x22,x29,0
    377c:	00c0006f          	jal	x0,3788 <_vfprintf_r+0xb44>
    3780:	ff090913          	addi	x18,x18,-16
    3784:	752a56e3          	bge	x20,x18,46d0 <_vfprintf_r+0x1a8c>
    3788:	01060613          	addi	x12,x12,16
    378c:	00178793          	addi	x15,x15,1
    3790:	0164a023          	sw	x22,0(x9)
    3794:	0144a223          	sw	x20,4(x9)
    3798:	0cc12623          	sw	x12,204(x2)
    379c:	0cf12423          	sw	x15,200(x2)
    37a0:	00848493          	addi	x9,x9,8
    37a4:	fcfbdee3          	bge	x23,x15,3780 <_vfprintf_r+0xb3c>
    37a8:	00012583          	lw	x11,0(x2)
    37ac:	0c410613          	addi	x12,x2,196
    37b0:	000a8513          	addi	x10,x21,0
    37b4:	7fc020ef          	jal	x1,5fb0 <__sprint_r>
    37b8:	2e051263          	bne	x10,x0,3a9c <_vfprintf_r+0xe58>
    37bc:	0cc12603          	lw	x12,204(x2)
    37c0:	0c812783          	lw	x15,200(x2)
    37c4:	000c0493          	addi	x9,x24,0
    37c8:	fb9ff06f          	jal	x0,3780 <_vfprintf_r+0xb3c>
    37cc:	000e0e93          	addi	x29,x28,0
    37d0:	00100713          	addi	x14,x0,1
    37d4:	dae78ee3          	beq	x15,x14,3590 <_vfprintf_r+0x94c>
    37d8:	00200713          	addi	x14,x0,2
    37dc:	06e78c63          	beq	x15,x14,3854 <_vfprintf_r+0xc10>
    37e0:	19010d13          	addi	x26,x2,400
    37e4:	01dd9793          	slli	x15,x27,0x1d
    37e8:	00797713          	andi	x14,x18,7
    37ec:	00395913          	srli	x18,x18,0x3
    37f0:	03070713          	addi	x14,x14,48
    37f4:	0127e933          	or	x18,x15,x18
    37f8:	003ddd93          	srli	x27,x27,0x3
    37fc:	feed0fa3          	sb	x14,-1(x26)
    3800:	01b967b3          	or	x15,x18,x27
    3804:	000d0613          	addi	x12,x26,0
    3808:	fffd0d13          	addi	x26,x26,-1
    380c:	fc079ce3          	bne	x15,x0,37e4 <_vfprintf_r+0xba0>
    3810:	001ef693          	andi	x13,x29,1
    3814:	06068a63          	beq	x13,x0,3888 <_vfprintf_r+0xc44>
    3818:	03000693          	addi	x13,x0,48
    381c:	06d70663          	beq	x14,x13,3888 <_vfprintf_r+0xc44>
    3820:	ffe60613          	addi	x12,x12,-2
    3824:	19010793          	addi	x15,x2,400
    3828:	fedd0fa3          	sb	x13,-1(x26)
    382c:	40c78933          	sub	x18,x15,x12
    3830:	000e8e13          	addi	x28,x29,0
    3834:	00060d13          	addi	x26,x12,0
    3838:	ccdff06f          	jal	x0,3504 <_vfprintf_r+0x8c0>
    383c:	00100713          	addi	x14,x0,1
    3840:	00e79463          	bne	x15,x14,3848 <_vfprintf_r+0xc04>
    3844:	39d0106f          	jal	x0,53e0 <_vfprintf_r+0x279c>
    3848:	00200713          	addi	x14,x0,2
    384c:	000e0e93          	addi	x29,x28,0
    3850:	f8e798e3          	bne	x15,x14,37e0 <_vfprintf_r+0xb9c>
    3854:	02c12683          	lw	x13,44(x2)
    3858:	19010d13          	addi	x26,x2,400
    385c:	00f97793          	andi	x15,x18,15
    3860:	00f687b3          	add	x15,x13,x15
    3864:	0007c703          	lbu	x14,0(x15)
    3868:	00495913          	srli	x18,x18,0x4
    386c:	01cd9793          	slli	x15,x27,0x1c
    3870:	0127e933          	or	x18,x15,x18
    3874:	004ddd93          	srli	x27,x27,0x4
    3878:	feed0fa3          	sb	x14,-1(x26)
    387c:	01b967b3          	or	x15,x18,x27
    3880:	fffd0d13          	addi	x26,x26,-1
    3884:	fc079ce3          	bne	x15,x0,385c <_vfprintf_r+0xc18>
    3888:	19010793          	addi	x15,x2,400
    388c:	41a78933          	sub	x18,x15,x26
    3890:	000e8e13          	addi	x28,x29,0
    3894:	c71ff06f          	jal	x0,3504 <_vfprintf_r+0x8c0>
    3898:	41bc8bb3          	sub	x23,x25,x27
    389c:	e7705463          	bge	x0,x23,2f04 <_vfprintf_r+0x2c0>
    38a0:	01000513          	addi	x10,x0,16
    38a4:	0c812583          	lw	x11,200(x2)
    38a8:	0000ee97          	auipc	x29,0xe
    38ac:	57ce8e93          	addi	x29,x29,1404 # 11e24 <zeroes.0>
    38b0:	09755c63          	bge	x10,x23,3948 <_vfprintf_r+0xd04>
    38b4:	000b8b13          	addi	x22,x23,0
    38b8:	00048793          	addi	x15,x9,0
    38bc:	00090b93          	addi	x23,x18,0
    38c0:	01000f13          	addi	x30,x0,16
    38c4:	00700f93          	addi	x31,x0,7
    38c8:	03112823          	sw	x17,48(x2)
    38cc:	000e0913          	addi	x18,x28,0
    38d0:	000e8493          	addi	x9,x29,0
    38d4:	00c0006f          	jal	x0,38e0 <_vfprintf_r+0xc9c>
    38d8:	ff0b0b13          	addi	x22,x22,-16
    38dc:	056f5a63          	bge	x30,x22,3930 <_vfprintf_r+0xcec>
    38e0:	01060613          	addi	x12,x12,16
    38e4:	00158593          	addi	x11,x11,1 # 2001 <_fwalk_sglue+0x95>
    38e8:	0097a023          	sw	x9,0(x15)
    38ec:	01e7a223          	sw	x30,4(x15)
    38f0:	0cc12623          	sw	x12,204(x2)
    38f4:	0cb12423          	sw	x11,200(x2)
    38f8:	00878793          	addi	x15,x15,8
    38fc:	fcbfdee3          	bge	x31,x11,38d8 <_vfprintf_r+0xc94>
    3900:	00012583          	lw	x11,0(x2)
    3904:	0c410613          	addi	x12,x2,196
    3908:	000a8513          	addi	x10,x21,0
    390c:	6a4020ef          	jal	x1,5fb0 <__sprint_r>
    3910:	18051663          	bne	x10,x0,3a9c <_vfprintf_r+0xe58>
    3914:	01000f13          	addi	x30,x0,16
    3918:	ff0b0b13          	addi	x22,x22,-16
    391c:	0cc12603          	lw	x12,204(x2)
    3920:	0c812583          	lw	x11,200(x2)
    3924:	000c0793          	addi	x15,x24,0
    3928:	00700f93          	addi	x31,x0,7
    392c:	fb6f4ae3          	blt	x30,x22,38e0 <_vfprintf_r+0xc9c>
    3930:	03012883          	lw	x17,48(x2)
    3934:	00090e13          	addi	x28,x18,0
    3938:	00048e93          	addi	x29,x9,0
    393c:	000b8913          	addi	x18,x23,0
    3940:	00078493          	addi	x9,x15,0
    3944:	000b0b93          	addi	x23,x22,0
    3948:	01760633          	add	x12,x12,x23
    394c:	00158593          	addi	x11,x11,1
    3950:	01d4a023          	sw	x29,0(x9)
    3954:	0174a223          	sw	x23,4(x9)
    3958:	0cc12623          	sw	x12,204(x2)
    395c:	0cb12423          	sw	x11,200(x2)
    3960:	00700713          	addi	x14,x0,7
    3964:	00848493          	addi	x9,x9,8
    3968:	d8b75e63          	bge	x14,x11,2f04 <_vfprintf_r+0x2c0>
    396c:	00012583          	lw	x11,0(x2)
    3970:	0c410613          	addi	x12,x2,196
    3974:	000a8513          	addi	x10,x21,0
    3978:	05c12023          	sw	x28,64(x2)
    397c:	03112823          	sw	x17,48(x2)
    3980:	630020ef          	jal	x1,5fb0 <__sprint_r>
    3984:	10051c63          	bne	x10,x0,3a9c <_vfprintf_r+0xe58>
    3988:	0cc12603          	lw	x12,204(x2)
    398c:	04012e03          	lw	x28,64(x2)
    3990:	03012883          	lw	x17,48(x2)
    3994:	000c0493          	addi	x9,x24,0
    3998:	d6cff06f          	jal	x0,2f04 <_vfprintf_r+0x2c0>
    399c:	0c812583          	lw	x11,200(x2)
    39a0:	0000ee97          	auipc	x29,0xe
    39a4:	484e8e93          	addi	x29,x29,1156 # 11e24 <zeroes.0>
    39a8:	09445663          	bge	x8,x20,3a34 <_vfprintf_r+0xdf0>
    39ac:	00048793          	addi	x15,x9,0
    39b0:	00700b93          	addi	x23,x0,7
    39b4:	000a0493          	addi	x9,x20,0
    39b8:	00088b13          	addi	x22,x17,0
    39bc:	03c12823          	sw	x28,48(x2)
    39c0:	000e8a13          	addi	x20,x29,0
    39c4:	00c0006f          	jal	x0,39d0 <_vfprintf_r+0xd8c>
    39c8:	ff048493          	addi	x9,x9,-16
    39cc:	04945a63          	bge	x8,x9,3a20 <_vfprintf_r+0xddc>
    39d0:	01060613          	addi	x12,x12,16
    39d4:	00158593          	addi	x11,x11,1
    39d8:	0000e717          	auipc	x14,0xe
    39dc:	44c70713          	addi	x14,x14,1100 # 11e24 <zeroes.0>
    39e0:	00e7a023          	sw	x14,0(x15)
    39e4:	0087a223          	sw	x8,4(x15)
    39e8:	0cc12623          	sw	x12,204(x2)
    39ec:	0cb12423          	sw	x11,200(x2)
    39f0:	00878793          	addi	x15,x15,8
    39f4:	fcbbdae3          	bge	x23,x11,39c8 <_vfprintf_r+0xd84>
    39f8:	00012583          	lw	x11,0(x2)
    39fc:	0c410613          	addi	x12,x2,196
    3a00:	000a8513          	addi	x10,x21,0
    3a04:	5ac020ef          	jal	x1,5fb0 <__sprint_r>
    3a08:	08051a63          	bne	x10,x0,3a9c <_vfprintf_r+0xe58>
    3a0c:	ff048493          	addi	x9,x9,-16
    3a10:	0cc12603          	lw	x12,204(x2)
    3a14:	0c812583          	lw	x11,200(x2)
    3a18:	000c0793          	addi	x15,x24,0
    3a1c:	fa944ae3          	blt	x8,x9,39d0 <_vfprintf_r+0xd8c>
    3a20:	03012e03          	lw	x28,48(x2)
    3a24:	000a0e93          	addi	x29,x20,0
    3a28:	000b0893          	addi	x17,x22,0
    3a2c:	00048a13          	addi	x20,x9,0
    3a30:	00078493          	addi	x9,x15,0
    3a34:	01460633          	add	x12,x12,x20
    3a38:	00158593          	addi	x11,x11,1
    3a3c:	01d4a023          	sw	x29,0(x9)
    3a40:	0144a223          	sw	x20,4(x9)
    3a44:	0cc12623          	sw	x12,204(x2)
    3a48:	0cb12423          	sw	x11,200(x2)
    3a4c:	00700713          	addi	x14,x0,7
    3a50:	00848493          	addi	x9,x9,8
    3a54:	cab75c63          	bge	x14,x11,2f0c <_vfprintf_r+0x2c8>
    3a58:	00012583          	lw	x11,0(x2)
    3a5c:	0c410613          	addi	x12,x2,196
    3a60:	000a8513          	addi	x10,x21,0
    3a64:	05c12023          	sw	x28,64(x2)
    3a68:	03112823          	sw	x17,48(x2)
    3a6c:	544020ef          	jal	x1,5fb0 <__sprint_r>
    3a70:	02051663          	bne	x10,x0,3a9c <_vfprintf_r+0xe58>
    3a74:	0cc12603          	lw	x12,204(x2)
    3a78:	04012e03          	lw	x28,64(x2)
    3a7c:	03012883          	lw	x17,48(x2)
    3a80:	000c0493          	addi	x9,x24,0
    3a84:	c88ff06f          	jal	x0,2f0c <_vfprintf_r+0x2c8>
    3a88:	00012583          	lw	x11,0(x2)
    3a8c:	0c410613          	addi	x12,x2,196
    3a90:	000a8513          	addi	x10,x21,0
    3a94:	51c020ef          	jal	x1,5fb0 <__sprint_r>
    3a98:	cc050863          	beq	x10,x0,2f68 <_vfprintf_r+0x324>
    3a9c:	00812583          	lw	x11,8(x2)
    3aa0:	ce058e63          	beq	x11,x0,2f9c <_vfprintf_r+0x358>
    3aa4:	02012503          	lw	x10,32(x2)
    3aa8:	f79fd0ef          	jal	x1,1a20 <_free_r>
    3aac:	cf0ff06f          	jal	x0,2f9c <_vfprintf_r+0x358>
    3ab0:	01000513          	addi	x10,x0,16
    3ab4:	0c812583          	lw	x11,200(x2)
    3ab8:	0000eb97          	auipc	x23,0xe
    3abc:	35cb8b93          	addi	x23,x23,860 # 11e14 <blanks.1>
    3ac0:	0ae55863          	bge	x10,x14,3b70 <_vfprintf_r+0xf2c>
    3ac4:	00048793          	addi	x15,x9,0
    3ac8:	00070493          	addi	x9,x14,0
    3acc:	000b8713          	addi	x14,x23,0
    3ad0:	01000e93          	addi	x29,x0,16
    3ad4:	00090b93          	addi	x23,x18,0
    3ad8:	00700393          	addi	x7,x0,7
    3adc:	02512823          	sw	x5,48(x2)
    3ae0:	000f8b13          	addi	x22,x31,0
    3ae4:	05112023          	sw	x17,64(x2)
    3ae8:	05c12423          	sw	x28,72(x2)
    3aec:	00070913          	addi	x18,x14,0
    3af0:	00c0006f          	jal	x0,3afc <_vfprintf_r+0xeb8>
    3af4:	ff048493          	addi	x9,x9,-16
    3af8:	049eda63          	bge	x29,x9,3b4c <_vfprintf_r+0xf08>
    3afc:	01060613          	addi	x12,x12,16
    3b00:	00158593          	addi	x11,x11,1
    3b04:	0127a023          	sw	x18,0(x15)
    3b08:	01d7a223          	sw	x29,4(x15)
    3b0c:	0cc12623          	sw	x12,204(x2)
    3b10:	0cb12423          	sw	x11,200(x2)
    3b14:	00878793          	addi	x15,x15,8
    3b18:	fcb3dee3          	bge	x7,x11,3af4 <_vfprintf_r+0xeb0>
    3b1c:	00012583          	lw	x11,0(x2)
    3b20:	0c410613          	addi	x12,x2,196
    3b24:	000a8513          	addi	x10,x21,0
    3b28:	488020ef          	jal	x1,5fb0 <__sprint_r>
    3b2c:	f60518e3          	bne	x10,x0,3a9c <_vfprintf_r+0xe58>
    3b30:	01000e93          	addi	x29,x0,16
    3b34:	ff048493          	addi	x9,x9,-16
    3b38:	0cc12603          	lw	x12,204(x2)
    3b3c:	0c812583          	lw	x11,200(x2)
    3b40:	000c0793          	addi	x15,x24,0
    3b44:	00700393          	addi	x7,x0,7
    3b48:	fa9ecae3          	blt	x29,x9,3afc <_vfprintf_r+0xeb8>
    3b4c:	03012283          	lw	x5,48(x2)
    3b50:	04012883          	lw	x17,64(x2)
    3b54:	04812e03          	lw	x28,72(x2)
    3b58:	00048713          	addi	x14,x9,0
    3b5c:	00078493          	addi	x9,x15,0
    3b60:	00090793          	addi	x15,x18,0
    3b64:	000b0f93          	addi	x31,x22,0
    3b68:	000b8913          	addi	x18,x23,0
    3b6c:	00078b93          	addi	x23,x15,0
    3b70:	00e60633          	add	x12,x12,x14
    3b74:	00158593          	addi	x11,x11,1
    3b78:	00e4a223          	sw	x14,4(x9)
    3b7c:	0174a023          	sw	x23,0(x9)
    3b80:	0cc12623          	sw	x12,204(x2)
    3b84:	0cb12423          	sw	x11,200(x2)
    3b88:	00700713          	addi	x14,x0,7
    3b8c:	00848493          	addi	x9,x9,8
    3b90:	b0b75063          	bge	x14,x11,2e90 <_vfprintf_r+0x24c>
    3b94:	00012583          	lw	x11,0(x2)
    3b98:	0c410613          	addi	x12,x2,196
    3b9c:	000a8513          	addi	x10,x21,0
    3ba0:	05c12623          	sw	x28,76(x2)
    3ba4:	05112423          	sw	x17,72(x2)
    3ba8:	05f12023          	sw	x31,64(x2)
    3bac:	02512823          	sw	x5,48(x2)
    3bb0:	400020ef          	jal	x1,5fb0 <__sprint_r>
    3bb4:	ee0514e3          	bne	x10,x0,3a9c <_vfprintf_r+0xe58>
    3bb8:	0cc12603          	lw	x12,204(x2)
    3bbc:	04c12e03          	lw	x28,76(x2)
    3bc0:	04812883          	lw	x17,72(x2)
    3bc4:	04012f83          	lw	x31,64(x2)
    3bc8:	03012283          	lw	x5,48(x2)
    3bcc:	000c0493          	addi	x9,x24,0
    3bd0:	ac0ff06f          	jal	x0,2e90 <_vfprintf_r+0x24c>
    3bd4:	00012583          	lw	x11,0(x2)
    3bd8:	0c410613          	addi	x12,x2,196
    3bdc:	000a8513          	addi	x10,x21,0
    3be0:	05c12423          	sw	x28,72(x2)
    3be4:	05112023          	sw	x17,64(x2)
    3be8:	03f12823          	sw	x31,48(x2)
    3bec:	3c4020ef          	jal	x1,5fb0 <__sprint_r>
    3bf0:	ea0516e3          	bne	x10,x0,3a9c <_vfprintf_r+0xe58>
    3bf4:	0cc12603          	lw	x12,204(x2)
    3bf8:	04812e03          	lw	x28,72(x2)
    3bfc:	04012883          	lw	x17,64(x2)
    3c00:	03012f83          	lw	x31,48(x2)
    3c04:	000c0493          	addi	x9,x24,0
    3c08:	af4ff06f          	jal	x0,2efc <_vfprintf_r+0x2b8>
    3c0c:	01000713          	addi	x14,x0,16
    3c10:	0c812783          	lw	x15,200(x2)
    3c14:	0000eb97          	auipc	x23,0xe
    3c18:	200b8b93          	addi	x23,x23,512 # 11e14 <blanks.1>
    3c1c:	07275263          	bge	x14,x18,3c80 <_vfprintf_r+0x103c>
    3c20:	00012d03          	lw	x26,0(x2)
    3c24:	01000a13          	addi	x20,x0,16
    3c28:	00700b13          	addi	x22,x0,7
    3c2c:	00c0006f          	jal	x0,3c38 <_vfprintf_r+0xff4>
    3c30:	ff090913          	addi	x18,x18,-16
    3c34:	052a5663          	bge	x20,x18,3c80 <_vfprintf_r+0x103c>
    3c38:	01060613          	addi	x12,x12,16
    3c3c:	00178793          	addi	x15,x15,1
    3c40:	0174a023          	sw	x23,0(x9)
    3c44:	0144a223          	sw	x20,4(x9)
    3c48:	0cc12623          	sw	x12,204(x2)
    3c4c:	0cf12423          	sw	x15,200(x2)
    3c50:	00848493          	addi	x9,x9,8
    3c54:	fcfb5ee3          	bge	x22,x15,3c30 <_vfprintf_r+0xfec>
    3c58:	0c410613          	addi	x12,x2,196
    3c5c:	000d0593          	addi	x11,x26,0
    3c60:	000a8513          	addi	x10,x21,0
    3c64:	34c020ef          	jal	x1,5fb0 <__sprint_r>
    3c68:	e2051ae3          	bne	x10,x0,3a9c <_vfprintf_r+0xe58>
    3c6c:	ff090913          	addi	x18,x18,-16
    3c70:	0cc12603          	lw	x12,204(x2)
    3c74:	0c812783          	lw	x15,200(x2)
    3c78:	000c0493          	addi	x9,x24,0
    3c7c:	fb2a4ee3          	blt	x20,x18,3c38 <_vfprintf_r+0xff4>
    3c80:	01260633          	add	x12,x12,x18
    3c84:	00178793          	addi	x15,x15,1
    3c88:	0174a023          	sw	x23,0(x9)
    3c8c:	0124a223          	sw	x18,4(x9)
    3c90:	0cc12623          	sw	x12,204(x2)
    3c94:	0cf12423          	sw	x15,200(x2)
    3c98:	00700713          	addi	x14,x0,7
    3c9c:	aaf75863          	bge	x14,x15,2f4c <_vfprintf_r+0x308>
    3ca0:	00012583          	lw	x11,0(x2)
    3ca4:	0c410613          	addi	x12,x2,196
    3ca8:	000a8513          	addi	x10,x21,0
    3cac:	304020ef          	jal	x1,5fb0 <__sprint_r>
    3cb0:	de0516e3          	bne	x10,x0,3a9c <_vfprintf_r+0xe58>
    3cb4:	0cc12603          	lw	x12,204(x2)
    3cb8:	a94ff06f          	jal	x0,2f4c <_vfprintf_r+0x308>
    3cbc:	0ac12583          	lw	x11,172(x2)
    3cc0:	14b05ee3          	bge	x0,x11,461c <_vfprintf_r+0x19d8>
    3cc4:	01012783          	lw	x15,16(x2)
    3cc8:	01412703          	lw	x14,20(x2)
    3ccc:	00fd0b33          	add	x22,x26,x15
    3cd0:	00070913          	addi	x18,x14,0
    3cd4:	3ce7c863          	blt	x15,x14,40a4 <_vfprintf_r+0x1460>
    3cd8:	03205663          	bge	x0,x18,3d04 <_vfprintf_r+0x10c0>
    3cdc:	0c812583          	lw	x11,200(x2)
    3ce0:	01260633          	add	x12,x12,x18
    3ce4:	01a4a023          	sw	x26,0(x9)
    3ce8:	00158593          	addi	x11,x11,1
    3cec:	0124a223          	sw	x18,4(x9)
    3cf0:	0cc12623          	sw	x12,204(x2)
    3cf4:	0cb12423          	sw	x11,200(x2)
    3cf8:	00700513          	addi	x10,x0,7
    3cfc:	00848493          	addi	x9,x9,8
    3d00:	6cb542e3          	blt	x10,x11,4bc4 <_vfprintf_r+0x1f80>
    3d04:	fff94593          	xori	x11,x18,-1
    3d08:	01412783          	lw	x15,20(x2)
    3d0c:	41f5d593          	srai	x11,x11,0x1f
    3d10:	00b97733          	and	x14,x18,x11
    3d14:	40e78933          	sub	x18,x15,x14
    3d18:	49204863          	blt	x0,x18,41a8 <_vfprintf_r+0x1564>
    3d1c:	01412783          	lw	x15,20(x2)
    3d20:	400e7713          	andi	x14,x28,1024
    3d24:	00fd0d33          	add	x26,x26,x15
    3d28:	3a071ee3          	bne	x14,x0,48e4 <_vfprintf_r+0x1ca0>
    3d2c:	0ac12903          	lw	x18,172(x2)
    3d30:	01012783          	lw	x15,16(x2)
    3d34:	4ef94863          	blt	x18,x15,4224 <_vfprintf_r+0x15e0>
    3d38:	001e7713          	andi	x14,x28,1
    3d3c:	4e071463          	bne	x14,x0,4224 <_vfprintf_r+0x15e0>
    3d40:	01012783          	lw	x15,16(x2)
    3d44:	41ab0a33          	sub	x20,x22,x26
    3d48:	41278933          	sub	x18,x15,x18
    3d4c:	01495463          	bge	x18,x20,3d54 <_vfprintf_r+0x1110>
    3d50:	00090a13          	addi	x20,x18,0
    3d54:	03405863          	bge	x0,x20,3d84 <_vfprintf_r+0x1140>
    3d58:	0c812783          	lw	x15,200(x2)
    3d5c:	01460633          	add	x12,x12,x20
    3d60:	01a4a023          	sw	x26,0(x9)
    3d64:	00178793          	addi	x15,x15,1
    3d68:	0144a223          	sw	x20,4(x9)
    3d6c:	0cc12623          	sw	x12,204(x2)
    3d70:	0cf12423          	sw	x15,200(x2)
    3d74:	00700713          	addi	x14,x0,7
    3d78:	00848493          	addi	x9,x9,8
    3d7c:	00f75463          	bge	x14,x15,3d84 <_vfprintf_r+0x1140>
    3d80:	5ec0106f          	jal	x0,536c <_vfprintf_r+0x2728>
    3d84:	fffa4713          	xori	x14,x20,-1
    3d88:	41f75713          	srai	x14,x14,0x1f
    3d8c:	00ea77b3          	and	x15,x20,x14
    3d90:	40f90933          	sub	x18,x18,x15
    3d94:	9b205463          	bge	x0,x18,2f3c <_vfprintf_r+0x2f8>
    3d98:	01000713          	addi	x14,x0,16
    3d9c:	0c812783          	lw	x15,200(x2)
    3da0:	0000ee97          	auipc	x29,0xe
    3da4:	084e8e93          	addi	x29,x29,132 # 11e24 <zeroes.0>
    3da8:	132758e3          	bge	x14,x18,46d8 <_vfprintf_r+0x1a94>
    3dac:	01000a13          	addi	x20,x0,16
    3db0:	00700b93          	addi	x23,x0,7
    3db4:	000e0d13          	addi	x26,x28,0
    3db8:	000e8b13          	addi	x22,x29,0
    3dbc:	00c0006f          	jal	x0,3dc8 <_vfprintf_r+0x1184>
    3dc0:	ff090913          	addi	x18,x18,-16
    3dc4:	112a56e3          	bge	x20,x18,46d0 <_vfprintf_r+0x1a8c>
    3dc8:	01060613          	addi	x12,x12,16
    3dcc:	00178793          	addi	x15,x15,1
    3dd0:	0164a023          	sw	x22,0(x9)
    3dd4:	0144a223          	sw	x20,4(x9)
    3dd8:	0cc12623          	sw	x12,204(x2)
    3ddc:	0cf12423          	sw	x15,200(x2)
    3de0:	00848493          	addi	x9,x9,8
    3de4:	fcfbdee3          	bge	x23,x15,3dc0 <_vfprintf_r+0x117c>
    3de8:	00012583          	lw	x11,0(x2)
    3dec:	0c410613          	addi	x12,x2,196
    3df0:	000a8513          	addi	x10,x21,0
    3df4:	1bc020ef          	jal	x1,5fb0 <__sprint_r>
    3df8:	ca0512e3          	bne	x10,x0,3a9c <_vfprintf_r+0xe58>
    3dfc:	0cc12603          	lw	x12,204(x2)
    3e00:	0c812783          	lw	x15,200(x2)
    3e04:	000c0493          	addi	x9,x24,0
    3e08:	fb9ff06f          	jal	x0,3dc0 <_vfprintf_r+0x117c>
    3e0c:	001e7593          	andi	x11,x28,1
    3e10:	c0059c63          	bne	x11,x0,3228 <_vfprintf_r+0x5e4>
    3e14:	00e4a223          	sw	x14,4(x9)
    3e18:	0d712623          	sw	x23,204(x2)
    3e1c:	0d212423          	sw	x18,200(x2)
    3e20:	00700793          	addi	x15,x0,7
    3e24:	cd27d463          	bge	x15,x18,32ec <_vfprintf_r+0x6a8>
    3e28:	00012583          	lw	x11,0(x2)
    3e2c:	0c410613          	addi	x12,x2,196
    3e30:	000a8513          	addi	x10,x21,0
    3e34:	01c12a23          	sw	x28,20(x2)
    3e38:	178020ef          	jal	x1,5fb0 <__sprint_r>
    3e3c:	c60510e3          	bne	x10,x0,3a9c <_vfprintf_r+0xe58>
    3e40:	0cc12b83          	lw	x23,204(x2)
    3e44:	0c812903          	lw	x18,200(x2)
    3e48:	01412e03          	lw	x28,20(x2)
    3e4c:	000c0a13          	addi	x20,x24,0
    3e50:	c9cff06f          	jal	x0,32ec <_vfprintf_r+0x6a8>
    3e54:	01012703          	lw	x14,16(x2)
    3e58:	00100793          	addi	x15,x0,1
    3e5c:	c8e7d863          	bge	x15,x14,32ec <_vfprintf_r+0x6a8>
    3e60:	01100793          	addi	x15,x0,17
    3e64:	0000ee97          	auipc	x29,0xe
    3e68:	fc0e8e93          	addi	x29,x29,-64 # 11e24 <zeroes.0>
    3e6c:	18e7d6e3          	bge	x15,x14,47f8 <_vfprintf_r+0x1bb4>
    3e70:	00048b13          	addi	x22,x9,0
    3e74:	01000793          	addi	x15,x0,16
    3e78:	00700d13          	addi	x26,x0,7
    3e7c:	01c12a23          	sw	x28,20(x2)
    3e80:	000e8493          	addi	x9,x29,0
    3e84:	00c0006f          	jal	x0,3e90 <_vfprintf_r+0x124c>
    3e88:	ff0b0b13          	addi	x22,x22,-16
    3e8c:	1767d0e3          	bge	x15,x22,47ec <_vfprintf_r+0x1ba8>
    3e90:	010b8b93          	addi	x23,x23,16
    3e94:	00190913          	addi	x18,x18,1
    3e98:	009a2023          	sw	x9,0(x20)
    3e9c:	00fa2223          	sw	x15,4(x20)
    3ea0:	0d712623          	sw	x23,204(x2)
    3ea4:	0d212423          	sw	x18,200(x2)
    3ea8:	008a0a13          	addi	x20,x20,8
    3eac:	fd2d5ee3          	bge	x26,x18,3e88 <_vfprintf_r+0x1244>
    3eb0:	00012583          	lw	x11,0(x2)
    3eb4:	0c410613          	addi	x12,x2,196
    3eb8:	000a8513          	addi	x10,x21,0
    3ebc:	0f4020ef          	jal	x1,5fb0 <__sprint_r>
    3ec0:	bc051ee3          	bne	x10,x0,3a9c <_vfprintf_r+0xe58>
    3ec4:	0cc12b83          	lw	x23,204(x2)
    3ec8:	0c812903          	lw	x18,200(x2)
    3ecc:	000c0a13          	addi	x20,x24,0
    3ed0:	01000793          	addi	x15,x0,16
    3ed4:	fb5ff06f          	jal	x0,3e88 <_vfprintf_r+0x1244>
    3ed8:	00c12703          	lw	x14,12(x2)
    3edc:	010e7793          	andi	x15,x28,16
    3ee0:	00072903          	lw	x18,0(x14)
    3ee4:	00470713          	addi	x14,x14,4
    3ee8:	00e12623          	sw	x14,12(x2)
    3eec:	10079c63          	bne	x15,x0,4004 <_vfprintf_r+0x13c0>
    3ef0:	040e7793          	andi	x15,x28,64
    3ef4:	10078463          	beq	x15,x0,3ffc <_vfprintf_r+0x13b8>
    3ef8:	01091913          	slli	x18,x18,0x10
    3efc:	01095913          	srli	x18,x18,0x10
    3f00:	00000d93          	addi	x27,x0,0
    3f04:	ed8ff06f          	jal	x0,35dc <_vfprintf_r+0x998>
    3f08:	00c12703          	lw	x14,12(x2)
    3f0c:	010e7793          	andi	x15,x28,16
    3f10:	00072903          	lw	x18,0(x14)
    3f14:	00470713          	addi	x14,x14,4
    3f18:	00e12623          	sw	x14,12(x2)
    3f1c:	0c079a63          	bne	x15,x0,3ff0 <_vfprintf_r+0x13ac>
    3f20:	040e7793          	andi	x15,x28,64
    3f24:	0c078263          	beq	x15,x0,3fe8 <_vfprintf_r+0x13a4>
    3f28:	01091913          	slli	x18,x18,0x10
    3f2c:	41095913          	srai	x18,x18,0x10
    3f30:	41f95d93          	srai	x27,x18,0x1f
    3f34:	000d8793          	addi	x15,x27,0
    3f38:	e207d863          	bge	x15,x0,3568 <_vfprintf_r+0x924>
    3f3c:	012037b3          	sltu	x15,x0,x18
    3f40:	41b00db3          	sub	x27,x0,x27
    3f44:	40fd8db3          	sub	x27,x27,x15
    3f48:	41200933          	sub	x18,x0,x18
    3f4c:	000e0e93          	addi	x29,x28,0
    3f50:	02d00713          	addi	x14,x0,45
    3f54:	00100793          	addi	x15,x0,1
    3f58:	d84ff06f          	jal	x0,34dc <_vfprintf_r+0x898>
    3f5c:	00c12703          	lw	x14,12(x2)
    3f60:	010ef793          	andi	x15,x29,16
    3f64:	00072903          	lw	x18,0(x14)
    3f68:	00470713          	addi	x14,x14,4
    3f6c:	00e12623          	sw	x14,12(x2)
    3f70:	06079663          	bne	x15,x0,3fdc <_vfprintf_r+0x1398>
    3f74:	040ef793          	andi	x15,x29,64
    3f78:	04078c63          	beq	x15,x0,3fd0 <_vfprintf_r+0x138c>
    3f7c:	01091913          	slli	x18,x18,0x10
    3f80:	01095913          	srli	x18,x18,0x10
    3f84:	00000d93          	addi	x27,x0,0
    3f88:	00100793          	addi	x15,x0,1
    3f8c:	d4cff06f          	jal	x0,34d8 <_vfprintf_r+0x894>
    3f90:	00000913          	addi	x18,x0,0
    3f94:	19010d13          	addi	x26,x2,400
    3f98:	d6cff06f          	jal	x0,3504 <_vfprintf_r+0x8c0>
    3f9c:	001e7793          	andi	x15,x28,1
    3fa0:	00079463          	bne	x15,x0,3fa8 <_vfprintf_r+0x1364>
    3fa4:	f99fe06f          	jal	x0,2f3c <_vfprintf_r+0x2f8>
    3fa8:	f74ff06f          	jal	x0,371c <_vfprintf_r+0xad8>
    3fac:	000b0e13          	addi	x28,x22,0
    3fb0:	d8cff06f          	jal	x0,353c <_vfprintf_r+0x8f8>
    3fb4:	0009c883          	lbu	x17,0(x19)
    3fb8:	00f12623          	sw	x15,12(x2)
    3fbc:	e29fe06f          	jal	x0,2de4 <_vfprintf_r+0x1a0>
    3fc0:	03000793          	addi	x15,x0,48
    3fc4:	18f107a3          	sb	x15,399(x2)
    3fc8:	18f10d13          	addi	x26,x2,399
    3fcc:	d38ff06f          	jal	x0,3504 <_vfprintf_r+0x8c0>
    3fd0:	200ef793          	andi	x15,x29,512
    3fd4:	00078463          	beq	x15,x0,3fdc <_vfprintf_r+0x1398>
    3fd8:	0ff97913          	andi	x18,x18,255
    3fdc:	00000d93          	addi	x27,x0,0
    3fe0:	00100793          	addi	x15,x0,1
    3fe4:	cf4ff06f          	jal	x0,34d8 <_vfprintf_r+0x894>
    3fe8:	200e7793          	andi	x15,x28,512
    3fec:	420796e3          	bne	x15,x0,4c18 <_vfprintf_r+0x1fd4>
    3ff0:	41f95d93          	srai	x27,x18,0x1f
    3ff4:	000d8793          	addi	x15,x27,0
    3ff8:	d6cff06f          	jal	x0,3564 <_vfprintf_r+0x920>
    3ffc:	200e7793          	andi	x15,x28,512
    4000:	420796e3          	bne	x15,x0,4c2c <_vfprintf_r+0x1fe8>
    4004:	00000d93          	addi	x27,x0,0
    4008:	dd4ff06f          	jal	x0,35dc <_vfprintf_r+0x998>
    400c:	00c12783          	lw	x15,12(x2)
    4010:	09010513          	addi	x10,x2,144
    4014:	01112423          	sw	x17,8(x2)
    4018:	00778b93          	addi	x23,x15,7
    401c:	ff8bfb93          	andi	x23,x23,-8
    4020:	000ba583          	lw	x11,0(x23)
    4024:	004ba603          	lw	x12,4(x23)
    4028:	008b8793          	addi	x15,x23,8
    402c:	01612a23          	sw	x22,20(x2)
    4030:	00f12623          	sw	x15,12(x2)
    4034:	4000d0ef          	jal	x1,11434 <__extenddftf2>
    4038:	09012583          	lw	x11,144(x2)
    403c:	09412603          	lw	x12,148(x2)
    4040:	09812683          	lw	x13,152(x2)
    4044:	09c12703          	lw	x14,156(x2)
    4048:	01412e03          	lw	x28,20(x2)
    404c:	00812883          	lw	x17,8(x2)
    4050:	898ff06f          	jal	x0,30e8 <_vfprintf_r+0x4a4>
    4054:	010b7793          	andi	x15,x22,16
    4058:	72079063          	bne	x15,x0,4778 <_vfprintf_r+0x1b34>
    405c:	040b7793          	andi	x15,x22,64
    4060:	38079ce3          	bne	x15,x0,4bf8 <_vfprintf_r+0x1fb4>
    4064:	200b7e13          	andi	x28,x22,512
    4068:	700e0863          	beq	x28,x0,4778 <_vfprintf_r+0x1b34>
    406c:	00c12783          	lw	x15,12(x2)
    4070:	00412703          	lw	x14,4(x2)
    4074:	0007a783          	lw	x15,0(x15)
    4078:	00e78023          	sb	x14,0(x15)
    407c:	ddcff06f          	jal	x0,3658 <_vfprintf_r+0xa14>
    4080:	03412783          	lw	x15,52(x2)
    4084:	0009c883          	lbu	x17,0(x19)
    4088:	00079463          	bne	x15,x0,4090 <_vfprintf_r+0x144c>
    408c:	d59fe06f          	jal	x0,2de4 <_vfprintf_r+0x1a0>
    4090:	0007c783          	lbu	x15,0(x15)
    4094:	00079463          	bne	x15,x0,409c <_vfprintf_r+0x1458>
    4098:	d4dfe06f          	jal	x0,2de4 <_vfprintf_r+0x1a0>
    409c:	400b6b13          	ori	x22,x22,1024
    40a0:	d45fe06f          	jal	x0,2de4 <_vfprintf_r+0x1a0>
    40a4:	00078913          	addi	x18,x15,0
    40a8:	c3204ae3          	blt	x0,x18,3cdc <_vfprintf_r+0x1098>
    40ac:	c59ff06f          	jal	x0,3d04 <_vfprintf_r+0x10c0>
    40b0:	fff00a13          	addi	x20,x0,-1
    40b4:	00068993          	addi	x19,x13,0
    40b8:	d31fe06f          	jal	x0,2de8 <_vfprintf_r+0x1a4>
    40bc:	0000e797          	auipc	x15,0xe
    40c0:	90c78793          	addi	x15,x15,-1780 # 119c8 <__clzsi2+0x34c>
    40c4:	000b0e13          	addi	x28,x22,0
    40c8:	02f12623          	sw	x15,44(x2)
    40cc:	020e7793          	andi	x15,x28,32
    40d0:	3a078463          	beq	x15,x0,4478 <_vfprintf_r+0x1834>
    40d4:	00c12783          	lw	x15,12(x2)
    40d8:	00778b93          	addi	x23,x15,7
    40dc:	ff8bfb93          	andi	x23,x23,-8
    40e0:	000ba903          	lw	x18,0(x23)
    40e4:	004bad83          	lw	x27,4(x23)
    40e8:	008b8793          	addi	x15,x23,8
    40ec:	00f12623          	sw	x15,12(x2)
    40f0:	001e7793          	andi	x15,x28,1
    40f4:	00078e63          	beq	x15,x0,4110 <_vfprintf_r+0x14cc>
    40f8:	01b967b3          	or	x15,x18,x27
    40fc:	00078a63          	beq	x15,x0,4110 <_vfprintf_r+0x14cc>
    4100:	03000793          	addi	x15,x0,48
    4104:	0af10423          	sb	x15,168(x2)
    4108:	0b1104a3          	sb	x17,169(x2)
    410c:	002e6e13          	ori	x28,x28,2
    4110:	bffe7e93          	andi	x29,x28,-1025
    4114:	00200793          	addi	x15,x0,2
    4118:	bc0ff06f          	jal	x0,34d8 <_vfprintf_r+0x894>
    411c:	000b0e93          	addi	x29,x22,0
    4120:	b90ff06f          	jal	x0,34b0 <_vfprintf_r+0x86c>
    4124:	00012583          	lw	x11,0(x2)
    4128:	0c410613          	addi	x12,x2,196
    412c:	000a8513          	addi	x10,x21,0
    4130:	01c12a23          	sw	x28,20(x2)
    4134:	67d010ef          	jal	x1,5fb0 <__sprint_r>
    4138:	960512e3          	bne	x10,x0,3a9c <_vfprintf_r+0xe58>
    413c:	0cc12603          	lw	x12,204(x2)
    4140:	01412e03          	lw	x28,20(x2)
    4144:	000c0493          	addi	x9,x24,0
    4148:	e04ff06f          	jal	x0,374c <_vfprintf_r+0xb08>
    414c:	0000e797          	auipc	x15,0xe
    4150:	86878793          	addi	x15,x15,-1944 # 119b4 <__clzsi2+0x338>
    4154:	000b0e13          	addi	x28,x22,0
    4158:	02f12623          	sw	x15,44(x2)
    415c:	f71ff06f          	jal	x0,40cc <_vfprintf_r+0x1488>
    4160:	000b0e13          	addi	x28,x22,0
    4164:	c54ff06f          	jal	x0,35b8 <_vfprintf_r+0x974>
    4168:	0019c883          	lbu	x17,1(x19)
    416c:	200b6b13          	ori	x22,x22,512
    4170:	00198993          	addi	x19,x19,1
    4174:	c71fe06f          	jal	x0,2de4 <_vfprintf_r+0x1a0>
    4178:	0019c883          	lbu	x17,1(x19)
    417c:	020b6b13          	ori	x22,x22,32
    4180:	00198993          	addi	x19,x19,1
    4184:	c61fe06f          	jal	x0,2de4 <_vfprintf_r+0x1a0>
    4188:	00600793          	addi	x15,x0,6
    418c:	000a0913          	addi	x18,x20,0
    4190:	2747e0e3          	bltu	x15,x20,4bf0 <_vfprintf_r+0x1fac>
    4194:	00090d93          	addi	x27,x18,0
    4198:	01712623          	sw	x23,12(x2)
    419c:	0000ed17          	auipc	x26,0xe
    41a0:	840d0d13          	addi	x26,x26,-1984 # 119dc <__clzsi2+0x360>
    41a4:	cb9fe06f          	jal	x0,2e5c <_vfprintf_r+0x218>
    41a8:	01000513          	addi	x10,x0,16
    41ac:	0c812583          	lw	x11,200(x2)
    41b0:	0000ee97          	auipc	x29,0xe
    41b4:	c74e8e93          	addi	x29,x29,-908 # 11e24 <zeroes.0>
    41b8:	6f255063          	bge	x10,x18,4898 <_vfprintf_r+0x1c54>
    41bc:	00048793          	addi	x15,x9,0
    41c0:	01000b93          	addi	x23,x0,16
    41c4:	00090493          	addi	x9,x18,0
    41c8:	00700a13          	addi	x20,x0,7
    41cc:	03c12823          	sw	x28,48(x2)
    41d0:	000e8913          	addi	x18,x29,0
    41d4:	00c0006f          	jal	x0,41e0 <_vfprintf_r+0x159c>
    41d8:	ff048493          	addi	x9,x9,-16
    41dc:	6a9bd663          	bge	x23,x9,4888 <_vfprintf_r+0x1c44>
    41e0:	01060613          	addi	x12,x12,16
    41e4:	00158593          	addi	x11,x11,1
    41e8:	0127a023          	sw	x18,0(x15)
    41ec:	0177a223          	sw	x23,4(x15)
    41f0:	0cc12623          	sw	x12,204(x2)
    41f4:	0cb12423          	sw	x11,200(x2)
    41f8:	00878793          	addi	x15,x15,8
    41fc:	fcba5ee3          	bge	x20,x11,41d8 <_vfprintf_r+0x1594>
    4200:	00012583          	lw	x11,0(x2)
    4204:	0c410613          	addi	x12,x2,196
    4208:	000a8513          	addi	x10,x21,0
    420c:	5a5010ef          	jal	x1,5fb0 <__sprint_r>
    4210:	880516e3          	bne	x10,x0,3a9c <_vfprintf_r+0xe58>
    4214:	0cc12603          	lw	x12,204(x2)
    4218:	0c812583          	lw	x11,200(x2)
    421c:	000c0793          	addi	x15,x24,0
    4220:	fb9ff06f          	jal	x0,41d8 <_vfprintf_r+0x1594>
    4224:	02812703          	lw	x14,40(x2)
    4228:	02412783          	lw	x15,36(x2)
    422c:	00700593          	addi	x11,x0,7
    4230:	00e4a023          	sw	x14,0(x9)
    4234:	0c812703          	lw	x14,200(x2)
    4238:	00f60633          	add	x12,x12,x15
    423c:	00f4a223          	sw	x15,4(x9)
    4240:	00170713          	addi	x14,x14,1
    4244:	0cc12623          	sw	x12,204(x2)
    4248:	0ce12423          	sw	x14,200(x2)
    424c:	00848493          	addi	x9,x9,8
    4250:	aee5d8e3          	bge	x11,x14,3d40 <_vfprintf_r+0x10fc>
    4254:	00012583          	lw	x11,0(x2)
    4258:	0c410613          	addi	x12,x2,196
    425c:	000a8513          	addi	x10,x21,0
    4260:	01c12a23          	sw	x28,20(x2)
    4264:	54d010ef          	jal	x1,5fb0 <__sprint_r>
    4268:	82051ae3          	bne	x10,x0,3a9c <_vfprintf_r+0xe58>
    426c:	0ac12903          	lw	x18,172(x2)
    4270:	0cc12603          	lw	x12,204(x2)
    4274:	01412e03          	lw	x28,20(x2)
    4278:	000c0493          	addi	x9,x24,0
    427c:	ac5ff06f          	jal	x0,3d40 <_vfprintf_r+0x10fc>
    4280:	07800793          	addi	x15,x0,120
    4284:	03000713          	addi	x14,x0,48
    4288:	0ae10423          	sb	x14,168(x2)
    428c:	0af104a3          	sb	x15,169(x2)
    4290:	06300713          	addi	x14,x0,99
    4294:	00012423          	sw	x0,8(x2)
    4298:	002e6e13          	ori	x28,x28,2
    429c:	12c10d13          	addi	x26,x2,300
    42a0:	01474463          	blt	x14,x20,42a8 <_vfprintf_r+0x1664>
    42a4:	ec9fe06f          	jal	x0,316c <_vfprintf_r+0x528>
    42a8:	001a0593          	addi	x11,x20,1
    42ac:	000a8513          	addi	x10,x21,0
    42b0:	01c12823          	sw	x28,16(x2)
    42b4:	01112423          	sw	x17,8(x2)
    42b8:	e11fc0ef          	jal	x1,10c8 <_malloc_r>
    42bc:	00812883          	lw	x17,8(x2)
    42c0:	01012e03          	lw	x28,16(x2)
    42c4:	00050d13          	addi	x26,x10,0
    42c8:	00051463          	bne	x10,x0,42d0 <_vfprintf_r+0x168c>
    42cc:	41c0106f          	jal	x0,56e8 <_vfprintf_r+0x2aa4>
    42d0:	00a12423          	sw	x10,8(x2)
    42d4:	e99fe06f          	jal	x0,316c <_vfprintf_r+0x528>
    42d8:	09010913          	addi	x18,x2,144
    42dc:	0ac10713          	addi	x14,x2,172
    42e0:	0bc10813          	addi	x16,x2,188
    42e4:	0b010793          	addi	x15,x2,176
    42e8:	000a0693          	addi	x13,x20,0
    42ec:	00200613          	addi	x12,x0,2
    42f0:	00090593          	addi	x11,x18,0
    42f4:	000a8513          	addi	x10,x21,0
    42f8:	05c12623          	sw	x28,76(x2)
    42fc:	05112423          	sw	x17,72(x2)
    4300:	09e12823          	sw	x30,144(x2)
    4304:	01e12e23          	sw	x30,28(x2)
    4308:	09f12a23          	sw	x31,148(x2)
    430c:	01f12c23          	sw	x31,24(x2)
    4310:	08512c23          	sw	x5,152(x2)
    4314:	00512a23          	sw	x5,20(x2)
    4318:	09d12e23          	sw	x29,156(x2)
    431c:	01d12823          	sw	x29,16(x2)
    4320:	4bc010ef          	jal	x1,57dc <_ldtoa_r>
    4324:	04c12e03          	lw	x28,76(x2)
    4328:	01012e83          	lw	x29,16(x2)
    432c:	01412283          	lw	x5,20(x2)
    4330:	001e7713          	andi	x14,x28,1
    4334:	01812f83          	lw	x31,24(x2)
    4338:	01c12f03          	lw	x30,28(x2)
    433c:	04812883          	lw	x17,72(x2)
    4340:	00050d13          	addi	x26,x10,0
    4344:	140712e3          	bne	x14,x0,4c88 <_vfprintf_r+0x2044>
    4348:	0bc12783          	lw	x15,188(x2)
    434c:	0ac12703          	lw	x14,172(x2)
    4350:	40a787b3          	sub	x15,x15,x10
    4354:	00f12823          	sw	x15,16(x2)
    4358:	00e12a23          	sw	x14,20(x2)
    435c:	ffd00693          	addi	x13,x0,-3
    4360:	00d74463          	blt	x14,x13,4368 <_vfprintf_r+0x1724>
    4364:	74ea58e3          	bge	x20,x14,52b4 <_vfprintf_r+0x2670>
    4368:	ffe88893          	addi	x17,x17,-2
    436c:	fff70713          	addi	x14,x14,-1
    4370:	0ae12623          	sw	x14,172(x2)
    4374:	0ff8f693          	andi	x13,x17,255
    4378:	00000613          	addi	x12,x0,0
    437c:	0ad10a23          	sb	x13,180(x2)
    4380:	02b00693          	addi	x13,x0,43
    4384:	00075a63          	bge	x14,x0,4398 <_vfprintf_r+0x1754>
    4388:	01412783          	lw	x15,20(x2)
    438c:	00100713          	addi	x14,x0,1
    4390:	02d00693          	addi	x13,x0,45
    4394:	40f70733          	sub	x14,x14,x15
    4398:	0ad10aa3          	sb	x13,181(x2)
    439c:	00900693          	addi	x13,x0,9
    43a0:	00e6c463          	blt	x13,x14,43a8 <_vfprintf_r+0x1764>
    43a4:	11c0106f          	jal	x0,54c0 <_vfprintf_r+0x287c>
    43a8:	0c310813          	addi	x16,x2,195
    43ac:	00080e93          	addi	x29,x16,0
    43b0:	00a00613          	addi	x12,x0,10
    43b4:	06300f13          	addi	x30,x0,99
    43b8:	02c767b3          	rem	x15,x14,x12
    43bc:	000e8513          	addi	x10,x29,0
    43c0:	00070693          	addi	x13,x14,0
    43c4:	fffe8e93          	addi	x29,x29,-1
    43c8:	03078793          	addi	x15,x15,48
    43cc:	fef50fa3          	sb	x15,-1(x10)
    43d0:	02c74733          	div	x14,x14,x12
    43d4:	fedf42e3          	blt	x30,x13,43b8 <_vfprintf_r+0x1774>
    43d8:	03070713          	addi	x14,x14,48
    43dc:	ffe50693          	addi	x13,x10,-2
    43e0:	feee8fa3          	sb	x14,-1(x29)
    43e4:	0106e463          	bltu	x13,x16,43ec <_vfprintf_r+0x17a8>
    43e8:	2d80106f          	jal	x0,56c0 <_vfprintf_r+0x2a7c>
    43ec:	0b610613          	addi	x12,x2,182
    43f0:	0006c783          	lbu	x15,0(x13)
    43f4:	00168693          	addi	x13,x13,1
    43f8:	00160613          	addi	x12,x12,1
    43fc:	fef60fa3          	sb	x15,-1(x12)
    4400:	ff0698e3          	bne	x13,x16,43f0 <_vfprintf_r+0x17ac>
    4404:	19010793          	addi	x15,x2,400
    4408:	40a78733          	sub	x14,x15,x10
    440c:	f3770793          	addi	x15,x14,-201
    4410:	02f12c23          	sw	x15,56(x2)
    4414:	01012783          	lw	x15,16(x2)
    4418:	03812683          	lw	x13,56(x2)
    441c:	00100713          	addi	x14,x0,1
    4420:	00d78933          	add	x18,x15,x13
    4424:	00f74463          	blt	x14,x15,442c <_vfprintf_r+0x17e8>
    4428:	0d40106f          	jal	x0,54fc <_vfprintf_r+0x28b8>
    442c:	02412783          	lw	x15,36(x2)
    4430:	00f90933          	add	x18,x18,x15
    4434:	fff94693          	xori	x13,x18,-1
    4438:	bffe7e13          	andi	x28,x28,-1025
    443c:	41f6d693          	srai	x13,x13,0x1f
    4440:	100e6793          	ori	x15,x28,256
    4444:	04f12023          	sw	x15,64(x2)
    4448:	00d97db3          	and	x27,x18,x13
    444c:	00012e23          	sw	x0,28(x2)
    4450:	00012c23          	sw	x0,24(x2)
    4454:	00012a23          	sw	x0,20(x2)
    4458:	03012783          	lw	x15,48(x2)
    445c:	640780e3          	beq	x15,x0,529c <_vfprintf_r+0x2658>
    4460:	02d00713          	addi	x14,x0,45
    4464:	04012e03          	lw	x28,64(x2)
    4468:	0ae103a3          	sb	x14,167(x2)
    446c:	00000a13          	addi	x20,x0,0
    4470:	001d8d93          	addi	x27,x27,1
    4474:	9fdfe06f          	jal	x0,2e70 <_vfprintf_r+0x22c>
    4478:	00c12703          	lw	x14,12(x2)
    447c:	010e7793          	andi	x15,x28,16
    4480:	00072903          	lw	x18,0(x14)
    4484:	00470713          	addi	x14,x14,4
    4488:	00e12623          	sw	x14,12(x2)
    448c:	06079e63          	bne	x15,x0,4508 <_vfprintf_r+0x18c4>
    4490:	040e7793          	andi	x15,x28,64
    4494:	06078663          	beq	x15,x0,4500 <_vfprintf_r+0x18bc>
    4498:	01091913          	slli	x18,x18,0x10
    449c:	01095913          	srli	x18,x18,0x10
    44a0:	00000d93          	addi	x27,x0,0
    44a4:	c4dff06f          	jal	x0,40f0 <_vfprintf_r+0x14ac>
    44a8:	00012583          	lw	x11,0(x2)
    44ac:	0c410613          	addi	x12,x2,196
    44b0:	000a8513          	addi	x10,x21,0
    44b4:	01c12a23          	sw	x28,20(x2)
    44b8:	2f9010ef          	jal	x1,5fb0 <__sprint_r>
    44bc:	de051063          	bne	x10,x0,3a9c <_vfprintf_r+0xe58>
    44c0:	0cc12b83          	lw	x23,204(x2)
    44c4:	0c812903          	lw	x18,200(x2)
    44c8:	01412e03          	lw	x28,20(x2)
    44cc:	000c0a13          	addi	x20,x24,0
    44d0:	d75fe06f          	jal	x0,3244 <_vfprintf_r+0x600>
    44d4:	00012583          	lw	x11,0(x2)
    44d8:	0c410613          	addi	x12,x2,196
    44dc:	000a8513          	addi	x10,x21,0
    44e0:	01c12a23          	sw	x28,20(x2)
    44e4:	2cd010ef          	jal	x1,5fb0 <__sprint_r>
    44e8:	da051a63          	bne	x10,x0,3a9c <_vfprintf_r+0xe58>
    44ec:	0cc12b83          	lw	x23,204(x2)
    44f0:	0c812903          	lw	x18,200(x2)
    44f4:	01412e03          	lw	x28,20(x2)
    44f8:	000c0a13          	addi	x20,x24,0
    44fc:	d79fe06f          	jal	x0,3274 <_vfprintf_r+0x630>
    4500:	200e7793          	andi	x15,x28,512
    4504:	70079463          	bne	x15,x0,4c0c <_vfprintf_r+0x1fc8>
    4508:	00000d93          	addi	x27,x0,0
    450c:	be5ff06f          	jal	x0,40f0 <_vfprintf_r+0x14ac>
    4510:	ccccd837          	lui	x16,0xccccd
    4514:	ccccdbb7          	lui	x23,0xccccd
    4518:	03412703          	lw	x14,52(x2)
    451c:	400eff13          	andi	x30,x29,1024
    4520:	00000613          	addi	x12,x0,0
    4524:	19010593          	addi	x11,x2,400
    4528:	00500e13          	addi	x28,x0,5
    452c:	ccd80813          	addi	x16,x16,-819 # cccccccd <__heap_end+0xcc8ccccd>
    4530:	cccb8b93          	addi	x23,x23,-820 # cccccccc <__heap_end+0xcc8ccccc>
    4534:	0ff00b13          	addi	x22,x0,255
    4538:	0540006f          	jal	x0,458c <_vfprintf_r+0x1948>
    453c:	012d37b3          	sltu	x15,x26,x18
    4540:	00fd07b3          	add	x15,x26,x15
    4544:	03c7f7b3          	remu	x15,x15,x28
    4548:	40f907b3          	sub	x15,x18,x15
    454c:	00f935b3          	sltu	x11,x18,x15
    4550:	40bd85b3          	sub	x11,x27,x11
    4554:	03778333          	mul	x6,x15,x23
    4558:	030585b3          	mul	x11,x11,x16
    455c:	0307b533          	mulhu	x10,x15,x16
    4560:	006585b3          	add	x11,x11,x6
    4564:	030787b3          	mul	x15,x15,x16
    4568:	00a585b3          	add	x11,x11,x10
    456c:	01f59513          	slli	x10,x11,0x1f
    4570:	0015d593          	srli	x11,x11,0x1
    4574:	0017d793          	srli	x15,x15,0x1
    4578:	00f567b3          	or	x15,x10,x15
    457c:	5a0d84e3          	beq	x27,x0,5324 <_vfprintf_r+0x26e0>
    4580:	00058d93          	addi	x27,x11,0
    4584:	00078913          	addi	x18,x15,0
    4588:	00068593          	addi	x11,x13,0
    458c:	01b90d33          	add	x26,x18,x27
    4590:	012d37b3          	sltu	x15,x26,x18
    4594:	00fd07b3          	add	x15,x26,x15
    4598:	03c7f7b3          	remu	x15,x15,x28
    459c:	fff58693          	addi	x13,x11,-1
    45a0:	00160613          	addi	x12,x12,1
    45a4:	40f907b3          	sub	x15,x18,x15
    45a8:	00f93533          	sltu	x10,x18,x15
    45ac:	40ad8533          	sub	x10,x27,x10
    45b0:	0307b333          	mulhu	x6,x15,x16
    45b4:	03050533          	mul	x10,x10,x16
    45b8:	030787b3          	mul	x15,x15,x16
    45bc:	00650533          	add	x10,x10,x6
    45c0:	01f51513          	slli	x10,x10,0x1f
    45c4:	0017d793          	srli	x15,x15,0x1
    45c8:	00f567b3          	or	x15,x10,x15
    45cc:	00279513          	slli	x10,x15,0x2
    45d0:	00f507b3          	add	x15,x10,x15
    45d4:	00179793          	slli	x15,x15,0x1
    45d8:	40f907b3          	sub	x15,x18,x15
    45dc:	03078793          	addi	x15,x15,48
    45e0:	fef58fa3          	sb	x15,-1(x11)
    45e4:	f40f0ce3          	beq	x30,x0,453c <_vfprintf_r+0x18f8>
    45e8:	00074783          	lbu	x15,0(x14)
    45ec:	f4f618e3          	bne	x12,x15,453c <_vfprintf_r+0x18f8>
    45f0:	f56606e3          	beq	x12,x22,453c <_vfprintf_r+0x18f8>
    45f4:	4e0d9663          	bne	x27,x0,4ae0 <_vfprintf_r+0x1e9c>
    45f8:	00900793          	addi	x15,x0,9
    45fc:	4f27e263          	bltu	x15,x18,4ae0 <_vfprintf_r+0x1e9c>
    4600:	00068d13          	addi	x26,x13,0
    4604:	19010793          	addi	x15,x2,400
    4608:	00c12823          	sw	x12,16(x2)
    460c:	02e12a23          	sw	x14,52(x2)
    4610:	41a78933          	sub	x18,x15,x26
    4614:	000e8e13          	addi	x28,x29,0
    4618:	eedfe06f          	jal	x0,3504 <_vfprintf_r+0x8c0>
    461c:	0c812703          	lw	x14,200(x2)
    4620:	0000d517          	auipc	x10,0xd
    4624:	3c450513          	addi	x10,x10,964 # 119e4 <__clzsi2+0x368>
    4628:	00a4a023          	sw	x10,0(x9)
    462c:	00160613          	addi	x12,x12,1
    4630:	00100513          	addi	x10,x0,1
    4634:	00170713          	addi	x14,x14,1
    4638:	00a4a223          	sw	x10,4(x9)
    463c:	0cc12623          	sw	x12,204(x2)
    4640:	0ce12423          	sw	x14,200(x2)
    4644:	00700513          	addi	x10,x0,7
    4648:	00848493          	addi	x9,x9,8
    464c:	54e54463          	blt	x10,x14,4b94 <_vfprintf_r+0x1f50>
    4650:	12059e63          	bne	x11,x0,478c <_vfprintf_r+0x1b48>
    4654:	01012783          	lw	x15,16(x2)
    4658:	001e7713          	andi	x14,x28,1
    465c:	00f76733          	or	x14,x14,x15
    4660:	00071463          	bne	x14,x0,4668 <_vfprintf_r+0x1a24>
    4664:	8d9fe06f          	jal	x0,2f3c <_vfprintf_r+0x2f8>
    4668:	02812703          	lw	x14,40(x2)
    466c:	02412783          	lw	x15,36(x2)
    4670:	00700593          	addi	x11,x0,7
    4674:	00e4a023          	sw	x14,0(x9)
    4678:	0c812703          	lw	x14,200(x2)
    467c:	00c78633          	add	x12,x15,x12
    4680:	00f4a223          	sw	x15,4(x9)
    4684:	00170713          	addi	x14,x14,1
    4688:	0cc12623          	sw	x12,204(x2)
    468c:	0ce12423          	sw	x14,200(x2)
    4690:	5ce5c263          	blt	x11,x14,4c54 <_vfprintf_r+0x2010>
    4694:	00848493          	addi	x9,x9,8
    4698:	1280006f          	jal	x0,47c0 <_vfprintf_r+0x1b7c>
    469c:	02012503          	lw	x10,32(x2)
    46a0:	ba8fc0ef          	jal	x1,a48 <__sinit>
    46a4:	dfcfe06f          	jal	x0,2ca0 <_vfprintf_r+0x5c>
    46a8:	00012583          	lw	x11,0(x2)
    46ac:	0c410613          	addi	x12,x2,196
    46b0:	000a8513          	addi	x10,x21,0
    46b4:	01c12a23          	sw	x28,20(x2)
    46b8:	0f9010ef          	jal	x1,5fb0 <__sprint_r>
    46bc:	be051063          	bne	x10,x0,3a9c <_vfprintf_r+0xe58>
    46c0:	0cc12603          	lw	x12,204(x2)
    46c4:	01412e03          	lw	x28,20(x2)
    46c8:	000c0493          	addi	x9,x24,0
    46cc:	844ff06f          	jal	x0,3710 <_vfprintf_r+0xacc>
    46d0:	000d0e13          	addi	x28,x26,0
    46d4:	000b0e93          	addi	x29,x22,0
    46d8:	01260633          	add	x12,x12,x18
    46dc:	00178793          	addi	x15,x15,1
    46e0:	01d4a023          	sw	x29,0(x9)
    46e4:	841fe06f          	jal	x0,2f24 <_vfprintf_r+0x2e0>
    46e8:	0d012783          	lw	x15,208(x2)
    46ec:	08010593          	addi	x11,x2,128
    46f0:	09010513          	addi	x10,x2,144
    46f4:	08f12823          	sw	x15,144(x2)
    46f8:	0d412783          	lw	x15,212(x2)
    46fc:	08012023          	sw	x0,128(x2)
    4700:	08012223          	sw	x0,132(x2)
    4704:	08f12a23          	sw	x15,148(x2)
    4708:	0d812783          	lw	x15,216(x2)
    470c:	08012423          	sw	x0,136(x2)
    4710:	08012623          	sw	x0,140(x2)
    4714:	08f12c23          	sw	x15,152(x2)
    4718:	0dc12783          	lw	x15,220(x2)
    471c:	08f12e23          	sw	x15,156(x2)
    4720:	731090ef          	jal	x1,e650 <__letf2>
    4724:	00812883          	lw	x17,8(x2)
    4728:	01412e03          	lw	x28,20(x2)
    472c:	400542e3          	blt	x10,x0,5330 <_vfprintf_r+0x26ec>
    4730:	0a714703          	lbu	x14,167(x2)
    4734:	04700693          	addi	x13,x0,71
    4738:	0000dd17          	auipc	x26,0xd
    473c:	270d0d13          	addi	x26,x26,624 # 119a8 <__clzsi2+0x32c>
    4740:	0116c663          	blt	x13,x17,474c <_vfprintf_r+0x1b08>
    4744:	0000dd17          	auipc	x26,0xd
    4748:	260d0d13          	addi	x26,x26,608 # 119a4 <__clzsi2+0x328>
    474c:	00012423          	sw	x0,8(x2)
    4750:	00012e23          	sw	x0,28(x2)
    4754:	00012c23          	sw	x0,24(x2)
    4758:	00012a23          	sw	x0,20(x2)
    475c:	f7fe7e13          	andi	x28,x28,-129
    4760:	00300d93          	addi	x27,x0,3
    4764:	00300913          	addi	x18,x0,3
    4768:	00000a13          	addi	x20,x0,0
    476c:	00070463          	beq	x14,x0,4774 <_vfprintf_r+0x1b30>
    4770:	c7dfe06f          	jal	x0,33ec <_vfprintf_r+0x7a8>
    4774:	efcfe06f          	jal	x0,2e70 <_vfprintf_r+0x22c>
    4778:	00c12783          	lw	x15,12(x2)
    477c:	00412703          	lw	x14,4(x2)
    4780:	0007a783          	lw	x15,0(x15)
    4784:	00e7a023          	sw	x14,0(x15)
    4788:	ed1fe06f          	jal	x0,3658 <_vfprintf_r+0xa14>
    478c:	02812703          	lw	x14,40(x2)
    4790:	02412783          	lw	x15,36(x2)
    4794:	00700513          	addi	x10,x0,7
    4798:	00e4a023          	sw	x14,0(x9)
    479c:	0c812703          	lw	x14,200(x2)
    47a0:	00c78633          	add	x12,x15,x12
    47a4:	00f4a223          	sw	x15,4(x9)
    47a8:	00170713          	addi	x14,x14,1
    47ac:	0cc12623          	sw	x12,204(x2)
    47b0:	0ce12423          	sw	x14,200(x2)
    47b4:	00848493          	addi	x9,x9,8
    47b8:	48e54e63          	blt	x10,x14,4c54 <_vfprintf_r+0x2010>
    47bc:	4205c6e3          	blt	x11,x0,53e8 <_vfprintf_r+0x27a4>
    47c0:	01012783          	lw	x15,16(x2)
    47c4:	00170713          	addi	x14,x14,1
    47c8:	01a4a023          	sw	x26,0(x9)
    47cc:	00c78633          	add	x12,x15,x12
    47d0:	00f4a223          	sw	x15,4(x9)
    47d4:	0cc12623          	sw	x12,204(x2)
    47d8:	0ce12423          	sw	x14,200(x2)
    47dc:	00700793          	addi	x15,x0,7
    47e0:	00e7c463          	blt	x15,x14,47e8 <_vfprintf_r+0x1ba4>
    47e4:	f54fe06f          	jal	x0,2f38 <_vfprintf_r+0x2f4>
    47e8:	b31fe06f          	jal	x0,3318 <_vfprintf_r+0x6d4>
    47ec:	01412e03          	lw	x28,20(x2)
    47f0:	00048e93          	addi	x29,x9,0
    47f4:	000b0493          	addi	x9,x22,0
    47f8:	009b8bb3          	add	x23,x23,x9
    47fc:	00190913          	addi	x18,x18,1
    4800:	01da2023          	sw	x29,0(x20)
    4804:	ad1fe06f          	jal	x0,32d4 <_vfprintf_r+0x690>
    4808:	000d0513          	addi	x10,x26,0
    480c:	03112823          	sw	x17,48(x2)
    4810:	05612023          	sw	x22,64(x2)
    4814:	d2cfd0ef          	jal	x1,1d40 <strlen>
    4818:	0a714703          	lbu	x14,167(x2)
    481c:	fff54693          	xori	x13,x10,-1
    4820:	41f6d693          	srai	x13,x13,0x1f
    4824:	01712623          	sw	x23,12(x2)
    4828:	00012423          	sw	x0,8(x2)
    482c:	00012e23          	sw	x0,28(x2)
    4830:	00012c23          	sw	x0,24(x2)
    4834:	00012a23          	sw	x0,20(x2)
    4838:	03012883          	lw	x17,48(x2)
    483c:	04012e03          	lw	x28,64(x2)
    4840:	00050913          	addi	x18,x10,0
    4844:	00d57db3          	and	x27,x10,x13
    4848:	00000a13          	addi	x20,x0,0
    484c:	00070463          	beq	x14,x0,4854 <_vfprintf_r+0x1c10>
    4850:	b9dfe06f          	jal	x0,33ec <_vfprintf_r+0x7a8>
    4854:	e1cfe06f          	jal	x0,2e70 <_vfprintf_r+0x22c>
    4858:	0dc12783          	lw	x15,220(x2)
    485c:	3c07de63          	bge	x15,x0,4c38 <_vfprintf_r+0x1ff4>
    4860:	02d00793          	addi	x15,x0,45
    4864:	0af103a3          	sb	x15,167(x2)
    4868:	02d00713          	addi	x14,x0,45
    486c:	04700693          	addi	x13,x0,71
    4870:	0000dd17          	auipc	x26,0xd
    4874:	140d0d13          	addi	x26,x26,320 # 119b0 <__clzsi2+0x334>
    4878:	ed16cae3          	blt	x13,x17,474c <_vfprintf_r+0x1b08>
    487c:	0000dd17          	auipc	x26,0xd
    4880:	130d0d13          	addi	x26,x26,304 # 119ac <__clzsi2+0x330>
    4884:	ec9ff06f          	jal	x0,474c <_vfprintf_r+0x1b08>
    4888:	03012e03          	lw	x28,48(x2)
    488c:	00090e93          	addi	x29,x18,0
    4890:	00048913          	addi	x18,x9,0
    4894:	00078493          	addi	x9,x15,0
    4898:	01260633          	add	x12,x12,x18
    489c:	00158593          	addi	x11,x11,1
    48a0:	01d4a023          	sw	x29,0(x9)
    48a4:	0124a223          	sw	x18,4(x9)
    48a8:	0cc12623          	sw	x12,204(x2)
    48ac:	0cb12423          	sw	x11,200(x2)
    48b0:	00700713          	addi	x14,x0,7
    48b4:	00848493          	addi	x9,x9,8
    48b8:	c6b75263          	bge	x14,x11,3d1c <_vfprintf_r+0x10d8>
    48bc:	00012583          	lw	x11,0(x2)
    48c0:	0c410613          	addi	x12,x2,196
    48c4:	000a8513          	addi	x10,x21,0
    48c8:	03c12823          	sw	x28,48(x2)
    48cc:	6e4010ef          	jal	x1,5fb0 <__sprint_r>
    48d0:	9c051663          	bne	x10,x0,3a9c <_vfprintf_r+0xe58>
    48d4:	0cc12603          	lw	x12,204(x2)
    48d8:	03012e03          	lw	x28,48(x2)
    48dc:	000c0493          	addi	x9,x24,0
    48e0:	c3cff06f          	jal	x0,3d1c <_vfprintf_r+0x10d8>
    48e4:	00048693          	addi	x13,x9,0
    48e8:	01812483          	lw	x9,24(x2)
    48ec:	03312823          	sw	x19,48(x2)
    48f0:	05912423          	sw	x25,72(x2)
    48f4:	01b12c23          	sw	x27,24(x2)
    48f8:	05c12023          	sw	x28,64(x2)
    48fc:	000d0d93          	addi	x27,x26,0
    4900:	04412c83          	lw	x25,68(x2)
    4904:	01c12983          	lw	x19,28(x2)
    4908:	03412d03          	lw	x26,52(x2)
    490c:	00700893          	addi	x17,x0,7
    4910:	01000a13          	addi	x20,x0,16
    4914:	0000db97          	auipc	x23,0xd
    4918:	510b8b93          	addi	x23,x23,1296 # 11e24 <zeroes.0>
    491c:	08905663          	bge	x0,x9,49a8 <_vfprintf_r+0x1d64>
    4920:	17305063          	bge	x0,x19,4a80 <_vfprintf_r+0x1e3c>
    4924:	fff98993          	addi	x19,x19,-1
    4928:	03c12783          	lw	x15,60(x2)
    492c:	01960633          	add	x12,x12,x25
    4930:	0196a223          	sw	x25,4(x13)
    4934:	00f6a023          	sw	x15,0(x13)
    4938:	0c812783          	lw	x15,200(x2)
    493c:	0cc12623          	sw	x12,204(x2)
    4940:	00868693          	addi	x13,x13,8
    4944:	00178793          	addi	x15,x15,1
    4948:	0cf12423          	sw	x15,200(x2)
    494c:	14f8c063          	blt	x17,x15,4a8c <_vfprintf_r+0x1e48>
    4950:	000d4703          	lbu	x14,0(x26)
    4954:	41bb0933          	sub	x18,x22,x27
    4958:	01275463          	bge	x14,x18,4960 <_vfprintf_r+0x1d1c>
    495c:	00070913          	addi	x18,x14,0
    4960:	03205663          	bge	x0,x18,498c <_vfprintf_r+0x1d48>
    4964:	0c812703          	lw	x14,200(x2)
    4968:	01260633          	add	x12,x12,x18
    496c:	01b6a023          	sw	x27,0(x13)
    4970:	00170713          	addi	x14,x14,1
    4974:	0126a223          	sw	x18,4(x13)
    4978:	0cc12623          	sw	x12,204(x2)
    497c:	0ce12423          	sw	x14,200(x2)
    4980:	12e8ca63          	blt	x17,x14,4ab4 <_vfprintf_r+0x1e70>
    4984:	000d4703          	lbu	x14,0(x26)
    4988:	00868693          	addi	x13,x13,8
    498c:	fff94593          	xori	x11,x18,-1
    4990:	41f5d593          	srai	x11,x11,0x1f
    4994:	00b977b3          	and	x15,x18,x11
    4998:	40f70933          	sub	x18,x14,x15
    499c:	03204c63          	blt	x0,x18,49d4 <_vfprintf_r+0x1d90>
    49a0:	00ed8db3          	add	x27,x27,x14
    49a4:	f6904ee3          	blt	x0,x9,4920 <_vfprintf_r+0x1cdc>
    49a8:	f7304ee3          	blt	x0,x19,4924 <_vfprintf_r+0x1ce0>
    49ac:	03a12a23          	sw	x26,52(x2)
    49b0:	000d8d13          	addi	x26,x27,0
    49b4:	03012983          	lw	x19,48(x2)
    49b8:	04012e03          	lw	x28,64(x2)
    49bc:	04812c83          	lw	x25,72(x2)
    49c0:	01812d83          	lw	x27,24(x2)
    49c4:	00068493          	addi	x9,x13,0
    49c8:	b7ab7263          	bgeu	x22,x26,3d2c <_vfprintf_r+0x10e8>
    49cc:	000b0d13          	addi	x26,x22,0
    49d0:	b5cff06f          	jal	x0,3d2c <_vfprintf_r+0x10e8>
    49d4:	0c812703          	lw	x14,200(x2)
    49d8:	0000d597          	auipc	x11,0xd
    49dc:	44c58593          	addi	x11,x11,1100 # 11e24 <zeroes.0>
    49e0:	072a5a63          	bge	x20,x18,4a54 <_vfprintf_r+0x1e10>
    49e4:	00912a23          	sw	x9,20(x2)
    49e8:	00090493          	addi	x9,x18,0
    49ec:	000b8913          	addi	x18,x23,0
    49f0:	00c0006f          	jal	x0,49fc <_vfprintf_r+0x1db8>
    49f4:	ff048493          	addi	x9,x9,-16
    49f8:	049a5863          	bge	x20,x9,4a48 <_vfprintf_r+0x1e04>
    49fc:	01060613          	addi	x12,x12,16
    4a00:	00170713          	addi	x14,x14,1
    4a04:	0176a023          	sw	x23,0(x13)
    4a08:	0146a223          	sw	x20,4(x13)
    4a0c:	0cc12623          	sw	x12,204(x2)
    4a10:	0ce12423          	sw	x14,200(x2)
    4a14:	00868693          	addi	x13,x13,8
    4a18:	fce8dee3          	bge	x17,x14,49f4 <_vfprintf_r+0x1db0>
    4a1c:	00012583          	lw	x11,0(x2)
    4a20:	0c410613          	addi	x12,x2,196
    4a24:	000a8513          	addi	x10,x21,0
    4a28:	588010ef          	jal	x1,5fb0 <__sprint_r>
    4a2c:	86051863          	bne	x10,x0,3a9c <_vfprintf_r+0xe58>
    4a30:	ff048493          	addi	x9,x9,-16
    4a34:	0cc12603          	lw	x12,204(x2)
    4a38:	0c812703          	lw	x14,200(x2)
    4a3c:	000c0693          	addi	x13,x24,0
    4a40:	00700893          	addi	x17,x0,7
    4a44:	fa9a4ce3          	blt	x20,x9,49fc <_vfprintf_r+0x1db8>
    4a48:	00090593          	addi	x11,x18,0
    4a4c:	00048913          	addi	x18,x9,0
    4a50:	01412483          	lw	x9,20(x2)
    4a54:	01260633          	add	x12,x12,x18
    4a58:	00170713          	addi	x14,x14,1
    4a5c:	00b6a023          	sw	x11,0(x13)
    4a60:	0126a223          	sw	x18,4(x13)
    4a64:	0cc12623          	sw	x12,204(x2)
    4a68:	0ce12423          	sw	x14,200(x2)
    4a6c:	08e8c4e3          	blt	x17,x14,52f4 <_vfprintf_r+0x26b0>
    4a70:	000d4703          	lbu	x14,0(x26)
    4a74:	00868693          	addi	x13,x13,8
    4a78:	00ed8db3          	add	x27,x27,x14
    4a7c:	f29ff06f          	jal	x0,49a4 <_vfprintf_r+0x1d60>
    4a80:	fffd0d13          	addi	x26,x26,-1
    4a84:	fff48493          	addi	x9,x9,-1
    4a88:	ea1ff06f          	jal	x0,4928 <_vfprintf_r+0x1ce4>
    4a8c:	00012583          	lw	x11,0(x2)
    4a90:	0c410613          	addi	x12,x2,196
    4a94:	000a8513          	addi	x10,x21,0
    4a98:	518010ef          	jal	x1,5fb0 <__sprint_r>
    4a9c:	00050463          	beq	x10,x0,4aa4 <_vfprintf_r+0x1e60>
    4aa0:	ffdfe06f          	jal	x0,3a9c <_vfprintf_r+0xe58>
