
/home/mike/GitHubRepos/openhwgroup/core-v-verif/master/cv32e40p/tests/programs/custom/hello-world/hello-world.elf:     file format elf32-littleriscv


Disassembly of section .vectors:

00000000 <__vector_start>:
.section .vectors, "ax"
.option norvc
.global vector_table

vector_table:
	j u_sw_irq_handler
   0:	1fc0006f          	jal	x0,1fc <u_sw_irq_handler>
	j __no_irq_handler
   4:	1c40006f          	jal	x0,1c8 <__no_irq_handler>
	j __no_irq_handler
   8:	1c00006f          	jal	x0,1c8 <__no_irq_handler>
	j m_software_irq_handler
   c:	1ca0006f          	jal	x0,1d6 <m_software_irq_handler>
	j __no_irq_handler
  10:	1b80006f          	jal	x0,1c8 <__no_irq_handler>
	j __no_irq_handler
  14:	1b40006f          	jal	x0,1c8 <__no_irq_handler>
	j __no_irq_handler
  18:	1b00006f          	jal	x0,1c8 <__no_irq_handler>
	j m_timer_irq_handler
  1c:	1bc0006f          	jal	x0,1d8 <m_timer_irq_handler>
	j __no_irq_handler
  20:	1a80006f          	jal	x0,1c8 <__no_irq_handler>
	j __no_irq_handler
  24:	1a40006f          	jal	x0,1c8 <__no_irq_handler>
	j __no_irq_handler
  28:	1a00006f          	jal	x0,1c8 <__no_irq_handler>
	j m_external_irq_handler
  2c:	1ae0006f          	jal	x0,1da <m_external_irq_handler>
	j __no_irq_handler
  30:	1980006f          	jal	x0,1c8 <__no_irq_handler>
	j __no_irq_handler
  34:	1940006f          	jal	x0,1c8 <__no_irq_handler>
	j __no_irq_handler
  38:	1900006f          	jal	x0,1c8 <__no_irq_handler>
	j __no_irq_handler
  3c:	18c0006f          	jal	x0,1c8 <__no_irq_handler>
	j m_fast0_irq_handler
  40:	19c0006f          	jal	x0,1dc <m_fast0_irq_handler>
	j m_fast1_irq_handler
  44:	19a0006f          	jal	x0,1de <m_fast1_irq_handler>
	j m_fast2_irq_handler
  48:	1980006f          	jal	x0,1e0 <m_fast2_irq_handler>
	j m_fast3_irq_handler
  4c:	1960006f          	jal	x0,1e2 <m_fast3_irq_handler>
	j m_fast4_irq_handler
  50:	1940006f          	jal	x0,1e4 <m_fast4_irq_handler>
	j m_fast5_irq_handler
  54:	1920006f          	jal	x0,1e6 <m_fast5_irq_handler>
	j m_fast6_irq_handler
  58:	1900006f          	jal	x0,1e8 <m_fast6_irq_handler>
	j m_fast7_irq_handler
  5c:	18e0006f          	jal	x0,1ea <m_fast7_irq_handler>
	j m_fast8_irq_handler
  60:	18c0006f          	jal	x0,1ec <m_fast8_irq_handler>
	j m_fast9_irq_handler
  64:	18a0006f          	jal	x0,1ee <m_fast9_irq_handler>
	j m_fast10_irq_handler
  68:	1880006f          	jal	x0,1f0 <m_fast10_irq_handler>
	j m_fast11_irq_handler
  6c:	1860006f          	jal	x0,1f2 <m_fast11_irq_handler>
	j m_fast12_irq_handler
  70:	1840006f          	jal	x0,1f4 <m_fast12_irq_handler>
	j m_fast13_irq_handler
  74:	1820006f          	jal	x0,1f6 <m_fast13_irq_handler>
	j m_fast14_irq_handler
  78:	1800006f          	jal	x0,1f8 <m_fast14_irq_handler>
	j m_fast15_irq_handler
  7c:	17e0006f          	jal	x0,1fa <m_fast15_irq_handler>

Disassembly of section .init:

00000080 <_start>:

_start:
/* initialize global pointer */
.option push
.option norelax
1:	auipc gp, %pcrel_hi(__global_pointer$)
  80:	00013197          	auipc	x3,0x13
	addi  gp, gp, %pcrel_lo(1b)
  84:	b3018193          	addi	x3,x3,-1232 # 12bb0 <__global_pointer$>
.option pop

/* initialize stack pointer */
	la sp, __stack_end
  88:	00400117          	auipc	x2,0x400
  8c:	f7810113          	addi	x2,x2,-136 # 400000 <__heap_end>

/* set vector table address */
	la a0, __vector_start
  90:	00000517          	auipc	x10,0x0
  94:	f7050513          	addi	x10,x10,-144 # 0 <__vector_start>
	ori a0, a0, 1 /*vector mode = vectored */
  98:	00156513          	ori	x10,x10,1
	csrw mtvec, a0
  9c:	30551073          	csrrw	x0,mtvec,x10

/* clear the bss segment */
	la a0, _edata
  a0:	f1818513          	addi	x10,x3,-232 # 12ac8 <errno>
	la a2, _end
  a4:	22418613          	addi	x12,x3,548 # 12dd4 <__bss_end>
	sub a2, a2, a0
  a8:	8e09                	c.sub	x12,x10
	li a1, 0
  aa:	4581                	c.li	x11,0
	call memset
  ac:	5e5010ef          	jal	x1,1e90 <memset>

/* new-style constructors and destructors */
	la a0, __libc_fini_array
  b0:	00001517          	auipc	x10,0x1
  b4:	7dc50513          	addi	x10,x10,2012 # 188c <__libc_fini_array>
	call atexit
  b8:	0cd020ef          	jal	x1,2984 <atexit>
	call __libc_init_array
  bc:	009020ef          	jal	x1,28c4 <__libc_init_array>
//	lw a0, 0(sp)                    /* a0 = argc */
//	addi a1, sp, __SIZEOF_POINTER__ /* a1 = argv */
//	li a2, 0                        /* a2 = envp = NULL */
// Initialize these variables to 0. Cannot use argc or argv
// since the stack is not initialized
	li a0, 0
  c0:	4501                	c.li	x10,0
	li a1, 0
  c2:	4581                	c.li	x11,0
	li a2, 0
  c4:	4601                	c.li	x12,0

	call main
  c6:	2029                	c.jal	d0 <main>
	tail exit
  c8:	0910206f          	jal	x0,2958 <exit>

000000cc <_fini>:
.type   _fini, @function
_init:
_fini:
 /* These don't have to do anything since we use init_array/fini_array. Prevent
    missing symbol error */
	ret
  cc:	8082                	c.jr	x1

Disassembly of section .text:

000000d0 <main>:
#define EXP_MISA 0x40801104
#endif


int main(int argc, char *argv[])
{
      d0:	1141                	c.addi	x2,-16
      d2:	c606                	c.swsp	x1,12(x2)
      d4:	c422                	c.swsp	x8,8(x2)
             int reserved, tentative, nonstd, user, super;

    mxl = 0; reserved = 0; tentative = 0; nonstd = 0; user = 0; super = 0;

    /* inline assembly: read mvendorid and misa */
    __asm__ volatile("csrr %0, 0xF11" : "=r"(mvendorid_rval));
      d6:	f11025f3          	csrrs	x11,mvendorid,x0
    __asm__ volatile("csrr %0, 0x301" : "=r"(misa_rval));
      da:	30102473          	csrrs	x8,misa,x0
    __asm__ volatile("csrr %0, 0xF12" : "=r"(marchid_rval));
      de:	f1202773          	csrrs	x14,marchid,x0
    __asm__ volatile("csrr %0, 0xF13" : "=r"(mimpid_rval));
      e2:	f13027f3          	csrrs	x15,mimpid,x0

    /* Check MVENDORID CSR: 0x602 is the value assigned by JEDEC to the OpenHW Group */
    if (mvendorid_rval != 0x00000602) {
      e6:	60200693          	addi	x13,x0,1538
      ea:	00d58763          	beq	x11,x13,f8 <main+0x28>
      printf("\tERROR: CSR MVENDORID reads as 0x%x - should be 0x00000602 for the OpenHW Group.\n\n", mvendorid_rval);
      ee:	6545                	c.lui	x10,0x11
      f0:	71050513          	addi	x10,x10,1808 # 11710 <__clzsi2+0x94>
      return EXIT_FAILURE;
    }

    /* Check MARCHID CSR: 0x4 is the value assigned by the RISC-V Foundation to CV32E40P */
    if (marchid_rval != 0x00000004) {
      printf("\tERROR: CSR MARCHID reads as 0x%x - should be 0x00000004 for CV32E40P.\n\n", marchid_rval);
      f4:	2315                	c.jal	618 <printf>
      return EXIT_FAILURE;
      f6:	a821                	c.j	10e <main+0x3e>
    if (misa_rval != EXP_MISA) {
      f8:	40001637          	lui	x12,0x40001
      fc:	10460613          	addi	x12,x12,260 # 40001104 <__heap_end+0x3fc01104>
     100:	00c40c63          	beq	x8,x12,118 <main+0x48>
      printf("\tERROR: CSR MISA reads as 0x%x - should be 0x%x for this release of CV32E40P!\n\n", misa_rval, EXP_MISA);
     104:	6545                	c.lui	x10,0x11
     106:	85a2                	c.mv	x11,x8
     108:	76450513          	addi	x10,x10,1892 # 11764 <__clzsi2+0xe8>
     10c:	2331                	c.jal	618 <printf>
      return EXIT_FAILURE;
     10e:	4505                	c.li	x10,1
    }
    else {
      printf("\n");
      return EXIT_SUCCESS;
    }
}
     110:	40b2                	c.lwsp	x1,12(x2)
     112:	4422                	c.lwsp	x8,8(x2)
     114:	0141                	c.addi	x2,16
     116:	8082                	c.jr	x1
    if (marchid_rval != 0x00000004) {
     118:	4691                	c.li	x13,4
     11a:	00d70763          	beq	x14,x13,128 <main+0x58>
      printf("\tERROR: CSR MARCHID reads as 0x%x - should be 0x00000004 for CV32E40P.\n\n", marchid_rval);
     11e:	6545                	c.lui	x10,0x11
     120:	85ba                	c.mv	x11,x14
     122:	7b450513          	addi	x10,x10,1972 # 117b4 <__clzsi2+0x138>
     126:	b7f9                	c.j	f4 <main+0x24>
    if (mimpid_rval != 0x00000000) {
     128:	c791                	c.beqz	x15,134 <main+0x64>
      printf("\tERROR: CSR MIMPID reads as 0x%x - should be 0x00000000 for this release of CV32E40P.\n\n", mimpid_rval);
     12a:	6549                	c.lui	x10,0x12
     12c:	85be                	c.mv	x11,x15
     12e:	80050513          	addi	x10,x10,-2048 # 11800 <__clzsi2+0x184>
     132:	b7c9                	c.j	f4 <main+0x24>
    printf("\nHELLO WORLD!!!\n");
     134:	6549                	c.lui	x10,0x12
     136:	85850513          	addi	x10,x10,-1960 # 11858 <__clzsi2+0x1dc>
     13a:	2bed                	c.jal	734 <puts>
    printf("This is the OpenHW Group CV32E40P CORE-V processor core.\n");
     13c:	6549                	c.lui	x10,0x12
     13e:	86850513          	addi	x10,x10,-1944 # 11868 <__clzsi2+0x1ec>
     142:	2bcd                	c.jal	734 <puts>
    printf("CV32E40P is a RISC-V ISA compliant core with the following attributes:\n");
     144:	6549                	c.lui	x10,0x12
     146:	8a450513          	addi	x10,x10,-1884 # 118a4 <__clzsi2+0x228>
     14a:	23ed                	c.jal	734 <puts>
    printf("\tmvendorid = 0x%x\n", mvendorid_rval);
     14c:	6549                	c.lui	x10,0x12
     14e:	60200593          	addi	x11,x0,1538
     152:	8ec50513          	addi	x10,x10,-1812 # 118ec <__clzsi2+0x270>
     156:	21c9                	c.jal	618 <printf>
    printf("\tmarchid   = 0x%x\n", marchid_rval);
     158:	6549                	c.lui	x10,0x12
     15a:	4591                	c.li	x11,4
     15c:	90050513          	addi	x10,x10,-1792 # 11900 <__clzsi2+0x284>
     160:	2965                	c.jal	618 <printf>
    printf("\tmimpid    = 0x%x\n", mimpid_rval);
     162:	6549                	c.lui	x10,0x12
     164:	4581                	c.li	x11,0
     166:	91450513          	addi	x10,x10,-1772 # 11914 <__clzsi2+0x298>
     16a:	217d                	c.jal	618 <printf>
    printf("\tmisa      = 0x%x\n", misa_rval);
     16c:	6549                	c.lui	x10,0x12
     16e:	85a2                	c.mv	x11,x8
     170:	92850513          	addi	x10,x10,-1752 # 11928 <__clzsi2+0x2ac>
     174:	2155                	c.jal	618 <printf>
      case 1:  printf("\tXLEN is 32-bits\n");
     176:	6549                	c.lui	x10,0x12
     178:	93c50513          	addi	x10,x10,-1732 # 1193c <__clzsi2+0x2c0>
     17c:	2b65                	c.jal	734 <puts>
    printf("\tSupported Instructions Extensions: ");
     17e:	6549                	c.lui	x10,0x12
     180:	95050513          	addi	x10,x10,-1712 # 11950 <__clzsi2+0x2d4>
     184:	2951                	c.jal	618 <printf>
    if ((misa_rval >> 12) & 0x00000001) printf("M");
     186:	04d00513          	addi	x10,x0,77
     18a:	3a3010ef          	jal	x1,1d2c <putchar>
    if ((misa_rval >>  8) & 0x00000001) printf("I");
     18e:	04900513          	addi	x10,x0,73
     192:	39b010ef          	jal	x1,1d2c <putchar>
    if ((misa_rval >>  2) & 0x00000001) printf("C");
     196:	04300513          	addi	x10,x0,67
     19a:	393010ef          	jal	x1,1d2c <putchar>
    printf("\n");
     19e:	4529                	c.li	x10,10
     1a0:	38d010ef          	jal	x1,1d2c <putchar>
      printf("\n");
     1a4:	4529                	c.li	x10,10
     1a6:	387010ef          	jal	x1,1d2c <putchar>
      return EXIT_SUCCESS;
     1aa:	4501                	c.li	x10,0
     1ac:	b795                	c.j	110 <main+0x40>
	...

000001b0 <register_fini>:
     1b0:	00000793          	addi	x15,x0,0
     1b4:	00078863          	beq	x15,x0,1c4 <register_fini+0x14>
     1b8:	00001517          	auipc	x10,0x1
     1bc:	6d450513          	addi	x10,x10,1748 # 188c <__libc_fini_array>
     1c0:	7c40206f          	jal	x0,2984 <atexit>
     1c4:	00008067          	jalr	x0,0(x1)

000001c8 <__no_irq_handler>:
.weak m_fast15_irq_handler


/* exception handling */
__no_irq_handler:
	la a0, no_exception_handler_msg
     1c8:	00012517          	auipc	x10,0x12
     1cc:	99450513          	addi	x10,x10,-1644 # 11b5c <no_exception_handler_msg>
	jal ra, puts
     1d0:	564000ef          	jal	x1,734 <puts>
	j __no_irq_handler
     1d4:	bfd5                	c.j	1c8 <__no_irq_handler>

000001d6 <m_software_irq_handler>:

m_software_irq_handler:
	j __no_irq_handler
     1d6:	bfcd                	c.j	1c8 <__no_irq_handler>

000001d8 <m_timer_irq_handler>:

m_timer_irq_handler:
	j __no_irq_handler
     1d8:	bfc5                	c.j	1c8 <__no_irq_handler>

000001da <m_external_irq_handler>:

m_external_irq_handler:
	j __no_irq_handler
     1da:	b7fd                	c.j	1c8 <__no_irq_handler>

000001dc <m_fast0_irq_handler>:

m_fast0_irq_handler:
	j __no_irq_handler
     1dc:	b7f5                	c.j	1c8 <__no_irq_handler>

000001de <m_fast1_irq_handler>:

m_fast1_irq_handler:
	j __no_irq_handler
     1de:	b7ed                	c.j	1c8 <__no_irq_handler>

000001e0 <m_fast2_irq_handler>:

m_fast2_irq_handler:
	j __no_irq_handler
     1e0:	b7e5                	c.j	1c8 <__no_irq_handler>

000001e2 <m_fast3_irq_handler>:

m_fast3_irq_handler:
	j __no_irq_handler
     1e2:	b7dd                	c.j	1c8 <__no_irq_handler>

000001e4 <m_fast4_irq_handler>:

m_fast4_irq_handler:
	j __no_irq_handler
     1e4:	b7d5                	c.j	1c8 <__no_irq_handler>

000001e6 <m_fast5_irq_handler>:

m_fast5_irq_handler:
	j __no_irq_handler
     1e6:	b7cd                	c.j	1c8 <__no_irq_handler>

000001e8 <m_fast6_irq_handler>:

m_fast6_irq_handler:
	j __no_irq_handler
     1e8:	b7c5                	c.j	1c8 <__no_irq_handler>

000001ea <m_fast7_irq_handler>:

m_fast7_irq_handler:
	j __no_irq_handler
     1ea:	bff9                	c.j	1c8 <__no_irq_handler>

000001ec <m_fast8_irq_handler>:

m_fast8_irq_handler:
	j __no_irq_handler
     1ec:	bff1                	c.j	1c8 <__no_irq_handler>

000001ee <m_fast9_irq_handler>:

m_fast9_irq_handler:
	j __no_irq_handler
     1ee:	bfe9                	c.j	1c8 <__no_irq_handler>

000001f0 <m_fast10_irq_handler>:

m_fast10_irq_handler:
	j __no_irq_handler
     1f0:	bfe1                	c.j	1c8 <__no_irq_handler>

000001f2 <m_fast11_irq_handler>:

m_fast11_irq_handler:
	j __no_irq_handler
     1f2:	bfd9                	c.j	1c8 <__no_irq_handler>

000001f4 <m_fast12_irq_handler>:

m_fast12_irq_handler:
	j __no_irq_handler
     1f4:	bfd1                	c.j	1c8 <__no_irq_handler>

000001f6 <m_fast13_irq_handler>:

m_fast13_irq_handler:
	j __no_irq_handler
     1f6:	bfc9                	c.j	1c8 <__no_irq_handler>

000001f8 <m_fast14_irq_handler>:

m_fast14_irq_handler:
	j __no_irq_handler
     1f8:	bfc1                	c.j	1c8 <__no_irq_handler>

000001fa <m_fast15_irq_handler>:

m_fast15_irq_handler:
	j __no_irq_handler
     1fa:	b7f9                	c.j	1c8 <__no_irq_handler>

000001fc <u_sw_irq_handler>:

u_sw_irq_handler:
	/* While we are still using puts in handlers, save all caller saved
	   regs.  Eventually, some of these saves could be deferred.  */
	addi sp,sp,-64
     1fc:	7139                	c.addi16sp	x2,-64
	sw ra, 0(sp)
     1fe:	c006                	c.swsp	x1,0(x2)
	sw a0, 4(sp)
     200:	c22a                	c.swsp	x10,4(x2)
	sw a1, 8(sp)
     202:	c42e                	c.swsp	x11,8(x2)
	sw a2, 12(sp)
     204:	c632                	c.swsp	x12,12(x2)
	sw a3, 16(sp)
     206:	c836                	c.swsp	x13,16(x2)
	sw a4, 20(sp)
     208:	ca3a                	c.swsp	x14,20(x2)
	sw a5, 24(sp)
     20a:	cc3e                	c.swsp	x15,24(x2)
	sw a6, 28(sp)
     20c:	ce42                	c.swsp	x16,28(x2)
	sw a7, 32(sp)
     20e:	d046                	c.swsp	x17,32(x2)
	sw t0, 36(sp)
     210:	d216                	c.swsp	x5,36(x2)
	sw t1, 40(sp)
     212:	d41a                	c.swsp	x6,40(x2)
	sw t2, 44(sp)
     214:	d61e                	c.swsp	x7,44(x2)
	sw t3, 48(sp)
     216:	d872                	c.swsp	x28,48(x2)
	sw t4, 52(sp)
     218:	da76                	c.swsp	x29,52(x2)
	sw t5, 56(sp)
     21a:	dc7a                	c.swsp	x30,56(x2)
	sw t6, 60(sp)
     21c:	de7e                	c.swsp	x31,60(x2)
	csrr t0, mcause
     21e:	342022f3          	csrrs	x5,mcause,x0
	li t1, EXCEPTION_ILLEGAL_INSN
     222:	4309                	c.li	x6,2
	beq t0, t1, handle_illegal_insn
     224:	02628363          	beq	x5,x6,24a <handle_illegal_insn>
	li t1, EXCEPTION_ECALL_M
     228:	432d                	c.li	x6,11
	beq t0, t1, handle_ecall
     22a:	00628663          	beq	x5,x6,236 <handle_ecall>
	li t1, EXCEPTION_BREAKPOINT
     22e:	430d                	c.li	x6,3
	beq t0, t1, handle_ebreak
     230:	00628663          	beq	x5,x6,23c <handle_ebreak>
	j handle_unknown
     234:	a015                	c.j	258 <handle_unknown>

00000236 <handle_ecall>:

handle_ecall:
	jal ra, handle_syscall
     236:	204000ef          	jal	x1,43a <handle_syscall>
	j end_handler_incr_mepc
     23a:	a035                	c.j	266 <end_handler_incr_mepc>

0000023c <handle_ebreak>:

handle_ebreak:
	/* TODO support debug handling requirements.  */
	la a0, ebreak_msg
     23c:	00012517          	auipc	x10,0x12
     240:	8bf50513          	addi	x10,x10,-1857 # 11afb <ebreak_msg>
	jal ra, puts
     244:	4f0000ef          	jal	x1,734 <puts>
	j end_handler_incr_mepc
     248:	a839                	c.j	266 <end_handler_incr_mepc>

0000024a <handle_illegal_insn>:

handle_illegal_insn:
	la a0, illegal_insn_msg
     24a:	00012517          	auipc	x10,0x12
     24e:	84550513          	addi	x10,x10,-1979 # 11a8f <illegal_insn_msg>
	jal ra, puts
     252:	4e2000ef          	jal	x1,734 <puts>
	j end_handler_incr_mepc
     256:	a801                	c.j	266 <end_handler_incr_mepc>

00000258 <handle_unknown>:

handle_unknown:
	la a0, unknown_msg
     258:	00012517          	auipc	x10,0x12
     25c:	8d350513          	addi	x10,x10,-1837 # 11b2b <unknown_msg>
	jal ra, puts
     260:	4d4000ef          	jal	x1,734 <puts>
	/* We don't know what interrupt/exception is being handled, so don't
	   increment mepc.  */
	j end_handler_ret
     264:	a831                	c.j	280 <end_handler_ret>

00000266 <end_handler_incr_mepc>:

end_handler_incr_mepc:
	csrr t0, mepc
     266:	341022f3          	csrrs	x5,mepc,x0
	lb t1, 0(t0)
     26a:	00028303          	lb	x6,0(x5)
	li a0, 0x3
     26e:	450d                	c.li	x10,3
	and t1, t1, a0
     270:	00a37333          	and	x6,x6,x10
	/* Increment mepc by 2 or 4 depending on whether the instruction at mepc
	   is compressed or not.  */
	bne t1, a0, end_handler_incr_mepc2
     274:	00a31363          	bne	x6,x10,27a <end_handler_incr_mepc2>
	addi t0, t0, 2
     278:	0289                	c.addi	x5,2

0000027a <end_handler_incr_mepc2>:
end_handler_incr_mepc2:
	addi t0, t0, 2
     27a:	0289                	c.addi	x5,2
	csrw mepc, t0
     27c:	34129073          	csrrw	x0,mepc,x5

00000280 <end_handler_ret>:
end_handler_ret:
	lw ra, 0(sp)
     280:	4082                	c.lwsp	x1,0(x2)
	lw a0, 4(sp)
     282:	4512                	c.lwsp	x10,4(x2)
	lw a1, 8(sp)
     284:	45a2                	c.lwsp	x11,8(x2)
	lw a2, 12(sp)
     286:	4632                	c.lwsp	x12,12(x2)
	lw a3, 16(sp)
     288:	46c2                	c.lwsp	x13,16(x2)
	lw a4, 20(sp)
     28a:	4752                	c.lwsp	x14,20(x2)
	lw a5, 24(sp)
     28c:	47e2                	c.lwsp	x15,24(x2)
	lw a6, 28(sp)
     28e:	4872                	c.lwsp	x16,28(x2)
	lw a7, 32(sp)
     290:	5882                	c.lwsp	x17,32(x2)
	lw t0, 36(sp)
     292:	5292                	c.lwsp	x5,36(x2)
	lw t1, 40(sp)
     294:	5322                	c.lwsp	x6,40(x2)
	lw t2, 44(sp)
     296:	53b2                	c.lwsp	x7,44(x2)
	lw t3, 48(sp)
     298:	5e42                	c.lwsp	x28,48(x2)
	lw t4, 52(sp)
     29a:	5ed2                	c.lwsp	x29,52(x2)
	lw t5, 56(sp)
     29c:	5f62                	c.lwsp	x30,56(x2)
	lw t6, 60(sp)
     29e:	5ff2                	c.lwsp	x31,60(x2)
	addi sp,sp,64
     2a0:	6121                	c.addi16sp	x2,64
	mret
     2a2:	30200073          	mret

000002a6 <__syscall_error>:
#endif
/* Upstream newlib now defines this in libgloss/riscv/internal_syscall.h.  */
long
__syscall_error(long a0)
{
  errno = -a0;
     2a6:	40a00533          	sub	x10,x0,x10
     2aa:	f0a1ac23          	sw	x10,-232(x3) # 12ac8 <errno>
  return -1;
}
     2ae:	557d                	c.li	x10,-1
     2b0:	8082                	c.jr	x1

000002b2 <unimplemented_syscall>:

void unimplemented_syscall()
{
  const char *p = "BSP: Unimplemented system call called!\n";
     2b2:	67c9                	c.lui	x15,0x12
     2b4:	97878793          	addi	x15,x15,-1672 # 11978 <__clzsi2+0x2fc>
  while (*p)
    *(volatile int *)STDOUT_REG = *(p++);
     2b8:	100006b7          	lui	x13,0x10000
  while (*p)
     2bc:	0007c703          	lbu	x14,0(x15)
     2c0:	e311                	c.bnez	x14,2c4 <unimplemented_syscall+0x12>
}
     2c2:	8082                	c.jr	x1
    *(volatile int *)STDOUT_REG = *(p++);
     2c4:	0785                	c.addi	x15,1
     2c6:	c298                	c.sw	x14,0(x13)
     2c8:	bfd5                	c.j	2bc <unimplemented_syscall+0xa>

000002ca <nanosleep>:

int nanosleep(const struct timespec *rqtp, struct timespec *rmtp)
{
  errno = ENOSYS;
     2ca:	05800713          	addi	x14,x0,88
     2ce:	f0e1ac23          	sw	x14,-232(x3) # 12ac8 <errno>
  return -1;
}
     2d2:	557d                	c.li	x10,-1
     2d4:	8082                	c.jr	x1

000002d6 <_access>:

int _access(const char *file, int mode)
{
  errno = ENOSYS;
     2d6:	05800713          	addi	x14,x0,88
     2da:	f0e1ac23          	sw	x14,-232(x3) # 12ac8 <errno>
  return -1;
}
     2de:	557d                	c.li	x10,-1
     2e0:	8082                	c.jr	x1

000002e2 <_chdir>:

int _chdir(const char *path)
{
  errno = ENOSYS;
     2e2:	05800713          	addi	x14,x0,88
     2e6:	f0e1ac23          	sw	x14,-232(x3) # 12ac8 <errno>
  return -1;
}
     2ea:	557d                	c.li	x10,-1
     2ec:	8082                	c.jr	x1

000002ee <_chmod>:

int _chmod(const char *path, mode_t mode)
{
  errno = ENOSYS;
     2ee:	05800713          	addi	x14,x0,88
     2f2:	f0e1ac23          	sw	x14,-232(x3) # 12ac8 <errno>
  return -1;
}
     2f6:	557d                	c.li	x10,-1
     2f8:	8082                	c.jr	x1

000002fa <_chown>:

int _chown(const char *path, uid_t owner, gid_t group)
{
  errno = ENOSYS;
     2fa:	05800713          	addi	x14,x0,88
     2fe:	f0e1ac23          	sw	x14,-232(x3) # 12ac8 <errno>
  return -1;
}
     302:	557d                	c.li	x10,-1
     304:	8082                	c.jr	x1

00000306 <_close>:

int _close(int file)
{
  return -1;
}
     306:	557d                	c.li	x10,-1
     308:	8082                	c.jr	x1

0000030a <_execve>:

int _execve(const char *name, char *const argv[], char *const env[])
{
  errno = ENOMEM;
     30a:	4731                	c.li	x14,12
     30c:	f0e1ac23          	sw	x14,-232(x3) # 12ac8 <errno>
  return -1;
}
     310:	557d                	c.li	x10,-1
     312:	8082                	c.jr	x1

00000314 <_exit>:

void _exit(int exit_status)
{
  *(volatile int *)EXIT_REG = exit_status;
     314:	200007b7          	lui	x15,0x20000
     318:	c3c8                	c.sw	x10,4(x15)
  asm volatile("wfi");
     31a:	10500073          	wfi
  /* _exit should not return */
  while (1) {};
     31e:	a001                	c.j	31e <_exit+0xa>

00000320 <_faccessat>:
}

int _faccessat(int dirfd, const char *file, int mode, int flags)
{
  errno = ENOSYS;
     320:	05800713          	addi	x14,x0,88
     324:	f0e1ac23          	sw	x14,-232(x3) # 12ac8 <errno>
  return -1;
}
     328:	557d                	c.li	x10,-1
     32a:	8082                	c.jr	x1

0000032c <_fork>:

int _fork(void)
{
  errno = EAGAIN;
     32c:	472d                	c.li	x14,11
     32e:	f0e1ac23          	sw	x14,-232(x3) # 12ac8 <errno>
  return -1;
}
     332:	557d                	c.li	x10,-1
     334:	8082                	c.jr	x1

00000336 <_fstat>:

int _fstat(int file, struct stat *st)
{
  st->st_mode = S_IFCHR;
     336:	6789                	c.lui	x15,0x2
     338:	c1dc                	c.sw	x15,4(x11)
  return 0;
  // errno = -ENOSYS;
  // return -1;
}
     33a:	4501                	c.li	x10,0
     33c:	8082                	c.jr	x1

0000033e <_fstatat>:

int _fstatat(int dirfd, const char *file, struct stat *st, int flags)
{
  errno = ENOSYS;
     33e:	05800713          	addi	x14,x0,88
     342:	f0e1ac23          	sw	x14,-232(x3) # 12ac8 <errno>
  return -1;
}
     346:	557d                	c.li	x10,-1
     348:	8082                	c.jr	x1

0000034a <_ftime>:

int _ftime(struct timeb *tp)
     34a:	05800713          	addi	x14,x0,88
     34e:	f0e1ac23          	sw	x14,-232(x3) # 12ac8 <errno>
     352:	557d                	c.li	x10,-1
     354:	8082                	c.jr	x1

00000356 <_getcwd>:
  return -1;
}

char *_getcwd(char *buf, size_t size)
{
  errno = -ENOSYS;
     356:	fa800713          	addi	x14,x0,-88
     35a:	f0e1ac23          	sw	x14,-232(x3) # 12ac8 <errno>
  return NULL;
}
     35e:	4501                	c.li	x10,0
     360:	8082                	c.jr	x1

00000362 <_getpid>:

int _getpid()
{
  return 1;
}
     362:	4505                	c.li	x10,1
     364:	8082                	c.jr	x1

00000366 <_gettimeofday>:

int _gettimeofday(struct timeval *tp, void *tzp)
{
  errno = -ENOSYS;
     366:	fa800713          	addi	x14,x0,-88
     36a:	f0e1ac23          	sw	x14,-232(x3) # 12ac8 <errno>
  return -1;
}
     36e:	557d                	c.li	x10,-1
     370:	8082                	c.jr	x1

00000372 <_isatty>:

int _isatty(int file)
{
  return (file == STDOUT_FILENO);
     372:	157d                	c.addi	x10,-1
}
     374:	00153513          	sltiu	x10,x10,1
     378:	8082                	c.jr	x1

0000037a <_kill>:

int _kill(int pid, int sig)
{
  errno = EINVAL;
     37a:	4759                	c.li	x14,22
     37c:	f0e1ac23          	sw	x14,-232(x3) # 12ac8 <errno>
  return -1;
}
     380:	557d                	c.li	x10,-1
     382:	8082                	c.jr	x1

00000384 <_link>:

int _link(const char *old_name, const char *new_name)
{
  errno = EMLINK;
     384:	477d                	c.li	x14,31
     386:	f0e1ac23          	sw	x14,-232(x3) # 12ac8 <errno>
  return -1;
}
     38a:	557d                	c.li	x10,-1
     38c:	8082                	c.jr	x1

0000038e <_lseek>:

off_t _lseek(int file, off_t ptr, int dir)
{
  return 0;
}
     38e:	4501                	c.li	x10,0
     390:	8082                	c.jr	x1

00000392 <_lstat>:

int _lstat(const char *file, struct stat *st)
     392:	05800713          	addi	x14,x0,88
     396:	f0e1ac23          	sw	x14,-232(x3) # 12ac8 <errno>
     39a:	557d                	c.li	x10,-1
     39c:	8082                	c.jr	x1

0000039e <_open>:
}

int _open(const char *name, int flags, int mode)
{
  return -1;
}
     39e:	557d                	c.li	x10,-1
     3a0:	8082                	c.jr	x1

000003a2 <_openat>:

int _openat(int dirfd, const char *name, int flags, int mode)
     3a2:	05800713          	addi	x14,x0,88
     3a6:	f0e1ac23          	sw	x14,-232(x3) # 12ac8 <errno>
     3aa:	557d                	c.li	x10,-1
     3ac:	8082                	c.jr	x1

000003ae <_read>:
}

ssize_t _read(int file, void *ptr, size_t len)
{
  return 0;
}
     3ae:	4501                	c.li	x10,0
     3b0:	8082                	c.jr	x1

000003b2 <_stat>:

int _stat(const char *file, struct stat *st)
{
  st->st_mode = S_IFCHR;
     3b2:	6789                	c.lui	x15,0x2
     3b4:	c1dc                	c.sw	x15,4(x11)
  return 0;
  // errno = ENOSYS;
  // return -1;
}
     3b6:	4501                	c.li	x10,0
     3b8:	8082                	c.jr	x1

000003ba <_sysconf>:

long _sysconf(int name)
     3ba:	557d                	c.li	x10,-1
     3bc:	8082                	c.jr	x1

000003be <_times>:
}

clock_t _times(struct tms *buf)
{
  return -1;
}
     3be:	557d                	c.li	x10,-1
     3c0:	8082                	c.jr	x1

000003c2 <_unlink>:

int _unlink(const char *name)
{
  errno = ENOENT;
     3c2:	4709                	c.li	x14,2
     3c4:	f0e1ac23          	sw	x14,-232(x3) # 12ac8 <errno>
  return -1;
}
     3c8:	557d                	c.li	x10,-1
     3ca:	8082                	c.jr	x1

000003cc <_utime>:

int _utime(const char *path, const struct utimbuf *times)
     3cc:	05800713          	addi	x14,x0,88
     3d0:	f0e1ac23          	sw	x14,-232(x3) # 12ac8 <errno>
     3d4:	557d                	c.li	x10,-1
     3d6:	8082                	c.jr	x1

000003d8 <_wait>:
  return -1;
}

int _wait(int *status)
{
  errno = ECHILD;
     3d8:	4729                	c.li	x14,10
     3da:	f0e1ac23          	sw	x14,-232(x3) # 12ac8 <errno>
  return -1;
}
     3de:	557d                	c.li	x10,-1
     3e0:	8082                	c.jr	x1

000003e2 <_write>:

ssize_t _write(int file, const void *ptr, size_t len)
{
  const char *cptr = (char *)ptr;
  if (file != STDOUT_FILENO)
     3e2:	4685                	c.li	x13,1
    {
      errno = ENOSYS;
      return -1;
    }

  const void *eptr = cptr + len;
     3e4:	00c587b3          	add	x15,x11,x12
  while (cptr != eptr)
    *(volatile int *)STDOUT_REG = *cptr++;
     3e8:	10000737          	lui	x14,0x10000
  if (file != STDOUT_FILENO)
     3ec:	00d50c63          	beq	x10,x13,404 <_write+0x22>
      errno = ENOSYS;
     3f0:	05800713          	addi	x14,x0,88
     3f4:	f0e1ac23          	sw	x14,-232(x3) # 12ac8 <errno>
      return -1;
     3f8:	557d                	c.li	x10,-1
     3fa:	8082                	c.jr	x1
    *(volatile int *)STDOUT_REG = *cptr++;
     3fc:	0005c683          	lbu	x13,0(x11)
     400:	0585                	c.addi	x11,1
     402:	c314                	c.sw	x13,0(x14)
  while (cptr != eptr)
     404:	fef59ce3          	bne	x11,x15,3fc <_write+0x1a>
  return len;
     408:	8532                	c.mv	x10,x12
}
     40a:	8082                	c.jr	x1

0000040c <_brk>:
extern char __heap_end[];
static char *brk = __heap_start;

int _brk(void *addr)
{
  brk = addr;
     40c:	f0a1a423          	sw	x10,-248(x3) # 12ab8 <brk>
  return 0;
}
     410:	4501                	c.li	x10,0
     412:	8082                	c.jr	x1

00000414 <_sbrk>:

void *_sbrk(ptrdiff_t incr)
{
     414:	87aa                	c.mv	x15,x10
  char *old_brk = brk;
     416:	f081a503          	lw	x10,-248(x3) # 12ab8 <brk>
  register long sp asm("sp");

  char *new_brk = brk += incr;
     41a:	97aa                	c.add	x15,x10
     41c:	f0f1a423          	sw	x15,-248(x3) # 12ab8 <brk>
  if (new_brk < (char *) sp && new_brk < __heap_end)
     420:	0027f863          	bgeu	x15,x2,430 <_sbrk+0x1c>
     424:	00400737          	lui	x14,0x400
     428:	00070713          	addi	x14,x14,0 # 400000 <__heap_end>
     42c:	00e7e663          	bltu	x15,x14,438 <_sbrk+0x24>

      return old_brk;
    }
  else
    {
      errno = ENOMEM;
     430:	4731                	c.li	x14,12
     432:	f0e1ac23          	sw	x14,-232(x3) # 12ac8 <errno>
      return (void *) -1;
     436:	557d                	c.li	x10,-1
    }
}
     438:	8082                	c.jr	x1

0000043a <handle_syscall>:
    register long syscall_id asm("t0");
  #else
    long syscall_id = a7;
  #endif

  switch (syscall_id) {
     43a:	08100793          	addi	x15,x0,129
     43e:	0af88c63          	beq	x17,x15,4f6 <handle_syscall+0xbc>
     442:	0717c763          	blt	x15,x17,4b0 <handle_syscall+0x76>
     446:	04000793          	addi	x15,x0,64
     44a:	0517c663          	blt	x15,x17,496 <handle_syscall+0x5c>
     44e:	02f00793          	addi	x15,x0,47
     452:	0317c563          	blt	x15,x17,47c <handle_syscall+0x42>
     456:	47c5                	c.li	x15,17
     458:	04f89b63          	bne	x17,x15,4ae <handle_syscall+0x74>
  errno = -ENOSYS;
     45c:	fa800713          	addi	x14,x0,-88
     460:	a861                	c.j	4f8 <handle_syscall+0xbe>
  switch (syscall_id) {
     462:	c0088893          	addi	x17,x17,-1024
     466:	47bd                	c.li	x15,15
     468:	0517e363          	bltu	x15,x17,4ae <handle_syscall+0x74>
     46c:	67c9                	c.lui	x15,0x12
     46e:	b8c78793          	addi	x15,x15,-1140 # 11b8c <no_exception_handler_msg+0x30>
     472:	088a                	c.slli	x17,0x2
     474:	98be                	c.add	x17,x15
     476:	0008a783          	lw	x15,0(x17)
     47a:	8782                	c.jr	x15
     47c:	fd088893          	addi	x17,x17,-48
     480:	47c1                	c.li	x15,16
     482:	0317e663          	bltu	x15,x17,4ae <handle_syscall+0x74>
     486:	67c9                	c.lui	x15,0x12
     488:	bcc78793          	addi	x15,x15,-1076 # 11bcc <no_exception_handler_msg+0x70>
     48c:	088a                	c.slli	x17,0x2
     48e:	98be                	c.add	x17,x15
     490:	0008a783          	lw	x15,0(x17)
     494:	8782                	c.jr	x15
     496:	05000793          	addi	x15,x0,80
     49a:	06f88963          	beq	x17,x15,50c <handle_syscall+0xd2>
     49e:	05d00793          	addi	x15,x0,93
     4a2:	04f88363          	beq	x17,x15,4e8 <handle_syscall+0xae>
     4a6:	04f00793          	addi	x15,x0,79
     4aa:	04f88a63          	beq	x17,x15,4fe <handle_syscall+0xc4>
      break;
    case SYS_times:
      _times ((struct tms *) a0);
      break;
    default:
      unimplemented_syscall ();
     4ae:	b511                	c.j	2b2 <unimplemented_syscall>
  switch (syscall_id) {
     4b0:	40f00793          	addi	x15,x0,1039
     4b4:	ff17cde3          	blt	x15,x17,4ae <handle_syscall+0x74>
     4b8:	3ff00793          	addi	x15,x0,1023
     4bc:	fb17c3e3          	blt	x15,x17,462 <handle_syscall+0x28>
     4c0:	0ac00793          	addi	x15,x0,172
     4c4:	04f88763          	beq	x17,x15,512 <handle_syscall+0xd8>
     4c8:	0117c963          	blt	x15,x17,4da <handle_syscall+0xa0>
     4cc:	09900793          	addi	x15,x0,153
     4d0:	04f88163          	beq	x17,x15,512 <handle_syscall+0xd8>
     4d4:	0a900793          	addi	x15,x0,169
     4d8:	b741                	c.j	458 <handle_syscall+0x1e>
     4da:	0d600793          	addi	x15,x0,214
     4de:	fcf898e3          	bne	x17,x15,4ae <handle_syscall+0x74>
  brk = addr;
     4e2:	f0a1a423          	sw	x10,-248(x3) # 12ab8 <brk>
  return 0;
     4e6:	8082                	c.jr	x1
  *(volatile int *)EXIT_REG = exit_status;
     4e8:	200007b7          	lui	x15,0x20000
     4ec:	c3c8                	c.sw	x10,4(x15)
  asm volatile("wfi");
     4ee:	10500073          	wfi
  while (1) {};
     4f2:	a001                	c.j	4f2 <handle_syscall+0xb8>
      _write (a0, (const void *) a1, a2);
     4f4:	b5fd                	c.j	3e2 <_write>
  errno = EINVAL;
     4f6:	4759                	c.li	x14,22
  errno = ENOSYS;
     4f8:	f0e1ac23          	sw	x14,-232(x3) # 12ac8 <errno>
  return -1;
     4fc:	8082                	c.jr	x1
  errno = ENOSYS;
     4fe:	05800713          	addi	x14,x0,88
     502:	bfdd                	c.j	4f8 <handle_syscall+0xbe>
  errno = EMLINK;
     504:	477d                	c.li	x14,31
     506:	bfcd                	c.j	4f8 <handle_syscall+0xbe>
  errno = ENOENT;
     508:	4709                	c.li	x14,2
     50a:	b7fd                	c.j	4f8 <handle_syscall+0xbe>
  st->st_mode = S_IFCHR;
     50c:	6789                	c.lui	x15,0x2
     50e:	c1dc                	c.sw	x15,4(x11)
  return 0;
     510:	8082                	c.jr	x1
      break;
  }
}
     512:	8082                	c.jr	x1

00000514 <_reclaim_reent>:
     514:	f141a783          	lw	x15,-236(x3) # 12ac4 <_impure_ptr>
     518:	0aa78e63          	beq	x15,x10,5d4 <_reclaim_reent+0xc0>
     51c:	04452583          	lw	x11,68(x10)
     520:	fe010113          	addi	x2,x2,-32
     524:	00912a23          	sw	x9,20(x2)
     528:	00112e23          	sw	x1,28(x2)
     52c:	00050493          	addi	x9,x10,0
     530:	04058c63          	beq	x11,x0,588 <_reclaim_reent+0x74>
     534:	01212823          	sw	x18,16(x2)
     538:	01312623          	sw	x19,12(x2)
     53c:	00812c23          	sw	x8,24(x2)
     540:	00000913          	addi	x18,x0,0
     544:	08000993          	addi	x19,x0,128
     548:	012587b3          	add	x15,x11,x18
     54c:	0007a403          	lw	x8,0(x15) # 2000 <_fwalk_sglue+0x94>
     550:	00040e63          	beq	x8,x0,56c <_reclaim_reent+0x58>
     554:	00040593          	addi	x11,x8,0
     558:	00042403          	lw	x8,0(x8)
     55c:	00048513          	addi	x10,x9,0
     560:	4c0010ef          	jal	x1,1a20 <_free_r>
     564:	fe0418e3          	bne	x8,x0,554 <_reclaim_reent+0x40>
     568:	0444a583          	lw	x11,68(x9)
     56c:	00490913          	addi	x18,x18,4
     570:	fd391ce3          	bne	x18,x19,548 <_reclaim_reent+0x34>
     574:	00048513          	addi	x10,x9,0
     578:	4a8010ef          	jal	x1,1a20 <_free_r>
     57c:	01812403          	lw	x8,24(x2)
     580:	01012903          	lw	x18,16(x2)
     584:	00c12983          	lw	x19,12(x2)
     588:	0384a583          	lw	x11,56(x9)
     58c:	00058663          	beq	x11,x0,598 <_reclaim_reent+0x84>
     590:	00048513          	addi	x10,x9,0
     594:	48c010ef          	jal	x1,1a20 <_free_r>
     598:	04c4a583          	lw	x11,76(x9)
     59c:	00058663          	beq	x11,x0,5a8 <_reclaim_reent+0x94>
     5a0:	00048513          	addi	x10,x9,0
     5a4:	47c010ef          	jal	x1,1a20 <_free_r>
     5a8:	0344a783          	lw	x15,52(x9)
     5ac:	00078c63          	beq	x15,x0,5c4 <_reclaim_reent+0xb0>
     5b0:	01c12083          	lw	x1,28(x2)
     5b4:	00048513          	addi	x10,x9,0
     5b8:	01412483          	lw	x9,20(x2)
     5bc:	02010113          	addi	x2,x2,32
     5c0:	00078067          	jalr	x0,0(x15)
     5c4:	01c12083          	lw	x1,28(x2)
     5c8:	01412483          	lw	x9,20(x2)
     5cc:	02010113          	addi	x2,x2,32
     5d0:	00008067          	jalr	x0,0(x1)
     5d4:	00008067          	jalr	x0,0(x1)

000005d8 <_printf_r>:
     5d8:	fc010113          	addi	x2,x2,-64
     5dc:	02c12423          	sw	x12,40(x2)
     5e0:	02d12623          	sw	x13,44(x2)
     5e4:	02e12823          	sw	x14,48(x2)
     5e8:	02f12a23          	sw	x15,52(x2)
     5ec:	03012c23          	sw	x16,56(x2)
     5f0:	03112e23          	sw	x17,60(x2)
     5f4:	00058613          	addi	x12,x11,0
     5f8:	00852583          	lw	x11,8(x10)
     5fc:	02810693          	addi	x13,x2,40
     600:	00112e23          	sw	x1,28(x2)
     604:	00d12623          	sw	x13,12(x2)
     608:	63c020ef          	jal	x1,2c44 <_vfprintf_r>
     60c:	01c12083          	lw	x1,28(x2)
     610:	04010113          	addi	x2,x2,64
     614:	00008067          	jalr	x0,0(x1)

00000618 <printf>:
     618:	fc010113          	addi	x2,x2,-64
     61c:	02c12423          	sw	x12,40(x2)
     620:	02d12623          	sw	x13,44(x2)
     624:	f141a303          	lw	x6,-236(x3) # 12ac4 <_impure_ptr>
     628:	02b12223          	sw	x11,36(x2)
     62c:	02e12823          	sw	x14,48(x2)
     630:	02f12a23          	sw	x15,52(x2)
     634:	03012c23          	sw	x16,56(x2)
     638:	03112e23          	sw	x17,60(x2)
     63c:	00832583          	lw	x11,8(x6)
     640:	02410693          	addi	x13,x2,36
     644:	00050613          	addi	x12,x10,0
     648:	00030513          	addi	x10,x6,0
     64c:	00112e23          	sw	x1,28(x2)
     650:	00d12623          	sw	x13,12(x2)
     654:	5f0020ef          	jal	x1,2c44 <_vfprintf_r>
     658:	01c12083          	lw	x1,28(x2)
     65c:	04010113          	addi	x2,x2,64
     660:	00008067          	jalr	x0,0(x1)

00000664 <_puts_r>:
     664:	fc010113          	addi	x2,x2,-64
     668:	02812c23          	sw	x8,56(x2)
     66c:	00050413          	addi	x8,x10,0
     670:	00058513          	addi	x10,x11,0
     674:	02912a23          	sw	x9,52(x2)
     678:	02112e23          	sw	x1,60(x2)
     67c:	00058493          	addi	x9,x11,0
     680:	6c0010ef          	jal	x1,1d40 <strlen>
     684:	00150713          	addi	x14,x10,1
     688:	00011697          	auipc	x13,0x11
     68c:	31868693          	addi	x13,x13,792 # 119a0 <__clzsi2+0x324>
     690:	00e12e23          	sw	x14,28(x2)
     694:	03442783          	lw	x15,52(x8)
     698:	02010713          	addi	x14,x2,32
     69c:	02d12423          	sw	x13,40(x2)
     6a0:	00e12a23          	sw	x14,20(x2)
     6a4:	00100693          	addi	x13,x0,1
     6a8:	00200713          	addi	x14,x0,2
     6ac:	02912023          	sw	x9,32(x2)
     6b0:	02a12223          	sw	x10,36(x2)
     6b4:	02d12623          	sw	x13,44(x2)
     6b8:	00e12c23          	sw	x14,24(x2)
     6bc:	00842583          	lw	x11,8(x8)
     6c0:	06078063          	beq	x15,x0,720 <_puts_r+0xbc>
     6c4:	00c59783          	lh	x15,12(x11)
     6c8:	01279713          	slli	x14,x15,0x12
     6cc:	02074263          	blt	x14,x0,6f0 <_puts_r+0x8c>
     6d0:	0645a703          	lw	x14,100(x11)
     6d4:	ffffe6b7          	lui	x13,0xffffe
     6d8:	fff68693          	addi	x13,x13,-1 # ffffdfff <__heap_end+0xffbfdfff>
     6dc:	00002637          	lui	x12,0x2
     6e0:	00c7e7b3          	or	x15,x15,x12
     6e4:	00d77733          	and	x14,x14,x13
     6e8:	00f59623          	sh	x15,12(x11)
     6ec:	06e5a223          	sw	x14,100(x11)
     6f0:	01410613          	addi	x12,x2,20
     6f4:	00040513          	addi	x10,x8,0
     6f8:	3ac000ef          	jal	x1,aa4 <__sfvwrite_r>
     6fc:	03c12083          	lw	x1,60(x2)
     700:	03812403          	lw	x8,56(x2)
     704:	00153513          	sltiu	x10,x10,1
     708:	40a00533          	sub	x10,x0,x10
     70c:	00b57513          	andi	x10,x10,11
     710:	03412483          	lw	x9,52(x2)
     714:	fff50513          	addi	x10,x10,-1
     718:	04010113          	addi	x2,x2,64
     71c:	00008067          	jalr	x0,0(x1)
     720:	00040513          	addi	x10,x8,0
     724:	00b12623          	sw	x11,12(x2)
     728:	320000ef          	jal	x1,a48 <__sinit>
     72c:	00c12583          	lw	x11,12(x2)
     730:	f95ff06f          	jal	x0,6c4 <_puts_r+0x60>

00000734 <puts>:
     734:	00050593          	addi	x11,x10,0
     738:	f141a503          	lw	x10,-236(x3) # 12ac4 <_impure_ptr>
     73c:	f29ff06f          	jal	x0,664 <_puts_r>

00000740 <__fp_lock>:
     740:	00000513          	addi	x10,x0,0
     744:	00008067          	jalr	x0,0(x1)

00000748 <stdio_exit_handler>:
     748:	00012617          	auipc	x12,0x12
     74c:	c6860613          	addi	x12,x12,-920 # 123b0 <__sglue>
     750:	00001597          	auipc	x11,0x1
     754:	86458593          	addi	x11,x11,-1948 # fb4 <_fclose_r>
     758:	c1818513          	addi	x10,x3,-1000 # 127c8 <_impure_data>
     75c:	0110106f          	jal	x0,1f6c <_fwalk_sglue>

00000760 <cleanup_stdio>:
     760:	00452583          	lw	x11,4(x10)
     764:	ff010113          	addi	x2,x2,-16
     768:	00812423          	sw	x8,8(x2)
     76c:	00112623          	sw	x1,12(x2)
     770:	f3418793          	addi	x15,x3,-204 # 12ae4 <__sf>
     774:	00050413          	addi	x8,x10,0
     778:	00f58463          	beq	x11,x15,780 <cleanup_stdio+0x20>
     77c:	039000ef          	jal	x1,fb4 <_fclose_r>
     780:	00842583          	lw	x11,8(x8)
     784:	f9c18793          	addi	x15,x3,-100 # 12b4c <__sf+0x68>
     788:	00f58663          	beq	x11,x15,794 <cleanup_stdio+0x34>
     78c:	00040513          	addi	x10,x8,0
     790:	025000ef          	jal	x1,fb4 <_fclose_r>
     794:	00c42583          	lw	x11,12(x8)
     798:	00418793          	addi	x15,x3,4 # 12bb4 <__global_pointer$+0x4>
     79c:	00f58c63          	beq	x11,x15,7b4 <cleanup_stdio+0x54>
     7a0:	00040513          	addi	x10,x8,0
     7a4:	00812403          	lw	x8,8(x2)
     7a8:	00c12083          	lw	x1,12(x2)
     7ac:	01010113          	addi	x2,x2,16
     7b0:	0050006f          	jal	x0,fb4 <_fclose_r>
     7b4:	00c12083          	lw	x1,12(x2)
     7b8:	00812403          	lw	x8,8(x2)
     7bc:	01010113          	addi	x2,x2,16
     7c0:	00008067          	jalr	x0,0(x1)

000007c4 <__fp_unlock>:
     7c4:	00000513          	addi	x10,x0,0
     7c8:	00008067          	jalr	x0,0(x1)

000007cc <global_stdio_init.part.0>:
     7cc:	fe010113          	addi	x2,x2,-32
     7d0:	00000797          	auipc	x15,0x0
     7d4:	f7878793          	addi	x15,x15,-136 # 748 <stdio_exit_handler>
     7d8:	00112e23          	sw	x1,28(x2)
     7dc:	00812c23          	sw	x8,24(x2)
     7e0:	00912a23          	sw	x9,20(x2)
     7e4:	f3418413          	addi	x8,x3,-204 # 12ae4 <__sf>
     7e8:	01212823          	sw	x18,16(x2)
     7ec:	01312623          	sw	x19,12(x2)
     7f0:	01412423          	sw	x20,8(x2)
     7f4:	f0f1ae23          	sw	x15,-228(x3) # 12acc <__stdio_exit_handler>
     7f8:	00800613          	addi	x12,x0,8
     7fc:	00400793          	addi	x15,x0,4
     800:	00000593          	addi	x11,x0,0
     804:	f9018513          	addi	x10,x3,-112 # 12b40 <__sf+0x5c>
     808:	00f42623          	sw	x15,12(x8)
     80c:	00042023          	sw	x0,0(x8)
     810:	00042223          	sw	x0,4(x8)
     814:	00042423          	sw	x0,8(x8)
     818:	06042223          	sw	x0,100(x8)
     81c:	00042823          	sw	x0,16(x8)
     820:	00042a23          	sw	x0,20(x8)
     824:	00042c23          	sw	x0,24(x8)
     828:	668010ef          	jal	x1,1e90 <memset>
     82c:	000107b7          	lui	x15,0x10
     830:	00002a17          	auipc	x20,0x2
     834:	2a8a0a13          	addi	x20,x20,680 # 2ad8 <__sread>
     838:	00002997          	auipc	x19,0x2
     83c:	30498993          	addi	x19,x19,772 # 2b3c <__swrite>
     840:	00002917          	auipc	x18,0x2
     844:	38490913          	addi	x18,x18,900 # 2bc4 <__sseek>
     848:	00002497          	auipc	x9,0x2
     84c:	3f448493          	addi	x9,x9,1012 # 2c3c <__sclose>
     850:	00978793          	addi	x15,x15,9 # 10009 <__subtf3+0x6a5>
     854:	00800613          	addi	x12,x0,8
     858:	00000593          	addi	x11,x0,0
     85c:	ff818513          	addi	x10,x3,-8 # 12ba8 <__sf+0xc4>
     860:	03442023          	sw	x20,32(x8)
     864:	03342223          	sw	x19,36(x8)
     868:	03242423          	sw	x18,40(x8)
     86c:	02942623          	sw	x9,44(x8)
     870:	06f42a23          	sw	x15,116(x8)
     874:	00842e23          	sw	x8,28(x8)
     878:	06042423          	sw	x0,104(x8)
     87c:	06042623          	sw	x0,108(x8)
     880:	06042823          	sw	x0,112(x8)
     884:	0c042623          	sw	x0,204(x8)
     888:	06042c23          	sw	x0,120(x8)
     88c:	06042e23          	sw	x0,124(x8)
     890:	08042023          	sw	x0,128(x8)
     894:	5fc010ef          	jal	x1,1e90 <memset>
     898:	000207b7          	lui	x15,0x20
     89c:	01278793          	addi	x15,x15,18 # 20012 <__heap_start+0xd232>
     8a0:	f9c18713          	addi	x14,x3,-100 # 12b4c <__sf+0x68>
     8a4:	00800613          	addi	x12,x0,8
     8a8:	00000593          	addi	x11,x0,0
     8ac:	06018513          	addi	x10,x3,96 # 12c10 <__global_pointer$+0x60>
     8b0:	09442423          	sw	x20,136(x8)
     8b4:	09342623          	sw	x19,140(x8)
     8b8:	09242823          	sw	x18,144(x8)
     8bc:	08942a23          	sw	x9,148(x8)
     8c0:	0cf42e23          	sw	x15,220(x8)
     8c4:	08e42223          	sw	x14,132(x8)
     8c8:	0c042823          	sw	x0,208(x8)
     8cc:	0c042a23          	sw	x0,212(x8)
     8d0:	0c042c23          	sw	x0,216(x8)
     8d4:	12042a23          	sw	x0,308(x8)
     8d8:	0e042023          	sw	x0,224(x8)
     8dc:	0e042223          	sw	x0,228(x8)
     8e0:	0e042423          	sw	x0,232(x8)
     8e4:	5ac010ef          	jal	x1,1e90 <memset>
     8e8:	00418793          	addi	x15,x3,4 # 12bb4 <__global_pointer$+0x4>
     8ec:	0f442823          	sw	x20,240(x8)
     8f0:	0f342a23          	sw	x19,244(x8)
     8f4:	0f242c23          	sw	x18,248(x8)
     8f8:	0e942e23          	sw	x9,252(x8)
     8fc:	01c12083          	lw	x1,28(x2)
     900:	0ef42623          	sw	x15,236(x8)
     904:	01812403          	lw	x8,24(x2)
     908:	01412483          	lw	x9,20(x2)
     90c:	01012903          	lw	x18,16(x2)
     910:	00c12983          	lw	x19,12(x2)
     914:	00812a03          	lw	x20,8(x2)
     918:	02010113          	addi	x2,x2,32
     91c:	00008067          	jalr	x0,0(x1)

00000920 <__sfp>:
     920:	fe010113          	addi	x2,x2,-32
     924:	01312623          	sw	x19,12(x2)
     928:	00112e23          	sw	x1,28(x2)
     92c:	00812c23          	sw	x8,24(x2)
     930:	00912a23          	sw	x9,20(x2)
     934:	01212823          	sw	x18,16(x2)
     938:	f1c1a783          	lw	x15,-228(x3) # 12acc <__stdio_exit_handler>
     93c:	00050993          	addi	x19,x10,0
     940:	0e078863          	beq	x15,x0,a30 <__sfp+0x110>
     944:	00012917          	auipc	x18,0x12
     948:	a6c90913          	addi	x18,x18,-1428 # 123b0 <__sglue>
     94c:	fff00493          	addi	x9,x0,-1
     950:	00492783          	lw	x15,4(x18)
     954:	00892403          	lw	x8,8(x18)
     958:	fff78793          	addi	x15,x15,-1
     95c:	0007d863          	bge	x15,x0,96c <__sfp+0x4c>
     960:	0800006f          	jal	x0,9e0 <__sfp+0xc0>
     964:	06840413          	addi	x8,x8,104
     968:	06978c63          	beq	x15,x9,9e0 <__sfp+0xc0>
     96c:	00c41703          	lh	x14,12(x8)
     970:	fff78793          	addi	x15,x15,-1
     974:	fe0718e3          	bne	x14,x0,964 <__sfp+0x44>
     978:	ffff07b7          	lui	x15,0xffff0
     97c:	00178793          	addi	x15,x15,1 # ffff0001 <__heap_end+0xffbf0001>
     980:	00f42623          	sw	x15,12(x8)
     984:	06042223          	sw	x0,100(x8)
     988:	00042023          	sw	x0,0(x8)
     98c:	00042423          	sw	x0,8(x8)
     990:	00042223          	sw	x0,4(x8)
     994:	00042823          	sw	x0,16(x8)
     998:	00042a23          	sw	x0,20(x8)
     99c:	00042c23          	sw	x0,24(x8)
     9a0:	00800613          	addi	x12,x0,8
     9a4:	00000593          	addi	x11,x0,0
     9a8:	05c40513          	addi	x10,x8,92
     9ac:	4e4010ef          	jal	x1,1e90 <memset>
     9b0:	02042823          	sw	x0,48(x8)
     9b4:	02042a23          	sw	x0,52(x8)
     9b8:	04042223          	sw	x0,68(x8)
     9bc:	04042423          	sw	x0,72(x8)
     9c0:	01c12083          	lw	x1,28(x2)
     9c4:	00040513          	addi	x10,x8,0
     9c8:	01812403          	lw	x8,24(x2)
     9cc:	01412483          	lw	x9,20(x2)
     9d0:	01012903          	lw	x18,16(x2)
     9d4:	00c12983          	lw	x19,12(x2)
     9d8:	02010113          	addi	x2,x2,32
     9dc:	00008067          	jalr	x0,0(x1)
     9e0:	00092403          	lw	x8,0(x18)
     9e4:	00040663          	beq	x8,x0,9f0 <__sfp+0xd0>
     9e8:	00040913          	addi	x18,x8,0
     9ec:	f65ff06f          	jal	x0,950 <__sfp+0x30>
     9f0:	1ac00593          	addi	x11,x0,428
     9f4:	00098513          	addi	x10,x19,0
     9f8:	6d0000ef          	jal	x1,10c8 <_malloc_r>
     9fc:	00050413          	addi	x8,x10,0
     a00:	02050c63          	beq	x10,x0,a38 <__sfp+0x118>
     a04:	00c50513          	addi	x10,x10,12
     a08:	00400793          	addi	x15,x0,4
     a0c:	00042023          	sw	x0,0(x8)
     a10:	00f42223          	sw	x15,4(x8)
     a14:	00a42423          	sw	x10,8(x8)
     a18:	1a000613          	addi	x12,x0,416
     a1c:	00000593          	addi	x11,x0,0
     a20:	470010ef          	jal	x1,1e90 <memset>
     a24:	00892023          	sw	x8,0(x18)
     a28:	00040913          	addi	x18,x8,0
     a2c:	f25ff06f          	jal	x0,950 <__sfp+0x30>
     a30:	d9dff0ef          	jal	x1,7cc <global_stdio_init.part.0>
     a34:	f11ff06f          	jal	x0,944 <__sfp+0x24>
     a38:	00092023          	sw	x0,0(x18)
     a3c:	00c00793          	addi	x15,x0,12
     a40:	00f9a023          	sw	x15,0(x19)
     a44:	f7dff06f          	jal	x0,9c0 <__sfp+0xa0>

00000a48 <__sinit>:
     a48:	03452783          	lw	x15,52(x10)
     a4c:	00078463          	beq	x15,x0,a54 <__sinit+0xc>
     a50:	00008067          	jalr	x0,0(x1)
     a54:	00000797          	auipc	x15,0x0
     a58:	d0c78793          	addi	x15,x15,-756 # 760 <cleanup_stdio>
     a5c:	02f52a23          	sw	x15,52(x10)
     a60:	f1c1a783          	lw	x15,-228(x3) # 12acc <__stdio_exit_handler>
     a64:	fe0796e3          	bne	x15,x0,a50 <__sinit+0x8>
     a68:	d65ff06f          	jal	x0,7cc <global_stdio_init.part.0>

00000a6c <__sfp_lock_acquire>:
     a6c:	00008067          	jalr	x0,0(x1)

00000a70 <__sfp_lock_release>:
     a70:	00008067          	jalr	x0,0(x1)

00000a74 <__fp_lock_all>:
     a74:	00012617          	auipc	x12,0x12
     a78:	93c60613          	addi	x12,x12,-1732 # 123b0 <__sglue>
     a7c:	00000597          	auipc	x11,0x0
     a80:	cc458593          	addi	x11,x11,-828 # 740 <__fp_lock>
     a84:	00000513          	addi	x10,x0,0
     a88:	4e40106f          	jal	x0,1f6c <_fwalk_sglue>

00000a8c <__fp_unlock_all>:
     a8c:	00012617          	auipc	x12,0x12
     a90:	92460613          	addi	x12,x12,-1756 # 123b0 <__sglue>
     a94:	00000597          	auipc	x11,0x0
     a98:	d3058593          	addi	x11,x11,-720 # 7c4 <__fp_unlock>
     a9c:	00000513          	addi	x10,x0,0
     aa0:	4cc0106f          	jal	x0,1f6c <_fwalk_sglue>

00000aa4 <__sfvwrite_r>:
     aa4:	00862783          	lw	x15,8(x12)
     aa8:	2c078463          	beq	x15,x0,d70 <__sfvwrite_r+0x2cc>
     aac:	00c59683          	lh	x13,12(x11)
     ab0:	fd010113          	addi	x2,x2,-48
     ab4:	02812423          	sw	x8,40(x2)
     ab8:	01412c23          	sw	x20,24(x2)
     abc:	01612823          	sw	x22,16(x2)
     ac0:	02112623          	sw	x1,44(x2)
     ac4:	0086f793          	andi	x15,x13,8
     ac8:	00060b13          	addi	x22,x12,0
     acc:	00050a13          	addi	x20,x10,0
     ad0:	00058413          	addi	x8,x11,0
     ad4:	08078e63          	beq	x15,x0,b70 <__sfvwrite_r+0xcc>
     ad8:	0105a783          	lw	x15,16(x11)
     adc:	08078a63          	beq	x15,x0,b70 <__sfvwrite_r+0xcc>
     ae0:	02912223          	sw	x9,36(x2)
     ae4:	03212023          	sw	x18,32(x2)
     ae8:	01312e23          	sw	x19,28(x2)
     aec:	01512a23          	sw	x21,20(x2)
     af0:	0026f793          	andi	x15,x13,2
     af4:	000b2483          	lw	x9,0(x22)
     af8:	0a078463          	beq	x15,x0,ba0 <__sfvwrite_r+0xfc>
     afc:	02442783          	lw	x15,36(x8)
     b00:	01c42583          	lw	x11,28(x8)
     b04:	80000ab7          	lui	x21,0x80000
     b08:	00000993          	addi	x19,x0,0
     b0c:	00000913          	addi	x18,x0,0
     b10:	c00a8a93          	addi	x21,x21,-1024 # 7ffffc00 <__heap_end+0x7fbffc00>
     b14:	00098613          	addi	x12,x19,0
     b18:	000a0513          	addi	x10,x20,0
     b1c:	04090263          	beq	x18,x0,b60 <__sfvwrite_r+0xbc>
     b20:	00090693          	addi	x13,x18,0
     b24:	012af463          	bgeu	x21,x18,b2c <__sfvwrite_r+0x88>
     b28:	000a8693          	addi	x13,x21,0
     b2c:	000780e7          	jalr	x1,0(x15)
     b30:	46a05063          	bge	x0,x10,f90 <__sfvwrite_r+0x4ec>
     b34:	008b2783          	lw	x15,8(x22)
     b38:	00a989b3          	add	x19,x19,x10
     b3c:	40a90933          	sub	x18,x18,x10
     b40:	40a787b3          	sub	x15,x15,x10
     b44:	00fb2423          	sw	x15,8(x22)
     b48:	1a078663          	beq	x15,x0,cf4 <__sfvwrite_r+0x250>
     b4c:	02442783          	lw	x15,36(x8)
     b50:	01c42583          	lw	x11,28(x8)
     b54:	00098613          	addi	x12,x19,0
     b58:	000a0513          	addi	x10,x20,0
     b5c:	fc0912e3          	bne	x18,x0,b20 <__sfvwrite_r+0x7c>
     b60:	0004a983          	lw	x19,0(x9)
     b64:	0044a903          	lw	x18,4(x9)
     b68:	00848493          	addi	x9,x9,8
     b6c:	fa9ff06f          	jal	x0,b14 <__sfvwrite_r+0x70>
     b70:	00040593          	addi	x11,x8,0
     b74:	000a0513          	addi	x10,x20,0
     b78:	621010ef          	jal	x1,2998 <__swsetup_r>
     b7c:	1c051c63          	bne	x10,x0,d54 <__sfvwrite_r+0x2b0>
     b80:	00c41683          	lh	x13,12(x8)
     b84:	02912223          	sw	x9,36(x2)
     b88:	03212023          	sw	x18,32(x2)
     b8c:	01312e23          	sw	x19,28(x2)
     b90:	01512a23          	sw	x21,20(x2)
     b94:	0026f793          	andi	x15,x13,2
     b98:	000b2483          	lw	x9,0(x22)
     b9c:	f60790e3          	bne	x15,x0,afc <__sfvwrite_r+0x58>
     ba0:	01712623          	sw	x23,12(x2)
     ba4:	01812423          	sw	x24,8(x2)
     ba8:	0016f793          	andi	x15,x13,1
     bac:	1c079663          	bne	x15,x0,d78 <__sfvwrite_r+0x2d4>
     bb0:	00042783          	lw	x15,0(x8)
     bb4:	00842703          	lw	x14,8(x8)
     bb8:	80000ab7          	lui	x21,0x80000
     bbc:	01912223          	sw	x25,4(x2)
     bc0:	00000b93          	addi	x23,x0,0
     bc4:	00000993          	addi	x19,x0,0
     bc8:	fffa8a93          	addi	x21,x21,-1 # 7fffffff <__heap_end+0x7fbfffff>
     bcc:	00078513          	addi	x10,x15,0
     bd0:	00070c13          	addi	x24,x14,0
     bd4:	10098263          	beq	x19,x0,cd8 <__sfvwrite_r+0x234>
     bd8:	2006f613          	andi	x12,x13,512
     bdc:	28060863          	beq	x12,x0,e6c <__sfvwrite_r+0x3c8>
     be0:	00070c93          	addi	x25,x14,0
     be4:	32e9e663          	bltu	x19,x14,f10 <__sfvwrite_r+0x46c>
     be8:	4806f713          	andi	x14,x13,1152
     bec:	08070a63          	beq	x14,x0,c80 <__sfvwrite_r+0x1dc>
     bf0:	01442603          	lw	x12,20(x8)
     bf4:	01042583          	lw	x11,16(x8)
     bf8:	00161713          	slli	x14,x12,0x1
     bfc:	00c70733          	add	x14,x14,x12
     c00:	40b78933          	sub	x18,x15,x11
     c04:	01f75c13          	srli	x24,x14,0x1f
     c08:	00ec0c33          	add	x24,x24,x14
     c0c:	00190793          	addi	x15,x18,1
     c10:	401c5c13          	srai	x24,x24,0x1
     c14:	013787b3          	add	x15,x15,x19
     c18:	000c0613          	addi	x12,x24,0
     c1c:	00fc7663          	bgeu	x24,x15,c28 <__sfvwrite_r+0x184>
     c20:	00078c13          	addi	x24,x15,0
     c24:	00078613          	addi	x12,x15,0
     c28:	4006f693          	andi	x13,x13,1024
     c2c:	30068e63          	beq	x13,x0,f48 <__sfvwrite_r+0x4a4>
     c30:	00060593          	addi	x11,x12,0
     c34:	000a0513          	addi	x10,x20,0
     c38:	490000ef          	jal	x1,10c8 <_malloc_r>
     c3c:	00050c93          	addi	x25,x10,0
     c40:	34050c63          	beq	x10,x0,f98 <__sfvwrite_r+0x4f4>
     c44:	01042583          	lw	x11,16(x8)
     c48:	00090613          	addi	x12,x18,0
     c4c:	791040ef          	jal	x1,5bdc <memcpy>
     c50:	00c45783          	lhu	x15,12(x8)
     c54:	b7f7f793          	andi	x15,x15,-1153
     c58:	0807e793          	ori	x15,x15,128
     c5c:	00f41623          	sh	x15,12(x8)
     c60:	012c8533          	add	x10,x25,x18
     c64:	412c07b3          	sub	x15,x24,x18
     c68:	01942823          	sw	x25,16(x8)
     c6c:	01842a23          	sw	x24,20(x8)
     c70:	00a42023          	sw	x10,0(x8)
     c74:	00098c13          	addi	x24,x19,0
     c78:	00f42423          	sw	x15,8(x8)
     c7c:	00098c93          	addi	x25,x19,0
     c80:	000c8613          	addi	x12,x25,0
     c84:	000b8593          	addi	x11,x23,0
     c88:	0f8050ef          	jal	x1,5d80 <memmove>
     c8c:	00842703          	lw	x14,8(x8)
     c90:	00042783          	lw	x15,0(x8)
     c94:	00098913          	addi	x18,x19,0
     c98:	41870733          	sub	x14,x14,x24
     c9c:	019787b3          	add	x15,x15,x25
     ca0:	00e42423          	sw	x14,8(x8)
     ca4:	00f42023          	sw	x15,0(x8)
     ca8:	00000993          	addi	x19,x0,0
     cac:	008b2783          	lw	x15,8(x22)
     cb0:	012b8bb3          	add	x23,x23,x18
     cb4:	412787b3          	sub	x15,x15,x18
     cb8:	00fb2423          	sw	x15,8(x22)
     cbc:	02078663          	beq	x15,x0,ce8 <__sfvwrite_r+0x244>
     cc0:	00042783          	lw	x15,0(x8)
     cc4:	00842703          	lw	x14,8(x8)
     cc8:	00c41683          	lh	x13,12(x8)
     ccc:	00078513          	addi	x10,x15,0
     cd0:	00070c13          	addi	x24,x14,0
     cd4:	f00992e3          	bne	x19,x0,bd8 <__sfvwrite_r+0x134>
     cd8:	0004ab83          	lw	x23,0(x9)
     cdc:	0044a983          	lw	x19,4(x9)
     ce0:	00848493          	addi	x9,x9,8
     ce4:	ee9ff06f          	jal	x0,bcc <__sfvwrite_r+0x128>
     ce8:	00c12b83          	lw	x23,12(x2)
     cec:	00812c03          	lw	x24,8(x2)
     cf0:	00412c83          	lw	x25,4(x2)
     cf4:	02c12083          	lw	x1,44(x2)
     cf8:	02812403          	lw	x8,40(x2)
     cfc:	02412483          	lw	x9,36(x2)
     d00:	02012903          	lw	x18,32(x2)
     d04:	01c12983          	lw	x19,28(x2)
     d08:	01412a83          	lw	x21,20(x2)
     d0c:	01812a03          	lw	x20,24(x2)
     d10:	01012b03          	lw	x22,16(x2)
     d14:	00000513          	addi	x10,x0,0
     d18:	03010113          	addi	x2,x2,48
     d1c:	00008067          	jalr	x0,0(x1)
     d20:	00040593          	addi	x11,x8,0
     d24:	000a0513          	addi	x10,x20,0
     d28:	2b5010ef          	jal	x1,27dc <_fflush_r>
     d2c:	0a050e63          	beq	x10,x0,de8 <__sfvwrite_r+0x344>
     d30:	00c41783          	lh	x15,12(x8)
     d34:	00c12b83          	lw	x23,12(x2)
     d38:	00812c03          	lw	x24,8(x2)
     d3c:	02412483          	lw	x9,36(x2)
     d40:	02012903          	lw	x18,32(x2)
     d44:	01c12983          	lw	x19,28(x2)
     d48:	01412a83          	lw	x21,20(x2)
     d4c:	0407e793          	ori	x15,x15,64
     d50:	00f41623          	sh	x15,12(x8)
     d54:	02c12083          	lw	x1,44(x2)
     d58:	02812403          	lw	x8,40(x2)
     d5c:	01812a03          	lw	x20,24(x2)
     d60:	01012b03          	lw	x22,16(x2)
     d64:	fff00513          	addi	x10,x0,-1
     d68:	03010113          	addi	x2,x2,48
     d6c:	00008067          	jalr	x0,0(x1)
     d70:	00000513          	addi	x10,x0,0
     d74:	00008067          	jalr	x0,0(x1)
     d78:	00000a93          	addi	x21,x0,0
     d7c:	00000513          	addi	x10,x0,0
     d80:	00000c13          	addi	x24,x0,0
     d84:	00000993          	addi	x19,x0,0
     d88:	08098263          	beq	x19,x0,e0c <__sfvwrite_r+0x368>
     d8c:	08050a63          	beq	x10,x0,e20 <__sfvwrite_r+0x37c>
     d90:	000a8793          	addi	x15,x21,0
     d94:	00098b93          	addi	x23,x19,0
     d98:	0137f463          	bgeu	x15,x19,da0 <__sfvwrite_r+0x2fc>
     d9c:	00078b93          	addi	x23,x15,0
     da0:	00042503          	lw	x10,0(x8)
     da4:	01042783          	lw	x15,16(x8)
     da8:	00842903          	lw	x18,8(x8)
     dac:	01442683          	lw	x13,20(x8)
     db0:	00a7f663          	bgeu	x15,x10,dbc <__sfvwrite_r+0x318>
     db4:	00d90933          	add	x18,x18,x13
     db8:	09794463          	blt	x18,x23,e40 <__sfvwrite_r+0x39c>
     dbc:	16dbc063          	blt	x23,x13,f1c <__sfvwrite_r+0x478>
     dc0:	02442783          	lw	x15,36(x8)
     dc4:	01c42583          	lw	x11,28(x8)
     dc8:	000c0613          	addi	x12,x24,0
     dcc:	000a0513          	addi	x10,x20,0
     dd0:	000780e7          	jalr	x1,0(x15)
     dd4:	00050913          	addi	x18,x10,0
     dd8:	f4a05ce3          	bge	x0,x10,d30 <__sfvwrite_r+0x28c>
     ddc:	412a8ab3          	sub	x21,x21,x18
     de0:	00100513          	addi	x10,x0,1
     de4:	f20a8ee3          	beq	x21,x0,d20 <__sfvwrite_r+0x27c>
     de8:	008b2783          	lw	x15,8(x22)
     dec:	012c0c33          	add	x24,x24,x18
     df0:	412989b3          	sub	x19,x19,x18
     df4:	412787b3          	sub	x15,x15,x18
     df8:	00fb2423          	sw	x15,8(x22)
     dfc:	f80796e3          	bne	x15,x0,d88 <__sfvwrite_r+0x2e4>
     e00:	00c12b83          	lw	x23,12(x2)
     e04:	00812c03          	lw	x24,8(x2)
     e08:	eedff06f          	jal	x0,cf4 <__sfvwrite_r+0x250>
     e0c:	0044a983          	lw	x19,4(x9)
     e10:	00048793          	addi	x15,x9,0
     e14:	00848493          	addi	x9,x9,8
     e18:	fe098ae3          	beq	x19,x0,e0c <__sfvwrite_r+0x368>
     e1c:	0007ac03          	lw	x24,0(x15)
     e20:	00098613          	addi	x12,x19,0
     e24:	00a00593          	addi	x11,x0,10
     e28:	000c0513          	addi	x10,x24,0
     e2c:	7a1000ef          	jal	x1,1dcc <memchr>
     e30:	14050a63          	beq	x10,x0,f84 <__sfvwrite_r+0x4e0>
     e34:	00150513          	addi	x10,x10,1
     e38:	41850ab3          	sub	x21,x10,x24
     e3c:	f55ff06f          	jal	x0,d90 <__sfvwrite_r+0x2ec>
     e40:	000c0593          	addi	x11,x24,0
     e44:	00090613          	addi	x12,x18,0
     e48:	739040ef          	jal	x1,5d80 <memmove>
     e4c:	00042783          	lw	x15,0(x8)
     e50:	00040593          	addi	x11,x8,0
     e54:	000a0513          	addi	x10,x20,0
     e58:	012787b3          	add	x15,x15,x18
     e5c:	00f42023          	sw	x15,0(x8)
     e60:	17d010ef          	jal	x1,27dc <_fflush_r>
     e64:	f6050ce3          	beq	x10,x0,ddc <__sfvwrite_r+0x338>
     e68:	ec9ff06f          	jal	x0,d30 <__sfvwrite_r+0x28c>
     e6c:	01042683          	lw	x13,16(x8)
     e70:	04f6e263          	bltu	x13,x15,eb4 <__sfvwrite_r+0x410>
     e74:	01442603          	lw	x12,20(x8)
     e78:	02c9ee63          	bltu	x19,x12,eb4 <__sfvwrite_r+0x410>
     e7c:	00098793          	addi	x15,x19,0
     e80:	013af463          	bgeu	x21,x19,e88 <__sfvwrite_r+0x3e4>
     e84:	000a8793          	addi	x15,x21,0
     e88:	02c7e6b3          	rem	x13,x15,x12
     e8c:	02442703          	lw	x14,36(x8)
     e90:	01c42583          	lw	x11,28(x8)
     e94:	000b8613          	addi	x12,x23,0
     e98:	000a0513          	addi	x10,x20,0
     e9c:	40d786b3          	sub	x13,x15,x13
     ea0:	000700e7          	jalr	x1,0(x14)
     ea4:	00050913          	addi	x18,x10,0
     ea8:	04a05a63          	bge	x0,x10,efc <__sfvwrite_r+0x458>
     eac:	412989b3          	sub	x19,x19,x18
     eb0:	dfdff06f          	jal	x0,cac <__sfvwrite_r+0x208>
     eb4:	00070913          	addi	x18,x14,0
     eb8:	00e9f463          	bgeu	x19,x14,ec0 <__sfvwrite_r+0x41c>
     ebc:	00098913          	addi	x18,x19,0
     ec0:	00078513          	addi	x10,x15,0
     ec4:	00090613          	addi	x12,x18,0
     ec8:	000b8593          	addi	x11,x23,0
     ecc:	6b5040ef          	jal	x1,5d80 <memmove>
     ed0:	00842703          	lw	x14,8(x8)
     ed4:	00042783          	lw	x15,0(x8)
     ed8:	41270733          	sub	x14,x14,x18
     edc:	012787b3          	add	x15,x15,x18
     ee0:	00e42423          	sw	x14,8(x8)
     ee4:	00f42023          	sw	x15,0(x8)
     ee8:	fc0712e3          	bne	x14,x0,eac <__sfvwrite_r+0x408>
     eec:	00040593          	addi	x11,x8,0
     ef0:	000a0513          	addi	x10,x20,0
     ef4:	0e9010ef          	jal	x1,27dc <_fflush_r>
     ef8:	fa050ae3          	beq	x10,x0,eac <__sfvwrite_r+0x408>
     efc:	00c41783          	lh	x15,12(x8)
     f00:	00c12b83          	lw	x23,12(x2)
     f04:	00812c03          	lw	x24,8(x2)
     f08:	00412c83          	lw	x25,4(x2)
     f0c:	e31ff06f          	jal	x0,d3c <__sfvwrite_r+0x298>
     f10:	00098c13          	addi	x24,x19,0
     f14:	00098c93          	addi	x25,x19,0
     f18:	d69ff06f          	jal	x0,c80 <__sfvwrite_r+0x1dc>
     f1c:	000b8613          	addi	x12,x23,0
     f20:	000c0593          	addi	x11,x24,0
     f24:	65d040ef          	jal	x1,5d80 <memmove>
     f28:	00842703          	lw	x14,8(x8)
     f2c:	00042783          	lw	x15,0(x8)
     f30:	000b8913          	addi	x18,x23,0
     f34:	41770733          	sub	x14,x14,x23
     f38:	017787b3          	add	x15,x15,x23
     f3c:	00e42423          	sw	x14,8(x8)
     f40:	00f42023          	sw	x15,0(x8)
     f44:	e99ff06f          	jal	x0,ddc <__sfvwrite_r+0x338>
     f48:	000a0513          	addi	x10,x20,0
     f4c:	0d4010ef          	jal	x1,2020 <_realloc_r>
     f50:	00050c93          	addi	x25,x10,0
     f54:	d00516e3          	bne	x10,x0,c60 <__sfvwrite_r+0x1bc>
     f58:	01042583          	lw	x11,16(x8)
     f5c:	000a0513          	addi	x10,x20,0
     f60:	2c1000ef          	jal	x1,1a20 <_free_r>
     f64:	00c41783          	lh	x15,12(x8)
     f68:	00c00713          	addi	x14,x0,12
     f6c:	00c12b83          	lw	x23,12(x2)
     f70:	00812c03          	lw	x24,8(x2)
     f74:	00412c83          	lw	x25,4(x2)
     f78:	00ea2023          	sw	x14,0(x20)
     f7c:	f7f7f793          	andi	x15,x15,-129
     f80:	dbdff06f          	jal	x0,d3c <__sfvwrite_r+0x298>
     f84:	00198793          	addi	x15,x19,1
     f88:	00078a93          	addi	x21,x15,0
     f8c:	e09ff06f          	jal	x0,d94 <__sfvwrite_r+0x2f0>
     f90:	00c41783          	lh	x15,12(x8)
     f94:	da9ff06f          	jal	x0,d3c <__sfvwrite_r+0x298>
     f98:	00c00713          	addi	x14,x0,12
     f9c:	00c41783          	lh	x15,12(x8)
     fa0:	00c12b83          	lw	x23,12(x2)
     fa4:	00812c03          	lw	x24,8(x2)
     fa8:	00412c83          	lw	x25,4(x2)
     fac:	00ea2023          	sw	x14,0(x20)
     fb0:	d8dff06f          	jal	x0,d3c <__sfvwrite_r+0x298>

00000fb4 <_fclose_r>:
     fb4:	ff010113          	addi	x2,x2,-16
     fb8:	00112623          	sw	x1,12(x2)
     fbc:	01212023          	sw	x18,0(x2)
     fc0:	02058863          	beq	x11,x0,ff0 <_fclose_r+0x3c>
     fc4:	00812423          	sw	x8,8(x2)
     fc8:	00912223          	sw	x9,4(x2)
     fcc:	00058413          	addi	x8,x11,0
     fd0:	00050493          	addi	x9,x10,0
     fd4:	00050663          	beq	x10,x0,fe0 <_fclose_r+0x2c>
     fd8:	03452783          	lw	x15,52(x10)
     fdc:	0c078c63          	beq	x15,x0,10b4 <_fclose_r+0x100>
     fe0:	00c41783          	lh	x15,12(x8)
     fe4:	02079263          	bne	x15,x0,1008 <_fclose_r+0x54>
     fe8:	00812403          	lw	x8,8(x2)
     fec:	00412483          	lw	x9,4(x2)
     ff0:	00c12083          	lw	x1,12(x2)
     ff4:	00000913          	addi	x18,x0,0
     ff8:	00090513          	addi	x10,x18,0
     ffc:	00012903          	lw	x18,0(x2)
    1000:	01010113          	addi	x2,x2,16
    1004:	00008067          	jalr	x0,0(x1)
    1008:	00040593          	addi	x11,x8,0
    100c:	00048513          	addi	x10,x9,0
    1010:	580010ef          	jal	x1,2590 <__sflush_r>
    1014:	02c42783          	lw	x15,44(x8)
    1018:	00050913          	addi	x18,x10,0
    101c:	00078a63          	beq	x15,x0,1030 <_fclose_r+0x7c>
    1020:	01c42583          	lw	x11,28(x8)
    1024:	00048513          	addi	x10,x9,0
    1028:	000780e7          	jalr	x1,0(x15)
    102c:	06054463          	blt	x10,x0,1094 <_fclose_r+0xe0>
    1030:	00c45783          	lhu	x15,12(x8)
    1034:	0807f793          	andi	x15,x15,128
    1038:	06079663          	bne	x15,x0,10a4 <_fclose_r+0xf0>
    103c:	03042583          	lw	x11,48(x8)
    1040:	00058c63          	beq	x11,x0,1058 <_fclose_r+0xa4>
    1044:	04040793          	addi	x15,x8,64
    1048:	00f58663          	beq	x11,x15,1054 <_fclose_r+0xa0>
    104c:	00048513          	addi	x10,x9,0
    1050:	1d1000ef          	jal	x1,1a20 <_free_r>
    1054:	02042823          	sw	x0,48(x8)
    1058:	04442583          	lw	x11,68(x8)
    105c:	00058863          	beq	x11,x0,106c <_fclose_r+0xb8>
    1060:	00048513          	addi	x10,x9,0
    1064:	1bd000ef          	jal	x1,1a20 <_free_r>
    1068:	04042223          	sw	x0,68(x8)
    106c:	a01ff0ef          	jal	x1,a6c <__sfp_lock_acquire>
    1070:	00041623          	sh	x0,12(x8)
    1074:	9fdff0ef          	jal	x1,a70 <__sfp_lock_release>
    1078:	00c12083          	lw	x1,12(x2)
    107c:	00812403          	lw	x8,8(x2)
    1080:	00412483          	lw	x9,4(x2)
    1084:	00090513          	addi	x10,x18,0
    1088:	00012903          	lw	x18,0(x2)
    108c:	01010113          	addi	x2,x2,16
    1090:	00008067          	jalr	x0,0(x1)
    1094:	00c45783          	lhu	x15,12(x8)
    1098:	fff00913          	addi	x18,x0,-1
    109c:	0807f793          	andi	x15,x15,128
    10a0:	f8078ee3          	beq	x15,x0,103c <_fclose_r+0x88>
    10a4:	01042583          	lw	x11,16(x8)
    10a8:	00048513          	addi	x10,x9,0
    10ac:	175000ef          	jal	x1,1a20 <_free_r>
    10b0:	f8dff06f          	jal	x0,103c <_fclose_r+0x88>
    10b4:	995ff0ef          	jal	x1,a48 <__sinit>
    10b8:	f29ff06f          	jal	x0,fe0 <_fclose_r+0x2c>

000010bc <fclose>:
    10bc:	00050593          	addi	x11,x10,0
    10c0:	f141a503          	lw	x10,-236(x3) # 12ac4 <_impure_ptr>
    10c4:	ef1ff06f          	jal	x0,fb4 <_fclose_r>

000010c8 <_malloc_r>:
    10c8:	fd010113          	addi	x2,x2,-48
    10cc:	03212023          	sw	x18,32(x2)
    10d0:	02112623          	sw	x1,44(x2)
    10d4:	02812423          	sw	x8,40(x2)
    10d8:	02912223          	sw	x9,36(x2)
    10dc:	01312e23          	sw	x19,28(x2)
    10e0:	00b58793          	addi	x15,x11,11
    10e4:	01600713          	addi	x14,x0,22
    10e8:	00050913          	addi	x18,x10,0
    10ec:	08f76263          	bltu	x14,x15,1170 <_malloc_r+0xa8>
    10f0:	01000793          	addi	x15,x0,16
    10f4:	20b7e463          	bltu	x15,x11,12fc <_malloc_r+0x234>
    10f8:	7c4010ef          	jal	x1,28bc <__malloc_lock>
    10fc:	01800793          	addi	x15,x0,24
    1100:	00200593          	addi	x11,x0,2
    1104:	01000493          	addi	x9,x0,16
    1108:	00011997          	auipc	x19,0x11
    110c:	2b498993          	addi	x19,x19,692 # 123bc <__malloc_av_>
    1110:	00f987b3          	add	x15,x19,x15
    1114:	0047a403          	lw	x8,4(x15)
    1118:	ff878713          	addi	x14,x15,-8
    111c:	34e40863          	beq	x8,x14,146c <_malloc_r+0x3a4>
    1120:	00442783          	lw	x15,4(x8)
    1124:	00c42683          	lw	x13,12(x8)
    1128:	00842603          	lw	x12,8(x8)
    112c:	ffc7f793          	andi	x15,x15,-4
    1130:	00f407b3          	add	x15,x8,x15
    1134:	0047a703          	lw	x14,4(x15)
    1138:	00d62623          	sw	x13,12(x12)
    113c:	00c6a423          	sw	x12,8(x13)
    1140:	00176713          	ori	x14,x14,1
    1144:	00090513          	addi	x10,x18,0
    1148:	00e7a223          	sw	x14,4(x15)
    114c:	774010ef          	jal	x1,28c0 <__malloc_unlock>
    1150:	00840513          	addi	x10,x8,8
    1154:	02c12083          	lw	x1,44(x2)
    1158:	02812403          	lw	x8,40(x2)
    115c:	02412483          	lw	x9,36(x2)
    1160:	02012903          	lw	x18,32(x2)
    1164:	01c12983          	lw	x19,28(x2)
    1168:	03010113          	addi	x2,x2,48
    116c:	00008067          	jalr	x0,0(x1)
    1170:	ff87f493          	andi	x9,x15,-8
    1174:	1807c463          	blt	x15,x0,12fc <_malloc_r+0x234>
    1178:	18b4e263          	bltu	x9,x11,12fc <_malloc_r+0x234>
    117c:	740010ef          	jal	x1,28bc <__malloc_lock>
    1180:	1f700793          	addi	x15,x0,503
    1184:	3e97fe63          	bgeu	x15,x9,1580 <_malloc_r+0x4b8>
    1188:	0094d793          	srli	x15,x9,0x9
    118c:	18078063          	beq	x15,x0,130c <_malloc_r+0x244>
    1190:	00400713          	addi	x14,x0,4
    1194:	34f76463          	bltu	x14,x15,14dc <_malloc_r+0x414>
    1198:	0064d793          	srli	x15,x9,0x6
    119c:	03978593          	addi	x11,x15,57
    11a0:	03878813          	addi	x16,x15,56
    11a4:	00359613          	slli	x12,x11,0x3
    11a8:	00011997          	auipc	x19,0x11
    11ac:	21498993          	addi	x19,x19,532 # 123bc <__malloc_av_>
    11b0:	00c98633          	add	x12,x19,x12
    11b4:	00462403          	lw	x8,4(x12)
    11b8:	ff860613          	addi	x12,x12,-8
    11bc:	02860863          	beq	x12,x8,11ec <_malloc_r+0x124>
    11c0:	00f00513          	addi	x10,x0,15
    11c4:	0140006f          	jal	x0,11d8 <_malloc_r+0x110>
    11c8:	00c42683          	lw	x13,12(x8)
    11cc:	28075c63          	bge	x14,x0,1464 <_malloc_r+0x39c>
    11d0:	00d60e63          	beq	x12,x13,11ec <_malloc_r+0x124>
    11d4:	00068413          	addi	x8,x13,0
    11d8:	00442783          	lw	x15,4(x8)
    11dc:	ffc7f793          	andi	x15,x15,-4
    11e0:	40978733          	sub	x14,x15,x9
    11e4:	fee552e3          	bge	x10,x14,11c8 <_malloc_r+0x100>
    11e8:	00080593          	addi	x11,x16,0
    11ec:	0109a403          	lw	x8,16(x19)
    11f0:	81418893          	addi	x17,x3,-2028 # 123c4 <__malloc_av_+0x8>
    11f4:	27140463          	beq	x8,x17,145c <_malloc_r+0x394>
    11f8:	00442783          	lw	x15,4(x8)
    11fc:	00f00693          	addi	x13,x0,15
    1200:	ffc7f793          	andi	x15,x15,-4
    1204:	40978733          	sub	x14,x15,x9
    1208:	38e6c263          	blt	x13,x14,158c <_malloc_r+0x4c4>
    120c:	0119aa23          	sw	x17,20(x19)
    1210:	0119a823          	sw	x17,16(x19)
    1214:	34075663          	bge	x14,x0,1560 <_malloc_r+0x498>
    1218:	1ff00713          	addi	x14,x0,511
    121c:	0049a503          	lw	x10,4(x19)
    1220:	24f76e63          	bltu	x14,x15,147c <_malloc_r+0x3b4>
    1224:	ff87f713          	andi	x14,x15,-8
    1228:	00870713          	addi	x14,x14,8
    122c:	00e98733          	add	x14,x19,x14
    1230:	00072683          	lw	x13,0(x14)
    1234:	0057d613          	srli	x12,x15,0x5
    1238:	00100793          	addi	x15,x0,1
    123c:	00c797b3          	sll	x15,x15,x12
    1240:	00f56533          	or	x10,x10,x15
    1244:	ff870793          	addi	x15,x14,-8
    1248:	00f42623          	sw	x15,12(x8)
    124c:	00d42423          	sw	x13,8(x8)
    1250:	00a9a223          	sw	x10,4(x19)
    1254:	00872023          	sw	x8,0(x14)
    1258:	0086a623          	sw	x8,12(x13)
    125c:	4025d793          	srai	x15,x11,0x2
    1260:	00100613          	addi	x12,x0,1
    1264:	00f61633          	sll	x12,x12,x15
    1268:	0ac56a63          	bltu	x10,x12,131c <_malloc_r+0x254>
    126c:	00a677b3          	and	x15,x12,x10
    1270:	02079463          	bne	x15,x0,1298 <_malloc_r+0x1d0>
    1274:	00161613          	slli	x12,x12,0x1
    1278:	ffc5f593          	andi	x11,x11,-4
    127c:	00a677b3          	and	x15,x12,x10
    1280:	00458593          	addi	x11,x11,4
    1284:	00079a63          	bne	x15,x0,1298 <_malloc_r+0x1d0>
    1288:	00161613          	slli	x12,x12,0x1
    128c:	00a677b3          	and	x15,x12,x10
    1290:	00458593          	addi	x11,x11,4
    1294:	fe078ae3          	beq	x15,x0,1288 <_malloc_r+0x1c0>
    1298:	00f00813          	addi	x16,x0,15
    129c:	00359313          	slli	x6,x11,0x3
    12a0:	00698333          	add	x6,x19,x6
    12a4:	00030513          	addi	x10,x6,0
    12a8:	00c52783          	lw	x15,12(x10)
    12ac:	00058e13          	addi	x28,x11,0
    12b0:	24f50863          	beq	x10,x15,1500 <_malloc_r+0x438>
    12b4:	0047a703          	lw	x14,4(x15)
    12b8:	00078413          	addi	x8,x15,0
    12bc:	00c7a783          	lw	x15,12(x15)
    12c0:	ffc77713          	andi	x14,x14,-4
    12c4:	409706b3          	sub	x13,x14,x9
    12c8:	24d84863          	blt	x16,x13,1518 <_malloc_r+0x450>
    12cc:	fe06c2e3          	blt	x13,x0,12b0 <_malloc_r+0x1e8>
    12d0:	00e40733          	add	x14,x8,x14
    12d4:	00472683          	lw	x13,4(x14)
    12d8:	00842603          	lw	x12,8(x8)
    12dc:	00090513          	addi	x10,x18,0
    12e0:	0016e693          	ori	x13,x13,1
    12e4:	00d72223          	sw	x13,4(x14)
    12e8:	00f62623          	sw	x15,12(x12)
    12ec:	00c7a423          	sw	x12,8(x15)
    12f0:	5d0010ef          	jal	x1,28c0 <__malloc_unlock>
    12f4:	00840513          	addi	x10,x8,8
    12f8:	e5dff06f          	jal	x0,1154 <_malloc_r+0x8c>
    12fc:	00c00793          	addi	x15,x0,12
    1300:	00f92023          	sw	x15,0(x18)
    1304:	00000513          	addi	x10,x0,0
    1308:	e4dff06f          	jal	x0,1154 <_malloc_r+0x8c>
    130c:	20000613          	addi	x12,x0,512
    1310:	04000593          	addi	x11,x0,64
    1314:	03f00813          	addi	x16,x0,63
    1318:	e91ff06f          	jal	x0,11a8 <_malloc_r+0xe0>
    131c:	0089a403          	lw	x8,8(x19)
    1320:	01612823          	sw	x22,16(x2)
    1324:	00442783          	lw	x15,4(x8)
    1328:	ffc7fb13          	andi	x22,x15,-4
    132c:	009b6863          	bltu	x22,x9,133c <_malloc_r+0x274>
    1330:	409b0733          	sub	x14,x22,x9
    1334:	00f00793          	addi	x15,x0,15
    1338:	0ee7c063          	blt	x15,x14,1418 <_malloc_r+0x350>
    133c:	01912223          	sw	x25,4(x2)
    1340:	f0c18c93          	addi	x25,x3,-244 # 12abc <__malloc_sbrk_base>
    1344:	000ca703          	lw	x14,0(x25)
    1348:	01412c23          	sw	x20,24(x2)
    134c:	01512a23          	sw	x21,20(x2)
    1350:	01712623          	sw	x23,12(x2)
    1354:	f281aa83          	lw	x21,-216(x3) # 12ad8 <__malloc_top_pad>
    1358:	fff00793          	addi	x15,x0,-1
    135c:	01640a33          	add	x20,x8,x22
    1360:	01548ab3          	add	x21,x9,x21
    1364:	3cf70a63          	beq	x14,x15,1738 <_malloc_r+0x670>
    1368:	000017b7          	lui	x15,0x1
    136c:	00f78793          	addi	x15,x15,15 # 100f <_fclose_r+0x5b>
    1370:	00fa8ab3          	add	x21,x21,x15
    1374:	fffff7b7          	lui	x15,0xfffff
    1378:	00fafab3          	and	x21,x21,x15
    137c:	000a8593          	addi	x11,x21,0
    1380:	00090513          	addi	x10,x18,0
    1384:	1b8060ef          	jal	x1,753c <_sbrk_r>
    1388:	fff00793          	addi	x15,x0,-1
    138c:	00050b93          	addi	x23,x10,0
    1390:	44f50e63          	beq	x10,x15,17ec <_malloc_r+0x724>
    1394:	01812423          	sw	x24,8(x2)
    1398:	25456263          	bltu	x10,x20,15dc <_malloc_r+0x514>
    139c:	06c18c13          	addi	x24,x3,108 # 12c1c <__malloc_current_mallinfo>
    13a0:	000c2583          	lw	x11,0(x24)
    13a4:	00ba85b3          	add	x11,x21,x11
    13a8:	00bc2023          	sw	x11,0(x24)
    13ac:	00058713          	addi	x14,x11,0
    13b0:	2aaa1a63          	bne	x20,x10,1664 <_malloc_r+0x59c>
    13b4:	01451793          	slli	x15,x10,0x14
    13b8:	2a079663          	bne	x15,x0,1664 <_malloc_r+0x59c>
    13bc:	0089ab83          	lw	x23,8(x19)
    13c0:	015b07b3          	add	x15,x22,x21
    13c4:	0017e793          	ori	x15,x15,1
    13c8:	00fba223          	sw	x15,4(x23)
    13cc:	f2418713          	addi	x14,x3,-220 # 12ad4 <__malloc_max_sbrked_mem>
    13d0:	00072683          	lw	x13,0(x14)
    13d4:	00b6f463          	bgeu	x13,x11,13dc <_malloc_r+0x314>
    13d8:	00b72023          	sw	x11,0(x14)
    13dc:	f2018713          	addi	x14,x3,-224 # 12ad0 <__malloc_max_total_mem>
    13e0:	00072683          	lw	x13,0(x14)
    13e4:	00b6f463          	bgeu	x13,x11,13ec <_malloc_r+0x324>
    13e8:	00b72023          	sw	x11,0(x14)
    13ec:	00812c03          	lw	x24,8(x2)
    13f0:	000b8413          	addi	x8,x23,0
    13f4:	ffc7f793          	andi	x15,x15,-4
    13f8:	40978733          	sub	x14,x15,x9
    13fc:	3897ea63          	bltu	x15,x9,1790 <_malloc_r+0x6c8>
    1400:	00f00793          	addi	x15,x0,15
    1404:	38e7d663          	bge	x15,x14,1790 <_malloc_r+0x6c8>
    1408:	01812a03          	lw	x20,24(x2)
    140c:	01412a83          	lw	x21,20(x2)
    1410:	00c12b83          	lw	x23,12(x2)
    1414:	00412c83          	lw	x25,4(x2)
    1418:	0014e793          	ori	x15,x9,1
    141c:	00f42223          	sw	x15,4(x8)
    1420:	009404b3          	add	x9,x8,x9
    1424:	0099a423          	sw	x9,8(x19)
    1428:	00176713          	ori	x14,x14,1
    142c:	00090513          	addi	x10,x18,0
    1430:	00e4a223          	sw	x14,4(x9)
    1434:	48c010ef          	jal	x1,28c0 <__malloc_unlock>
    1438:	02c12083          	lw	x1,44(x2)
    143c:	00840513          	addi	x10,x8,8
    1440:	02812403          	lw	x8,40(x2)
    1444:	01012b03          	lw	x22,16(x2)
    1448:	02412483          	lw	x9,36(x2)
    144c:	02012903          	lw	x18,32(x2)
    1450:	01c12983          	lw	x19,28(x2)
    1454:	03010113          	addi	x2,x2,48
    1458:	00008067          	jalr	x0,0(x1)
    145c:	0049a503          	lw	x10,4(x19)
    1460:	dfdff06f          	jal	x0,125c <_malloc_r+0x194>
    1464:	00842603          	lw	x12,8(x8)
    1468:	cc9ff06f          	jal	x0,1130 <_malloc_r+0x68>
    146c:	00c7a403          	lw	x8,12(x15) # fffff00c <__heap_end+0xffbff00c>
    1470:	00258593          	addi	x11,x11,2
    1474:	d6878ce3          	beq	x15,x8,11ec <_malloc_r+0x124>
    1478:	ca9ff06f          	jal	x0,1120 <_malloc_r+0x58>
    147c:	0097d713          	srli	x14,x15,0x9
    1480:	00400693          	addi	x13,x0,4
    1484:	14e6f263          	bgeu	x13,x14,15c8 <_malloc_r+0x500>
    1488:	01400693          	addi	x13,x0,20
    148c:	32e6e463          	bltu	x13,x14,17b4 <_malloc_r+0x6ec>
    1490:	05c70613          	addi	x12,x14,92
    1494:	05b70693          	addi	x13,x14,91
    1498:	00361613          	slli	x12,x12,0x3
    149c:	00c98633          	add	x12,x19,x12
    14a0:	00062703          	lw	x14,0(x12)
    14a4:	ff860613          	addi	x12,x12,-8
    14a8:	00e61863          	bne	x12,x14,14b8 <_malloc_r+0x3f0>
    14ac:	2940006f          	jal	x0,1740 <_malloc_r+0x678>
    14b0:	00872703          	lw	x14,8(x14)
    14b4:	00e60863          	beq	x12,x14,14c4 <_malloc_r+0x3fc>
    14b8:	00472683          	lw	x13,4(x14)
    14bc:	ffc6f693          	andi	x13,x13,-4
    14c0:	fed7e8e3          	bltu	x15,x13,14b0 <_malloc_r+0x3e8>
    14c4:	00c72603          	lw	x12,12(x14)
    14c8:	00c42623          	sw	x12,12(x8)
    14cc:	00e42423          	sw	x14,8(x8)
    14d0:	00862423          	sw	x8,8(x12)
    14d4:	00872623          	sw	x8,12(x14)
    14d8:	d85ff06f          	jal	x0,125c <_malloc_r+0x194>
    14dc:	01400713          	addi	x14,x0,20
    14e0:	10f77863          	bgeu	x14,x15,15f0 <_malloc_r+0x528>
    14e4:	05400713          	addi	x14,x0,84
    14e8:	2ef76463          	bltu	x14,x15,17d0 <_malloc_r+0x708>
    14ec:	00c4d793          	srli	x15,x9,0xc
    14f0:	06f78593          	addi	x11,x15,111
    14f4:	06e78813          	addi	x16,x15,110
    14f8:	00359613          	slli	x12,x11,0x3
    14fc:	cadff06f          	jal	x0,11a8 <_malloc_r+0xe0>
    1500:	001e0e13          	addi	x28,x28,1
    1504:	003e7793          	andi	x15,x28,3
    1508:	00850513          	addi	x10,x10,8
    150c:	10078063          	beq	x15,x0,160c <_malloc_r+0x544>
    1510:	00c52783          	lw	x15,12(x10)
    1514:	d9dff06f          	jal	x0,12b0 <_malloc_r+0x1e8>
    1518:	00842603          	lw	x12,8(x8)
    151c:	0014e593          	ori	x11,x9,1
    1520:	00b42223          	sw	x11,4(x8)
    1524:	00f62623          	sw	x15,12(x12)
    1528:	00c7a423          	sw	x12,8(x15)
    152c:	009404b3          	add	x9,x8,x9
    1530:	0099aa23          	sw	x9,20(x19)
    1534:	0099a823          	sw	x9,16(x19)
    1538:	0016e793          	ori	x15,x13,1
    153c:	0114a623          	sw	x17,12(x9)
    1540:	0114a423          	sw	x17,8(x9)
    1544:	00f4a223          	sw	x15,4(x9)
    1548:	00e40733          	add	x14,x8,x14
    154c:	00090513          	addi	x10,x18,0
    1550:	00d72023          	sw	x13,0(x14)
    1554:	36c010ef          	jal	x1,28c0 <__malloc_unlock>
    1558:	00840513          	addi	x10,x8,8
    155c:	bf9ff06f          	jal	x0,1154 <_malloc_r+0x8c>
    1560:	00f407b3          	add	x15,x8,x15
    1564:	0047a703          	lw	x14,4(x15)
    1568:	00090513          	addi	x10,x18,0
    156c:	00176713          	ori	x14,x14,1
    1570:	00e7a223          	sw	x14,4(x15)
    1574:	34c010ef          	jal	x1,28c0 <__malloc_unlock>
    1578:	00840513          	addi	x10,x8,8
    157c:	bd9ff06f          	jal	x0,1154 <_malloc_r+0x8c>
    1580:	0034d593          	srli	x11,x9,0x3
    1584:	00848793          	addi	x15,x9,8
    1588:	b81ff06f          	jal	x0,1108 <_malloc_r+0x40>
    158c:	0014e693          	ori	x13,x9,1
    1590:	00d42223          	sw	x13,4(x8)
    1594:	009404b3          	add	x9,x8,x9
    1598:	0099aa23          	sw	x9,20(x19)
    159c:	0099a823          	sw	x9,16(x19)
    15a0:	00176693          	ori	x13,x14,1
    15a4:	0114a623          	sw	x17,12(x9)
    15a8:	0114a423          	sw	x17,8(x9)
    15ac:	00d4a223          	sw	x13,4(x9)
    15b0:	00f407b3          	add	x15,x8,x15
    15b4:	00090513          	addi	x10,x18,0
    15b8:	00e7a023          	sw	x14,0(x15)
    15bc:	304010ef          	jal	x1,28c0 <__malloc_unlock>
    15c0:	00840513          	addi	x10,x8,8
    15c4:	b91ff06f          	jal	x0,1154 <_malloc_r+0x8c>
    15c8:	0067d713          	srli	x14,x15,0x6
    15cc:	03970613          	addi	x12,x14,57
    15d0:	03870693          	addi	x13,x14,56
    15d4:	00361613          	slli	x12,x12,0x3
    15d8:	ec5ff06f          	jal	x0,149c <_malloc_r+0x3d4>
    15dc:	07340c63          	beq	x8,x19,1654 <_malloc_r+0x58c>
    15e0:	0089a403          	lw	x8,8(x19)
    15e4:	00812c03          	lw	x24,8(x2)
    15e8:	00442783          	lw	x15,4(x8)
    15ec:	e09ff06f          	jal	x0,13f4 <_malloc_r+0x32c>
    15f0:	05c78593          	addi	x11,x15,92
    15f4:	05b78813          	addi	x16,x15,91
    15f8:	00359613          	slli	x12,x11,0x3
    15fc:	badff06f          	jal	x0,11a8 <_malloc_r+0xe0>
    1600:	00832783          	lw	x15,8(x6)
    1604:	fff58593          	addi	x11,x11,-1
    1608:	26679e63          	bne	x15,x6,1884 <_malloc_r+0x7bc>
    160c:	0035f793          	andi	x15,x11,3
    1610:	ff830313          	addi	x6,x6,-8
    1614:	fe0796e3          	bne	x15,x0,1600 <_malloc_r+0x538>
    1618:	0049a703          	lw	x14,4(x19)
    161c:	fff64793          	xori	x15,x12,-1
    1620:	00e7f7b3          	and	x15,x15,x14
    1624:	00f9a223          	sw	x15,4(x19)
    1628:	00161613          	slli	x12,x12,0x1
    162c:	cec7e8e3          	bltu	x15,x12,131c <_malloc_r+0x254>
    1630:	ce0606e3          	beq	x12,x0,131c <_malloc_r+0x254>
    1634:	00f67733          	and	x14,x12,x15
    1638:	00071a63          	bne	x14,x0,164c <_malloc_r+0x584>
    163c:	00161613          	slli	x12,x12,0x1
    1640:	00f67733          	and	x14,x12,x15
    1644:	004e0e13          	addi	x28,x28,4
    1648:	fe070ae3          	beq	x14,x0,163c <_malloc_r+0x574>
    164c:	000e0593          	addi	x11,x28,0
    1650:	c4dff06f          	jal	x0,129c <_malloc_r+0x1d4>
    1654:	06c18c13          	addi	x24,x3,108 # 12c1c <__malloc_current_mallinfo>
    1658:	000c2703          	lw	x14,0(x24)
    165c:	00ea8733          	add	x14,x21,x14
    1660:	00ec2023          	sw	x14,0(x24)
    1664:	000ca683          	lw	x13,0(x25)
    1668:	fff00793          	addi	x15,x0,-1
    166c:	18f68663          	beq	x13,x15,17f8 <_malloc_r+0x730>
    1670:	414b87b3          	sub	x15,x23,x20
    1674:	00e787b3          	add	x15,x15,x14
    1678:	00fc2023          	sw	x15,0(x24)
    167c:	007bfc93          	andi	x25,x23,7
    1680:	0c0c8c63          	beq	x25,x0,1758 <_malloc_r+0x690>
    1684:	419b8bb3          	sub	x23,x23,x25
    1688:	000017b7          	lui	x15,0x1
    168c:	00878793          	addi	x15,x15,8 # 1008 <_fclose_r+0x54>
    1690:	008b8b93          	addi	x23,x23,8
    1694:	419785b3          	sub	x11,x15,x25
    1698:	015b8ab3          	add	x21,x23,x21
    169c:	415585b3          	sub	x11,x11,x21
    16a0:	01459593          	slli	x11,x11,0x14
    16a4:	0145da13          	srli	x20,x11,0x14
    16a8:	000a0593          	addi	x11,x20,0
    16ac:	00090513          	addi	x10,x18,0
    16b0:	68d050ef          	jal	x1,753c <_sbrk_r>
    16b4:	fff00793          	addi	x15,x0,-1
    16b8:	18f50063          	beq	x10,x15,1838 <_malloc_r+0x770>
    16bc:	41750533          	sub	x10,x10,x23
    16c0:	01450ab3          	add	x21,x10,x20
    16c4:	000c2703          	lw	x14,0(x24)
    16c8:	0179a423          	sw	x23,8(x19)
    16cc:	001ae793          	ori	x15,x21,1
    16d0:	00ea05b3          	add	x11,x20,x14
    16d4:	00bc2023          	sw	x11,0(x24)
    16d8:	00fba223          	sw	x15,4(x23)
    16dc:	cf3408e3          	beq	x8,x19,13cc <_malloc_r+0x304>
    16e0:	00f00693          	addi	x13,x0,15
    16e4:	0b66f063          	bgeu	x13,x22,1784 <_malloc_r+0x6bc>
    16e8:	00442703          	lw	x14,4(x8)
    16ec:	ff4b0793          	addi	x15,x22,-12
    16f0:	ff87f793          	andi	x15,x15,-8
    16f4:	00177713          	andi	x14,x14,1
    16f8:	00f76733          	or	x14,x14,x15
    16fc:	00e42223          	sw	x14,4(x8)
    1700:	00500613          	addi	x12,x0,5
    1704:	00f40733          	add	x14,x8,x15
    1708:	00c72223          	sw	x12,4(x14)
    170c:	00c72423          	sw	x12,8(x14)
    1710:	00f6e663          	bltu	x13,x15,171c <_malloc_r+0x654>
    1714:	004ba783          	lw	x15,4(x23)
    1718:	cb5ff06f          	jal	x0,13cc <_malloc_r+0x304>
    171c:	00840593          	addi	x11,x8,8
    1720:	00090513          	addi	x10,x18,0
    1724:	2fc000ef          	jal	x1,1a20 <_free_r>
    1728:	0089ab83          	lw	x23,8(x19)
    172c:	000c2583          	lw	x11,0(x24)
    1730:	004ba783          	lw	x15,4(x23)
    1734:	c99ff06f          	jal	x0,13cc <_malloc_r+0x304>
    1738:	010a8a93          	addi	x21,x21,16
    173c:	c41ff06f          	jal	x0,137c <_malloc_r+0x2b4>
    1740:	4026d693          	srai	x13,x13,0x2
    1744:	00100793          	addi	x15,x0,1
    1748:	00d797b3          	sll	x15,x15,x13
    174c:	00f56533          	or	x10,x10,x15
    1750:	00a9a223          	sw	x10,4(x19)
    1754:	d75ff06f          	jal	x0,14c8 <_malloc_r+0x400>
    1758:	015b85b3          	add	x11,x23,x21
    175c:	40b005b3          	sub	x11,x0,x11
    1760:	01459593          	slli	x11,x11,0x14
    1764:	0145da13          	srli	x20,x11,0x14
    1768:	000a0593          	addi	x11,x20,0
    176c:	00090513          	addi	x10,x18,0
    1770:	5cd050ef          	jal	x1,753c <_sbrk_r>
    1774:	fff00793          	addi	x15,x0,-1
    1778:	f4f512e3          	bne	x10,x15,16bc <_malloc_r+0x5f4>
    177c:	00000a13          	addi	x20,x0,0
    1780:	f45ff06f          	jal	x0,16c4 <_malloc_r+0x5fc>
    1784:	00812c03          	lw	x24,8(x2)
    1788:	00100793          	addi	x15,x0,1
    178c:	00fba223          	sw	x15,4(x23)
    1790:	00090513          	addi	x10,x18,0
    1794:	12c010ef          	jal	x1,28c0 <__malloc_unlock>
    1798:	00000513          	addi	x10,x0,0
    179c:	01812a03          	lw	x20,24(x2)
    17a0:	01412a83          	lw	x21,20(x2)
    17a4:	01012b03          	lw	x22,16(x2)
    17a8:	00c12b83          	lw	x23,12(x2)
    17ac:	00412c83          	lw	x25,4(x2)
    17b0:	9a5ff06f          	jal	x0,1154 <_malloc_r+0x8c>
    17b4:	05400693          	addi	x13,x0,84
    17b8:	04e6e463          	bltu	x13,x14,1800 <_malloc_r+0x738>
    17bc:	00c7d713          	srli	x14,x15,0xc
    17c0:	06f70613          	addi	x12,x14,111
    17c4:	06e70693          	addi	x13,x14,110
    17c8:	00361613          	slli	x12,x12,0x3
    17cc:	cd1ff06f          	jal	x0,149c <_malloc_r+0x3d4>
    17d0:	15400713          	addi	x14,x0,340
    17d4:	04f76463          	bltu	x14,x15,181c <_malloc_r+0x754>
    17d8:	00f4d793          	srli	x15,x9,0xf
    17dc:	07878593          	addi	x11,x15,120
    17e0:	07778813          	addi	x16,x15,119
    17e4:	00359613          	slli	x12,x11,0x3
    17e8:	9c1ff06f          	jal	x0,11a8 <_malloc_r+0xe0>
    17ec:	0089a403          	lw	x8,8(x19)
    17f0:	00442783          	lw	x15,4(x8)
    17f4:	c01ff06f          	jal	x0,13f4 <_malloc_r+0x32c>
    17f8:	017ca023          	sw	x23,0(x25)
    17fc:	e81ff06f          	jal	x0,167c <_malloc_r+0x5b4>
    1800:	15400693          	addi	x13,x0,340
    1804:	04e6e463          	bltu	x13,x14,184c <_malloc_r+0x784>
    1808:	00f7d713          	srli	x14,x15,0xf
    180c:	07870613          	addi	x12,x14,120
    1810:	07770693          	addi	x13,x14,119
    1814:	00361613          	slli	x12,x12,0x3
    1818:	c85ff06f          	jal	x0,149c <_malloc_r+0x3d4>
    181c:	55400713          	addi	x14,x0,1364
    1820:	04f76463          	bltu	x14,x15,1868 <_malloc_r+0x7a0>
    1824:	0124d793          	srli	x15,x9,0x12
    1828:	07d78593          	addi	x11,x15,125
    182c:	07c78813          	addi	x16,x15,124
    1830:	00359613          	slli	x12,x11,0x3
    1834:	975ff06f          	jal	x0,11a8 <_malloc_r+0xe0>
    1838:	ff8c8c93          	addi	x25,x25,-8
    183c:	019a8ab3          	add	x21,x21,x25
    1840:	417a8ab3          	sub	x21,x21,x23
    1844:	00000a13          	addi	x20,x0,0
    1848:	e7dff06f          	jal	x0,16c4 <_malloc_r+0x5fc>
    184c:	55400693          	addi	x13,x0,1364
    1850:	02e6e463          	bltu	x13,x14,1878 <_malloc_r+0x7b0>
    1854:	0127d713          	srli	x14,x15,0x12
    1858:	07d70613          	addi	x12,x14,125
    185c:	07c70693          	addi	x13,x14,124
    1860:	00361613          	slli	x12,x12,0x3
    1864:	c39ff06f          	jal	x0,149c <_malloc_r+0x3d4>
    1868:	3f800613          	addi	x12,x0,1016
    186c:	07f00593          	addi	x11,x0,127
    1870:	07e00813          	addi	x16,x0,126
    1874:	935ff06f          	jal	x0,11a8 <_malloc_r+0xe0>
    1878:	3f800613          	addi	x12,x0,1016
    187c:	07e00693          	addi	x13,x0,126
    1880:	c1dff06f          	jal	x0,149c <_malloc_r+0x3d4>
    1884:	0049a783          	lw	x15,4(x19)
    1888:	da1ff06f          	jal	x0,1628 <_malloc_r+0x560>

0000188c <__libc_fini_array>:
    188c:	ff010113          	addi	x2,x2,-16
    1890:	00812423          	sw	x8,8(x2)
    1894:	00011797          	auipc	x15,0x11
    1898:	b1c78793          	addi	x15,x15,-1252 # 123b0 <__sglue>
    189c:	00011417          	auipc	x8,0x11
    18a0:	b1440413          	addi	x8,x8,-1260 # 123b0 <__sglue>
    18a4:	40f40433          	sub	x8,x8,x15
    18a8:	00912223          	sw	x9,4(x2)
    18ac:	00112623          	sw	x1,12(x2)
    18b0:	40245493          	srai	x9,x8,0x2
    18b4:	02048063          	beq	x9,x0,18d4 <__libc_fini_array+0x48>
    18b8:	ffc40413          	addi	x8,x8,-4
    18bc:	00f40433          	add	x8,x8,x15
    18c0:	00042783          	lw	x15,0(x8)
    18c4:	fff48493          	addi	x9,x9,-1
    18c8:	ffc40413          	addi	x8,x8,-4
    18cc:	000780e7          	jalr	x1,0(x15)
    18d0:	fe0498e3          	bne	x9,x0,18c0 <__libc_fini_array+0x34>
    18d4:	00c12083          	lw	x1,12(x2)
    18d8:	00812403          	lw	x8,8(x2)
    18dc:	00412483          	lw	x9,4(x2)
    18e0:	01010113          	addi	x2,x2,16
    18e4:	00008067          	jalr	x0,0(x1)

000018e8 <_malloc_trim_r>:
    18e8:	fe010113          	addi	x2,x2,-32
    18ec:	00812c23          	sw	x8,24(x2)
    18f0:	00912a23          	sw	x9,20(x2)
    18f4:	01212823          	sw	x18,16(x2)
    18f8:	01312623          	sw	x19,12(x2)
    18fc:	01412423          	sw	x20,8(x2)
    1900:	00058993          	addi	x19,x11,0
    1904:	00112e23          	sw	x1,28(x2)
    1908:	00050913          	addi	x18,x10,0
    190c:	00011a17          	auipc	x20,0x11
    1910:	ab0a0a13          	addi	x20,x20,-1360 # 123bc <__malloc_av_>
    1914:	7a9000ef          	jal	x1,28bc <__malloc_lock>
    1918:	008a2703          	lw	x14,8(x20)
    191c:	000017b7          	lui	x15,0x1
    1920:	fef78793          	addi	x15,x15,-17 # fef <_fclose_r+0x3b>
    1924:	00472483          	lw	x9,4(x14)
    1928:	00001737          	lui	x14,0x1
    192c:	ffc4f493          	andi	x9,x9,-4
    1930:	00f48433          	add	x8,x9,x15
    1934:	41340433          	sub	x8,x8,x19
    1938:	00c45413          	srli	x8,x8,0xc
    193c:	fff40413          	addi	x8,x8,-1
    1940:	00c41413          	slli	x8,x8,0xc
    1944:	00e44e63          	blt	x8,x14,1960 <_malloc_trim_r+0x78>
    1948:	00000593          	addi	x11,x0,0
    194c:	00090513          	addi	x10,x18,0
    1950:	3ed050ef          	jal	x1,753c <_sbrk_r>
    1954:	008a2783          	lw	x15,8(x20)
    1958:	009787b3          	add	x15,x15,x9
    195c:	02f50863          	beq	x10,x15,198c <_malloc_trim_r+0xa4>
    1960:	00090513          	addi	x10,x18,0
    1964:	75d000ef          	jal	x1,28c0 <__malloc_unlock>
    1968:	01c12083          	lw	x1,28(x2)
    196c:	01812403          	lw	x8,24(x2)
    1970:	01412483          	lw	x9,20(x2)
    1974:	01012903          	lw	x18,16(x2)
    1978:	00c12983          	lw	x19,12(x2)
    197c:	00812a03          	lw	x20,8(x2)
    1980:	00000513          	addi	x10,x0,0
    1984:	02010113          	addi	x2,x2,32
    1988:	00008067          	jalr	x0,0(x1)
    198c:	408005b3          	sub	x11,x0,x8
    1990:	00090513          	addi	x10,x18,0
    1994:	3a9050ef          	jal	x1,753c <_sbrk_r>
    1998:	fff00793          	addi	x15,x0,-1
    199c:	04f50863          	beq	x10,x15,19ec <_malloc_trim_r+0x104>
    19a0:	06c18713          	addi	x14,x3,108 # 12c1c <__malloc_current_mallinfo>
    19a4:	00072783          	lw	x15,0(x14) # 1000 <_fclose_r+0x4c>
    19a8:	008a2683          	lw	x13,8(x20)
    19ac:	408484b3          	sub	x9,x9,x8
    19b0:	0014e493          	ori	x9,x9,1
    19b4:	408787b3          	sub	x15,x15,x8
    19b8:	00090513          	addi	x10,x18,0
    19bc:	0096a223          	sw	x9,4(x13)
    19c0:	00f72023          	sw	x15,0(x14)
    19c4:	6fd000ef          	jal	x1,28c0 <__malloc_unlock>
    19c8:	01c12083          	lw	x1,28(x2)
    19cc:	01812403          	lw	x8,24(x2)
    19d0:	01412483          	lw	x9,20(x2)
    19d4:	01012903          	lw	x18,16(x2)
    19d8:	00c12983          	lw	x19,12(x2)
    19dc:	00812a03          	lw	x20,8(x2)
    19e0:	00100513          	addi	x10,x0,1
    19e4:	02010113          	addi	x2,x2,32
    19e8:	00008067          	jalr	x0,0(x1)
    19ec:	00000593          	addi	x11,x0,0
    19f0:	00090513          	addi	x10,x18,0
    19f4:	349050ef          	jal	x1,753c <_sbrk_r>
    19f8:	008a2703          	lw	x14,8(x20)
    19fc:	00f00693          	addi	x13,x0,15
    1a00:	40e507b3          	sub	x15,x10,x14
    1a04:	f4f6dee3          	bge	x13,x15,1960 <_malloc_trim_r+0x78>
    1a08:	f0c1a683          	lw	x13,-244(x3) # 12abc <__malloc_sbrk_base>
    1a0c:	40d50533          	sub	x10,x10,x13
    1a10:	0017e793          	ori	x15,x15,1
    1a14:	06a1a623          	sw	x10,108(x3) # 12c1c <__malloc_current_mallinfo>
    1a18:	00f72223          	sw	x15,4(x14)
    1a1c:	f45ff06f          	jal	x0,1960 <_malloc_trim_r+0x78>

00001a20 <_free_r>:
    1a20:	18058263          	beq	x11,x0,1ba4 <_free_r+0x184>
    1a24:	ff010113          	addi	x2,x2,-16
    1a28:	00812423          	sw	x8,8(x2)
    1a2c:	00912223          	sw	x9,4(x2)
    1a30:	00058413          	addi	x8,x11,0
    1a34:	00050493          	addi	x9,x10,0
    1a38:	00112623          	sw	x1,12(x2)
    1a3c:	681000ef          	jal	x1,28bc <__malloc_lock>
    1a40:	ffc42583          	lw	x11,-4(x8)
    1a44:	ff840713          	addi	x14,x8,-8
    1a48:	00011517          	auipc	x10,0x11
    1a4c:	97450513          	addi	x10,x10,-1676 # 123bc <__malloc_av_>
    1a50:	ffe5f793          	andi	x15,x11,-2
    1a54:	00f70633          	add	x12,x14,x15
    1a58:	00462683          	lw	x13,4(x12)
    1a5c:	00852803          	lw	x16,8(x10)
    1a60:	ffc6f693          	andi	x13,x13,-4
    1a64:	1ac80263          	beq	x16,x12,1c08 <_free_r+0x1e8>
    1a68:	00d62223          	sw	x13,4(x12)
    1a6c:	0015f593          	andi	x11,x11,1
    1a70:	00d60833          	add	x16,x12,x13
    1a74:	0a059063          	bne	x11,x0,1b14 <_free_r+0xf4>
    1a78:	ff842303          	lw	x6,-8(x8)
    1a7c:	00482583          	lw	x11,4(x16)
    1a80:	00011897          	auipc	x17,0x11
    1a84:	94488893          	addi	x17,x17,-1724 # 123c4 <__malloc_av_+0x8>
    1a88:	40670733          	sub	x14,x14,x6
    1a8c:	00872803          	lw	x16,8(x14)
    1a90:	006787b3          	add	x15,x15,x6
    1a94:	0015f593          	andi	x11,x11,1
    1a98:	15180263          	beq	x16,x17,1bdc <_free_r+0x1bc>
    1a9c:	00c72303          	lw	x6,12(x14)
    1aa0:	00682623          	sw	x6,12(x16)
    1aa4:	01032423          	sw	x16,8(x6)
    1aa8:	1a058663          	beq	x11,x0,1c54 <_free_r+0x234>
    1aac:	0017e693          	ori	x13,x15,1
    1ab0:	00d72223          	sw	x13,4(x14)
    1ab4:	00f62023          	sw	x15,0(x12)
    1ab8:	1ff00693          	addi	x13,x0,511
    1abc:	06f6ec63          	bltu	x13,x15,1b34 <_free_r+0x114>
    1ac0:	ff87f693          	andi	x13,x15,-8
    1ac4:	00868693          	addi	x13,x13,8
    1ac8:	00452583          	lw	x11,4(x10)
    1acc:	00d506b3          	add	x13,x10,x13
    1ad0:	0006a603          	lw	x12,0(x13)
    1ad4:	0057d813          	srli	x16,x15,0x5
    1ad8:	00100793          	addi	x15,x0,1
    1adc:	010797b3          	sll	x15,x15,x16
    1ae0:	00b7e7b3          	or	x15,x15,x11
    1ae4:	ff868593          	addi	x11,x13,-8
    1ae8:	00b72623          	sw	x11,12(x14)
    1aec:	00c72423          	sw	x12,8(x14)
    1af0:	00f52223          	sw	x15,4(x10)
    1af4:	00e6a023          	sw	x14,0(x13)
    1af8:	00e62623          	sw	x14,12(x12)
    1afc:	00812403          	lw	x8,8(x2)
    1b00:	00c12083          	lw	x1,12(x2)
    1b04:	00048513          	addi	x10,x9,0
    1b08:	00412483          	lw	x9,4(x2)
    1b0c:	01010113          	addi	x2,x2,16
    1b10:	5b10006f          	jal	x0,28c0 <__malloc_unlock>
    1b14:	00482583          	lw	x11,4(x16)
    1b18:	0015f593          	andi	x11,x11,1
    1b1c:	08058663          	beq	x11,x0,1ba8 <_free_r+0x188>
    1b20:	0017e693          	ori	x13,x15,1
    1b24:	fed42e23          	sw	x13,-4(x8)
    1b28:	00f62023          	sw	x15,0(x12)
    1b2c:	1ff00693          	addi	x13,x0,511
    1b30:	f8f6f8e3          	bgeu	x13,x15,1ac0 <_free_r+0xa0>
    1b34:	0097d693          	srli	x13,x15,0x9
    1b38:	00400613          	addi	x12,x0,4
    1b3c:	12d66063          	bltu	x12,x13,1c5c <_free_r+0x23c>
    1b40:	0067d693          	srli	x13,x15,0x6
    1b44:	03968593          	addi	x11,x13,57
    1b48:	03868613          	addi	x12,x13,56
    1b4c:	00359593          	slli	x11,x11,0x3
    1b50:	00b505b3          	add	x11,x10,x11
    1b54:	0005a683          	lw	x13,0(x11)
    1b58:	ff858593          	addi	x11,x11,-8
    1b5c:	00d59863          	bne	x11,x13,1b6c <_free_r+0x14c>
    1b60:	1540006f          	jal	x0,1cb4 <_free_r+0x294>
    1b64:	0086a683          	lw	x13,8(x13)
    1b68:	00d58863          	beq	x11,x13,1b78 <_free_r+0x158>
    1b6c:	0046a603          	lw	x12,4(x13)
    1b70:	ffc67613          	andi	x12,x12,-4
    1b74:	fec7e8e3          	bltu	x15,x12,1b64 <_free_r+0x144>
    1b78:	00c6a583          	lw	x11,12(x13)
    1b7c:	00b72623          	sw	x11,12(x14)
    1b80:	00d72423          	sw	x13,8(x14)
    1b84:	00812403          	lw	x8,8(x2)
    1b88:	00c12083          	lw	x1,12(x2)
    1b8c:	00e5a423          	sw	x14,8(x11)
    1b90:	00048513          	addi	x10,x9,0
    1b94:	00412483          	lw	x9,4(x2)
    1b98:	00e6a623          	sw	x14,12(x13)
    1b9c:	01010113          	addi	x2,x2,16
    1ba0:	5210006f          	jal	x0,28c0 <__malloc_unlock>
    1ba4:	00008067          	jalr	x0,0(x1)
    1ba8:	00d787b3          	add	x15,x15,x13
    1bac:	00011897          	auipc	x17,0x11
    1bb0:	81888893          	addi	x17,x17,-2024 # 123c4 <__malloc_av_+0x8>
    1bb4:	00862683          	lw	x13,8(x12)
    1bb8:	0d168c63          	beq	x13,x17,1c90 <_free_r+0x270>
    1bbc:	00c62803          	lw	x16,12(x12)
    1bc0:	0017e593          	ori	x11,x15,1
    1bc4:	00f70633          	add	x12,x14,x15
    1bc8:	0106a623          	sw	x16,12(x13)
    1bcc:	00d82423          	sw	x13,8(x16)
    1bd0:	00b72223          	sw	x11,4(x14)
    1bd4:	00f62023          	sw	x15,0(x12)
    1bd8:	ee1ff06f          	jal	x0,1ab8 <_free_r+0x98>
    1bdc:	12059c63          	bne	x11,x0,1d14 <_free_r+0x2f4>
    1be0:	00862583          	lw	x11,8(x12)
    1be4:	00c62603          	lw	x12,12(x12)
    1be8:	00f686b3          	add	x13,x13,x15
    1bec:	0016e793          	ori	x15,x13,1
    1bf0:	00c5a623          	sw	x12,12(x11)
    1bf4:	00b62423          	sw	x11,8(x12)
    1bf8:	00f72223          	sw	x15,4(x14)
    1bfc:	00d70733          	add	x14,x14,x13
    1c00:	00d72023          	sw	x13,0(x14)
    1c04:	ef9ff06f          	jal	x0,1afc <_free_r+0xdc>
    1c08:	0015f593          	andi	x11,x11,1
    1c0c:	00d786b3          	add	x13,x15,x13
    1c10:	02059063          	bne	x11,x0,1c30 <_free_r+0x210>
    1c14:	ff842583          	lw	x11,-8(x8)
    1c18:	40b70733          	sub	x14,x14,x11
    1c1c:	00c72783          	lw	x15,12(x14)
    1c20:	00872603          	lw	x12,8(x14)
    1c24:	00b686b3          	add	x13,x13,x11
    1c28:	00f62623          	sw	x15,12(x12)
    1c2c:	00c7a423          	sw	x12,8(x15)
    1c30:	0016e793          	ori	x15,x13,1
    1c34:	00f72223          	sw	x15,4(x14)
    1c38:	00e52423          	sw	x14,8(x10)
    1c3c:	f101a783          	lw	x15,-240(x3) # 12ac0 <__malloc_trim_threshold>
    1c40:	eaf6eee3          	bltu	x13,x15,1afc <_free_r+0xdc>
    1c44:	f281a583          	lw	x11,-216(x3) # 12ad8 <__malloc_top_pad>
    1c48:	00048513          	addi	x10,x9,0
    1c4c:	c9dff0ef          	jal	x1,18e8 <_malloc_trim_r>
    1c50:	eadff06f          	jal	x0,1afc <_free_r+0xdc>
    1c54:	00d787b3          	add	x15,x15,x13
    1c58:	f5dff06f          	jal	x0,1bb4 <_free_r+0x194>
    1c5c:	01400613          	addi	x12,x0,20
    1c60:	02d67063          	bgeu	x12,x13,1c80 <_free_r+0x260>
    1c64:	05400613          	addi	x12,x0,84
    1c68:	06d66463          	bltu	x12,x13,1cd0 <_free_r+0x2b0>
    1c6c:	00c7d693          	srli	x13,x15,0xc
    1c70:	06f68593          	addi	x11,x13,111
    1c74:	06e68613          	addi	x12,x13,110
    1c78:	00359593          	slli	x11,x11,0x3
    1c7c:	ed5ff06f          	jal	x0,1b50 <_free_r+0x130>
    1c80:	05c68593          	addi	x11,x13,92
    1c84:	05b68613          	addi	x12,x13,91
    1c88:	00359593          	slli	x11,x11,0x3
    1c8c:	ec5ff06f          	jal	x0,1b50 <_free_r+0x130>
    1c90:	00e52a23          	sw	x14,20(x10)
    1c94:	00e52823          	sw	x14,16(x10)
    1c98:	0017e693          	ori	x13,x15,1
    1c9c:	01172623          	sw	x17,12(x14)
    1ca0:	01172423          	sw	x17,8(x14)
    1ca4:	00d72223          	sw	x13,4(x14)
    1ca8:	00f70733          	add	x14,x14,x15
    1cac:	00f72023          	sw	x15,0(x14)
    1cb0:	e4dff06f          	jal	x0,1afc <_free_r+0xdc>
    1cb4:	00452803          	lw	x16,4(x10)
    1cb8:	40265613          	srai	x12,x12,0x2
    1cbc:	00100793          	addi	x15,x0,1
    1cc0:	00c797b3          	sll	x15,x15,x12
    1cc4:	0107e7b3          	or	x15,x15,x16
    1cc8:	00f52223          	sw	x15,4(x10)
    1ccc:	eb1ff06f          	jal	x0,1b7c <_free_r+0x15c>
    1cd0:	15400613          	addi	x12,x0,340
    1cd4:	00d66c63          	bltu	x12,x13,1cec <_free_r+0x2cc>
    1cd8:	00f7d693          	srli	x13,x15,0xf
    1cdc:	07868593          	addi	x11,x13,120
    1ce0:	07768613          	addi	x12,x13,119
    1ce4:	00359593          	slli	x11,x11,0x3
    1ce8:	e69ff06f          	jal	x0,1b50 <_free_r+0x130>
    1cec:	55400613          	addi	x12,x0,1364
    1cf0:	00d66c63          	bltu	x12,x13,1d08 <_free_r+0x2e8>
    1cf4:	0127d693          	srli	x13,x15,0x12
    1cf8:	07d68593          	addi	x11,x13,125
    1cfc:	07c68613          	addi	x12,x13,124
    1d00:	00359593          	slli	x11,x11,0x3
    1d04:	e4dff06f          	jal	x0,1b50 <_free_r+0x130>
    1d08:	3f800593          	addi	x11,x0,1016
    1d0c:	07e00613          	addi	x12,x0,126
    1d10:	e41ff06f          	jal	x0,1b50 <_free_r+0x130>
    1d14:	0017e693          	ori	x13,x15,1
    1d18:	00d72223          	sw	x13,4(x14)
    1d1c:	00f62023          	sw	x15,0(x12)
    1d20:	dddff06f          	jal	x0,1afc <_free_r+0xdc>

00001d24 <_putchar_r>:
    1d24:	00852603          	lw	x12,8(x10)
    1d28:	6e00506f          	jal	x0,7408 <_putc_r>

00001d2c <putchar>:
    1d2c:	f141a783          	lw	x15,-236(x3) # 12ac4 <_impure_ptr>
    1d30:	0087a603          	lw	x12,8(x15)
    1d34:	00050593          	addi	x11,x10,0
    1d38:	00078513          	addi	x10,x15,0
    1d3c:	6cc0506f          	jal	x0,7408 <_putc_r>

00001d40 <strlen>:
    1d40:	00357793          	andi	x15,x10,3
    1d44:	00050713          	addi	x14,x10,0
    1d48:	04079c63          	bne	x15,x0,1da0 <strlen+0x60>
    1d4c:	7f7f86b7          	lui	x13,0x7f7f8
    1d50:	f7f68693          	addi	x13,x13,-129 # 7f7f7f7f <__heap_end+0x7f3f7f7f>
    1d54:	fff00593          	addi	x11,x0,-1
    1d58:	00072603          	lw	x12,0(x14)
    1d5c:	00470713          	addi	x14,x14,4
    1d60:	00d677b3          	and	x15,x12,x13
    1d64:	00d787b3          	add	x15,x15,x13
    1d68:	00c7e7b3          	or	x15,x15,x12
    1d6c:	00d7e7b3          	or	x15,x15,x13
    1d70:	feb784e3          	beq	x15,x11,1d58 <strlen+0x18>
    1d74:	ffc74683          	lbu	x13,-4(x14)
    1d78:	40a707b3          	sub	x15,x14,x10
    1d7c:	04068463          	beq	x13,x0,1dc4 <strlen+0x84>
    1d80:	ffd74683          	lbu	x13,-3(x14)
    1d84:	02068c63          	beq	x13,x0,1dbc <strlen+0x7c>
    1d88:	ffe74503          	lbu	x10,-2(x14)
    1d8c:	00a03533          	sltu	x10,x0,x10
    1d90:	00f50533          	add	x10,x10,x15
    1d94:	ffe50513          	addi	x10,x10,-2
    1d98:	00008067          	jalr	x0,0(x1)
    1d9c:	fa0688e3          	beq	x13,x0,1d4c <strlen+0xc>
    1da0:	00074783          	lbu	x15,0(x14)
    1da4:	00170713          	addi	x14,x14,1
    1da8:	00377693          	andi	x13,x14,3
    1dac:	fe0798e3          	bne	x15,x0,1d9c <strlen+0x5c>
    1db0:	40a70733          	sub	x14,x14,x10
    1db4:	fff70513          	addi	x10,x14,-1
    1db8:	00008067          	jalr	x0,0(x1)
    1dbc:	ffd78513          	addi	x10,x15,-3
    1dc0:	00008067          	jalr	x0,0(x1)
    1dc4:	ffc78513          	addi	x10,x15,-4
    1dc8:	00008067          	jalr	x0,0(x1)

00001dcc <memchr>:
    1dcc:	00357793          	andi	x15,x10,3
    1dd0:	0ff5f693          	andi	x13,x11,255
    1dd4:	02078a63          	beq	x15,x0,1e08 <memchr+0x3c>
    1dd8:	fff60793          	addi	x15,x12,-1
    1ddc:	02060e63          	beq	x12,x0,1e18 <memchr+0x4c>
    1de0:	fff00613          	addi	x12,x0,-1
    1de4:	0180006f          	jal	x0,1dfc <memchr+0x30>
    1de8:	00150513          	addi	x10,x10,1
    1dec:	00357713          	andi	x14,x10,3
    1df0:	00070e63          	beq	x14,x0,1e0c <memchr+0x40>
    1df4:	fff78793          	addi	x15,x15,-1
    1df8:	02c78063          	beq	x15,x12,1e18 <memchr+0x4c>
    1dfc:	00054703          	lbu	x14,0(x10)
    1e00:	fed714e3          	bne	x14,x13,1de8 <memchr+0x1c>
    1e04:	00008067          	jalr	x0,0(x1)
    1e08:	00060793          	addi	x15,x12,0
    1e0c:	00300713          	addi	x14,x0,3
    1e10:	00f76863          	bltu	x14,x15,1e20 <memchr+0x54>
    1e14:	06079063          	bne	x15,x0,1e74 <memchr+0xa8>
    1e18:	00000513          	addi	x10,x0,0
    1e1c:	00008067          	jalr	x0,0(x1)
    1e20:	0ff5f593          	andi	x11,x11,255
    1e24:	00859713          	slli	x14,x11,0x8
    1e28:	00b705b3          	add	x11,x14,x11
    1e2c:	01059713          	slli	x14,x11,0x10
    1e30:	feff08b7          	lui	x17,0xfeff0
    1e34:	80808837          	lui	x16,0x80808
    1e38:	00e585b3          	add	x11,x11,x14
    1e3c:	eff88893          	addi	x17,x17,-257 # fefefeff <__heap_end+0xfebefeff>
    1e40:	08080813          	addi	x16,x16,128 # 80808080 <__heap_end+0x80408080>
    1e44:	00300313          	addi	x6,x0,3
    1e48:	0100006f          	jal	x0,1e58 <memchr+0x8c>
    1e4c:	ffc78793          	addi	x15,x15,-4
    1e50:	00450513          	addi	x10,x10,4
    1e54:	fcf370e3          	bgeu	x6,x15,1e14 <memchr+0x48>
    1e58:	00052703          	lw	x14,0(x10)
    1e5c:	00e5c733          	xor	x14,x11,x14
    1e60:	01170633          	add	x12,x14,x17
    1e64:	fff74713          	xori	x14,x14,-1
    1e68:	00e67733          	and	x14,x12,x14
    1e6c:	01077733          	and	x14,x14,x16
    1e70:	fc070ee3          	beq	x14,x0,1e4c <memchr+0x80>
    1e74:	00f507b3          	add	x15,x10,x15
    1e78:	00c0006f          	jal	x0,1e84 <memchr+0xb8>
    1e7c:	00150513          	addi	x10,x10,1
    1e80:	f8a78ce3          	beq	x15,x10,1e18 <memchr+0x4c>
    1e84:	00054703          	lbu	x14,0(x10)
    1e88:	fed71ae3          	bne	x14,x13,1e7c <memchr+0xb0>
    1e8c:	00008067          	jalr	x0,0(x1)

00001e90 <memset>:
    1e90:	00f00313          	addi	x6,x0,15
    1e94:	00050713          	addi	x14,x10,0
    1e98:	02c37e63          	bgeu	x6,x12,1ed4 <memset+0x44>
    1e9c:	00f77793          	andi	x15,x14,15
    1ea0:	0a079063          	bne	x15,x0,1f40 <memset+0xb0>
    1ea4:	08059263          	bne	x11,x0,1f28 <memset+0x98>
    1ea8:	ff067693          	andi	x13,x12,-16
    1eac:	00f67613          	andi	x12,x12,15
    1eb0:	00e686b3          	add	x13,x13,x14
    1eb4:	00b72023          	sw	x11,0(x14)
    1eb8:	00b72223          	sw	x11,4(x14)
    1ebc:	00b72423          	sw	x11,8(x14)
    1ec0:	00b72623          	sw	x11,12(x14)
    1ec4:	01070713          	addi	x14,x14,16
    1ec8:	fed766e3          	bltu	x14,x13,1eb4 <memset+0x24>
    1ecc:	00061463          	bne	x12,x0,1ed4 <memset+0x44>
    1ed0:	00008067          	jalr	x0,0(x1)
    1ed4:	40c306b3          	sub	x13,x6,x12
    1ed8:	00269693          	slli	x13,x13,0x2
    1edc:	00000297          	auipc	x5,0x0
    1ee0:	005686b3          	add	x13,x13,x5
    1ee4:	00c68067          	jalr	x0,12(x13)
    1ee8:	00b70723          	sb	x11,14(x14)
    1eec:	00b706a3          	sb	x11,13(x14)
    1ef0:	00b70623          	sb	x11,12(x14)
    1ef4:	00b705a3          	sb	x11,11(x14)
    1ef8:	00b70523          	sb	x11,10(x14)
    1efc:	00b704a3          	sb	x11,9(x14)
    1f00:	00b70423          	sb	x11,8(x14)
    1f04:	00b703a3          	sb	x11,7(x14)
    1f08:	00b70323          	sb	x11,6(x14)
    1f0c:	00b702a3          	sb	x11,5(x14)
    1f10:	00b70223          	sb	x11,4(x14)
    1f14:	00b701a3          	sb	x11,3(x14)
    1f18:	00b70123          	sb	x11,2(x14)
    1f1c:	00b700a3          	sb	x11,1(x14)
    1f20:	00b70023          	sb	x11,0(x14)
    1f24:	00008067          	jalr	x0,0(x1)
    1f28:	0ff5f593          	andi	x11,x11,255
    1f2c:	00859693          	slli	x13,x11,0x8
    1f30:	00d5e5b3          	or	x11,x11,x13
    1f34:	01059693          	slli	x13,x11,0x10
    1f38:	00d5e5b3          	or	x11,x11,x13
    1f3c:	f6dff06f          	jal	x0,1ea8 <memset+0x18>
    1f40:	00279693          	slli	x13,x15,0x2
    1f44:	00000297          	auipc	x5,0x0
    1f48:	005686b3          	add	x13,x13,x5
    1f4c:	00008293          	addi	x5,x1,0
    1f50:	fa0680e7          	jalr	x1,-96(x13)
    1f54:	00028093          	addi	x1,x5,0 # 1f44 <memset+0xb4>
    1f58:	ff078793          	addi	x15,x15,-16
    1f5c:	40f70733          	sub	x14,x14,x15
    1f60:	00f60633          	add	x12,x12,x15
    1f64:	f6c378e3          	bgeu	x6,x12,1ed4 <memset+0x44>
    1f68:	f3dff06f          	jal	x0,1ea4 <memset+0x14>

00001f6c <_fwalk_sglue>:
    1f6c:	fd010113          	addi	x2,x2,-48
    1f70:	03212023          	sw	x18,32(x2)
    1f74:	01312e23          	sw	x19,28(x2)
    1f78:	01412c23          	sw	x20,24(x2)
    1f7c:	01512a23          	sw	x21,20(x2)
    1f80:	01612823          	sw	x22,16(x2)
    1f84:	01712623          	sw	x23,12(x2)
    1f88:	02112623          	sw	x1,44(x2)
    1f8c:	02812423          	sw	x8,40(x2)
    1f90:	02912223          	sw	x9,36(x2)
    1f94:	00050b13          	addi	x22,x10,0
    1f98:	00058b93          	addi	x23,x11,0
    1f9c:	00060a93          	addi	x21,x12,0
    1fa0:	00000a13          	addi	x20,x0,0
    1fa4:	00100993          	addi	x19,x0,1
    1fa8:	fff00913          	addi	x18,x0,-1
    1fac:	004aa483          	lw	x9,4(x21)
    1fb0:	008aa403          	lw	x8,8(x21)
    1fb4:	fff48493          	addi	x9,x9,-1
    1fb8:	0204c863          	blt	x9,x0,1fe8 <_fwalk_sglue+0x7c>
    1fbc:	00c45783          	lhu	x15,12(x8)
    1fc0:	00f9fe63          	bgeu	x19,x15,1fdc <_fwalk_sglue+0x70>
    1fc4:	00e41783          	lh	x15,14(x8)
    1fc8:	00040593          	addi	x11,x8,0
    1fcc:	000b0513          	addi	x10,x22,0
    1fd0:	01278663          	beq	x15,x18,1fdc <_fwalk_sglue+0x70>
    1fd4:	000b80e7          	jalr	x1,0(x23)
    1fd8:	00aa6a33          	or	x20,x20,x10
    1fdc:	fff48493          	addi	x9,x9,-1
    1fe0:	06840413          	addi	x8,x8,104
    1fe4:	fd249ce3          	bne	x9,x18,1fbc <_fwalk_sglue+0x50>
    1fe8:	000aaa83          	lw	x21,0(x21)
    1fec:	fc0a90e3          	bne	x21,x0,1fac <_fwalk_sglue+0x40>
    1ff0:	02c12083          	lw	x1,44(x2)
    1ff4:	02812403          	lw	x8,40(x2)
    1ff8:	02412483          	lw	x9,36(x2)
    1ffc:	02012903          	lw	x18,32(x2)
    2000:	01c12983          	lw	x19,28(x2)
    2004:	01412a83          	lw	x21,20(x2)
    2008:	01012b03          	lw	x22,16(x2)
    200c:	00c12b83          	lw	x23,12(x2)
    2010:	000a0513          	addi	x10,x20,0
    2014:	01812a03          	lw	x20,24(x2)
    2018:	03010113          	addi	x2,x2,48
    201c:	00008067          	jalr	x0,0(x1)

00002020 <_realloc_r>:
    2020:	fd010113          	addi	x2,x2,-48
    2024:	02912223          	sw	x9,36(x2)
    2028:	02112623          	sw	x1,44(x2)
    202c:	00060493          	addi	x9,x12,0
    2030:	1e058863          	beq	x11,x0,2220 <_realloc_r+0x200>
    2034:	02812423          	sw	x8,40(x2)
    2038:	03212023          	sw	x18,32(x2)
    203c:	00058413          	addi	x8,x11,0
    2040:	01312e23          	sw	x19,28(x2)
    2044:	01512a23          	sw	x21,20(x2)
    2048:	01412c23          	sw	x20,24(x2)
    204c:	00050913          	addi	x18,x10,0
    2050:	06d000ef          	jal	x1,28bc <__malloc_lock>
    2054:	ffc42703          	lw	x14,-4(x8)
    2058:	00b48793          	addi	x15,x9,11
    205c:	01600693          	addi	x13,x0,22
    2060:	ff840a93          	addi	x21,x8,-8
    2064:	ffc77993          	andi	x19,x14,-4
    2068:	10f6f263          	bgeu	x13,x15,216c <_realloc_r+0x14c>
    206c:	ff87fa13          	andi	x20,x15,-8
    2070:	1007c263          	blt	x15,x0,2174 <_realloc_r+0x154>
    2074:	109a6063          	bltu	x20,x9,2174 <_realloc_r+0x154>
    2078:	1349d263          	bge	x19,x20,219c <_realloc_r+0x17c>
    207c:	01812423          	sw	x24,8(x2)
    2080:	00010c17          	auipc	x24,0x10
    2084:	33cc0c13          	addi	x24,x24,828 # 123bc <__malloc_av_>
    2088:	008c2603          	lw	x12,8(x24)
    208c:	013a86b3          	add	x13,x21,x19
    2090:	0046a783          	lw	x15,4(x13)
    2094:	1cd60863          	beq	x12,x13,2264 <_realloc_r+0x244>
    2098:	ffe7f613          	andi	x12,x15,-2
    209c:	00c68633          	add	x12,x13,x12
    20a0:	00462603          	lw	x12,4(x12)
    20a4:	00167613          	andi	x12,x12,1
    20a8:	14061a63          	bne	x12,x0,21fc <_realloc_r+0x1dc>
    20ac:	ffc7f793          	andi	x15,x15,-4
    20b0:	00f98633          	add	x12,x19,x15
    20b4:	0d465863          	bge	x12,x20,2184 <_realloc_r+0x164>
    20b8:	00177713          	andi	x14,x14,1
    20bc:	02071c63          	bne	x14,x0,20f4 <_realloc_r+0xd4>
    20c0:	01712623          	sw	x23,12(x2)
    20c4:	ff842b83          	lw	x23,-8(x8)
    20c8:	01612823          	sw	x22,16(x2)
    20cc:	417a8bb3          	sub	x23,x21,x23
    20d0:	004ba703          	lw	x14,4(x23)
    20d4:	ffc77713          	andi	x14,x14,-4
    20d8:	00e787b3          	add	x15,x15,x14
    20dc:	01378b33          	add	x22,x15,x19
    20e0:	334b5c63          	bge	x22,x20,2418 <_realloc_r+0x3f8>
    20e4:	00e98b33          	add	x22,x19,x14
    20e8:	294b5863          	bge	x22,x20,2378 <_realloc_r+0x358>
    20ec:	01012b03          	lw	x22,16(x2)
    20f0:	00c12b83          	lw	x23,12(x2)
    20f4:	00048593          	addi	x11,x9,0
    20f8:	00090513          	addi	x10,x18,0
    20fc:	fcdfe0ef          	jal	x1,10c8 <_malloc_r>
    2100:	00050493          	addi	x9,x10,0
    2104:	40050863          	beq	x10,x0,2514 <_realloc_r+0x4f4>
    2108:	ffc42783          	lw	x15,-4(x8)
    210c:	ff850713          	addi	x14,x10,-8
    2110:	ffe7f793          	andi	x15,x15,-2
    2114:	00fa87b3          	add	x15,x21,x15
    2118:	24e78663          	beq	x15,x14,2364 <_realloc_r+0x344>
    211c:	ffc98613          	addi	x12,x19,-4
    2120:	02400793          	addi	x15,x0,36
    2124:	2ec7e463          	bltu	x15,x12,240c <_realloc_r+0x3ec>
    2128:	01300713          	addi	x14,x0,19
    212c:	20c76a63          	bltu	x14,x12,2340 <_realloc_r+0x320>
    2130:	00050793          	addi	x15,x10,0
    2134:	00040713          	addi	x14,x8,0
    2138:	00072683          	lw	x13,0(x14)
    213c:	00d7a023          	sw	x13,0(x15)
    2140:	00472683          	lw	x13,4(x14)
    2144:	00d7a223          	sw	x13,4(x15)
    2148:	00872703          	lw	x14,8(x14)
    214c:	00e7a423          	sw	x14,8(x15)
    2150:	00040593          	addi	x11,x8,0
    2154:	00090513          	addi	x10,x18,0
    2158:	8c9ff0ef          	jal	x1,1a20 <_free_r>
    215c:	00090513          	addi	x10,x18,0
    2160:	760000ef          	jal	x1,28c0 <__malloc_unlock>
    2164:	00812c03          	lw	x24,8(x2)
    2168:	06c0006f          	jal	x0,21d4 <_realloc_r+0x1b4>
    216c:	01000a13          	addi	x20,x0,16
    2170:	f09a74e3          	bgeu	x20,x9,2078 <_realloc_r+0x58>
    2174:	00c00793          	addi	x15,x0,12
    2178:	00f92023          	sw	x15,0(x18)
    217c:	00000493          	addi	x9,x0,0
    2180:	0540006f          	jal	x0,21d4 <_realloc_r+0x1b4>
    2184:	00c6a783          	lw	x15,12(x13)
    2188:	0086a703          	lw	x14,8(x13)
    218c:	00812c03          	lw	x24,8(x2)
    2190:	00060993          	addi	x19,x12,0
    2194:	00f72623          	sw	x15,12(x14)
    2198:	00e7a423          	sw	x14,8(x15)
    219c:	004aa783          	lw	x15,4(x21)
    21a0:	414986b3          	sub	x13,x19,x20
    21a4:	00f00613          	addi	x12,x0,15
    21a8:	0017f793          	andi	x15,x15,1
    21ac:	013a8733          	add	x14,x21,x19
    21b0:	08d66263          	bltu	x12,x13,2234 <_realloc_r+0x214>
    21b4:	0137e7b3          	or	x15,x15,x19
    21b8:	00faa223          	sw	x15,4(x21)
    21bc:	00472783          	lw	x15,4(x14)
    21c0:	0017e793          	ori	x15,x15,1
    21c4:	00f72223          	sw	x15,4(x14)
    21c8:	00090513          	addi	x10,x18,0
    21cc:	6f4000ef          	jal	x1,28c0 <__malloc_unlock>
    21d0:	00040493          	addi	x9,x8,0
    21d4:	02812403          	lw	x8,40(x2)
    21d8:	02c12083          	lw	x1,44(x2)
    21dc:	02012903          	lw	x18,32(x2)
    21e0:	01c12983          	lw	x19,28(x2)
    21e4:	01812a03          	lw	x20,24(x2)
    21e8:	01412a83          	lw	x21,20(x2)
    21ec:	00048513          	addi	x10,x9,0
    21f0:	02412483          	lw	x9,36(x2)
    21f4:	03010113          	addi	x2,x2,48
    21f8:	00008067          	jalr	x0,0(x1)
    21fc:	00177713          	andi	x14,x14,1
    2200:	ee071ae3          	bne	x14,x0,20f4 <_realloc_r+0xd4>
    2204:	01712623          	sw	x23,12(x2)
    2208:	ff842b83          	lw	x23,-8(x8)
    220c:	01612823          	sw	x22,16(x2)
    2210:	417a8bb3          	sub	x23,x21,x23
    2214:	004ba703          	lw	x14,4(x23)
    2218:	ffc77713          	andi	x14,x14,-4
    221c:	ec9ff06f          	jal	x0,20e4 <_realloc_r+0xc4>
    2220:	02c12083          	lw	x1,44(x2)
    2224:	02412483          	lw	x9,36(x2)
    2228:	00060593          	addi	x11,x12,0
    222c:	03010113          	addi	x2,x2,48
    2230:	e99fe06f          	jal	x0,10c8 <_malloc_r>
    2234:	0147e7b3          	or	x15,x15,x20
    2238:	00faa223          	sw	x15,4(x21)
    223c:	014a85b3          	add	x11,x21,x20
    2240:	0016e693          	ori	x13,x13,1
    2244:	00d5a223          	sw	x13,4(x11)
    2248:	00472783          	lw	x15,4(x14)
    224c:	00858593          	addi	x11,x11,8
    2250:	00090513          	addi	x10,x18,0
    2254:	0017e793          	ori	x15,x15,1
    2258:	00f72223          	sw	x15,4(x14)
    225c:	fc4ff0ef          	jal	x1,1a20 <_free_r>
    2260:	f69ff06f          	jal	x0,21c8 <_realloc_r+0x1a8>
    2264:	ffc7f793          	andi	x15,x15,-4
    2268:	013786b3          	add	x13,x15,x19
    226c:	010a0613          	addi	x12,x20,16
    2270:	26c6d063          	bge	x13,x12,24d0 <_realloc_r+0x4b0>
    2274:	00177713          	andi	x14,x14,1
    2278:	e6071ee3          	bne	x14,x0,20f4 <_realloc_r+0xd4>
    227c:	01712623          	sw	x23,12(x2)
    2280:	ff842b83          	lw	x23,-8(x8)
    2284:	01612823          	sw	x22,16(x2)
    2288:	417a8bb3          	sub	x23,x21,x23
    228c:	004ba703          	lw	x14,4(x23)
    2290:	ffc77713          	andi	x14,x14,-4
    2294:	00e787b3          	add	x15,x15,x14
    2298:	01378b33          	add	x22,x15,x19
    229c:	e4cb44e3          	blt	x22,x12,20e4 <_realloc_r+0xc4>
    22a0:	00cba783          	lw	x15,12(x23)
    22a4:	008ba703          	lw	x14,8(x23)
    22a8:	ffc98613          	addi	x12,x19,-4
    22ac:	02400693          	addi	x13,x0,36
    22b0:	00f72623          	sw	x15,12(x14)
    22b4:	00e7a423          	sw	x14,8(x15)
    22b8:	008b8493          	addi	x9,x23,8
    22bc:	28c6e463          	bltu	x13,x12,2544 <_realloc_r+0x524>
    22c0:	01300713          	addi	x14,x0,19
    22c4:	00048793          	addi	x15,x9,0
    22c8:	02c77263          	bgeu	x14,x12,22ec <_realloc_r+0x2cc>
    22cc:	00042703          	lw	x14,0(x8)
    22d0:	01b00793          	addi	x15,x0,27
    22d4:	00eba423          	sw	x14,8(x23)
    22d8:	00442703          	lw	x14,4(x8)
    22dc:	00eba623          	sw	x14,12(x23)
    22e0:	26c7ea63          	bltu	x15,x12,2554 <_realloc_r+0x534>
    22e4:	00840413          	addi	x8,x8,8
    22e8:	010b8793          	addi	x15,x23,16
    22ec:	00042703          	lw	x14,0(x8)
    22f0:	00e7a023          	sw	x14,0(x15)
    22f4:	00442703          	lw	x14,4(x8)
    22f8:	00e7a223          	sw	x14,4(x15)
    22fc:	00842703          	lw	x14,8(x8)
    2300:	00e7a423          	sw	x14,8(x15)
    2304:	014b8733          	add	x14,x23,x20
    2308:	414b07b3          	sub	x15,x22,x20
    230c:	00ec2423          	sw	x14,8(x24)
    2310:	0017e793          	ori	x15,x15,1
    2314:	00f72223          	sw	x15,4(x14)
    2318:	004ba783          	lw	x15,4(x23)
    231c:	00090513          	addi	x10,x18,0
    2320:	0017f793          	andi	x15,x15,1
    2324:	0147e7b3          	or	x15,x15,x20
    2328:	00fba223          	sw	x15,4(x23)
    232c:	594000ef          	jal	x1,28c0 <__malloc_unlock>
    2330:	01012b03          	lw	x22,16(x2)
    2334:	00c12b83          	lw	x23,12(x2)
    2338:	00812c03          	lw	x24,8(x2)
    233c:	e99ff06f          	jal	x0,21d4 <_realloc_r+0x1b4>
    2340:	00042683          	lw	x13,0(x8)
    2344:	01b00713          	addi	x14,x0,27
    2348:	00d52023          	sw	x13,0(x10)
    234c:	00442683          	lw	x13,4(x8)
    2350:	00d52223          	sw	x13,4(x10)
    2354:	14c76e63          	bltu	x14,x12,24b0 <_realloc_r+0x490>
    2358:	00840713          	addi	x14,x8,8
    235c:	00850793          	addi	x15,x10,8
    2360:	dd9ff06f          	jal	x0,2138 <_realloc_r+0x118>
    2364:	ffc52783          	lw	x15,-4(x10)
    2368:	00812c03          	lw	x24,8(x2)
    236c:	ffc7f793          	andi	x15,x15,-4
    2370:	00f989b3          	add	x19,x19,x15
    2374:	e29ff06f          	jal	x0,219c <_realloc_r+0x17c>
    2378:	00cba783          	lw	x15,12(x23)
    237c:	008ba703          	lw	x14,8(x23)
    2380:	ffc98613          	addi	x12,x19,-4
    2384:	02400693          	addi	x13,x0,36
    2388:	00f72623          	sw	x15,12(x14)
    238c:	00e7a423          	sw	x14,8(x15)
    2390:	008b8493          	addi	x9,x23,8
    2394:	10c6e663          	bltu	x13,x12,24a0 <_realloc_r+0x480>
    2398:	01300713          	addi	x14,x0,19
    239c:	00048793          	addi	x15,x9,0
    23a0:	02c77c63          	bgeu	x14,x12,23d8 <_realloc_r+0x3b8>
    23a4:	00042703          	lw	x14,0(x8)
    23a8:	01b00793          	addi	x15,x0,27
    23ac:	00eba423          	sw	x14,8(x23)
    23b0:	00442703          	lw	x14,4(x8)
    23b4:	00eba623          	sw	x14,12(x23)
    23b8:	14c7f863          	bgeu	x15,x12,2508 <_realloc_r+0x4e8>
    23bc:	00842783          	lw	x15,8(x8)
    23c0:	00fba823          	sw	x15,16(x23)
    23c4:	00c42783          	lw	x15,12(x8)
    23c8:	00fbaa23          	sw	x15,20(x23)
    23cc:	0ad60c63          	beq	x12,x13,2484 <_realloc_r+0x464>
    23d0:	01040413          	addi	x8,x8,16
    23d4:	018b8793          	addi	x15,x23,24
    23d8:	00042703          	lw	x14,0(x8)
    23dc:	00e7a023          	sw	x14,0(x15)
    23e0:	00442703          	lw	x14,4(x8)
    23e4:	00e7a223          	sw	x14,4(x15)
    23e8:	00842703          	lw	x14,8(x8)
    23ec:	00e7a423          	sw	x14,8(x15)
    23f0:	000b0993          	addi	x19,x22,0
    23f4:	000b8a93          	addi	x21,x23,0
    23f8:	01012b03          	lw	x22,16(x2)
    23fc:	00c12b83          	lw	x23,12(x2)
    2400:	00812c03          	lw	x24,8(x2)
    2404:	00048413          	addi	x8,x9,0
    2408:	d95ff06f          	jal	x0,219c <_realloc_r+0x17c>
    240c:	00040593          	addi	x11,x8,0
    2410:	171030ef          	jal	x1,5d80 <memmove>
    2414:	d3dff06f          	jal	x0,2150 <_realloc_r+0x130>
    2418:	00c6a783          	lw	x15,12(x13)
    241c:	0086a703          	lw	x14,8(x13)
    2420:	ffc98613          	addi	x12,x19,-4
    2424:	02400693          	addi	x13,x0,36
    2428:	00f72623          	sw	x15,12(x14)
    242c:	00e7a423          	sw	x14,8(x15)
    2430:	008ba703          	lw	x14,8(x23)
    2434:	00cba783          	lw	x15,12(x23)
    2438:	008b8493          	addi	x9,x23,8
    243c:	00f72623          	sw	x15,12(x14)
    2440:	00e7a423          	sw	x14,8(x15)
    2444:	04c6ee63          	bltu	x13,x12,24a0 <_realloc_r+0x480>
    2448:	01300713          	addi	x14,x0,19
    244c:	00048793          	addi	x15,x9,0
    2450:	f8c774e3          	bgeu	x14,x12,23d8 <_realloc_r+0x3b8>
    2454:	00042703          	lw	x14,0(x8)
    2458:	01b00793          	addi	x15,x0,27
    245c:	00eba423          	sw	x14,8(x23)
    2460:	00442703          	lw	x14,4(x8)
    2464:	00eba623          	sw	x14,12(x23)
    2468:	0ac7f063          	bgeu	x15,x12,2508 <_realloc_r+0x4e8>
    246c:	00842703          	lw	x14,8(x8)
    2470:	02400793          	addi	x15,x0,36
    2474:	00eba823          	sw	x14,16(x23)
    2478:	00c42703          	lw	x14,12(x8)
    247c:	00ebaa23          	sw	x14,20(x23)
    2480:	f4f618e3          	bne	x12,x15,23d0 <_realloc_r+0x3b0>
    2484:	01042703          	lw	x14,16(x8)
    2488:	020b8793          	addi	x15,x23,32
    248c:	01840413          	addi	x8,x8,24
    2490:	00ebac23          	sw	x14,24(x23)
    2494:	ffc42703          	lw	x14,-4(x8)
    2498:	00ebae23          	sw	x14,28(x23)
    249c:	f3dff06f          	jal	x0,23d8 <_realloc_r+0x3b8>
    24a0:	00040593          	addi	x11,x8,0
    24a4:	00048513          	addi	x10,x9,0
    24a8:	0d9030ef          	jal	x1,5d80 <memmove>
    24ac:	f45ff06f          	jal	x0,23f0 <_realloc_r+0x3d0>
    24b0:	00842703          	lw	x14,8(x8)
    24b4:	00e52423          	sw	x14,8(x10)
    24b8:	00c42703          	lw	x14,12(x8)
    24bc:	00e52623          	sw	x14,12(x10)
    24c0:	06f60463          	beq	x12,x15,2528 <_realloc_r+0x508>
    24c4:	01040713          	addi	x14,x8,16
    24c8:	01050793          	addi	x15,x10,16
    24cc:	c6dff06f          	jal	x0,2138 <_realloc_r+0x118>
    24d0:	014a8ab3          	add	x21,x21,x20
    24d4:	414687b3          	sub	x15,x13,x20
    24d8:	015c2423          	sw	x21,8(x24)
    24dc:	0017e793          	ori	x15,x15,1
    24e0:	00faa223          	sw	x15,4(x21)
    24e4:	ffc42783          	lw	x15,-4(x8)
    24e8:	00090513          	addi	x10,x18,0
    24ec:	00040493          	addi	x9,x8,0
    24f0:	0017f793          	andi	x15,x15,1
    24f4:	0147e7b3          	or	x15,x15,x20
    24f8:	fef42e23          	sw	x15,-4(x8)
    24fc:	3c4000ef          	jal	x1,28c0 <__malloc_unlock>
    2500:	00812c03          	lw	x24,8(x2)
    2504:	cd1ff06f          	jal	x0,21d4 <_realloc_r+0x1b4>
    2508:	00840413          	addi	x8,x8,8
    250c:	010b8793          	addi	x15,x23,16
    2510:	ec9ff06f          	jal	x0,23d8 <_realloc_r+0x3b8>
    2514:	00090513          	addi	x10,x18,0
    2518:	3a8000ef          	jal	x1,28c0 <__malloc_unlock>
    251c:	00000493          	addi	x9,x0,0
    2520:	00812c03          	lw	x24,8(x2)
    2524:	cb1ff06f          	jal	x0,21d4 <_realloc_r+0x1b4>
    2528:	01042683          	lw	x13,16(x8)
    252c:	01840713          	addi	x14,x8,24
    2530:	01850793          	addi	x15,x10,24
    2534:	00d52823          	sw	x13,16(x10)
    2538:	01442683          	lw	x13,20(x8)
    253c:	00d52a23          	sw	x13,20(x10)
    2540:	bf9ff06f          	jal	x0,2138 <_realloc_r+0x118>
    2544:	00040593          	addi	x11,x8,0
    2548:	00048513          	addi	x10,x9,0
    254c:	035030ef          	jal	x1,5d80 <memmove>
    2550:	db5ff06f          	jal	x0,2304 <_realloc_r+0x2e4>
    2554:	00842783          	lw	x15,8(x8)
    2558:	00fba823          	sw	x15,16(x23)
    255c:	00c42783          	lw	x15,12(x8)
    2560:	00fbaa23          	sw	x15,20(x23)
    2564:	00d60863          	beq	x12,x13,2574 <_realloc_r+0x554>
    2568:	01040413          	addi	x8,x8,16
    256c:	018b8793          	addi	x15,x23,24
    2570:	d7dff06f          	jal	x0,22ec <_realloc_r+0x2cc>
    2574:	01042703          	lw	x14,16(x8)
    2578:	020b8793          	addi	x15,x23,32
    257c:	01840413          	addi	x8,x8,24
    2580:	00ebac23          	sw	x14,24(x23)
    2584:	ffc42703          	lw	x14,-4(x8)
    2588:	00ebae23          	sw	x14,28(x23)
    258c:	d61ff06f          	jal	x0,22ec <_realloc_r+0x2cc>

00002590 <__sflush_r>:
    2590:	00c59703          	lh	x14,12(x11)
    2594:	fe010113          	addi	x2,x2,-32
    2598:	00812c23          	sw	x8,24(x2)
    259c:	01312623          	sw	x19,12(x2)
    25a0:	00112e23          	sw	x1,28(x2)
    25a4:	00877793          	andi	x15,x14,8
    25a8:	00058413          	addi	x8,x11,0
    25ac:	00050993          	addi	x19,x10,0
    25b0:	12079063          	bne	x15,x0,26d0 <__sflush_r+0x140>
    25b4:	000017b7          	lui	x15,0x1
    25b8:	80078793          	addi	x15,x15,-2048 # 800 <global_stdio_init.part.0+0x34>
    25bc:	0045a683          	lw	x13,4(x11)
    25c0:	00f767b3          	or	x15,x14,x15
    25c4:	00f59623          	sh	x15,12(x11)
    25c8:	18d05263          	bge	x0,x13,274c <__sflush_r+0x1bc>
    25cc:	02842803          	lw	x16,40(x8)
    25d0:	0e080463          	beq	x16,x0,26b8 <__sflush_r+0x128>
    25d4:	00912a23          	sw	x9,20(x2)
    25d8:	01371693          	slli	x13,x14,0x13
    25dc:	0009a483          	lw	x9,0(x19)
    25e0:	0009a023          	sw	x0,0(x19)
    25e4:	01c42583          	lw	x11,28(x8)
    25e8:	1606ce63          	blt	x13,x0,2764 <__sflush_r+0x1d4>
    25ec:	00000613          	addi	x12,x0,0
    25f0:	00100693          	addi	x13,x0,1
    25f4:	00098513          	addi	x10,x19,0
    25f8:	000800e7          	jalr	x1,0(x16)
    25fc:	fff00793          	addi	x15,x0,-1
    2600:	00050613          	addi	x12,x10,0
    2604:	1af50463          	beq	x10,x15,27ac <__sflush_r+0x21c>
    2608:	00c41783          	lh	x15,12(x8)
    260c:	02842803          	lw	x16,40(x8)
    2610:	01c42583          	lw	x11,28(x8)
    2614:	0047f793          	andi	x15,x15,4
    2618:	00078e63          	beq	x15,x0,2634 <__sflush_r+0xa4>
    261c:	00442703          	lw	x14,4(x8)
    2620:	03042783          	lw	x15,48(x8)
    2624:	40e60633          	sub	x12,x12,x14
    2628:	00078663          	beq	x15,x0,2634 <__sflush_r+0xa4>
    262c:	03c42783          	lw	x15,60(x8)
    2630:	40f60633          	sub	x12,x12,x15
    2634:	00000693          	addi	x13,x0,0
    2638:	00098513          	addi	x10,x19,0
    263c:	000800e7          	jalr	x1,0(x16)
    2640:	fff00793          	addi	x15,x0,-1
    2644:	12f51463          	bne	x10,x15,276c <__sflush_r+0x1dc>
    2648:	0009a683          	lw	x13,0(x19)
    264c:	01d00793          	addi	x15,x0,29
    2650:	00c41703          	lh	x14,12(x8)
    2654:	16d7ea63          	bltu	x15,x13,27c8 <__sflush_r+0x238>
    2658:	204007b7          	lui	x15,0x20400
    265c:	00178793          	addi	x15,x15,1 # 20400001 <__heap_end+0x20000001>
    2660:	00d7d7b3          	srl	x15,x15,x13
    2664:	0017f793          	andi	x15,x15,1
    2668:	16078063          	beq	x15,x0,27c8 <__sflush_r+0x238>
    266c:	01042603          	lw	x12,16(x8)
    2670:	fffff7b7          	lui	x15,0xfffff
    2674:	7ff78793          	addi	x15,x15,2047 # fffff7ff <__heap_end+0xffbff7ff>
    2678:	00f777b3          	and	x15,x14,x15
    267c:	00f41623          	sh	x15,12(x8)
    2680:	00042223          	sw	x0,4(x8)
    2684:	00c42023          	sw	x12,0(x8)
    2688:	01371793          	slli	x15,x14,0x13
    268c:	0007d463          	bge	x15,x0,2694 <__sflush_r+0x104>
    2690:	10068263          	beq	x13,x0,2794 <__sflush_r+0x204>
    2694:	03042583          	lw	x11,48(x8)
    2698:	0099a023          	sw	x9,0(x19)
    269c:	10058463          	beq	x11,x0,27a4 <__sflush_r+0x214>
    26a0:	04040793          	addi	x15,x8,64
    26a4:	00f58663          	beq	x11,x15,26b0 <__sflush_r+0x120>
    26a8:	00098513          	addi	x10,x19,0
    26ac:	b74ff0ef          	jal	x1,1a20 <_free_r>
    26b0:	01412483          	lw	x9,20(x2)
    26b4:	02042823          	sw	x0,48(x8)
    26b8:	00000513          	addi	x10,x0,0
    26bc:	01c12083          	lw	x1,28(x2)
    26c0:	01812403          	lw	x8,24(x2)
    26c4:	00c12983          	lw	x19,12(x2)
    26c8:	02010113          	addi	x2,x2,32
    26cc:	00008067          	jalr	x0,0(x1)
    26d0:	01212823          	sw	x18,16(x2)
    26d4:	0105a903          	lw	x18,16(x11)
    26d8:	08090263          	beq	x18,x0,275c <__sflush_r+0x1cc>
    26dc:	00912a23          	sw	x9,20(x2)
    26e0:	0005a483          	lw	x9,0(x11)
    26e4:	00377713          	andi	x14,x14,3
    26e8:	0125a023          	sw	x18,0(x11)
    26ec:	412484b3          	sub	x9,x9,x18
    26f0:	00000793          	addi	x15,x0,0
    26f4:	00071463          	bne	x14,x0,26fc <__sflush_r+0x16c>
    26f8:	0145a783          	lw	x15,20(x11)
    26fc:	00f42423          	sw	x15,8(x8)
    2700:	00904863          	blt	x0,x9,2710 <__sflush_r+0x180>
    2704:	0540006f          	jal	x0,2758 <__sflush_r+0x1c8>
    2708:	00a90933          	add	x18,x18,x10
    270c:	04905663          	bge	x0,x9,2758 <__sflush_r+0x1c8>
    2710:	02442783          	lw	x15,36(x8)
    2714:	01c42583          	lw	x11,28(x8)
    2718:	00048693          	addi	x13,x9,0
    271c:	00090613          	addi	x12,x18,0
    2720:	00098513          	addi	x10,x19,0
    2724:	000780e7          	jalr	x1,0(x15)
    2728:	40a484b3          	sub	x9,x9,x10
    272c:	fca04ee3          	blt	x0,x10,2708 <__sflush_r+0x178>
    2730:	00c41703          	lh	x14,12(x8)
    2734:	01012903          	lw	x18,16(x2)
    2738:	04076713          	ori	x14,x14,64
    273c:	01412483          	lw	x9,20(x2)
    2740:	00e41623          	sh	x14,12(x8)
    2744:	fff00513          	addi	x10,x0,-1
    2748:	f75ff06f          	jal	x0,26bc <__sflush_r+0x12c>
    274c:	03c5a683          	lw	x13,60(x11)
    2750:	e6d04ee3          	blt	x0,x13,25cc <__sflush_r+0x3c>
    2754:	f65ff06f          	jal	x0,26b8 <__sflush_r+0x128>
    2758:	01412483          	lw	x9,20(x2)
    275c:	01012903          	lw	x18,16(x2)
    2760:	f59ff06f          	jal	x0,26b8 <__sflush_r+0x128>
    2764:	05042603          	lw	x12,80(x8)
    2768:	eadff06f          	jal	x0,2614 <__sflush_r+0x84>
    276c:	00c41703          	lh	x14,12(x8)
    2770:	01042683          	lw	x13,16(x8)
    2774:	fffff7b7          	lui	x15,0xfffff
    2778:	7ff78793          	addi	x15,x15,2047 # fffff7ff <__heap_end+0xffbff7ff>
    277c:	00f777b3          	and	x15,x14,x15
    2780:	00f41623          	sh	x15,12(x8)
    2784:	00042223          	sw	x0,4(x8)
    2788:	00d42023          	sw	x13,0(x8)
    278c:	01371793          	slli	x15,x14,0x13
    2790:	f007d2e3          	bge	x15,x0,2694 <__sflush_r+0x104>
    2794:	03042583          	lw	x11,48(x8)
    2798:	04a42823          	sw	x10,80(x8)
    279c:	0099a023          	sw	x9,0(x19)
    27a0:	f00590e3          	bne	x11,x0,26a0 <__sflush_r+0x110>
    27a4:	01412483          	lw	x9,20(x2)
    27a8:	f11ff06f          	jal	x0,26b8 <__sflush_r+0x128>
    27ac:	0009a783          	lw	x15,0(x19)
    27b0:	e4078ce3          	beq	x15,x0,2608 <__sflush_r+0x78>
    27b4:	01d00713          	addi	x14,x0,29
    27b8:	00e78c63          	beq	x15,x14,27d0 <__sflush_r+0x240>
    27bc:	01600713          	addi	x14,x0,22
    27c0:	00e78863          	beq	x15,x14,27d0 <__sflush_r+0x240>
    27c4:	00c41703          	lh	x14,12(x8)
    27c8:	04076713          	ori	x14,x14,64
    27cc:	f71ff06f          	jal	x0,273c <__sflush_r+0x1ac>
    27d0:	0099a023          	sw	x9,0(x19)
    27d4:	01412483          	lw	x9,20(x2)
    27d8:	ee1ff06f          	jal	x0,26b8 <__sflush_r+0x128>

000027dc <_fflush_r>:
    27dc:	fe010113          	addi	x2,x2,-32
    27e0:	00812c23          	sw	x8,24(x2)
    27e4:	00112e23          	sw	x1,28(x2)
    27e8:	00050413          	addi	x8,x10,0
    27ec:	00050663          	beq	x10,x0,27f8 <_fflush_r+0x1c>
    27f0:	03452783          	lw	x15,52(x10)
    27f4:	02078a63          	beq	x15,x0,2828 <_fflush_r+0x4c>
    27f8:	00c59783          	lh	x15,12(x11)
    27fc:	00079c63          	bne	x15,x0,2814 <_fflush_r+0x38>
    2800:	01c12083          	lw	x1,28(x2)
    2804:	01812403          	lw	x8,24(x2)
    2808:	00000513          	addi	x10,x0,0
    280c:	02010113          	addi	x2,x2,32
    2810:	00008067          	jalr	x0,0(x1)
    2814:	00040513          	addi	x10,x8,0
    2818:	01812403          	lw	x8,24(x2)
    281c:	01c12083          	lw	x1,28(x2)
    2820:	02010113          	addi	x2,x2,32
    2824:	d6dff06f          	jal	x0,2590 <__sflush_r>
    2828:	00b12623          	sw	x11,12(x2)
    282c:	a1cfe0ef          	jal	x1,a48 <__sinit>
    2830:	00c12583          	lw	x11,12(x2)
    2834:	fc5ff06f          	jal	x0,27f8 <_fflush_r+0x1c>

00002838 <fflush>:
    2838:	06050063          	beq	x10,x0,2898 <fflush+0x60>
    283c:	00050593          	addi	x11,x10,0
    2840:	f141a503          	lw	x10,-236(x3) # 12ac4 <_impure_ptr>
    2844:	00050663          	beq	x10,x0,2850 <fflush+0x18>
    2848:	03452783          	lw	x15,52(x10)
    284c:	00078c63          	beq	x15,x0,2864 <fflush+0x2c>
    2850:	00c59783          	lh	x15,12(x11)
    2854:	00079663          	bne	x15,x0,2860 <fflush+0x28>
    2858:	00000513          	addi	x10,x0,0
    285c:	00008067          	jalr	x0,0(x1)
    2860:	d31ff06f          	jal	x0,2590 <__sflush_r>
    2864:	fe010113          	addi	x2,x2,-32
    2868:	00b12623          	sw	x11,12(x2)
    286c:	00a12423          	sw	x10,8(x2)
    2870:	00112e23          	sw	x1,28(x2)
    2874:	9d4fe0ef          	jal	x1,a48 <__sinit>
    2878:	00c12583          	lw	x11,12(x2)
    287c:	00812503          	lw	x10,8(x2)
    2880:	00c59783          	lh	x15,12(x11)
    2884:	02079663          	bne	x15,x0,28b0 <fflush+0x78>
    2888:	01c12083          	lw	x1,28(x2)
    288c:	00000513          	addi	x10,x0,0
    2890:	02010113          	addi	x2,x2,32
    2894:	00008067          	jalr	x0,0(x1)
    2898:	00010617          	auipc	x12,0x10
    289c:	b1860613          	addi	x12,x12,-1256 # 123b0 <__sglue>
    28a0:	00000597          	auipc	x11,0x0
    28a4:	f3c58593          	addi	x11,x11,-196 # 27dc <_fflush_r>
    28a8:	c1818513          	addi	x10,x3,-1000 # 127c8 <_impure_data>
    28ac:	ec0ff06f          	jal	x0,1f6c <_fwalk_sglue>
    28b0:	01c12083          	lw	x1,28(x2)
    28b4:	02010113          	addi	x2,x2,32
    28b8:	cd9ff06f          	jal	x0,2590 <__sflush_r>

000028bc <__malloc_lock>:
    28bc:	00008067          	jalr	x0,0(x1)

000028c0 <__malloc_unlock>:
    28c0:	00008067          	jalr	x0,0(x1)

000028c4 <__libc_init_array>:
    28c4:	ff010113          	addi	x2,x2,-16
    28c8:	00812423          	sw	x8,8(x2)
    28cc:	01212023          	sw	x18,0(x2)
    28d0:	00010797          	auipc	x15,0x10
    28d4:	adc78793          	addi	x15,x15,-1316 # 123ac <__init_array_start>
    28d8:	00010417          	auipc	x8,0x10
    28dc:	ad440413          	addi	x8,x8,-1324 # 123ac <__init_array_start>
    28e0:	00112623          	sw	x1,12(x2)
    28e4:	00912223          	sw	x9,4(x2)
    28e8:	40878933          	sub	x18,x15,x8
    28ec:	02878063          	beq	x15,x8,290c <__libc_init_array+0x48>
    28f0:	40295913          	srai	x18,x18,0x2
    28f4:	00000493          	addi	x9,x0,0
    28f8:	00042783          	lw	x15,0(x8)
    28fc:	00148493          	addi	x9,x9,1
    2900:	00440413          	addi	x8,x8,4
    2904:	000780e7          	jalr	x1,0(x15)
    2908:	ff24e8e3          	bltu	x9,x18,28f8 <__libc_init_array+0x34>
    290c:	00010797          	auipc	x15,0x10
    2910:	aa478793          	addi	x15,x15,-1372 # 123b0 <__sglue>
    2914:	00010417          	auipc	x8,0x10
    2918:	a9840413          	addi	x8,x8,-1384 # 123ac <__init_array_start>
    291c:	40878933          	sub	x18,x15,x8
    2920:	40295913          	srai	x18,x18,0x2
    2924:	00878e63          	beq	x15,x8,2940 <__libc_init_array+0x7c>
    2928:	00000493          	addi	x9,x0,0
    292c:	00042783          	lw	x15,0(x8)
    2930:	00148493          	addi	x9,x9,1
    2934:	00440413          	addi	x8,x8,4
    2938:	000780e7          	jalr	x1,0(x15)
    293c:	ff24e8e3          	bltu	x9,x18,292c <__libc_init_array+0x68>
    2940:	00c12083          	lw	x1,12(x2)
    2944:	00812403          	lw	x8,8(x2)
    2948:	00412483          	lw	x9,4(x2)
    294c:	00012903          	lw	x18,0(x2)
    2950:	01010113          	addi	x2,x2,16
    2954:	00008067          	jalr	x0,0(x1)

00002958 <exit>:
    2958:	ff010113          	addi	x2,x2,-16
    295c:	00000593          	addi	x11,x0,0
    2960:	00812423          	sw	x8,8(x2)
    2964:	00112623          	sw	x1,12(x2)
    2968:	00050413          	addi	x8,x10,0
    296c:	09d060ef          	jal	x1,9208 <__call_exitprocs>
    2970:	f1c1a783          	lw	x15,-228(x3) # 12acc <__stdio_exit_handler>
    2974:	00078463          	beq	x15,x0,297c <exit+0x24>
    2978:	000780e7          	jalr	x1,0(x15)
    297c:	00040513          	addi	x10,x8,0
    2980:	995fd0ef          	jal	x1,314 <_exit>

00002984 <atexit>:
    2984:	00050593          	addi	x11,x10,0
    2988:	00000693          	addi	x13,x0,0
    298c:	00000613          	addi	x12,x0,0
    2990:	00000513          	addi	x10,x0,0
    2994:	2090606f          	jal	x0,939c <__register_exitproc>

00002998 <__swsetup_r>:
    2998:	ff010113          	addi	x2,x2,-16
    299c:	00812423          	sw	x8,8(x2)
    29a0:	00912223          	sw	x9,4(x2)
    29a4:	00112623          	sw	x1,12(x2)
    29a8:	f141a783          	lw	x15,-236(x3) # 12ac4 <_impure_ptr>
    29ac:	00050493          	addi	x9,x10,0
    29b0:	00058413          	addi	x8,x11,0
    29b4:	00078663          	beq	x15,x0,29c0 <__swsetup_r+0x28>
    29b8:	0347a703          	lw	x14,52(x15)
    29bc:	0e070c63          	beq	x14,x0,2ab4 <__swsetup_r+0x11c>
    29c0:	00c41783          	lh	x15,12(x8)
    29c4:	0087f713          	andi	x14,x15,8
    29c8:	06070a63          	beq	x14,x0,2a3c <__swsetup_r+0xa4>
    29cc:	01042703          	lw	x14,16(x8)
    29d0:	08070663          	beq	x14,x0,2a5c <__swsetup_r+0xc4>
    29d4:	0017f693          	andi	x13,x15,1
    29d8:	02068863          	beq	x13,x0,2a08 <__swsetup_r+0x70>
    29dc:	01442683          	lw	x13,20(x8)
    29e0:	00042423          	sw	x0,8(x8)
    29e4:	00000513          	addi	x10,x0,0
    29e8:	40d006b3          	sub	x13,x0,x13
    29ec:	00d42c23          	sw	x13,24(x8)
    29f0:	02070a63          	beq	x14,x0,2a24 <__swsetup_r+0x8c>
    29f4:	00c12083          	lw	x1,12(x2)
    29f8:	00812403          	lw	x8,8(x2)
    29fc:	00412483          	lw	x9,4(x2)
    2a00:	01010113          	addi	x2,x2,16
    2a04:	00008067          	jalr	x0,0(x1)
    2a08:	0027f693          	andi	x13,x15,2
    2a0c:	00000613          	addi	x12,x0,0
    2a10:	00069463          	bne	x13,x0,2a18 <__swsetup_r+0x80>
    2a14:	01442603          	lw	x12,20(x8)
    2a18:	00c42423          	sw	x12,8(x8)
    2a1c:	00000513          	addi	x10,x0,0
    2a20:	fc071ae3          	bne	x14,x0,29f4 <__swsetup_r+0x5c>
    2a24:	0807f713          	andi	x14,x15,128
    2a28:	fc0706e3          	beq	x14,x0,29f4 <__swsetup_r+0x5c>
    2a2c:	0407e793          	ori	x15,x15,64
    2a30:	00f41623          	sh	x15,12(x8)
    2a34:	fff00513          	addi	x10,x0,-1
    2a38:	fbdff06f          	jal	x0,29f4 <__swsetup_r+0x5c>
    2a3c:	0107f713          	andi	x14,x15,16
    2a40:	08070063          	beq	x14,x0,2ac0 <__swsetup_r+0x128>
    2a44:	0047f713          	andi	x14,x15,4
    2a48:	02071c63          	bne	x14,x0,2a80 <__swsetup_r+0xe8>
    2a4c:	01042703          	lw	x14,16(x8)
    2a50:	0087e793          	ori	x15,x15,8
    2a54:	00f41623          	sh	x15,12(x8)
    2a58:	f6071ee3          	bne	x14,x0,29d4 <__swsetup_r+0x3c>
    2a5c:	2807f693          	andi	x13,x15,640
    2a60:	20000613          	addi	x12,x0,512
    2a64:	f6c688e3          	beq	x13,x12,29d4 <__swsetup_r+0x3c>
    2a68:	00040593          	addi	x11,x8,0
    2a6c:	00048513          	addi	x10,x9,0
    2a70:	461060ef          	jal	x1,96d0 <__smakebuf_r>
    2a74:	00c41783          	lh	x15,12(x8)
    2a78:	01042703          	lw	x14,16(x8)
    2a7c:	f59ff06f          	jal	x0,29d4 <__swsetup_r+0x3c>
    2a80:	03042583          	lw	x11,48(x8)
    2a84:	00058e63          	beq	x11,x0,2aa0 <__swsetup_r+0x108>
    2a88:	04040713          	addi	x14,x8,64
    2a8c:	00e58863          	beq	x11,x14,2a9c <__swsetup_r+0x104>
    2a90:	00048513          	addi	x10,x9,0
    2a94:	f8dfe0ef          	jal	x1,1a20 <_free_r>
    2a98:	00c41783          	lh	x15,12(x8)
    2a9c:	02042823          	sw	x0,48(x8)
    2aa0:	01042703          	lw	x14,16(x8)
    2aa4:	fdb7f793          	andi	x15,x15,-37
    2aa8:	00042223          	sw	x0,4(x8)
    2aac:	00e42023          	sw	x14,0(x8)
    2ab0:	fa1ff06f          	jal	x0,2a50 <__swsetup_r+0xb8>
    2ab4:	00078513          	addi	x10,x15,0
    2ab8:	f91fd0ef          	jal	x1,a48 <__sinit>
    2abc:	f05ff06f          	jal	x0,29c0 <__swsetup_r+0x28>
    2ac0:	00900713          	addi	x14,x0,9
    2ac4:	00e4a023          	sw	x14,0(x9)
    2ac8:	0407e793          	ori	x15,x15,64
    2acc:	00f41623          	sh	x15,12(x8)
    2ad0:	fff00513          	addi	x10,x0,-1
    2ad4:	f21ff06f          	jal	x0,29f4 <__swsetup_r+0x5c>

00002ad8 <__sread>:
    2ad8:	ff010113          	addi	x2,x2,-16
    2adc:	00812423          	sw	x8,8(x2)
    2ae0:	00058413          	addi	x8,x11,0
    2ae4:	00e59583          	lh	x11,14(x11)
    2ae8:	00112623          	sw	x1,12(x2)
    2aec:	510070ef          	jal	x1,9ffc <_read_r>
    2af0:	02054063          	blt	x10,x0,2b10 <__sread+0x38>
    2af4:	05042783          	lw	x15,80(x8)
    2af8:	00c12083          	lw	x1,12(x2)
    2afc:	00a787b3          	add	x15,x15,x10
    2b00:	04f42823          	sw	x15,80(x8)
    2b04:	00812403          	lw	x8,8(x2)
    2b08:	01010113          	addi	x2,x2,16
    2b0c:	00008067          	jalr	x0,0(x1)
    2b10:	00c45783          	lhu	x15,12(x8)
    2b14:	fffff737          	lui	x14,0xfffff
    2b18:	fff70713          	addi	x14,x14,-1 # ffffefff <__heap_end+0xffbfefff>
    2b1c:	00e7f7b3          	and	x15,x15,x14
    2b20:	00c12083          	lw	x1,12(x2)
    2b24:	00f41623          	sh	x15,12(x8)
    2b28:	00812403          	lw	x8,8(x2)
    2b2c:	01010113          	addi	x2,x2,16
    2b30:	00008067          	jalr	x0,0(x1)

00002b34 <__seofread>:
    2b34:	00000513          	addi	x10,x0,0
    2b38:	00008067          	jalr	x0,0(x1)

00002b3c <__swrite>:
    2b3c:	00c59783          	lh	x15,12(x11)
    2b40:	fe010113          	addi	x2,x2,-32
    2b44:	00812c23          	sw	x8,24(x2)
    2b48:	00912a23          	sw	x9,20(x2)
    2b4c:	01212823          	sw	x18,16(x2)
    2b50:	01312623          	sw	x19,12(x2)
    2b54:	00112e23          	sw	x1,28(x2)
    2b58:	1007f713          	andi	x14,x15,256
    2b5c:	00058413          	addi	x8,x11,0
    2b60:	00050493          	addi	x9,x10,0
    2b64:	00060913          	addi	x18,x12,0
    2b68:	00068993          	addi	x19,x13,0
    2b6c:	04071063          	bne	x14,x0,2bac <__swrite+0x70>
    2b70:	fffff737          	lui	x14,0xfffff
    2b74:	fff70713          	addi	x14,x14,-1 # ffffefff <__heap_end+0xffbfefff>
    2b78:	00e7f7b3          	and	x15,x15,x14
    2b7c:	00e41583          	lh	x11,14(x8)
    2b80:	00f41623          	sh	x15,12(x8)
    2b84:	01812403          	lw	x8,24(x2)
    2b88:	01c12083          	lw	x1,28(x2)
    2b8c:	00098693          	addi	x13,x19,0
    2b90:	00090613          	addi	x12,x18,0
    2b94:	00c12983          	lw	x19,12(x2)
    2b98:	01012903          	lw	x18,16(x2)
    2b9c:	00048513          	addi	x10,x9,0
    2ba0:	01412483          	lw	x9,20(x2)
    2ba4:	02010113          	addi	x2,x2,32
    2ba8:	7980606f          	jal	x0,9340 <_write_r>
    2bac:	00e59583          	lh	x11,14(x11)
    2bb0:	00200693          	addi	x13,x0,2
    2bb4:	00000613          	addi	x12,x0,0
    2bb8:	09c070ef          	jal	x1,9c54 <_lseek_r>
    2bbc:	00c41783          	lh	x15,12(x8)
    2bc0:	fb1ff06f          	jal	x0,2b70 <__swrite+0x34>

00002bc4 <__sseek>:
    2bc4:	ff010113          	addi	x2,x2,-16
    2bc8:	00812423          	sw	x8,8(x2)
    2bcc:	00058413          	addi	x8,x11,0
    2bd0:	00e59583          	lh	x11,14(x11)
    2bd4:	00112623          	sw	x1,12(x2)
    2bd8:	07c070ef          	jal	x1,9c54 <_lseek_r>
    2bdc:	fff00793          	addi	x15,x0,-1
    2be0:	02f50863          	beq	x10,x15,2c10 <__sseek+0x4c>
    2be4:	00c45783          	lhu	x15,12(x8)
    2be8:	00001737          	lui	x14,0x1
    2bec:	00c12083          	lw	x1,12(x2)
    2bf0:	00e7e7b3          	or	x15,x15,x14
    2bf4:	01079793          	slli	x15,x15,0x10
    2bf8:	4107d793          	srai	x15,x15,0x10
    2bfc:	04a42823          	sw	x10,80(x8)
    2c00:	00f41623          	sh	x15,12(x8)
    2c04:	00812403          	lw	x8,8(x2)
    2c08:	01010113          	addi	x2,x2,16
    2c0c:	00008067          	jalr	x0,0(x1)
    2c10:	00c45783          	lhu	x15,12(x8)
    2c14:	fffff737          	lui	x14,0xfffff
    2c18:	fff70713          	addi	x14,x14,-1 # ffffefff <__heap_end+0xffbfefff>
    2c1c:	00e7f7b3          	and	x15,x15,x14
    2c20:	01079793          	slli	x15,x15,0x10
    2c24:	4107d793          	srai	x15,x15,0x10
    2c28:	00c12083          	lw	x1,12(x2)
    2c2c:	00f41623          	sh	x15,12(x8)
    2c30:	00812403          	lw	x8,8(x2)
    2c34:	01010113          	addi	x2,x2,16
    2c38:	00008067          	jalr	x0,0(x1)

00002c3c <__sclose>:
    2c3c:	00e59583          	lh	x11,14(x11)
    2c40:	7f40606f          	jal	x0,9434 <_close_r>

00002c44 <_vfprintf_r>:
    2c44:	e3010113          	addi	x2,x2,-464
    2c48:	1c112623          	sw	x1,460(x2)
    2c4c:	1c812423          	sw	x8,456(x2)
    2c50:	1d212023          	sw	x18,448(x2)
    2c54:	00b12023          	sw	x11,0(x2)
    2c58:	00060913          	addi	x18,x12,0
    2c5c:	00d12623          	sw	x13,12(x2)
    2c60:	00050413          	addi	x8,x10,0
    2c64:	02a12023          	sw	x10,32(x2)
    2c68:	384070ef          	jal	x1,9fec <_localeconv_r>
    2c6c:	00052703          	lw	x14,0(x10)
    2c70:	00070513          	addi	x10,x14,0
    2c74:	02e12423          	sw	x14,40(x2)
    2c78:	8c8ff0ef          	jal	x1,1d40 <strlen>
    2c7c:	02a12223          	sw	x10,36(x2)
    2c80:	0c012823          	sw	x0,208(x2)
    2c84:	0c012a23          	sw	x0,212(x2)
    2c88:	0c012c23          	sw	x0,216(x2)
    2c8c:	0c012e23          	sw	x0,220(x2)
    2c90:	00040863          	beq	x8,x0,2ca0 <_vfprintf_r+0x5c>
    2c94:	03442703          	lw	x14,52(x8)
    2c98:	00071463          	bne	x14,x0,2ca0 <_vfprintf_r+0x5c>
    2c9c:	2010106f          	jal	x0,469c <_vfprintf_r+0x1a58>
    2ca0:	00012783          	lw	x15,0(x2)
    2ca4:	00c79703          	lh	x14,12(x15)
    2ca8:	01271693          	slli	x13,x14,0x12
    2cac:	0206c663          	blt	x13,x0,2cd8 <_vfprintf_r+0x94>
    2cb0:	0647a683          	lw	x13,100(x15)
    2cb4:	000025b7          	lui	x11,0x2
    2cb8:	ffffe637          	lui	x12,0xffffe
    2cbc:	00b76733          	or	x14,x14,x11
    2cc0:	fff60613          	addi	x12,x12,-1 # ffffdfff <__heap_end+0xffbfdfff>
    2cc4:	01071713          	slli	x14,x14,0x10
    2cc8:	41075713          	srai	x14,x14,0x10
    2ccc:	00c6f6b3          	and	x13,x13,x12
    2cd0:	00e79623          	sh	x14,12(x15)
    2cd4:	06d7a223          	sw	x13,100(x15)
    2cd8:	00877693          	andi	x13,x14,8
    2cdc:	30068a63          	beq	x13,x0,2ff0 <_vfprintf_r+0x3ac>
    2ce0:	00012783          	lw	x15,0(x2)
    2ce4:	0107a683          	lw	x13,16(x15)
    2ce8:	30068463          	beq	x13,x0,2ff0 <_vfprintf_r+0x3ac>
    2cec:	01a77713          	andi	x14,x14,26
    2cf0:	00a00693          	addi	x13,x0,10
    2cf4:	32d70263          	beq	x14,x13,3018 <_vfprintf_r+0x3d4>
    2cf8:	1c912223          	sw	x9,452(x2)
    2cfc:	1b512a23          	sw	x21,436(x2)
    2d00:	1b812423          	sw	x24,424(x2)
    2d04:	1ba12023          	sw	x26,416(x2)
    2d08:	1b312e23          	sw	x19,444(x2)
    2d0c:	1b412c23          	sw	x20,440(x2)
    2d10:	1b612823          	sw	x22,432(x2)
    2d14:	1b712623          	sw	x23,428(x2)
    2d18:	1b912223          	sw	x25,420(x2)
    2d1c:	19b12e23          	sw	x27,412(x2)
    2d20:	00090d13          	addi	x26,x18,0
    2d24:	000d4703          	lbu	x14,0(x26)
    2d28:	0ec10c13          	addi	x24,x2,236
    2d2c:	0d812223          	sw	x24,196(x2)
    2d30:	0c012623          	sw	x0,204(x2)
    2d34:	0c012423          	sw	x0,200(x2)
    2d38:	00012823          	sw	x0,16(x2)
    2d3c:	02012623          	sw	x0,44(x2)
    2d40:	02012c23          	sw	x0,56(x2)
    2d44:	02012a23          	sw	x0,52(x2)
    2d48:	04012223          	sw	x0,68(x2)
    2d4c:	02012e23          	sw	x0,60(x2)
    2d50:	00012223          	sw	x0,4(x2)
    2d54:	02012a83          	lw	x21,32(x2)
    2d58:	01000413          	addi	x8,x0,16
    2d5c:	000c0493          	addi	x9,x24,0
    2d60:	22070863          	beq	x14,x0,2f90 <_vfprintf_r+0x34c>
    2d64:	000d0993          	addi	x19,x26,0
    2d68:	02500693          	addi	x13,x0,37
    2d6c:	32d70263          	beq	x14,x13,3090 <_vfprintf_r+0x44c>
    2d70:	0019c703          	lbu	x14,1(x19)
    2d74:	00198993          	addi	x19,x19,1
    2d78:	fe071ae3          	bne	x14,x0,2d6c <_vfprintf_r+0x128>
    2d7c:	41a98933          	sub	x18,x19,x26
    2d80:	21a98863          	beq	x19,x26,2f90 <_vfprintf_r+0x34c>
    2d84:	0cc12683          	lw	x13,204(x2)
    2d88:	0c812703          	lw	x14,200(x2)
    2d8c:	01a4a023          	sw	x26,0(x9)
    2d90:	012686b3          	add	x13,x13,x18
    2d94:	00170713          	addi	x14,x14,1
    2d98:	0124a223          	sw	x18,4(x9)
    2d9c:	0cd12623          	sw	x13,204(x2)
    2da0:	0ce12423          	sw	x14,200(x2)
    2da4:	00700693          	addi	x13,x0,7
    2da8:	00848493          	addi	x9,x9,8
    2dac:	2ee6ca63          	blt	x13,x14,30a0 <_vfprintf_r+0x45c>
    2db0:	00412783          	lw	x15,4(x2)
    2db4:	0009c703          	lbu	x14,0(x19)
    2db8:	012787b3          	add	x15,x15,x18
    2dbc:	00f12223          	sw	x15,4(x2)
    2dc0:	1c070863          	beq	x14,x0,2f90 <_vfprintf_r+0x34c>
    2dc4:	00000e13          	addi	x28,x0,0
    2dc8:	0019c883          	lbu	x17,1(x19)
    2dcc:	0a0103a3          	sb	x0,167(x2)
    2dd0:	00198993          	addi	x19,x19,1
    2dd4:	fff00a13          	addi	x20,x0,-1
    2dd8:	00000c93          	addi	x25,x0,0
    2ddc:	05a00913          	addi	x18,x0,90
    2de0:	000e0b13          	addi	x22,x28,0
    2de4:	00198993          	addi	x19,x19,1
    2de8:	fe088793          	addi	x15,x17,-32
    2dec:	04f96a63          	bltu	x18,x15,2e40 <_vfprintf_r+0x1fc>
    2df0:	0000f717          	auipc	x14,0xf
    2df4:	e2070713          	addi	x14,x14,-480 # 11c10 <no_exception_handler_msg+0xb4>
    2df8:	00279793          	slli	x15,x15,0x2
    2dfc:	00e787b3          	add	x15,x15,x14
    2e00:	0007a783          	lw	x15,0(x15)
    2e04:	00e787b3          	add	x15,x15,x14
    2e08:	00078067          	jalr	x0,0(x15)
    2e0c:	00000c93          	addi	x25,x0,0
    2e10:	fd088793          	addi	x15,x17,-48
    2e14:	00900693          	addi	x13,x0,9
    2e18:	0009c883          	lbu	x17,0(x19)
    2e1c:	002c9713          	slli	x14,x25,0x2
    2e20:	01970cb3          	add	x25,x14,x25
    2e24:	001c9c93          	slli	x25,x25,0x1
    2e28:	01978cb3          	add	x25,x15,x25
    2e2c:	fd088793          	addi	x15,x17,-48
    2e30:	00198993          	addi	x19,x19,1
    2e34:	fef6f2e3          	bgeu	x13,x15,2e18 <_vfprintf_r+0x1d4>
    2e38:	fe088793          	addi	x15,x17,-32
    2e3c:	faf97ae3          	bgeu	x18,x15,2df0 <_vfprintf_r+0x1ac>
    2e40:	000b0e13          	addi	x28,x22,0
    2e44:	14088663          	beq	x17,x0,2f90 <_vfprintf_r+0x34c>
    2e48:	13110623          	sb	x17,300(x2)
    2e4c:	0a0103a3          	sb	x0,167(x2)
    2e50:	00100d93          	addi	x27,x0,1
    2e54:	00100913          	addi	x18,x0,1
    2e58:	12c10d13          	addi	x26,x2,300
    2e5c:	00012423          	sw	x0,8(x2)
    2e60:	00000a13          	addi	x20,x0,0
    2e64:	00012e23          	sw	x0,28(x2)
    2e68:	00012c23          	sw	x0,24(x2)
    2e6c:	00012a23          	sw	x0,20(x2)
    2e70:	002e7293          	andi	x5,x28,2
    2e74:	00028463          	beq	x5,x0,2e7c <_vfprintf_r+0x238>
    2e78:	002d8d93          	addi	x27,x27,2
    2e7c:	084e7f93          	andi	x31,x28,132
    2e80:	0cc12603          	lw	x12,204(x2)
    2e84:	000f9663          	bne	x31,x0,2e90 <_vfprintf_r+0x24c>
    2e88:	41bc8733          	sub	x14,x25,x27
    2e8c:	42e042e3          	blt	x0,x14,3ab0 <_vfprintf_r+0xe6c>
    2e90:	0a714703          	lbu	x14,167(x2)
    2e94:	02070a63          	beq	x14,x0,2ec8 <_vfprintf_r+0x284>
    2e98:	0c812703          	lw	x14,200(x2)
    2e9c:	0a710593          	addi	x11,x2,167
    2ea0:	00b4a023          	sw	x11,0(x9)
    2ea4:	00160613          	addi	x12,x12,1
    2ea8:	00100593          	addi	x11,x0,1
    2eac:	00170713          	addi	x14,x14,1
    2eb0:	00b4a223          	sw	x11,4(x9)
    2eb4:	0cc12623          	sw	x12,204(x2)
    2eb8:	0ce12423          	sw	x14,200(x2)
    2ebc:	00700593          	addi	x11,x0,7
    2ec0:	00848493          	addi	x9,x9,8
    2ec4:	30e5c263          	blt	x11,x14,31c8 <_vfprintf_r+0x584>
    2ec8:	02028a63          	beq	x5,x0,2efc <_vfprintf_r+0x2b8>
    2ecc:	0c812703          	lw	x14,200(x2)
    2ed0:	00200593          	addi	x11,x0,2
    2ed4:	00260613          	addi	x12,x12,2
    2ed8:	00170713          	addi	x14,x14,1
    2edc:	0a810793          	addi	x15,x2,168
    2ee0:	00b4a223          	sw	x11,4(x9)
    2ee4:	00f4a023          	sw	x15,0(x9)
    2ee8:	0cc12623          	sw	x12,204(x2)
    2eec:	0ce12423          	sw	x14,200(x2)
    2ef0:	00700593          	addi	x11,x0,7
    2ef4:	00848493          	addi	x9,x9,8
    2ef8:	4ce5cee3          	blt	x11,x14,3bd4 <_vfprintf_r+0xf90>
    2efc:	08000713          	addi	x14,x0,128
    2f00:	18ef8ce3          	beq	x31,x14,3898 <_vfprintf_r+0xc54>
    2f04:	412a0a33          	sub	x20,x20,x18
    2f08:	29404ae3          	blt	x0,x20,399c <_vfprintf_r+0xd58>
    2f0c:	100e7713          	andi	x14,x28,256
    2f10:	76071863          	bne	x14,x0,3680 <_vfprintf_r+0xa3c>
    2f14:	0c812783          	lw	x15,200(x2)
    2f18:	01260633          	add	x12,x12,x18
    2f1c:	01a4a023          	sw	x26,0(x9)
    2f20:	00178793          	addi	x15,x15,1
    2f24:	0124a223          	sw	x18,4(x9)
    2f28:	0cc12623          	sw	x12,204(x2)
    2f2c:	0cf12423          	sw	x15,200(x2)
    2f30:	00700713          	addi	x14,x0,7
    2f34:	3ef74263          	blt	x14,x15,3318 <_vfprintf_r+0x6d4>
    2f38:	00848493          	addi	x9,x9,8
    2f3c:	004e7e13          	andi	x28,x28,4
    2f40:	000e0663          	beq	x28,x0,2f4c <_vfprintf_r+0x308>
    2f44:	41bc8933          	sub	x18,x25,x27
    2f48:	4d2042e3          	blt	x0,x18,3c0c <_vfprintf_r+0xfc8>
    2f4c:	000c8313          	addi	x6,x25,0
    2f50:	01bcd463          	bge	x25,x27,2f58 <_vfprintf_r+0x314>
    2f54:	000d8313          	addi	x6,x27,0
    2f58:	00412783          	lw	x15,4(x2)
    2f5c:	006787b3          	add	x15,x15,x6
    2f60:	00f12223          	sw	x15,4(x2)
    2f64:	320612e3          	bne	x12,x0,3a88 <_vfprintf_r+0xe44>
    2f68:	00812783          	lw	x15,8(x2)
    2f6c:	0c012423          	sw	x0,200(x2)
    2f70:	00078863          	beq	x15,x0,2f80 <_vfprintf_r+0x33c>
    2f74:	00812583          	lw	x11,8(x2)
    2f78:	000a8513          	addi	x10,x21,0
    2f7c:	aa5fe0ef          	jal	x1,1a20 <_free_r>
    2f80:	000c0493          	addi	x9,x24,0
    2f84:	00098d13          	addi	x26,x19,0
    2f88:	000d4703          	lbu	x14,0(x26)
    2f8c:	dc071ce3          	bne	x14,x0,2d64 <_vfprintf_r+0x120>
    2f90:	0cc12783          	lw	x15,204(x2)
    2f94:	00078463          	beq	x15,x0,2f9c <_vfprintf_r+0x358>
    2f98:	4a90106f          	jal	x0,4c40 <_vfprintf_r+0x1ffc>
    2f9c:	00012783          	lw	x15,0(x2)
    2fa0:	1c412483          	lw	x9,452(x2)
    2fa4:	1bc12983          	lw	x19,444(x2)
    2fa8:	00c7d783          	lhu	x15,12(x15)
    2fac:	1b812a03          	lw	x20,440(x2)
    2fb0:	1b412a83          	lw	x21,436(x2)
    2fb4:	0407f793          	andi	x15,x15,64
    2fb8:	1b012b03          	lw	x22,432(x2)
    2fbc:	1ac12b83          	lw	x23,428(x2)
    2fc0:	1a812c03          	lw	x24,424(x2)
    2fc4:	1a412c83          	lw	x25,420(x2)
    2fc8:	1a012d03          	lw	x26,416(x2)
    2fcc:	19c12d83          	lw	x27,412(x2)
    2fd0:	00078463          	beq	x15,x0,2fd8 <_vfprintf_r+0x394>
    2fd4:	4000206f          	jal	x0,53d4 <_vfprintf_r+0x2790>
    2fd8:	1cc12083          	lw	x1,460(x2)
    2fdc:	1c812403          	lw	x8,456(x2)
    2fe0:	00412503          	lw	x10,4(x2)
    2fe4:	1c012903          	lw	x18,448(x2)
    2fe8:	1d010113          	addi	x2,x2,464
    2fec:	00008067          	jalr	x0,0(x1)
    2ff0:	00012583          	lw	x11,0(x2)
    2ff4:	02012503          	lw	x10,32(x2)
    2ff8:	9a1ff0ef          	jal	x1,2998 <__swsetup_r>
    2ffc:	00050463          	beq	x10,x0,3004 <_vfprintf_r+0x3c0>
    3000:	3d40206f          	jal	x0,53d4 <_vfprintf_r+0x2790>
    3004:	00012783          	lw	x15,0(x2)
    3008:	00a00693          	addi	x13,x0,10
    300c:	00c79703          	lh	x14,12(x15)
    3010:	01a77713          	andi	x14,x14,26
    3014:	ced712e3          	bne	x14,x13,2cf8 <_vfprintf_r+0xb4>
    3018:	00012783          	lw	x15,0(x2)
    301c:	00e79703          	lh	x14,14(x15)
    3020:	cc074ce3          	blt	x14,x0,2cf8 <_vfprintf_r+0xb4>
    3024:	00c12683          	lw	x13,12(x2)
    3028:	02012503          	lw	x10,32(x2)
    302c:	00090613          	addi	x12,x18,0
    3030:	00078593          	addi	x11,x15,0
    3034:	6dc020ef          	jal	x1,5710 <__sbprintf>
    3038:	00a12223          	sw	x10,4(x2)
    303c:	f9dff06f          	jal	x0,2fd8 <_vfprintf_r+0x394>
    3040:	000a8513          	addi	x10,x21,0
    3044:	7a9060ef          	jal	x1,9fec <_localeconv_r>
    3048:	00452783          	lw	x15,4(x10)
    304c:	00078513          	addi	x10,x15,0
    3050:	02f12e23          	sw	x15,60(x2)
    3054:	cedfe0ef          	jal	x1,1d40 <strlen>
    3058:	00050793          	addi	x15,x10,0
    305c:	000a8513          	addi	x10,x21,0
    3060:	00078b93          	addi	x23,x15,0
    3064:	04f12223          	sw	x15,68(x2)
    3068:	785060ef          	jal	x1,9fec <_localeconv_r>
    306c:	00852703          	lw	x14,8(x10)
    3070:	02e12a23          	sw	x14,52(x2)
    3074:	000b8463          	beq	x23,x0,307c <_vfprintf_r+0x438>
    3078:	0080106f          	jal	x0,4080 <_vfprintf_r+0x143c>
    307c:	0009c883          	lbu	x17,0(x19)
    3080:	d65ff06f          	jal	x0,2de4 <_vfprintf_r+0x1a0>
    3084:	0009c883          	lbu	x17,0(x19)
    3088:	020b6b13          	ori	x22,x22,32
    308c:	d59ff06f          	jal	x0,2de4 <_vfprintf_r+0x1a0>
    3090:	41a98933          	sub	x18,x19,x26
    3094:	cfa998e3          	bne	x19,x26,2d84 <_vfprintf_r+0x140>
    3098:	0009c703          	lbu	x14,0(x19)
    309c:	d25ff06f          	jal	x0,2dc0 <_vfprintf_r+0x17c>
    30a0:	00012583          	lw	x11,0(x2)
    30a4:	0c410613          	addi	x12,x2,196
    30a8:	000a8513          	addi	x10,x21,0
    30ac:	705020ef          	jal	x1,5fb0 <__sprint_r>
    30b0:	ee0516e3          	bne	x10,x0,2f9c <_vfprintf_r+0x358>
    30b4:	000c0493          	addi	x9,x24,0
    30b8:	cf9ff06f          	jal	x0,2db0 <_vfprintf_r+0x16c>
    30bc:	008b7713          	andi	x14,x22,8
    30c0:	000b0e13          	addi	x28,x22,0
    30c4:	740704e3          	beq	x14,x0,400c <_vfprintf_r+0x13c8>
    30c8:	00c12783          	lw	x15,12(x2)
    30cc:	0007a703          	lw	x14,0(x15)
    30d0:	00478793          	addi	x15,x15,4
    30d4:	00f12623          	sw	x15,12(x2)
    30d8:	00072583          	lw	x11,0(x14)
    30dc:	00472603          	lw	x12,4(x14)
    30e0:	00872683          	lw	x13,8(x14)
    30e4:	00c72703          	lw	x14,12(x14)
    30e8:	0d010513          	addi	x10,x2,208
    30ec:	01c12a23          	sw	x28,20(x2)
    30f0:	01112423          	sw	x17,8(x2)
    30f4:	0ce12e23          	sw	x14,220(x2)
    30f8:	0cb12823          	sw	x11,208(x2)
    30fc:	0cc12a23          	sw	x12,212(x2)
    3100:	0cd12c23          	sw	x13,216(x2)
    3104:	1b9020ef          	jal	x1,5abc <_ldcheck>
    3108:	0aa12623          	sw	x10,172(x2)
    310c:	00200713          	addi	x14,x0,2
    3110:	00812883          	lw	x17,8(x2)
    3114:	01412e03          	lw	x28,20(x2)
    3118:	00e51463          	bne	x10,x14,3120 <_vfprintf_r+0x4dc>
    311c:	5cc0106f          	jal	x0,46e8 <_vfprintf_r+0x1aa4>
    3120:	00100713          	addi	x14,x0,1
    3124:	00e51463          	bne	x10,x14,312c <_vfprintf_r+0x4e8>
    3128:	7300106f          	jal	x0,4858 <_vfprintf_r+0x1c14>
    312c:	06100713          	addi	x14,x0,97
    3130:	00e89463          	bne	x17,x14,3138 <_vfprintf_r+0x4f4>
    3134:	14c0106f          	jal	x0,4280 <_vfprintf_r+0x163c>
    3138:	04100713          	addi	x14,x0,65
    313c:	05800793          	addi	x15,x0,88
    3140:	00e89463          	bne	x17,x14,3148 <_vfprintf_r+0x504>
    3144:	1400106f          	jal	x0,4284 <_vfprintf_r+0x1640>
    3148:	fff00713          	addi	x14,x0,-1
    314c:	00ea1463          	bne	x20,x14,3154 <_vfprintf_r+0x510>
    3150:	3a00206f          	jal	x0,54f0 <_vfprintf_r+0x28ac>
    3154:	fdf8f713          	andi	x14,x17,-33
    3158:	04700693          	addi	x13,x0,71
    315c:	00012423          	sw	x0,8(x2)
    3160:	00d71663          	bne	x14,x13,316c <_vfprintf_r+0x528>
    3164:	000a1463          	bne	x20,x0,316c <_vfprintf_r+0x528>
    3168:	00100a13          	addi	x20,x0,1
    316c:	0dc12e83          	lw	x29,220(x2)
    3170:	100e6793          	ori	x15,x28,256
    3174:	04f12023          	sw	x15,64(x2)
    3178:	02012823          	sw	x0,48(x2)
    317c:	0d012f03          	lw	x30,208(x2)
    3180:	0d412f83          	lw	x31,212(x2)
    3184:	0d812283          	lw	x5,216(x2)
    3188:	000eda63          	bge	x29,x0,319c <_vfprintf_r+0x558>
    318c:	80000737          	lui	x14,0x80000
    3190:	02d00793          	addi	x15,x0,45
    3194:	01d74eb3          	xor	x29,x14,x29
    3198:	02f12823          	sw	x15,48(x2)
    319c:	fbf88713          	addi	x14,x17,-65
    31a0:	02500693          	addi	x13,x0,37
    31a4:	00e6f463          	bgeu	x13,x14,31ac <_vfprintf_r+0x568>
    31a8:	1300106f          	jal	x0,42d8 <_vfprintf_r+0x1694>
    31ac:	0000f697          	auipc	x13,0xf
    31b0:	bd068693          	addi	x13,x13,-1072 # 11d7c <no_exception_handler_msg+0x220>
    31b4:	00271713          	slli	x14,x14,0x2
    31b8:	00d70733          	add	x14,x14,x13
    31bc:	00072703          	lw	x14,0(x14) # 80000000 <__heap_end+0x7fc00000>
    31c0:	00d70733          	add	x14,x14,x13
    31c4:	00070067          	jalr	x0,0(x14)
    31c8:	00012583          	lw	x11,0(x2)
    31cc:	0c410613          	addi	x12,x2,196
    31d0:	000a8513          	addi	x10,x21,0
    31d4:	05c12623          	sw	x28,76(x2)
    31d8:	05112423          	sw	x17,72(x2)
    31dc:	05f12023          	sw	x31,64(x2)
    31e0:	02512823          	sw	x5,48(x2)
    31e4:	5cd020ef          	jal	x1,5fb0 <__sprint_r>
    31e8:	0a051ae3          	bne	x10,x0,3a9c <_vfprintf_r+0xe58>
    31ec:	0cc12603          	lw	x12,204(x2)
    31f0:	04c12e03          	lw	x28,76(x2)
    31f4:	04812883          	lw	x17,72(x2)
    31f8:	04012f83          	lw	x31,64(x2)
    31fc:	03012283          	lw	x5,48(x2)
    3200:	000c0493          	addi	x9,x24,0
    3204:	cc5ff06f          	jal	x0,2ec8 <_vfprintf_r+0x284>
    3208:	0c812903          	lw	x18,200(x2)
    320c:	01012783          	lw	x15,16(x2)
    3210:	00100713          	addi	x14,x0,1
    3214:	01a4a023          	sw	x26,0(x9)
    3218:	00160b93          	addi	x23,x12,1
    321c:	00190913          	addi	x18,x18,1
    3220:	00848a13          	addi	x20,x9,8
    3224:	3ef754e3          	bge	x14,x15,3e0c <_vfprintf_r+0x11c8>
    3228:	00100713          	addi	x14,x0,1
    322c:	00e4a223          	sw	x14,4(x9)
    3230:	0d712623          	sw	x23,204(x2)
    3234:	0d212423          	sw	x18,200(x2)
    3238:	00700713          	addi	x14,x0,7
    323c:	01275463          	bge	x14,x18,3244 <_vfprintf_r+0x600>
    3240:	2680106f          	jal	x0,44a8 <_vfprintf_r+0x1864>
    3244:	02412783          	lw	x15,36(x2)
    3248:	02812703          	lw	x14,40(x2)
    324c:	00190913          	addi	x18,x18,1
    3250:	00fb8bb3          	add	x23,x23,x15
    3254:	00ea2023          	sw	x14,0(x20)
    3258:	00fa2223          	sw	x15,4(x20)
    325c:	0d712623          	sw	x23,204(x2)
    3260:	0d212423          	sw	x18,200(x2)
    3264:	00700713          	addi	x14,x0,7
    3268:	008a0a13          	addi	x20,x20,8
    326c:	01275463          	bge	x14,x18,3274 <_vfprintf_r+0x630>
    3270:	2640106f          	jal	x0,44d4 <_vfprintf_r+0x1890>
    3274:	0d012703          	lw	x14,208(x2)
    3278:	01012783          	lw	x15,16(x2)
    327c:	08010593          	addi	x11,x2,128
    3280:	08e12823          	sw	x14,144(x2)
    3284:	0d412703          	lw	x14,212(x2)
    3288:	09010513          	addi	x10,x2,144
    328c:	01c12a23          	sw	x28,20(x2)
    3290:	08e12a23          	sw	x14,148(x2)
    3294:	0d812703          	lw	x14,216(x2)
    3298:	08012023          	sw	x0,128(x2)
    329c:	08012223          	sw	x0,132(x2)
    32a0:	08e12c23          	sw	x14,152(x2)
    32a4:	0dc12703          	lw	x14,220(x2)
    32a8:	08012423          	sw	x0,136(x2)
    32ac:	08012623          	sw	x0,140(x2)
    32b0:	08e12e23          	sw	x14,156(x2)
    32b4:	fff78493          	addi	x9,x15,-1
    32b8:	1680b0ef          	jal	x1,e420 <__eqtf2>
    32bc:	01412e03          	lw	x28,20(x2)
    32c0:	38050ae3          	beq	x10,x0,3e54 <_vfprintf_r+0x1210>
    32c4:	001d0793          	addi	x15,x26,1
    32c8:	00190913          	addi	x18,x18,1
    32cc:	009b8bb3          	add	x23,x23,x9
    32d0:	00fa2023          	sw	x15,0(x20)
    32d4:	009a2223          	sw	x9,4(x20)
    32d8:	0d712623          	sw	x23,204(x2)
    32dc:	0d212423          	sw	x18,200(x2)
    32e0:	00700793          	addi	x15,x0,7
    32e4:	008a0a13          	addi	x20,x20,8
    32e8:	3527c0e3          	blt	x15,x18,3e28 <_vfprintf_r+0x11e4>
    32ec:	03812683          	lw	x13,56(x2)
    32f0:	0b410713          	addi	x14,x2,180
    32f4:	00190793          	addi	x15,x18,1
    32f8:	01768633          	add	x12,x13,x23
    32fc:	00ea2023          	sw	x14,0(x20)
    3300:	00da2223          	sw	x13,4(x20)
    3304:	0cc12623          	sw	x12,204(x2)
    3308:	0cf12423          	sw	x15,200(x2)
    330c:	00700713          	addi	x14,x0,7
    3310:	008a0493          	addi	x9,x20,8
    3314:	c2f754e3          	bge	x14,x15,2f3c <_vfprintf_r+0x2f8>
    3318:	00012583          	lw	x11,0(x2)
    331c:	0c410613          	addi	x12,x2,196
    3320:	000a8513          	addi	x10,x21,0
    3324:	01c12a23          	sw	x28,20(x2)
    3328:	489020ef          	jal	x1,5fb0 <__sprint_r>
    332c:	76051863          	bne	x10,x0,3a9c <_vfprintf_r+0xe58>
    3330:	0cc12603          	lw	x12,204(x2)
    3334:	01412e03          	lw	x28,20(x2)
    3338:	000c0493          	addi	x9,x24,0
    333c:	c01ff06f          	jal	x0,2f3c <_vfprintf_r+0x2f8>
    3340:	00c12703          	lw	x14,12(x2)
    3344:	000b0e13          	addi	x28,x22,0
    3348:	0a0103a3          	sb	x0,167(x2)
    334c:	00072783          	lw	x15,0(x14)
    3350:	00470713          	addi	x14,x14,4
    3354:	00e12623          	sw	x14,12(x2)
    3358:	12f10623          	sb	x15,300(x2)
    335c:	00100d93          	addi	x27,x0,1
    3360:	00100913          	addi	x18,x0,1
    3364:	12c10d13          	addi	x26,x2,300
    3368:	af5ff06f          	jal	x0,2e5c <_vfprintf_r+0x218>
    336c:	00c12783          	lw	x15,12(x2)
    3370:	0a0103a3          	sb	x0,167(x2)
    3374:	000b0e13          	addi	x28,x22,0
    3378:	0007ad03          	lw	x26,0(x15)
    337c:	00478b93          	addi	x23,x15,4
    3380:	600d04e3          	beq	x26,x0,4188 <_vfprintf_r+0x1544>
    3384:	000a5463          	bge	x20,x0,338c <_vfprintf_r+0x748>
    3388:	4800106f          	jal	x0,4808 <_vfprintf_r+0x1bc4>
    338c:	000a0613          	addi	x12,x20,0
    3390:	00000593          	addi	x11,x0,0
    3394:	000d0513          	addi	x10,x26,0
    3398:	01112623          	sw	x17,12(x2)
    339c:	01612a23          	sw	x22,20(x2)
    33a0:	a2dfe0ef          	jal	x1,1dcc <memchr>
    33a4:	00a12423          	sw	x10,8(x2)
    33a8:	00c12883          	lw	x17,12(x2)
    33ac:	01412e03          	lw	x28,20(x2)
    33b0:	00051463          	bne	x10,x0,33b8 <_vfprintf_r+0x774>
    33b4:	78d0106f          	jal	x0,5340 <_vfprintf_r+0x26fc>
    33b8:	00812783          	lw	x15,8(x2)
    33bc:	0a714703          	lbu	x14,167(x2)
    33c0:	01712623          	sw	x23,12(x2)
    33c4:	41a78933          	sub	x18,x15,x26
    33c8:	fff94693          	xori	x13,x18,-1
    33cc:	41f6d693          	srai	x13,x13,0x1f
    33d0:	00012423          	sw	x0,8(x2)
    33d4:	00012e23          	sw	x0,28(x2)
    33d8:	00012c23          	sw	x0,24(x2)
    33dc:	00012a23          	sw	x0,20(x2)
    33e0:	00d97db3          	and	x27,x18,x13
    33e4:	00000a13          	addi	x20,x0,0
    33e8:	a80704e3          	beq	x14,x0,2e70 <_vfprintf_r+0x22c>
    33ec:	001d8d93          	addi	x27,x27,1
    33f0:	a81ff06f          	jal	x0,2e70 <_vfprintf_r+0x22c>
    33f4:	00c12783          	lw	x15,12(x2)
    33f8:	0007ac83          	lw	x25,0(x15)
    33fc:	00478793          	addi	x15,x15,4
    3400:	3a0cdae3          	bge	x25,x0,3fb4 <_vfprintf_r+0x1370>
    3404:	41900cb3          	sub	x25,x0,x25
    3408:	00f12623          	sw	x15,12(x2)
    340c:	0009c883          	lbu	x17,0(x19)
    3410:	004b6b13          	ori	x22,x22,4
    3414:	9d1ff06f          	jal	x0,2de4 <_vfprintf_r+0x1a0>
    3418:	02b00793          	addi	x15,x0,43
    341c:	0009c883          	lbu	x17,0(x19)
    3420:	0af103a3          	sb	x15,167(x2)
    3424:	9c1ff06f          	jal	x0,2de4 <_vfprintf_r+0x1a0>
    3428:	0009c883          	lbu	x17,0(x19)
    342c:	080b6b13          	ori	x22,x22,128
    3430:	9b5ff06f          	jal	x0,2de4 <_vfprintf_r+0x1a0>
    3434:	0009c883          	lbu	x17,0(x19)
    3438:	02a00793          	addi	x15,x0,42
    343c:	00198693          	addi	x13,x19,1
    3440:	00f89463          	bne	x17,x15,3448 <_vfprintf_r+0x804>
    3444:	2580206f          	jal	x0,569c <_vfprintf_r+0x2a58>
    3448:	fd088793          	addi	x15,x17,-48
    344c:	00900713          	addi	x14,x0,9
    3450:	00000a13          	addi	x20,x0,0
    3454:	00900613          	addi	x12,x0,9
    3458:	02f76463          	bltu	x14,x15,3480 <_vfprintf_r+0x83c>
    345c:	0006c883          	lbu	x17,0(x13)
    3460:	002a1713          	slli	x14,x20,0x2
    3464:	01470a33          	add	x20,x14,x20
    3468:	001a1a13          	slli	x20,x20,0x1
    346c:	00fa0a33          	add	x20,x20,x15
    3470:	fd088793          	addi	x15,x17,-48
    3474:	00168693          	addi	x13,x13,1
    3478:	fef672e3          	bgeu	x12,x15,345c <_vfprintf_r+0x818>
    347c:	420a4ae3          	blt	x20,x0,40b0 <_vfprintf_r+0x146c>
    3480:	00068993          	addi	x19,x13,0
    3484:	965ff06f          	jal	x0,2de8 <_vfprintf_r+0x1a4>
    3488:	0009c883          	lbu	x17,0(x19)
    348c:	001b6b13          	ori	x22,x22,1
    3490:	955ff06f          	jal	x0,2de4 <_vfprintf_r+0x1a0>
    3494:	0a714783          	lbu	x15,167(x2)
    3498:	0009c883          	lbu	x17,0(x19)
    349c:	940794e3          	bne	x15,x0,2de4 <_vfprintf_r+0x1a0>
    34a0:	02000793          	addi	x15,x0,32
    34a4:	0af103a3          	sb	x15,167(x2)
    34a8:	93dff06f          	jal	x0,2de4 <_vfprintf_r+0x1a0>
    34ac:	010b6e93          	ori	x29,x22,16
    34b0:	020ef793          	andi	x15,x29,32
    34b4:	2a0784e3          	beq	x15,x0,3f5c <_vfprintf_r+0x1318>
    34b8:	00c12783          	lw	x15,12(x2)
    34bc:	00778b93          	addi	x23,x15,7
    34c0:	ff8bfb93          	andi	x23,x23,-8
    34c4:	000ba903          	lw	x18,0(x23)
    34c8:	004bad83          	lw	x27,4(x23)
    34cc:	008b8793          	addi	x15,x23,8
    34d0:	00f12623          	sw	x15,12(x2)
    34d4:	00100793          	addi	x15,x0,1
    34d8:	00000713          	addi	x14,x0,0
    34dc:	0ae103a3          	sb	x14,167(x2)
    34e0:	2e0a4863          	blt	x20,x0,37d0 <_vfprintf_r+0xb8c>
    34e4:	01b96733          	or	x14,x18,x27
    34e8:	f7fefe13          	andi	x28,x29,-129
    34ec:	2e071063          	bne	x14,x0,37cc <_vfprintf_r+0xb88>
    34f0:	340a1663          	bne	x20,x0,383c <_vfprintf_r+0xbf8>
    34f4:	28079ee3          	bne	x15,x0,3f90 <_vfprintf_r+0x134c>
    34f8:	001ef913          	andi	x18,x29,1
    34fc:	19010d13          	addi	x26,x2,400
    3500:	2c0910e3          	bne	x18,x0,3fc0 <_vfprintf_r+0x137c>
    3504:	0a714703          	lbu	x14,167(x2)
    3508:	00090d93          	addi	x27,x18,0
    350c:	01495463          	bge	x18,x20,3514 <_vfprintf_r+0x8d0>
    3510:	000a0d93          	addi	x27,x20,0
    3514:	00012423          	sw	x0,8(x2)
    3518:	00012e23          	sw	x0,28(x2)
    351c:	00012c23          	sw	x0,24(x2)
    3520:	00012a23          	sw	x0,20(x2)
    3524:	ec0714e3          	bne	x14,x0,33ec <_vfprintf_r+0x7a8>
    3528:	949ff06f          	jal	x0,2e70 <_vfprintf_r+0x22c>
    352c:	0009c883          	lbu	x17,0(x19)
    3530:	008b6b13          	ori	x22,x22,8
    3534:	8b1ff06f          	jal	x0,2de4 <_vfprintf_r+0x1a0>
    3538:	010b6e13          	ori	x28,x22,16
    353c:	020e7793          	andi	x15,x28,32
    3540:	1c0784e3          	beq	x15,x0,3f08 <_vfprintf_r+0x12c4>
    3544:	00c12783          	lw	x15,12(x2)
    3548:	00778b93          	addi	x23,x15,7
    354c:	ff8bfb93          	andi	x23,x23,-8
    3550:	004ba783          	lw	x15,4(x23)
    3554:	000ba903          	lw	x18,0(x23)
    3558:	008b8713          	addi	x14,x23,8
    355c:	00e12623          	sw	x14,12(x2)
    3560:	00078d93          	addi	x27,x15,0
    3564:	1c07cce3          	blt	x15,x0,3f3c <_vfprintf_r+0x12f8>
    3568:	000e0e93          	addi	x29,x28,0
    356c:	020a4263          	blt	x20,x0,3590 <_vfprintf_r+0x94c>
    3570:	01b967b3          	or	x15,x18,x27
    3574:	f7fe7e93          	andi	x29,x28,-129
    3578:	00079c63          	bne	x15,x0,3590 <_vfprintf_r+0x94c>
    357c:	020a1063          	bne	x20,x0,359c <_vfprintf_r+0x958>
    3580:	00000913          	addi	x18,x0,0
    3584:	000e8e13          	addi	x28,x29,0
    3588:	19010d13          	addi	x26,x2,400
    358c:	f79ff06f          	jal	x0,3504 <_vfprintf_r+0x8c0>
    3590:	780d90e3          	bne	x27,x0,4510 <_vfprintf_r+0x18cc>
    3594:	00900793          	addi	x15,x0,9
    3598:	7727ece3          	bltu	x15,x18,4510 <_vfprintf_r+0x18cc>
    359c:	03090913          	addi	x18,x18,48
    35a0:	192107a3          	sb	x18,399(x2)
    35a4:	000e8e13          	addi	x28,x29,0
    35a8:	00100913          	addi	x18,x0,1
    35ac:	18f10d13          	addi	x26,x2,399
    35b0:	f55ff06f          	jal	x0,3504 <_vfprintf_r+0x8c0>
    35b4:	010b6e13          	ori	x28,x22,16
    35b8:	020e7793          	andi	x15,x28,32
    35bc:	10078ee3          	beq	x15,x0,3ed8 <_vfprintf_r+0x1294>
    35c0:	00c12783          	lw	x15,12(x2)
    35c4:	00778b93          	addi	x23,x15,7
    35c8:	ff8bfb93          	andi	x23,x23,-8
    35cc:	000ba903          	lw	x18,0(x23)
    35d0:	004bad83          	lw	x27,4(x23)
    35d4:	008b8793          	addi	x15,x23,8
    35d8:	00f12623          	sw	x15,12(x2)
    35dc:	bffe7e93          	andi	x29,x28,-1025
    35e0:	00000793          	addi	x15,x0,0
    35e4:	ef5ff06f          	jal	x0,34d8 <_vfprintf_r+0x894>
    35e8:	0009c883          	lbu	x17,0(x19)
    35ec:	06800793          	addi	x15,x0,104
    35f0:	36f88ce3          	beq	x17,x15,4168 <_vfprintf_r+0x1524>
    35f4:	040b6b13          	ori	x22,x22,64
    35f8:	fecff06f          	jal	x0,2de4 <_vfprintf_r+0x1a0>
    35fc:	00c12703          	lw	x14,12(x2)
    3600:	000087b7          	lui	x15,0x8
    3604:	83078793          	addi	x15,x15,-2000 # 7830 <__gdtoa+0x2a4>
    3608:	0af11423          	sh	x15,168(x2)
    360c:	00470793          	addi	x15,x14,4
    3610:	00f12623          	sw	x15,12(x2)
    3614:	0000e797          	auipc	x15,0xe
    3618:	3a078793          	addi	x15,x15,928 # 119b4 <__clzsi2+0x338>
    361c:	02f12623          	sw	x15,44(x2)
    3620:	00072903          	lw	x18,0(x14)
    3624:	00000d93          	addi	x27,x0,0
    3628:	002b6e93          	ori	x29,x22,2
    362c:	00200793          	addi	x15,x0,2
    3630:	07800893          	addi	x17,x0,120
    3634:	ea5ff06f          	jal	x0,34d8 <_vfprintf_r+0x894>
    3638:	020b7793          	andi	x15,x22,32
    363c:	20078ce3          	beq	x15,x0,4054 <_vfprintf_r+0x1410>
    3640:	00c12783          	lw	x15,12(x2)
    3644:	00412683          	lw	x13,4(x2)
    3648:	0007a783          	lw	x15,0(x15)
    364c:	41f6d713          	srai	x14,x13,0x1f
    3650:	00d7a023          	sw	x13,0(x15)
    3654:	00e7a223          	sw	x14,4(x15)
    3658:	00c12783          	lw	x15,12(x2)
    365c:	00098d13          	addi	x26,x19,0
    3660:	00478793          	addi	x15,x15,4
    3664:	00f12623          	sw	x15,12(x2)
    3668:	921ff06f          	jal	x0,2f88 <_vfprintf_r+0x344>
    366c:	0009c883          	lbu	x17,0(x19)
    3670:	06c00793          	addi	x15,x0,108
    3674:	30f882e3          	beq	x17,x15,4178 <_vfprintf_r+0x1534>
    3678:	010b6b13          	ori	x22,x22,16
    367c:	f68ff06f          	jal	x0,2de4 <_vfprintf_r+0x1a0>
    3680:	06500713          	addi	x14,x0,101
    3684:	b91752e3          	bge	x14,x17,3208 <_vfprintf_r+0x5c4>
    3688:	0d012703          	lw	x14,208(x2)
    368c:	08010593          	addi	x11,x2,128
    3690:	09010513          	addi	x10,x2,144
    3694:	08e12823          	sw	x14,144(x2)
    3698:	0d412703          	lw	x14,212(x2)
    369c:	04c12023          	sw	x12,64(x2)
    36a0:	03c12823          	sw	x28,48(x2)
    36a4:	08e12a23          	sw	x14,148(x2)
    36a8:	0d812703          	lw	x14,216(x2)
    36ac:	08012023          	sw	x0,128(x2)
    36b0:	08012223          	sw	x0,132(x2)
    36b4:	08e12c23          	sw	x14,152(x2)
    36b8:	0dc12703          	lw	x14,220(x2)
    36bc:	08012423          	sw	x0,136(x2)
    36c0:	08012623          	sw	x0,140(x2)
    36c4:	08e12e23          	sw	x14,156(x2)
    36c8:	5590a0ef          	jal	x1,e420 <__eqtf2>
    36cc:	03012e03          	lw	x28,48(x2)
    36d0:	04012603          	lw	x12,64(x2)
    36d4:	5e051463          	bne	x10,x0,3cbc <_vfprintf_r+0x1078>
    36d8:	0c812783          	lw	x15,200(x2)
    36dc:	0000e717          	auipc	x14,0xe
    36e0:	30870713          	addi	x14,x14,776 # 119e4 <__clzsi2+0x368>
    36e4:	00e4a023          	sw	x14,0(x9)
    36e8:	00160613          	addi	x12,x12,1
    36ec:	00100713          	addi	x14,x0,1
    36f0:	00178793          	addi	x15,x15,1
    36f4:	00e4a223          	sw	x14,4(x9)
    36f8:	0cc12623          	sw	x12,204(x2)
    36fc:	0cf12423          	sw	x15,200(x2)
    3700:	00700713          	addi	x14,x0,7
    3704:	00848493          	addi	x9,x9,8
    3708:	00f75463          	bge	x14,x15,3710 <_vfprintf_r+0xacc>
    370c:	79d0006f          	jal	x0,46a8 <_vfprintf_r+0x1a64>
    3710:	0ac12783          	lw	x15,172(x2)
    3714:	01012703          	lw	x14,16(x2)
    3718:	08e7d2e3          	bge	x15,x14,3f9c <_vfprintf_r+0x1358>
    371c:	02812783          	lw	x15,40(x2)
    3720:	02412703          	lw	x14,36(x2)
    3724:	00848493          	addi	x9,x9,8
    3728:	fef4ac23          	sw	x15,-8(x9)
    372c:	0c812783          	lw	x15,200(x2)
    3730:	00e60633          	add	x12,x12,x14
    3734:	fee4ae23          	sw	x14,-4(x9)
    3738:	00178793          	addi	x15,x15,1
    373c:	0cc12623          	sw	x12,204(x2)
    3740:	0cf12423          	sw	x15,200(x2)
    3744:	00700713          	addi	x14,x0,7
    3748:	1cf74ee3          	blt	x14,x15,4124 <_vfprintf_r+0x14e0>
    374c:	01012783          	lw	x15,16(x2)
    3750:	fff78913          	addi	x18,x15,-1
    3754:	ff205463          	bge	x0,x18,2f3c <_vfprintf_r+0x2f8>
    3758:	01000713          	addi	x14,x0,16
    375c:	0c812783          	lw	x15,200(x2)
    3760:	0000ee97          	auipc	x29,0xe
    3764:	6c4e8e93          	addi	x29,x29,1732 # 11e24 <zeroes.0>
    3768:	772758e3          	bge	x14,x18,46d8 <_vfprintf_r+0x1a94>
    376c:	01000a13          	addi	x20,x0,16
    3770:	00700b93          	addi	x23,x0,7
    3774:	000e0d13          	addi	x26,x28,0
    3778:	000e8b13          	addi	x22,x29,0
    377c:	00c0006f          	jal	x0,3788 <_vfprintf_r+0xb44>
    3780:	ff090913          	addi	x18,x18,-16
    3784:	752a56e3          	bge	x20,x18,46d0 <_vfprintf_r+0x1a8c>
    3788:	01060613          	addi	x12,x12,16
    378c:	00178793          	addi	x15,x15,1
    3790:	0164a023          	sw	x22,0(x9)
    3794:	0144a223          	sw	x20,4(x9)
    3798:	0cc12623          	sw	x12,204(x2)
    379c:	0cf12423          	sw	x15,200(x2)
    37a0:	00848493          	addi	x9,x9,8
    37a4:	fcfbdee3          	bge	x23,x15,3780 <_vfprintf_r+0xb3c>
    37a8:	00012583          	lw	x11,0(x2)
    37ac:	0c410613          	addi	x12,x2,196
    37b0:	000a8513          	addi	x10,x21,0
    37b4:	7fc020ef          	jal	x1,5fb0 <__sprint_r>
    37b8:	2e051263          	bne	x10,x0,3a9c <_vfprintf_r+0xe58>
    37bc:	0cc12603          	lw	x12,204(x2)
    37c0:	0c812783          	lw	x15,200(x2)
    37c4:	000c0493          	addi	x9,x24,0
    37c8:	fb9ff06f          	jal	x0,3780 <_vfprintf_r+0xb3c>
    37cc:	000e0e93          	addi	x29,x28,0
    37d0:	00100713          	addi	x14,x0,1
    37d4:	dae78ee3          	beq	x15,x14,3590 <_vfprintf_r+0x94c>
    37d8:	00200713          	addi	x14,x0,2
    37dc:	06e78c63          	beq	x15,x14,3854 <_vfprintf_r+0xc10>
    37e0:	19010d13          	addi	x26,x2,400
    37e4:	01dd9793          	slli	x15,x27,0x1d
    37e8:	00797713          	andi	x14,x18,7
    37ec:	00395913          	srli	x18,x18,0x3
    37f0:	03070713          	addi	x14,x14,48
    37f4:	0127e933          	or	x18,x15,x18
    37f8:	003ddd93          	srli	x27,x27,0x3
    37fc:	feed0fa3          	sb	x14,-1(x26)
    3800:	01b967b3          	or	x15,x18,x27
    3804:	000d0613          	addi	x12,x26,0
    3808:	fffd0d13          	addi	x26,x26,-1
    380c:	fc079ce3          	bne	x15,x0,37e4 <_vfprintf_r+0xba0>
    3810:	001ef693          	andi	x13,x29,1
    3814:	06068a63          	beq	x13,x0,3888 <_vfprintf_r+0xc44>
    3818:	03000693          	addi	x13,x0,48
    381c:	06d70663          	beq	x14,x13,3888 <_vfprintf_r+0xc44>
    3820:	ffe60613          	addi	x12,x12,-2
    3824:	19010793          	addi	x15,x2,400
    3828:	fedd0fa3          	sb	x13,-1(x26)
    382c:	40c78933          	sub	x18,x15,x12
    3830:	000e8e13          	addi	x28,x29,0
    3834:	00060d13          	addi	x26,x12,0
    3838:	ccdff06f          	jal	x0,3504 <_vfprintf_r+0x8c0>
    383c:	00100713          	addi	x14,x0,1
    3840:	00e79463          	bne	x15,x14,3848 <_vfprintf_r+0xc04>
    3844:	39d0106f          	jal	x0,53e0 <_vfprintf_r+0x279c>
    3848:	00200713          	addi	x14,x0,2
    384c:	000e0e93          	addi	x29,x28,0
    3850:	f8e798e3          	bne	x15,x14,37e0 <_vfprintf_r+0xb9c>
    3854:	02c12683          	lw	x13,44(x2)
    3858:	19010d13          	addi	x26,x2,400
    385c:	00f97793          	andi	x15,x18,15
    3860:	00f687b3          	add	x15,x13,x15
    3864:	0007c703          	lbu	x14,0(x15)
    3868:	00495913          	srli	x18,x18,0x4
    386c:	01cd9793          	slli	x15,x27,0x1c
    3870:	0127e933          	or	x18,x15,x18
    3874:	004ddd93          	srli	x27,x27,0x4
    3878:	feed0fa3          	sb	x14,-1(x26)
    387c:	01b967b3          	or	x15,x18,x27
    3880:	fffd0d13          	addi	x26,x26,-1
    3884:	fc079ce3          	bne	x15,x0,385c <_vfprintf_r+0xc18>
    3888:	19010793          	addi	x15,x2,400
    388c:	41a78933          	sub	x18,x15,x26
    3890:	000e8e13          	addi	x28,x29,0
    3894:	c71ff06f          	jal	x0,3504 <_vfprintf_r+0x8c0>
    3898:	41bc8bb3          	sub	x23,x25,x27
    389c:	e7705463          	bge	x0,x23,2f04 <_vfprintf_r+0x2c0>
    38a0:	01000513          	addi	x10,x0,16
    38a4:	0c812583          	lw	x11,200(x2)
    38a8:	0000ee97          	auipc	x29,0xe
    38ac:	57ce8e93          	addi	x29,x29,1404 # 11e24 <zeroes.0>
    38b0:	09755c63          	bge	x10,x23,3948 <_vfprintf_r+0xd04>
    38b4:	000b8b13          	addi	x22,x23,0
    38b8:	00048793          	addi	x15,x9,0
    38bc:	00090b93          	addi	x23,x18,0
    38c0:	01000f13          	addi	x30,x0,16
    38c4:	00700f93          	addi	x31,x0,7
    38c8:	03112823          	sw	x17,48(x2)
    38cc:	000e0913          	addi	x18,x28,0
    38d0:	000e8493          	addi	x9,x29,0
    38d4:	00c0006f          	jal	x0,38e0 <_vfprintf_r+0xc9c>
    38d8:	ff0b0b13          	addi	x22,x22,-16
    38dc:	056f5a63          	bge	x30,x22,3930 <_vfprintf_r+0xcec>
    38e0:	01060613          	addi	x12,x12,16
    38e4:	00158593          	addi	x11,x11,1 # 2001 <_fwalk_sglue+0x95>
    38e8:	0097a023          	sw	x9,0(x15)
    38ec:	01e7a223          	sw	x30,4(x15)
    38f0:	0cc12623          	sw	x12,204(x2)
    38f4:	0cb12423          	sw	x11,200(x2)
    38f8:	00878793          	addi	x15,x15,8
    38fc:	fcbfdee3          	bge	x31,x11,38d8 <_vfprintf_r+0xc94>
    3900:	00012583          	lw	x11,0(x2)
    3904:	0c410613          	addi	x12,x2,196
    3908:	000a8513          	addi	x10,x21,0
    390c:	6a4020ef          	jal	x1,5fb0 <__sprint_r>
    3910:	18051663          	bne	x10,x0,3a9c <_vfprintf_r+0xe58>
    3914:	01000f13          	addi	x30,x0,16
    3918:	ff0b0b13          	addi	x22,x22,-16
    391c:	0cc12603          	lw	x12,204(x2)
    3920:	0c812583          	lw	x11,200(x2)
    3924:	000c0793          	addi	x15,x24,0
    3928:	00700f93          	addi	x31,x0,7
    392c:	fb6f4ae3          	blt	x30,x22,38e0 <_vfprintf_r+0xc9c>
    3930:	03012883          	lw	x17,48(x2)
    3934:	00090e13          	addi	x28,x18,0
    3938:	00048e93          	addi	x29,x9,0
    393c:	000b8913          	addi	x18,x23,0
    3940:	00078493          	addi	x9,x15,0
    3944:	000b0b93          	addi	x23,x22,0
    3948:	01760633          	add	x12,x12,x23
    394c:	00158593          	addi	x11,x11,1
    3950:	01d4a023          	sw	x29,0(x9)
    3954:	0174a223          	sw	x23,4(x9)
    3958:	0cc12623          	sw	x12,204(x2)
    395c:	0cb12423          	sw	x11,200(x2)
    3960:	00700713          	addi	x14,x0,7
    3964:	00848493          	addi	x9,x9,8
    3968:	d8b75e63          	bge	x14,x11,2f04 <_vfprintf_r+0x2c0>
    396c:	00012583          	lw	x11,0(x2)
    3970:	0c410613          	addi	x12,x2,196
    3974:	000a8513          	addi	x10,x21,0
    3978:	05c12023          	sw	x28,64(x2)
    397c:	03112823          	sw	x17,48(x2)
    3980:	630020ef          	jal	x1,5fb0 <__sprint_r>
    3984:	10051c63          	bne	x10,x0,3a9c <_vfprintf_r+0xe58>
    3988:	0cc12603          	lw	x12,204(x2)
    398c:	04012e03          	lw	x28,64(x2)
    3990:	03012883          	lw	x17,48(x2)
    3994:	000c0493          	addi	x9,x24,0
    3998:	d6cff06f          	jal	x0,2f04 <_vfprintf_r+0x2c0>
    399c:	0c812583          	lw	x11,200(x2)
    39a0:	0000ee97          	auipc	x29,0xe
    39a4:	484e8e93          	addi	x29,x29,1156 # 11e24 <zeroes.0>
    39a8:	09445663          	bge	x8,x20,3a34 <_vfprintf_r+0xdf0>
    39ac:	00048793          	addi	x15,x9,0
    39b0:	00700b93          	addi	x23,x0,7
    39b4:	000a0493          	addi	x9,x20,0
    39b8:	00088b13          	addi	x22,x17,0
    39bc:	03c12823          	sw	x28,48(x2)
    39c0:	000e8a13          	addi	x20,x29,0
    39c4:	00c0006f          	jal	x0,39d0 <_vfprintf_r+0xd8c>
    39c8:	ff048493          	addi	x9,x9,-16
    39cc:	04945a63          	bge	x8,x9,3a20 <_vfprintf_r+0xddc>
    39d0:	01060613          	addi	x12,x12,16
    39d4:	00158593          	addi	x11,x11,1
    39d8:	0000e717          	auipc	x14,0xe
    39dc:	44c70713          	addi	x14,x14,1100 # 11e24 <zeroes.0>
    39e0:	00e7a023          	sw	x14,0(x15)
    39e4:	0087a223          	sw	x8,4(x15)
    39e8:	0cc12623          	sw	x12,204(x2)
    39ec:	0cb12423          	sw	x11,200(x2)
    39f0:	00878793          	addi	x15,x15,8
    39f4:	fcbbdae3          	bge	x23,x11,39c8 <_vfprintf_r+0xd84>
    39f8:	00012583          	lw	x11,0(x2)
    39fc:	0c410613          	addi	x12,x2,196
    3a00:	000a8513          	addi	x10,x21,0
    3a04:	5ac020ef          	jal	x1,5fb0 <__sprint_r>
    3a08:	08051a63          	bne	x10,x0,3a9c <_vfprintf_r+0xe58>
    3a0c:	ff048493          	addi	x9,x9,-16
    3a10:	0cc12603          	lw	x12,204(x2)
    3a14:	0c812583          	lw	x11,200(x2)
    3a18:	000c0793          	addi	x15,x24,0
    3a1c:	fa944ae3          	blt	x8,x9,39d0 <_vfprintf_r+0xd8c>
    3a20:	03012e03          	lw	x28,48(x2)
    3a24:	000a0e93          	addi	x29,x20,0
    3a28:	000b0893          	addi	x17,x22,0
    3a2c:	00048a13          	addi	x20,x9,0
    3a30:	00078493          	addi	x9,x15,0
    3a34:	01460633          	add	x12,x12,x20
    3a38:	00158593          	addi	x11,x11,1
    3a3c:	01d4a023          	sw	x29,0(x9)
    3a40:	0144a223          	sw	x20,4(x9)
    3a44:	0cc12623          	sw	x12,204(x2)
    3a48:	0cb12423          	sw	x11,200(x2)
    3a4c:	00700713          	addi	x14,x0,7
    3a50:	00848493          	addi	x9,x9,8
    3a54:	cab75c63          	bge	x14,x11,2f0c <_vfprintf_r+0x2c8>
    3a58:	00012583          	lw	x11,0(x2)
    3a5c:	0c410613          	addi	x12,x2,196
    3a60:	000a8513          	addi	x10,x21,0
    3a64:	05c12023          	sw	x28,64(x2)
    3a68:	03112823          	sw	x17,48(x2)
    3a6c:	544020ef          	jal	x1,5fb0 <__sprint_r>
    3a70:	02051663          	bne	x10,x0,3a9c <_vfprintf_r+0xe58>
    3a74:	0cc12603          	lw	x12,204(x2)
    3a78:	04012e03          	lw	x28,64(x2)
    3a7c:	03012883          	lw	x17,48(x2)
    3a80:	000c0493          	addi	x9,x24,0
    3a84:	c88ff06f          	jal	x0,2f0c <_vfprintf_r+0x2c8>
    3a88:	00012583          	lw	x11,0(x2)
    3a8c:	0c410613          	addi	x12,x2,196
    3a90:	000a8513          	addi	x10,x21,0
    3a94:	51c020ef          	jal	x1,5fb0 <__sprint_r>
    3a98:	cc050863          	beq	x10,x0,2f68 <_vfprintf_r+0x324>
    3a9c:	00812583          	lw	x11,8(x2)
    3aa0:	ce058e63          	beq	x11,x0,2f9c <_vfprintf_r+0x358>
    3aa4:	02012503          	lw	x10,32(x2)
    3aa8:	f79fd0ef          	jal	x1,1a20 <_free_r>
    3aac:	cf0ff06f          	jal	x0,2f9c <_vfprintf_r+0x358>
    3ab0:	01000513          	addi	x10,x0,16
    3ab4:	0c812583          	lw	x11,200(x2)
    3ab8:	0000eb97          	auipc	x23,0xe
    3abc:	35cb8b93          	addi	x23,x23,860 # 11e14 <blanks.1>
    3ac0:	0ae55863          	bge	x10,x14,3b70 <_vfprintf_r+0xf2c>
    3ac4:	00048793          	addi	x15,x9,0
    3ac8:	00070493          	addi	x9,x14,0
    3acc:	000b8713          	addi	x14,x23,0
    3ad0:	01000e93          	addi	x29,x0,16
    3ad4:	00090b93          	addi	x23,x18,0
    3ad8:	00700393          	addi	x7,x0,7
    3adc:	02512823          	sw	x5,48(x2)
    3ae0:	000f8b13          	addi	x22,x31,0
    3ae4:	05112023          	sw	x17,64(x2)
    3ae8:	05c12423          	sw	x28,72(x2)
    3aec:	00070913          	addi	x18,x14,0
    3af0:	00c0006f          	jal	x0,3afc <_vfprintf_r+0xeb8>
    3af4:	ff048493          	addi	x9,x9,-16
    3af8:	049eda63          	bge	x29,x9,3b4c <_vfprintf_r+0xf08>
    3afc:	01060613          	addi	x12,x12,16
    3b00:	00158593          	addi	x11,x11,1
    3b04:	0127a023          	sw	x18,0(x15)
    3b08:	01d7a223          	sw	x29,4(x15)
    3b0c:	0cc12623          	sw	x12,204(x2)
    3b10:	0cb12423          	sw	x11,200(x2)
    3b14:	00878793          	addi	x15,x15,8
    3b18:	fcb3dee3          	bge	x7,x11,3af4 <_vfprintf_r+0xeb0>
    3b1c:	00012583          	lw	x11,0(x2)
    3b20:	0c410613          	addi	x12,x2,196
    3b24:	000a8513          	addi	x10,x21,0
    3b28:	488020ef          	jal	x1,5fb0 <__sprint_r>
    3b2c:	f60518e3          	bne	x10,x0,3a9c <_vfprintf_r+0xe58>
    3b30:	01000e93          	addi	x29,x0,16
    3b34:	ff048493          	addi	x9,x9,-16
    3b38:	0cc12603          	lw	x12,204(x2)
    3b3c:	0c812583          	lw	x11,200(x2)
    3b40:	000c0793          	addi	x15,x24,0
    3b44:	00700393          	addi	x7,x0,7
    3b48:	fa9ecae3          	blt	x29,x9,3afc <_vfprintf_r+0xeb8>
    3b4c:	03012283          	lw	x5,48(x2)
    3b50:	04012883          	lw	x17,64(x2)
    3b54:	04812e03          	lw	x28,72(x2)
    3b58:	00048713          	addi	x14,x9,0
    3b5c:	00078493          	addi	x9,x15,0
    3b60:	00090793          	addi	x15,x18,0
    3b64:	000b0f93          	addi	x31,x22,0
    3b68:	000b8913          	addi	x18,x23,0
    3b6c:	00078b93          	addi	x23,x15,0
    3b70:	00e60633          	add	x12,x12,x14
    3b74:	00158593          	addi	x11,x11,1
    3b78:	00e4a223          	sw	x14,4(x9)
    3b7c:	0174a023          	sw	x23,0(x9)
    3b80:	0cc12623          	sw	x12,204(x2)
    3b84:	0cb12423          	sw	x11,200(x2)
    3b88:	00700713          	addi	x14,x0,7
    3b8c:	00848493          	addi	x9,x9,8
    3b90:	b0b75063          	bge	x14,x11,2e90 <_vfprintf_r+0x24c>
    3b94:	00012583          	lw	x11,0(x2)
    3b98:	0c410613          	addi	x12,x2,196
    3b9c:	000a8513          	addi	x10,x21,0
    3ba0:	05c12623          	sw	x28,76(x2)
    3ba4:	05112423          	sw	x17,72(x2)
    3ba8:	05f12023          	sw	x31,64(x2)
    3bac:	02512823          	sw	x5,48(x2)
    3bb0:	400020ef          	jal	x1,5fb0 <__sprint_r>
    3bb4:	ee0514e3          	bne	x10,x0,3a9c <_vfprintf_r+0xe58>
    3bb8:	0cc12603          	lw	x12,204(x2)
    3bbc:	04c12e03          	lw	x28,76(x2)
    3bc0:	04812883          	lw	x17,72(x2)
    3bc4:	04012f83          	lw	x31,64(x2)
    3bc8:	03012283          	lw	x5,48(x2)
    3bcc:	000c0493          	addi	x9,x24,0
    3bd0:	ac0ff06f          	jal	x0,2e90 <_vfprintf_r+0x24c>
    3bd4:	00012583          	lw	x11,0(x2)
    3bd8:	0c410613          	addi	x12,x2,196
    3bdc:	000a8513          	addi	x10,x21,0
    3be0:	05c12423          	sw	x28,72(x2)
    3be4:	05112023          	sw	x17,64(x2)
    3be8:	03f12823          	sw	x31,48(x2)
    3bec:	3c4020ef          	jal	x1,5fb0 <__sprint_r>
    3bf0:	ea0516e3          	bne	x10,x0,3a9c <_vfprintf_r+0xe58>
    3bf4:	0cc12603          	lw	x12,204(x2)
    3bf8:	04812e03          	lw	x28,72(x2)
    3bfc:	04012883          	lw	x17,64(x2)
    3c00:	03012f83          	lw	x31,48(x2)
    3c04:	000c0493          	addi	x9,x24,0
    3c08:	af4ff06f          	jal	x0,2efc <_vfprintf_r+0x2b8>
    3c0c:	01000713          	addi	x14,x0,16
    3c10:	0c812783          	lw	x15,200(x2)
    3c14:	0000eb97          	auipc	x23,0xe
    3c18:	200b8b93          	addi	x23,x23,512 # 11e14 <blanks.1>
    3c1c:	07275263          	bge	x14,x18,3c80 <_vfprintf_r+0x103c>
    3c20:	00012d03          	lw	x26,0(x2)
    3c24:	01000a13          	addi	x20,x0,16
    3c28:	00700b13          	addi	x22,x0,7
    3c2c:	00c0006f          	jal	x0,3c38 <_vfprintf_r+0xff4>
    3c30:	ff090913          	addi	x18,x18,-16
    3c34:	052a5663          	bge	x20,x18,3c80 <_vfprintf_r+0x103c>
    3c38:	01060613          	addi	x12,x12,16
    3c3c:	00178793          	addi	x15,x15,1
    3c40:	0174a023          	sw	x23,0(x9)
    3c44:	0144a223          	sw	x20,4(x9)
    3c48:	0cc12623          	sw	x12,204(x2)
    3c4c:	0cf12423          	sw	x15,200(x2)
    3c50:	00848493          	addi	x9,x9,8
    3c54:	fcfb5ee3          	bge	x22,x15,3c30 <_vfprintf_r+0xfec>
    3c58:	0c410613          	addi	x12,x2,196
    3c5c:	000d0593          	addi	x11,x26,0
    3c60:	000a8513          	addi	x10,x21,0
    3c64:	34c020ef          	jal	x1,5fb0 <__sprint_r>
    3c68:	e2051ae3          	bne	x10,x0,3a9c <_vfprintf_r+0xe58>
    3c6c:	ff090913          	addi	x18,x18,-16
    3c70:	0cc12603          	lw	x12,204(x2)
    3c74:	0c812783          	lw	x15,200(x2)
    3c78:	000c0493          	addi	x9,x24,0
    3c7c:	fb2a4ee3          	blt	x20,x18,3c38 <_vfprintf_r+0xff4>
    3c80:	01260633          	add	x12,x12,x18
    3c84:	00178793          	addi	x15,x15,1
    3c88:	0174a023          	sw	x23,0(x9)
    3c8c:	0124a223          	sw	x18,4(x9)
    3c90:	0cc12623          	sw	x12,204(x2)
    3c94:	0cf12423          	sw	x15,200(x2)
    3c98:	00700713          	addi	x14,x0,7
    3c9c:	aaf75863          	bge	x14,x15,2f4c <_vfprintf_r+0x308>
    3ca0:	00012583          	lw	x11,0(x2)
    3ca4:	0c410613          	addi	x12,x2,196
    3ca8:	000a8513          	addi	x10,x21,0
    3cac:	304020ef          	jal	x1,5fb0 <__sprint_r>
    3cb0:	de0516e3          	bne	x10,x0,3a9c <_vfprintf_r+0xe58>
    3cb4:	0cc12603          	lw	x12,204(x2)
    3cb8:	a94ff06f          	jal	x0,2f4c <_vfprintf_r+0x308>
    3cbc:	0ac12583          	lw	x11,172(x2)
    3cc0:	14b05ee3          	bge	x0,x11,461c <_vfprintf_r+0x19d8>
    3cc4:	01012783          	lw	x15,16(x2)
    3cc8:	01412703          	lw	x14,20(x2)
    3ccc:	00fd0b33          	add	x22,x26,x15
    3cd0:	00070913          	addi	x18,x14,0
    3cd4:	3ce7c863          	blt	x15,x14,40a4 <_vfprintf_r+0x1460>
    3cd8:	03205663          	bge	x0,x18,3d04 <_vfprintf_r+0x10c0>
    3cdc:	0c812583          	lw	x11,200(x2)
    3ce0:	01260633          	add	x12,x12,x18
    3ce4:	01a4a023          	sw	x26,0(x9)
    3ce8:	00158593          	addi	x11,x11,1
    3cec:	0124a223          	sw	x18,4(x9)
    3cf0:	0cc12623          	sw	x12,204(x2)
    3cf4:	0cb12423          	sw	x11,200(x2)
    3cf8:	00700513          	addi	x10,x0,7
    3cfc:	00848493          	addi	x9,x9,8
    3d00:	6cb542e3          	blt	x10,x11,4bc4 <_vfprintf_r+0x1f80>
    3d04:	fff94593          	xori	x11,x18,-1
    3d08:	01412783          	lw	x15,20(x2)
    3d0c:	41f5d593          	srai	x11,x11,0x1f
    3d10:	00b97733          	and	x14,x18,x11
    3d14:	40e78933          	sub	x18,x15,x14
    3d18:	49204863          	blt	x0,x18,41a8 <_vfprintf_r+0x1564>
    3d1c:	01412783          	lw	x15,20(x2)
    3d20:	400e7713          	andi	x14,x28,1024
    3d24:	00fd0d33          	add	x26,x26,x15
    3d28:	3a071ee3          	bne	x14,x0,48e4 <_vfprintf_r+0x1ca0>
    3d2c:	0ac12903          	lw	x18,172(x2)
    3d30:	01012783          	lw	x15,16(x2)
    3d34:	4ef94863          	blt	x18,x15,4224 <_vfprintf_r+0x15e0>
    3d38:	001e7713          	andi	x14,x28,1
    3d3c:	4e071463          	bne	x14,x0,4224 <_vfprintf_r+0x15e0>
    3d40:	01012783          	lw	x15,16(x2)
    3d44:	41ab0a33          	sub	x20,x22,x26
    3d48:	41278933          	sub	x18,x15,x18
    3d4c:	01495463          	bge	x18,x20,3d54 <_vfprintf_r+0x1110>
    3d50:	00090a13          	addi	x20,x18,0
    3d54:	03405863          	bge	x0,x20,3d84 <_vfprintf_r+0x1140>
    3d58:	0c812783          	lw	x15,200(x2)
    3d5c:	01460633          	add	x12,x12,x20
    3d60:	01a4a023          	sw	x26,0(x9)
    3d64:	00178793          	addi	x15,x15,1
    3d68:	0144a223          	sw	x20,4(x9)
    3d6c:	0cc12623          	sw	x12,204(x2)
    3d70:	0cf12423          	sw	x15,200(x2)
    3d74:	00700713          	addi	x14,x0,7
    3d78:	00848493          	addi	x9,x9,8
    3d7c:	00f75463          	bge	x14,x15,3d84 <_vfprintf_r+0x1140>
    3d80:	5ec0106f          	jal	x0,536c <_vfprintf_r+0x2728>
    3d84:	fffa4713          	xori	x14,x20,-1
    3d88:	41f75713          	srai	x14,x14,0x1f
    3d8c:	00ea77b3          	and	x15,x20,x14
    3d90:	40f90933          	sub	x18,x18,x15
    3d94:	9b205463          	bge	x0,x18,2f3c <_vfprintf_r+0x2f8>
    3d98:	01000713          	addi	x14,x0,16
    3d9c:	0c812783          	lw	x15,200(x2)
    3da0:	0000ee97          	auipc	x29,0xe
    3da4:	084e8e93          	addi	x29,x29,132 # 11e24 <zeroes.0>
    3da8:	132758e3          	bge	x14,x18,46d8 <_vfprintf_r+0x1a94>
    3dac:	01000a13          	addi	x20,x0,16
    3db0:	00700b93          	addi	x23,x0,7
    3db4:	000e0d13          	addi	x26,x28,0
    3db8:	000e8b13          	addi	x22,x29,0
    3dbc:	00c0006f          	jal	x0,3dc8 <_vfprintf_r+0x1184>
    3dc0:	ff090913          	addi	x18,x18,-16
    3dc4:	112a56e3          	bge	x20,x18,46d0 <_vfprintf_r+0x1a8c>
    3dc8:	01060613          	addi	x12,x12,16
    3dcc:	00178793          	addi	x15,x15,1
    3dd0:	0164a023          	sw	x22,0(x9)
    3dd4:	0144a223          	sw	x20,4(x9)
    3dd8:	0cc12623          	sw	x12,204(x2)
    3ddc:	0cf12423          	sw	x15,200(x2)
    3de0:	00848493          	addi	x9,x9,8
    3de4:	fcfbdee3          	bge	x23,x15,3dc0 <_vfprintf_r+0x117c>
    3de8:	00012583          	lw	x11,0(x2)
    3dec:	0c410613          	addi	x12,x2,196
    3df0:	000a8513          	addi	x10,x21,0
    3df4:	1bc020ef          	jal	x1,5fb0 <__sprint_r>
    3df8:	ca0512e3          	bne	x10,x0,3a9c <_vfprintf_r+0xe58>
    3dfc:	0cc12603          	lw	x12,204(x2)
    3e00:	0c812783          	lw	x15,200(x2)
    3e04:	000c0493          	addi	x9,x24,0
    3e08:	fb9ff06f          	jal	x0,3dc0 <_vfprintf_r+0x117c>
    3e0c:	001e7593          	andi	x11,x28,1
    3e10:	c0059c63          	bne	x11,x0,3228 <_vfprintf_r+0x5e4>
    3e14:	00e4a223          	sw	x14,4(x9)
    3e18:	0d712623          	sw	x23,204(x2)
    3e1c:	0d212423          	sw	x18,200(x2)
    3e20:	00700793          	addi	x15,x0,7
    3e24:	cd27d463          	bge	x15,x18,32ec <_vfprintf_r+0x6a8>
    3e28:	00012583          	lw	x11,0(x2)
    3e2c:	0c410613          	addi	x12,x2,196
    3e30:	000a8513          	addi	x10,x21,0
    3e34:	01c12a23          	sw	x28,20(x2)
    3e38:	178020ef          	jal	x1,5fb0 <__sprint_r>
    3e3c:	c60510e3          	bne	x10,x0,3a9c <_vfprintf_r+0xe58>
    3e40:	0cc12b83          	lw	x23,204(x2)
    3e44:	0c812903          	lw	x18,200(x2)
    3e48:	01412e03          	lw	x28,20(x2)
    3e4c:	000c0a13          	addi	x20,x24,0
    3e50:	c9cff06f          	jal	x0,32ec <_vfprintf_r+0x6a8>
    3e54:	01012703          	lw	x14,16(x2)
    3e58:	00100793          	addi	x15,x0,1
    3e5c:	c8e7d863          	bge	x15,x14,32ec <_vfprintf_r+0x6a8>
    3e60:	01100793          	addi	x15,x0,17
    3e64:	0000ee97          	auipc	x29,0xe
    3e68:	fc0e8e93          	addi	x29,x29,-64 # 11e24 <zeroes.0>
    3e6c:	18e7d6e3          	bge	x15,x14,47f8 <_vfprintf_r+0x1bb4>
    3e70:	00048b13          	addi	x22,x9,0
    3e74:	01000793          	addi	x15,x0,16
    3e78:	00700d13          	addi	x26,x0,7
    3e7c:	01c12a23          	sw	x28,20(x2)
    3e80:	000e8493          	addi	x9,x29,0
    3e84:	00c0006f          	jal	x0,3e90 <_vfprintf_r+0x124c>
    3e88:	ff0b0b13          	addi	x22,x22,-16
    3e8c:	1767d0e3          	bge	x15,x22,47ec <_vfprintf_r+0x1ba8>
    3e90:	010b8b93          	addi	x23,x23,16
    3e94:	00190913          	addi	x18,x18,1
    3e98:	009a2023          	sw	x9,0(x20)
    3e9c:	00fa2223          	sw	x15,4(x20)
    3ea0:	0d712623          	sw	x23,204(x2)
    3ea4:	0d212423          	sw	x18,200(x2)
    3ea8:	008a0a13          	addi	x20,x20,8
    3eac:	fd2d5ee3          	bge	x26,x18,3e88 <_vfprintf_r+0x1244>
    3eb0:	00012583          	lw	x11,0(x2)
    3eb4:	0c410613          	addi	x12,x2,196
    3eb8:	000a8513          	addi	x10,x21,0
    3ebc:	0f4020ef          	jal	x1,5fb0 <__sprint_r>
    3ec0:	bc051ee3          	bne	x10,x0,3a9c <_vfprintf_r+0xe58>
    3ec4:	0cc12b83          	lw	x23,204(x2)
    3ec8:	0c812903          	lw	x18,200(x2)
    3ecc:	000c0a13          	addi	x20,x24,0
    3ed0:	01000793          	addi	x15,x0,16
    3ed4:	fb5ff06f          	jal	x0,3e88 <_vfprintf_r+0x1244>
    3ed8:	00c12703          	lw	x14,12(x2)
    3edc:	010e7793          	andi	x15,x28,16
    3ee0:	00072903          	lw	x18,0(x14)
    3ee4:	00470713          	addi	x14,x14,4
    3ee8:	00e12623          	sw	x14,12(x2)
    3eec:	10079c63          	bne	x15,x0,4004 <_vfprintf_r+0x13c0>
    3ef0:	040e7793          	andi	x15,x28,64
    3ef4:	10078463          	beq	x15,x0,3ffc <_vfprintf_r+0x13b8>
    3ef8:	01091913          	slli	x18,x18,0x10
    3efc:	01095913          	srli	x18,x18,0x10
    3f00:	00000d93          	addi	x27,x0,0
    3f04:	ed8ff06f          	jal	x0,35dc <_vfprintf_r+0x998>
    3f08:	00c12703          	lw	x14,12(x2)
    3f0c:	010e7793          	andi	x15,x28,16
    3f10:	00072903          	lw	x18,0(x14)
    3f14:	00470713          	addi	x14,x14,4
    3f18:	00e12623          	sw	x14,12(x2)
    3f1c:	0c079a63          	bne	x15,x0,3ff0 <_vfprintf_r+0x13ac>
    3f20:	040e7793          	andi	x15,x28,64
    3f24:	0c078263          	beq	x15,x0,3fe8 <_vfprintf_r+0x13a4>
    3f28:	01091913          	slli	x18,x18,0x10
    3f2c:	41095913          	srai	x18,x18,0x10
    3f30:	41f95d93          	srai	x27,x18,0x1f
    3f34:	000d8793          	addi	x15,x27,0
    3f38:	e207d863          	bge	x15,x0,3568 <_vfprintf_r+0x924>
    3f3c:	012037b3          	sltu	x15,x0,x18
    3f40:	41b00db3          	sub	x27,x0,x27
    3f44:	40fd8db3          	sub	x27,x27,x15
    3f48:	41200933          	sub	x18,x0,x18
    3f4c:	000e0e93          	addi	x29,x28,0
    3f50:	02d00713          	addi	x14,x0,45
    3f54:	00100793          	addi	x15,x0,1
    3f58:	d84ff06f          	jal	x0,34dc <_vfprintf_r+0x898>
    3f5c:	00c12703          	lw	x14,12(x2)
    3f60:	010ef793          	andi	x15,x29,16
    3f64:	00072903          	lw	x18,0(x14)
    3f68:	00470713          	addi	x14,x14,4
    3f6c:	00e12623          	sw	x14,12(x2)
    3f70:	06079663          	bne	x15,x0,3fdc <_vfprintf_r+0x1398>
    3f74:	040ef793          	andi	x15,x29,64
    3f78:	04078c63          	beq	x15,x0,3fd0 <_vfprintf_r+0x138c>
    3f7c:	01091913          	slli	x18,x18,0x10
    3f80:	01095913          	srli	x18,x18,0x10
    3f84:	00000d93          	addi	x27,x0,0
    3f88:	00100793          	addi	x15,x0,1
    3f8c:	d4cff06f          	jal	x0,34d8 <_vfprintf_r+0x894>
    3f90:	00000913          	addi	x18,x0,0
    3f94:	19010d13          	addi	x26,x2,400
    3f98:	d6cff06f          	jal	x0,3504 <_vfprintf_r+0x8c0>
    3f9c:	001e7793          	andi	x15,x28,1
    3fa0:	00079463          	bne	x15,x0,3fa8 <_vfprintf_r+0x1364>
    3fa4:	f99fe06f          	jal	x0,2f3c <_vfprintf_r+0x2f8>
    3fa8:	f74ff06f          	jal	x0,371c <_vfprintf_r+0xad8>
    3fac:	000b0e13          	addi	x28,x22,0
    3fb0:	d8cff06f          	jal	x0,353c <_vfprintf_r+0x8f8>
    3fb4:	0009c883          	lbu	x17,0(x19)
    3fb8:	00f12623          	sw	x15,12(x2)
    3fbc:	e29fe06f          	jal	x0,2de4 <_vfprintf_r+0x1a0>
    3fc0:	03000793          	addi	x15,x0,48
    3fc4:	18f107a3          	sb	x15,399(x2)
    3fc8:	18f10d13          	addi	x26,x2,399
    3fcc:	d38ff06f          	jal	x0,3504 <_vfprintf_r+0x8c0>
    3fd0:	200ef793          	andi	x15,x29,512
    3fd4:	00078463          	beq	x15,x0,3fdc <_vfprintf_r+0x1398>
    3fd8:	0ff97913          	andi	x18,x18,255
    3fdc:	00000d93          	addi	x27,x0,0
    3fe0:	00100793          	addi	x15,x0,1
    3fe4:	cf4ff06f          	jal	x0,34d8 <_vfprintf_r+0x894>
    3fe8:	200e7793          	andi	x15,x28,512
    3fec:	420796e3          	bne	x15,x0,4c18 <_vfprintf_r+0x1fd4>
    3ff0:	41f95d93          	srai	x27,x18,0x1f
    3ff4:	000d8793          	addi	x15,x27,0
    3ff8:	d6cff06f          	jal	x0,3564 <_vfprintf_r+0x920>
    3ffc:	200e7793          	andi	x15,x28,512
    4000:	420796e3          	bne	x15,x0,4c2c <_vfprintf_r+0x1fe8>
    4004:	00000d93          	addi	x27,x0,0
    4008:	dd4ff06f          	jal	x0,35dc <_vfprintf_r+0x998>
    400c:	00c12783          	lw	x15,12(x2)
    4010:	09010513          	addi	x10,x2,144
    4014:	01112423          	sw	x17,8(x2)
    4018:	00778b93          	addi	x23,x15,7
    401c:	ff8bfb93          	andi	x23,x23,-8
    4020:	000ba583          	lw	x11,0(x23)
    4024:	004ba603          	lw	x12,4(x23)
    4028:	008b8793          	addi	x15,x23,8
    402c:	01612a23          	sw	x22,20(x2)
    4030:	00f12623          	sw	x15,12(x2)
    4034:	4000d0ef          	jal	x1,11434 <__extenddftf2>
    4038:	09012583          	lw	x11,144(x2)
    403c:	09412603          	lw	x12,148(x2)
    4040:	09812683          	lw	x13,152(x2)
    4044:	09c12703          	lw	x14,156(x2)
    4048:	01412e03          	lw	x28,20(x2)
    404c:	00812883          	lw	x17,8(x2)
    4050:	898ff06f          	jal	x0,30e8 <_vfprintf_r+0x4a4>
    4054:	010b7793          	andi	x15,x22,16
    4058:	72079063          	bne	x15,x0,4778 <_vfprintf_r+0x1b34>
    405c:	040b7793          	andi	x15,x22,64
    4060:	38079ce3          	bne	x15,x0,4bf8 <_vfprintf_r+0x1fb4>
    4064:	200b7e13          	andi	x28,x22,512
    4068:	700e0863          	beq	x28,x0,4778 <_vfprintf_r+0x1b34>
    406c:	00c12783          	lw	x15,12(x2)
    4070:	00412703          	lw	x14,4(x2)
    4074:	0007a783          	lw	x15,0(x15)
    4078:	00e78023          	sb	x14,0(x15)
    407c:	ddcff06f          	jal	x0,3658 <_vfprintf_r+0xa14>
    4080:	03412783          	lw	x15,52(x2)
    4084:	0009c883          	lbu	x17,0(x19)
    4088:	00079463          	bne	x15,x0,4090 <_vfprintf_r+0x144c>
    408c:	d59fe06f          	jal	x0,2de4 <_vfprintf_r+0x1a0>
    4090:	0007c783          	lbu	x15,0(x15)
    4094:	00079463          	bne	x15,x0,409c <_vfprintf_r+0x1458>
    4098:	d4dfe06f          	jal	x0,2de4 <_vfprintf_r+0x1a0>
    409c:	400b6b13          	ori	x22,x22,1024
    40a0:	d45fe06f          	jal	x0,2de4 <_vfprintf_r+0x1a0>
    40a4:	00078913          	addi	x18,x15,0
    40a8:	c3204ae3          	blt	x0,x18,3cdc <_vfprintf_r+0x1098>
    40ac:	c59ff06f          	jal	x0,3d04 <_vfprintf_r+0x10c0>
    40b0:	fff00a13          	addi	x20,x0,-1
    40b4:	00068993          	addi	x19,x13,0
    40b8:	d31fe06f          	jal	x0,2de8 <_vfprintf_r+0x1a4>
    40bc:	0000e797          	auipc	x15,0xe
    40c0:	90c78793          	addi	x15,x15,-1780 # 119c8 <__clzsi2+0x34c>
    40c4:	000b0e13          	addi	x28,x22,0
    40c8:	02f12623          	sw	x15,44(x2)
    40cc:	020e7793          	andi	x15,x28,32
    40d0:	3a078463          	beq	x15,x0,4478 <_vfprintf_r+0x1834>
    40d4:	00c12783          	lw	x15,12(x2)
    40d8:	00778b93          	addi	x23,x15,7
    40dc:	ff8bfb93          	andi	x23,x23,-8
    40e0:	000ba903          	lw	x18,0(x23)
    40e4:	004bad83          	lw	x27,4(x23)
    40e8:	008b8793          	addi	x15,x23,8
    40ec:	00f12623          	sw	x15,12(x2)
    40f0:	001e7793          	andi	x15,x28,1
    40f4:	00078e63          	beq	x15,x0,4110 <_vfprintf_r+0x14cc>
    40f8:	01b967b3          	or	x15,x18,x27
    40fc:	00078a63          	beq	x15,x0,4110 <_vfprintf_r+0x14cc>
    4100:	03000793          	addi	x15,x0,48
    4104:	0af10423          	sb	x15,168(x2)
    4108:	0b1104a3          	sb	x17,169(x2)
    410c:	002e6e13          	ori	x28,x28,2
    4110:	bffe7e93          	andi	x29,x28,-1025
    4114:	00200793          	addi	x15,x0,2
    4118:	bc0ff06f          	jal	x0,34d8 <_vfprintf_r+0x894>
    411c:	000b0e93          	addi	x29,x22,0
    4120:	b90ff06f          	jal	x0,34b0 <_vfprintf_r+0x86c>
    4124:	00012583          	lw	x11,0(x2)
    4128:	0c410613          	addi	x12,x2,196
    412c:	000a8513          	addi	x10,x21,0
    4130:	01c12a23          	sw	x28,20(x2)
    4134:	67d010ef          	jal	x1,5fb0 <__sprint_r>
    4138:	960512e3          	bne	x10,x0,3a9c <_vfprintf_r+0xe58>
    413c:	0cc12603          	lw	x12,204(x2)
    4140:	01412e03          	lw	x28,20(x2)
    4144:	000c0493          	addi	x9,x24,0
    4148:	e04ff06f          	jal	x0,374c <_vfprintf_r+0xb08>
    414c:	0000e797          	auipc	x15,0xe
    4150:	86878793          	addi	x15,x15,-1944 # 119b4 <__clzsi2+0x338>
    4154:	000b0e13          	addi	x28,x22,0
    4158:	02f12623          	sw	x15,44(x2)
    415c:	f71ff06f          	jal	x0,40cc <_vfprintf_r+0x1488>
    4160:	000b0e13          	addi	x28,x22,0
    4164:	c54ff06f          	jal	x0,35b8 <_vfprintf_r+0x974>
    4168:	0019c883          	lbu	x17,1(x19)
    416c:	200b6b13          	ori	x22,x22,512
    4170:	00198993          	addi	x19,x19,1
    4174:	c71fe06f          	jal	x0,2de4 <_vfprintf_r+0x1a0>
    4178:	0019c883          	lbu	x17,1(x19)
    417c:	020b6b13          	ori	x22,x22,32
    4180:	00198993          	addi	x19,x19,1
    4184:	c61fe06f          	jal	x0,2de4 <_vfprintf_r+0x1a0>
    4188:	00600793          	addi	x15,x0,6
    418c:	000a0913          	addi	x18,x20,0
    4190:	2747e0e3          	bltu	x15,x20,4bf0 <_vfprintf_r+0x1fac>
    4194:	00090d93          	addi	x27,x18,0
    4198:	01712623          	sw	x23,12(x2)
    419c:	0000ed17          	auipc	x26,0xe
    41a0:	840d0d13          	addi	x26,x26,-1984 # 119dc <__clzsi2+0x360>
    41a4:	cb9fe06f          	jal	x0,2e5c <_vfprintf_r+0x218>
    41a8:	01000513          	addi	x10,x0,16
    41ac:	0c812583          	lw	x11,200(x2)
    41b0:	0000ee97          	auipc	x29,0xe
    41b4:	c74e8e93          	addi	x29,x29,-908 # 11e24 <zeroes.0>
    41b8:	6f255063          	bge	x10,x18,4898 <_vfprintf_r+0x1c54>
    41bc:	00048793          	addi	x15,x9,0
    41c0:	01000b93          	addi	x23,x0,16
    41c4:	00090493          	addi	x9,x18,0
    41c8:	00700a13          	addi	x20,x0,7
    41cc:	03c12823          	sw	x28,48(x2)
    41d0:	000e8913          	addi	x18,x29,0
    41d4:	00c0006f          	jal	x0,41e0 <_vfprintf_r+0x159c>
    41d8:	ff048493          	addi	x9,x9,-16
    41dc:	6a9bd663          	bge	x23,x9,4888 <_vfprintf_r+0x1c44>
    41e0:	01060613          	addi	x12,x12,16
    41e4:	00158593          	addi	x11,x11,1
    41e8:	0127a023          	sw	x18,0(x15)
    41ec:	0177a223          	sw	x23,4(x15)
    41f0:	0cc12623          	sw	x12,204(x2)
    41f4:	0cb12423          	sw	x11,200(x2)
    41f8:	00878793          	addi	x15,x15,8
    41fc:	fcba5ee3          	bge	x20,x11,41d8 <_vfprintf_r+0x1594>
    4200:	00012583          	lw	x11,0(x2)
    4204:	0c410613          	addi	x12,x2,196
    4208:	000a8513          	addi	x10,x21,0
    420c:	5a5010ef          	jal	x1,5fb0 <__sprint_r>
    4210:	880516e3          	bne	x10,x0,3a9c <_vfprintf_r+0xe58>
    4214:	0cc12603          	lw	x12,204(x2)
    4218:	0c812583          	lw	x11,200(x2)
    421c:	000c0793          	addi	x15,x24,0
    4220:	fb9ff06f          	jal	x0,41d8 <_vfprintf_r+0x1594>
    4224:	02812703          	lw	x14,40(x2)
    4228:	02412783          	lw	x15,36(x2)
    422c:	00700593          	addi	x11,x0,7
    4230:	00e4a023          	sw	x14,0(x9)
    4234:	0c812703          	lw	x14,200(x2)
    4238:	00f60633          	add	x12,x12,x15
    423c:	00f4a223          	sw	x15,4(x9)
    4240:	00170713          	addi	x14,x14,1
    4244:	0cc12623          	sw	x12,204(x2)
    4248:	0ce12423          	sw	x14,200(x2)
    424c:	00848493          	addi	x9,x9,8
    4250:	aee5d8e3          	bge	x11,x14,3d40 <_vfprintf_r+0x10fc>
    4254:	00012583          	lw	x11,0(x2)
    4258:	0c410613          	addi	x12,x2,196
    425c:	000a8513          	addi	x10,x21,0
    4260:	01c12a23          	sw	x28,20(x2)
    4264:	54d010ef          	jal	x1,5fb0 <__sprint_r>
    4268:	82051ae3          	bne	x10,x0,3a9c <_vfprintf_r+0xe58>
    426c:	0ac12903          	lw	x18,172(x2)
    4270:	0cc12603          	lw	x12,204(x2)
    4274:	01412e03          	lw	x28,20(x2)
    4278:	000c0493          	addi	x9,x24,0
    427c:	ac5ff06f          	jal	x0,3d40 <_vfprintf_r+0x10fc>
    4280:	07800793          	addi	x15,x0,120
    4284:	03000713          	addi	x14,x0,48
    4288:	0ae10423          	sb	x14,168(x2)
    428c:	0af104a3          	sb	x15,169(x2)
    4290:	06300713          	addi	x14,x0,99
    4294:	00012423          	sw	x0,8(x2)
    4298:	002e6e13          	ori	x28,x28,2
    429c:	12c10d13          	addi	x26,x2,300
    42a0:	01474463          	blt	x14,x20,42a8 <_vfprintf_r+0x1664>
    42a4:	ec9fe06f          	jal	x0,316c <_vfprintf_r+0x528>
    42a8:	001a0593          	addi	x11,x20,1
    42ac:	000a8513          	addi	x10,x21,0
    42b0:	01c12823          	sw	x28,16(x2)
    42b4:	01112423          	sw	x17,8(x2)
    42b8:	e11fc0ef          	jal	x1,10c8 <_malloc_r>
    42bc:	00812883          	lw	x17,8(x2)
    42c0:	01012e03          	lw	x28,16(x2)
    42c4:	00050d13          	addi	x26,x10,0
    42c8:	00051463          	bne	x10,x0,42d0 <_vfprintf_r+0x168c>
    42cc:	41c0106f          	jal	x0,56e8 <_vfprintf_r+0x2aa4>
    42d0:	00a12423          	sw	x10,8(x2)
    42d4:	e99fe06f          	jal	x0,316c <_vfprintf_r+0x528>
    42d8:	09010913          	addi	x18,x2,144
    42dc:	0ac10713          	addi	x14,x2,172
    42e0:	0bc10813          	addi	x16,x2,188
    42e4:	0b010793          	addi	x15,x2,176
    42e8:	000a0693          	addi	x13,x20,0
    42ec:	00200613          	addi	x12,x0,2
    42f0:	00090593          	addi	x11,x18,0
    42f4:	000a8513          	addi	x10,x21,0
    42f8:	05c12623          	sw	x28,76(x2)
    42fc:	05112423          	sw	x17,72(x2)
    4300:	09e12823          	sw	x30,144(x2)
    4304:	01e12e23          	sw	x30,28(x2)
    4308:	09f12a23          	sw	x31,148(x2)
    430c:	01f12c23          	sw	x31,24(x2)
    4310:	08512c23          	sw	x5,152(x2)
    4314:	00512a23          	sw	x5,20(x2)
    4318:	09d12e23          	sw	x29,156(x2)
    431c:	01d12823          	sw	x29,16(x2)
    4320:	4bc010ef          	jal	x1,57dc <_ldtoa_r>
    4324:	04c12e03          	lw	x28,76(x2)
    4328:	01012e83          	lw	x29,16(x2)
    432c:	01412283          	lw	x5,20(x2)
    4330:	001e7713          	andi	x14,x28,1
    4334:	01812f83          	lw	x31,24(x2)
    4338:	01c12f03          	lw	x30,28(x2)
    433c:	04812883          	lw	x17,72(x2)
    4340:	00050d13          	addi	x26,x10,0
    4344:	140712e3          	bne	x14,x0,4c88 <_vfprintf_r+0x2044>
    4348:	0bc12783          	lw	x15,188(x2)
    434c:	0ac12703          	lw	x14,172(x2)
    4350:	40a787b3          	sub	x15,x15,x10
    4354:	00f12823          	sw	x15,16(x2)
    4358:	00e12a23          	sw	x14,20(x2)
    435c:	ffd00693          	addi	x13,x0,-3
    4360:	00d74463          	blt	x14,x13,4368 <_vfprintf_r+0x1724>
    4364:	74ea58e3          	bge	x20,x14,52b4 <_vfprintf_r+0x2670>
    4368:	ffe88893          	addi	x17,x17,-2
    436c:	fff70713          	addi	x14,x14,-1
    4370:	0ae12623          	sw	x14,172(x2)
    4374:	0ff8f693          	andi	x13,x17,255
    4378:	00000613          	addi	x12,x0,0
    437c:	0ad10a23          	sb	x13,180(x2)
    4380:	02b00693          	addi	x13,x0,43
    4384:	00075a63          	bge	x14,x0,4398 <_vfprintf_r+0x1754>
    4388:	01412783          	lw	x15,20(x2)
    438c:	00100713          	addi	x14,x0,1
    4390:	02d00693          	addi	x13,x0,45
    4394:	40f70733          	sub	x14,x14,x15
    4398:	0ad10aa3          	sb	x13,181(x2)
    439c:	00900693          	addi	x13,x0,9
    43a0:	00e6c463          	blt	x13,x14,43a8 <_vfprintf_r+0x1764>
    43a4:	11c0106f          	jal	x0,54c0 <_vfprintf_r+0x287c>
    43a8:	0c310813          	addi	x16,x2,195
    43ac:	00080e93          	addi	x29,x16,0
    43b0:	00a00613          	addi	x12,x0,10
    43b4:	06300f13          	addi	x30,x0,99
    43b8:	02c767b3          	rem	x15,x14,x12
    43bc:	000e8513          	addi	x10,x29,0
    43c0:	00070693          	addi	x13,x14,0
    43c4:	fffe8e93          	addi	x29,x29,-1
    43c8:	03078793          	addi	x15,x15,48
    43cc:	fef50fa3          	sb	x15,-1(x10)
    43d0:	02c74733          	div	x14,x14,x12
    43d4:	fedf42e3          	blt	x30,x13,43b8 <_vfprintf_r+0x1774>
    43d8:	03070713          	addi	x14,x14,48
    43dc:	ffe50693          	addi	x13,x10,-2
    43e0:	feee8fa3          	sb	x14,-1(x29)
    43e4:	0106e463          	bltu	x13,x16,43ec <_vfprintf_r+0x17a8>
    43e8:	2d80106f          	jal	x0,56c0 <_vfprintf_r+0x2a7c>
    43ec:	0b610613          	addi	x12,x2,182
    43f0:	0006c783          	lbu	x15,0(x13)
    43f4:	00168693          	addi	x13,x13,1
    43f8:	00160613          	addi	x12,x12,1
    43fc:	fef60fa3          	sb	x15,-1(x12)
    4400:	ff0698e3          	bne	x13,x16,43f0 <_vfprintf_r+0x17ac>
    4404:	19010793          	addi	x15,x2,400
    4408:	40a78733          	sub	x14,x15,x10
    440c:	f3770793          	addi	x15,x14,-201
    4410:	02f12c23          	sw	x15,56(x2)
    4414:	01012783          	lw	x15,16(x2)
    4418:	03812683          	lw	x13,56(x2)
    441c:	00100713          	addi	x14,x0,1
    4420:	00d78933          	add	x18,x15,x13
    4424:	00f74463          	blt	x14,x15,442c <_vfprintf_r+0x17e8>
    4428:	0d40106f          	jal	x0,54fc <_vfprintf_r+0x28b8>
    442c:	02412783          	lw	x15,36(x2)
    4430:	00f90933          	add	x18,x18,x15
    4434:	fff94693          	xori	x13,x18,-1
    4438:	bffe7e13          	andi	x28,x28,-1025
    443c:	41f6d693          	srai	x13,x13,0x1f
    4440:	100e6793          	ori	x15,x28,256
    4444:	04f12023          	sw	x15,64(x2)
    4448:	00d97db3          	and	x27,x18,x13
    444c:	00012e23          	sw	x0,28(x2)
    4450:	00012c23          	sw	x0,24(x2)
    4454:	00012a23          	sw	x0,20(x2)
    4458:	03012783          	lw	x15,48(x2)
    445c:	640780e3          	beq	x15,x0,529c <_vfprintf_r+0x2658>
    4460:	02d00713          	addi	x14,x0,45
    4464:	04012e03          	lw	x28,64(x2)
    4468:	0ae103a3          	sb	x14,167(x2)
    446c:	00000a13          	addi	x20,x0,0
    4470:	001d8d93          	addi	x27,x27,1
    4474:	9fdfe06f          	jal	x0,2e70 <_vfprintf_r+0x22c>
    4478:	00c12703          	lw	x14,12(x2)
    447c:	010e7793          	andi	x15,x28,16
    4480:	00072903          	lw	x18,0(x14)
    4484:	00470713          	addi	x14,x14,4
    4488:	00e12623          	sw	x14,12(x2)
    448c:	06079e63          	bne	x15,x0,4508 <_vfprintf_r+0x18c4>
    4490:	040e7793          	andi	x15,x28,64
    4494:	06078663          	beq	x15,x0,4500 <_vfprintf_r+0x18bc>
    4498:	01091913          	slli	x18,x18,0x10
    449c:	01095913          	srli	x18,x18,0x10
    44a0:	00000d93          	addi	x27,x0,0
    44a4:	c4dff06f          	jal	x0,40f0 <_vfprintf_r+0x14ac>
    44a8:	00012583          	lw	x11,0(x2)
    44ac:	0c410613          	addi	x12,x2,196
    44b0:	000a8513          	addi	x10,x21,0
    44b4:	01c12a23          	sw	x28,20(x2)
    44b8:	2f9010ef          	jal	x1,5fb0 <__sprint_r>
    44bc:	de051063          	bne	x10,x0,3a9c <_vfprintf_r+0xe58>
    44c0:	0cc12b83          	lw	x23,204(x2)
    44c4:	0c812903          	lw	x18,200(x2)
    44c8:	01412e03          	lw	x28,20(x2)
    44cc:	000c0a13          	addi	x20,x24,0
    44d0:	d75fe06f          	jal	x0,3244 <_vfprintf_r+0x600>
    44d4:	00012583          	lw	x11,0(x2)
    44d8:	0c410613          	addi	x12,x2,196
    44dc:	000a8513          	addi	x10,x21,0
    44e0:	01c12a23          	sw	x28,20(x2)
    44e4:	2cd010ef          	jal	x1,5fb0 <__sprint_r>
    44e8:	da051a63          	bne	x10,x0,3a9c <_vfprintf_r+0xe58>
    44ec:	0cc12b83          	lw	x23,204(x2)
    44f0:	0c812903          	lw	x18,200(x2)
    44f4:	01412e03          	lw	x28,20(x2)
    44f8:	000c0a13          	addi	x20,x24,0
    44fc:	d79fe06f          	jal	x0,3274 <_vfprintf_r+0x630>
    4500:	200e7793          	andi	x15,x28,512
    4504:	70079463          	bne	x15,x0,4c0c <_vfprintf_r+0x1fc8>
    4508:	00000d93          	addi	x27,x0,0
    450c:	be5ff06f          	jal	x0,40f0 <_vfprintf_r+0x14ac>
    4510:	ccccd837          	lui	x16,0xccccd
    4514:	ccccdbb7          	lui	x23,0xccccd
    4518:	03412703          	lw	x14,52(x2)
    451c:	400eff13          	andi	x30,x29,1024
    4520:	00000613          	addi	x12,x0,0
    4524:	19010593          	addi	x11,x2,400
    4528:	00500e13          	addi	x28,x0,5
    452c:	ccd80813          	addi	x16,x16,-819 # cccccccd <__heap_end+0xcc8ccccd>
    4530:	cccb8b93          	addi	x23,x23,-820 # cccccccc <__heap_end+0xcc8ccccc>
    4534:	0ff00b13          	addi	x22,x0,255
    4538:	0540006f          	jal	x0,458c <_vfprintf_r+0x1948>
    453c:	012d37b3          	sltu	x15,x26,x18
    4540:	00fd07b3          	add	x15,x26,x15
    4544:	03c7f7b3          	remu	x15,x15,x28
    4548:	40f907b3          	sub	x15,x18,x15
    454c:	00f935b3          	sltu	x11,x18,x15
    4550:	40bd85b3          	sub	x11,x27,x11
    4554:	03778333          	mul	x6,x15,x23
    4558:	030585b3          	mul	x11,x11,x16
    455c:	0307b533          	mulhu	x10,x15,x16
    4560:	006585b3          	add	x11,x11,x6
    4564:	030787b3          	mul	x15,x15,x16
    4568:	00a585b3          	add	x11,x11,x10
    456c:	01f59513          	slli	x10,x11,0x1f
    4570:	0015d593          	srli	x11,x11,0x1
    4574:	0017d793          	srli	x15,x15,0x1
    4578:	00f567b3          	or	x15,x10,x15
    457c:	5a0d84e3          	beq	x27,x0,5324 <_vfprintf_r+0x26e0>
    4580:	00058d93          	addi	x27,x11,0
    4584:	00078913          	addi	x18,x15,0
    4588:	00068593          	addi	x11,x13,0
    458c:	01b90d33          	add	x26,x18,x27
    4590:	012d37b3          	sltu	x15,x26,x18
    4594:	00fd07b3          	add	x15,x26,x15
    4598:	03c7f7b3          	remu	x15,x15,x28
    459c:	fff58693          	addi	x13,x11,-1
    45a0:	00160613          	addi	x12,x12,1
    45a4:	40f907b3          	sub	x15,x18,x15
    45a8:	00f93533          	sltu	x10,x18,x15
    45ac:	40ad8533          	sub	x10,x27,x10
    45b0:	0307b333          	mulhu	x6,x15,x16
    45b4:	03050533          	mul	x10,x10,x16
    45b8:	030787b3          	mul	x15,x15,x16
    45bc:	00650533          	add	x10,x10,x6
    45c0:	01f51513          	slli	x10,x10,0x1f
    45c4:	0017d793          	srli	x15,x15,0x1
    45c8:	00f567b3          	or	x15,x10,x15
    45cc:	00279513          	slli	x10,x15,0x2
    45d0:	00f507b3          	add	x15,x10,x15
    45d4:	00179793          	slli	x15,x15,0x1
    45d8:	40f907b3          	sub	x15,x18,x15
    45dc:	03078793          	addi	x15,x15,48
    45e0:	fef58fa3          	sb	x15,-1(x11)
    45e4:	f40f0ce3          	beq	x30,x0,453c <_vfprintf_r+0x18f8>
    45e8:	00074783          	lbu	x15,0(x14)
    45ec:	f4f618e3          	bne	x12,x15,453c <_vfprintf_r+0x18f8>
    45f0:	f56606e3          	beq	x12,x22,453c <_vfprintf_r+0x18f8>
    45f4:	4e0d9663          	bne	x27,x0,4ae0 <_vfprintf_r+0x1e9c>
    45f8:	00900793          	addi	x15,x0,9
    45fc:	4f27e263          	bltu	x15,x18,4ae0 <_vfprintf_r+0x1e9c>
    4600:	00068d13          	addi	x26,x13,0
    4604:	19010793          	addi	x15,x2,400
    4608:	00c12823          	sw	x12,16(x2)
    460c:	02e12a23          	sw	x14,52(x2)
    4610:	41a78933          	sub	x18,x15,x26
    4614:	000e8e13          	addi	x28,x29,0
    4618:	eedfe06f          	jal	x0,3504 <_vfprintf_r+0x8c0>
    461c:	0c812703          	lw	x14,200(x2)
    4620:	0000d517          	auipc	x10,0xd
    4624:	3c450513          	addi	x10,x10,964 # 119e4 <__clzsi2+0x368>
    4628:	00a4a023          	sw	x10,0(x9)
    462c:	00160613          	addi	x12,x12,1
    4630:	00100513          	addi	x10,x0,1
    4634:	00170713          	addi	x14,x14,1
    4638:	00a4a223          	sw	x10,4(x9)
    463c:	0cc12623          	sw	x12,204(x2)
    4640:	0ce12423          	sw	x14,200(x2)
    4644:	00700513          	addi	x10,x0,7
    4648:	00848493          	addi	x9,x9,8
    464c:	54e54463          	blt	x10,x14,4b94 <_vfprintf_r+0x1f50>
    4650:	12059e63          	bne	x11,x0,478c <_vfprintf_r+0x1b48>
    4654:	01012783          	lw	x15,16(x2)
    4658:	001e7713          	andi	x14,x28,1
    465c:	00f76733          	or	x14,x14,x15
    4660:	00071463          	bne	x14,x0,4668 <_vfprintf_r+0x1a24>
    4664:	8d9fe06f          	jal	x0,2f3c <_vfprintf_r+0x2f8>
    4668:	02812703          	lw	x14,40(x2)
    466c:	02412783          	lw	x15,36(x2)
    4670:	00700593          	addi	x11,x0,7
    4674:	00e4a023          	sw	x14,0(x9)
    4678:	0c812703          	lw	x14,200(x2)
    467c:	00c78633          	add	x12,x15,x12
    4680:	00f4a223          	sw	x15,4(x9)
    4684:	00170713          	addi	x14,x14,1
    4688:	0cc12623          	sw	x12,204(x2)
    468c:	0ce12423          	sw	x14,200(x2)
    4690:	5ce5c263          	blt	x11,x14,4c54 <_vfprintf_r+0x2010>
    4694:	00848493          	addi	x9,x9,8
    4698:	1280006f          	jal	x0,47c0 <_vfprintf_r+0x1b7c>
    469c:	02012503          	lw	x10,32(x2)
    46a0:	ba8fc0ef          	jal	x1,a48 <__sinit>
    46a4:	dfcfe06f          	jal	x0,2ca0 <_vfprintf_r+0x5c>
    46a8:	00012583          	lw	x11,0(x2)
    46ac:	0c410613          	addi	x12,x2,196
    46b0:	000a8513          	addi	x10,x21,0
    46b4:	01c12a23          	sw	x28,20(x2)
    46b8:	0f9010ef          	jal	x1,5fb0 <__sprint_r>
    46bc:	be051063          	bne	x10,x0,3a9c <_vfprintf_r+0xe58>
    46c0:	0cc12603          	lw	x12,204(x2)
    46c4:	01412e03          	lw	x28,20(x2)
    46c8:	000c0493          	addi	x9,x24,0
    46cc:	844ff06f          	jal	x0,3710 <_vfprintf_r+0xacc>
    46d0:	000d0e13          	addi	x28,x26,0
    46d4:	000b0e93          	addi	x29,x22,0
    46d8:	01260633          	add	x12,x12,x18
    46dc:	00178793          	addi	x15,x15,1
    46e0:	01d4a023          	sw	x29,0(x9)
    46e4:	841fe06f          	jal	x0,2f24 <_vfprintf_r+0x2e0>
    46e8:	0d012783          	lw	x15,208(x2)
    46ec:	08010593          	addi	x11,x2,128
    46f0:	09010513          	addi	x10,x2,144
    46f4:	08f12823          	sw	x15,144(x2)
    46f8:	0d412783          	lw	x15,212(x2)
    46fc:	08012023          	sw	x0,128(x2)
    4700:	08012223          	sw	x0,132(x2)
    4704:	08f12a23          	sw	x15,148(x2)
    4708:	0d812783          	lw	x15,216(x2)
    470c:	08012423          	sw	x0,136(x2)
    4710:	08012623          	sw	x0,140(x2)
    4714:	08f12c23          	sw	x15,152(x2)
    4718:	0dc12783          	lw	x15,220(x2)
    471c:	08f12e23          	sw	x15,156(x2)
    4720:	731090ef          	jal	x1,e650 <__letf2>
    4724:	00812883          	lw	x17,8(x2)
    4728:	01412e03          	lw	x28,20(x2)
    472c:	400542e3          	blt	x10,x0,5330 <_vfprintf_r+0x26ec>
    4730:	0a714703          	lbu	x14,167(x2)
    4734:	04700693          	addi	x13,x0,71
    4738:	0000dd17          	auipc	x26,0xd
    473c:	270d0d13          	addi	x26,x26,624 # 119a8 <__clzsi2+0x32c>
    4740:	0116c663          	blt	x13,x17,474c <_vfprintf_r+0x1b08>
    4744:	0000dd17          	auipc	x26,0xd
    4748:	260d0d13          	addi	x26,x26,608 # 119a4 <__clzsi2+0x328>
    474c:	00012423          	sw	x0,8(x2)
    4750:	00012e23          	sw	x0,28(x2)
    4754:	00012c23          	sw	x0,24(x2)
    4758:	00012a23          	sw	x0,20(x2)
    475c:	f7fe7e13          	andi	x28,x28,-129
    4760:	00300d93          	addi	x27,x0,3
    4764:	00300913          	addi	x18,x0,3
    4768:	00000a13          	addi	x20,x0,0
    476c:	00070463          	beq	x14,x0,4774 <_vfprintf_r+0x1b30>
    4770:	c7dfe06f          	jal	x0,33ec <_vfprintf_r+0x7a8>
    4774:	efcfe06f          	jal	x0,2e70 <_vfprintf_r+0x22c>
    4778:	00c12783          	lw	x15,12(x2)
    477c:	00412703          	lw	x14,4(x2)
    4780:	0007a783          	lw	x15,0(x15)
    4784:	00e7a023          	sw	x14,0(x15)
    4788:	ed1fe06f          	jal	x0,3658 <_vfprintf_r+0xa14>
    478c:	02812703          	lw	x14,40(x2)
    4790:	02412783          	lw	x15,36(x2)
    4794:	00700513          	addi	x10,x0,7
    4798:	00e4a023          	sw	x14,0(x9)
    479c:	0c812703          	lw	x14,200(x2)
    47a0:	00c78633          	add	x12,x15,x12
    47a4:	00f4a223          	sw	x15,4(x9)
    47a8:	00170713          	addi	x14,x14,1
    47ac:	0cc12623          	sw	x12,204(x2)
    47b0:	0ce12423          	sw	x14,200(x2)
    47b4:	00848493          	addi	x9,x9,8
    47b8:	48e54e63          	blt	x10,x14,4c54 <_vfprintf_r+0x2010>
    47bc:	4205c6e3          	blt	x11,x0,53e8 <_vfprintf_r+0x27a4>
    47c0:	01012783          	lw	x15,16(x2)
    47c4:	00170713          	addi	x14,x14,1
    47c8:	01a4a023          	sw	x26,0(x9)
    47cc:	00c78633          	add	x12,x15,x12
    47d0:	00f4a223          	sw	x15,4(x9)
    47d4:	0cc12623          	sw	x12,204(x2)
    47d8:	0ce12423          	sw	x14,200(x2)
    47dc:	00700793          	addi	x15,x0,7
    47e0:	00e7c463          	blt	x15,x14,47e8 <_vfprintf_r+0x1ba4>
    47e4:	f54fe06f          	jal	x0,2f38 <_vfprintf_r+0x2f4>
    47e8:	b31fe06f          	jal	x0,3318 <_vfprintf_r+0x6d4>
    47ec:	01412e03          	lw	x28,20(x2)
    47f0:	00048e93          	addi	x29,x9,0
    47f4:	000b0493          	addi	x9,x22,0
    47f8:	009b8bb3          	add	x23,x23,x9
    47fc:	00190913          	addi	x18,x18,1
    4800:	01da2023          	sw	x29,0(x20)
    4804:	ad1fe06f          	jal	x0,32d4 <_vfprintf_r+0x690>
    4808:	000d0513          	addi	x10,x26,0
    480c:	03112823          	sw	x17,48(x2)
    4810:	05612023          	sw	x22,64(x2)
    4814:	d2cfd0ef          	jal	x1,1d40 <strlen>
    4818:	0a714703          	lbu	x14,167(x2)
    481c:	fff54693          	xori	x13,x10,-1
    4820:	41f6d693          	srai	x13,x13,0x1f
    4824:	01712623          	sw	x23,12(x2)
    4828:	00012423          	sw	x0,8(x2)
    482c:	00012e23          	sw	x0,28(x2)
    4830:	00012c23          	sw	x0,24(x2)
    4834:	00012a23          	sw	x0,20(x2)
    4838:	03012883          	lw	x17,48(x2)
    483c:	04012e03          	lw	x28,64(x2)
    4840:	00050913          	addi	x18,x10,0
    4844:	00d57db3          	and	x27,x10,x13
    4848:	00000a13          	addi	x20,x0,0
    484c:	00070463          	beq	x14,x0,4854 <_vfprintf_r+0x1c10>
    4850:	b9dfe06f          	jal	x0,33ec <_vfprintf_r+0x7a8>
    4854:	e1cfe06f          	jal	x0,2e70 <_vfprintf_r+0x22c>
    4858:	0dc12783          	lw	x15,220(x2)
    485c:	3c07de63          	bge	x15,x0,4c38 <_vfprintf_r+0x1ff4>
    4860:	02d00793          	addi	x15,x0,45
    4864:	0af103a3          	sb	x15,167(x2)
    4868:	02d00713          	addi	x14,x0,45
    486c:	04700693          	addi	x13,x0,71
    4870:	0000dd17          	auipc	x26,0xd
    4874:	140d0d13          	addi	x26,x26,320 # 119b0 <__clzsi2+0x334>
    4878:	ed16cae3          	blt	x13,x17,474c <_vfprintf_r+0x1b08>
    487c:	0000dd17          	auipc	x26,0xd
    4880:	130d0d13          	addi	x26,x26,304 # 119ac <__clzsi2+0x330>
    4884:	ec9ff06f          	jal	x0,474c <_vfprintf_r+0x1b08>
    4888:	03012e03          	lw	x28,48(x2)
    488c:	00090e93          	addi	x29,x18,0
    4890:	00048913          	addi	x18,x9,0
    4894:	00078493          	addi	x9,x15,0
    4898:	01260633          	add	x12,x12,x18
    489c:	00158593          	addi	x11,x11,1
    48a0:	01d4a023          	sw	x29,0(x9)
    48a4:	0124a223          	sw	x18,4(x9)
    48a8:	0cc12623          	sw	x12,204(x2)
    48ac:	0cb12423          	sw	x11,200(x2)
    48b0:	00700713          	addi	x14,x0,7
    48b4:	00848493          	addi	x9,x9,8
    48b8:	c6b75263          	bge	x14,x11,3d1c <_vfprintf_r+0x10d8>
    48bc:	00012583          	lw	x11,0(x2)
    48c0:	0c410613          	addi	x12,x2,196
    48c4:	000a8513          	addi	x10,x21,0
    48c8:	03c12823          	sw	x28,48(x2)
    48cc:	6e4010ef          	jal	x1,5fb0 <__sprint_r>
    48d0:	9c051663          	bne	x10,x0,3a9c <_vfprintf_r+0xe58>
    48d4:	0cc12603          	lw	x12,204(x2)
    48d8:	03012e03          	lw	x28,48(x2)
    48dc:	000c0493          	addi	x9,x24,0
    48e0:	c3cff06f          	jal	x0,3d1c <_vfprintf_r+0x10d8>
    48e4:	00048693          	addi	x13,x9,0
    48e8:	01812483          	lw	x9,24(x2)
    48ec:	03312823          	sw	x19,48(x2)
    48f0:	05912423          	sw	x25,72(x2)
    48f4:	01b12c23          	sw	x27,24(x2)
    48f8:	05c12023          	sw	x28,64(x2)
    48fc:	000d0d93          	addi	x27,x26,0
    4900:	04412c83          	lw	x25,68(x2)
    4904:	01c12983          	lw	x19,28(x2)
    4908:	03412d03          	lw	x26,52(x2)
    490c:	00700893          	addi	x17,x0,7
    4910:	01000a13          	addi	x20,x0,16
    4914:	0000db97          	auipc	x23,0xd
    4918:	510b8b93          	addi	x23,x23,1296 # 11e24 <zeroes.0>
    491c:	08905663          	bge	x0,x9,49a8 <_vfprintf_r+0x1d64>
    4920:	17305063          	bge	x0,x19,4a80 <_vfprintf_r+0x1e3c>
    4924:	fff98993          	addi	x19,x19,-1
    4928:	03c12783          	lw	x15,60(x2)
    492c:	01960633          	add	x12,x12,x25
    4930:	0196a223          	sw	x25,4(x13)
    4934:	00f6a023          	sw	x15,0(x13)
    4938:	0c812783          	lw	x15,200(x2)
    493c:	0cc12623          	sw	x12,204(x2)
    4940:	00868693          	addi	x13,x13,8
    4944:	00178793          	addi	x15,x15,1
    4948:	0cf12423          	sw	x15,200(x2)
    494c:	14f8c063          	blt	x17,x15,4a8c <_vfprintf_r+0x1e48>
    4950:	000d4703          	lbu	x14,0(x26)
    4954:	41bb0933          	sub	x18,x22,x27
    4958:	01275463          	bge	x14,x18,4960 <_vfprintf_r+0x1d1c>
    495c:	00070913          	addi	x18,x14,0
    4960:	03205663          	bge	x0,x18,498c <_vfprintf_r+0x1d48>
    4964:	0c812703          	lw	x14,200(x2)
    4968:	01260633          	add	x12,x12,x18
    496c:	01b6a023          	sw	x27,0(x13)
    4970:	00170713          	addi	x14,x14,1
    4974:	0126a223          	sw	x18,4(x13)
    4978:	0cc12623          	sw	x12,204(x2)
    497c:	0ce12423          	sw	x14,200(x2)
    4980:	12e8ca63          	blt	x17,x14,4ab4 <_vfprintf_r+0x1e70>
    4984:	000d4703          	lbu	x14,0(x26)
    4988:	00868693          	addi	x13,x13,8
    498c:	fff94593          	xori	x11,x18,-1
    4990:	41f5d593          	srai	x11,x11,0x1f
    4994:	00b977b3          	and	x15,x18,x11
    4998:	40f70933          	sub	x18,x14,x15
    499c:	03204c63          	blt	x0,x18,49d4 <_vfprintf_r+0x1d90>
    49a0:	00ed8db3          	add	x27,x27,x14
    49a4:	f6904ee3          	blt	x0,x9,4920 <_vfprintf_r+0x1cdc>
    49a8:	f7304ee3          	blt	x0,x19,4924 <_vfprintf_r+0x1ce0>
    49ac:	03a12a23          	sw	x26,52(x2)
    49b0:	000d8d13          	addi	x26,x27,0
    49b4:	03012983          	lw	x19,48(x2)
    49b8:	04012e03          	lw	x28,64(x2)
    49bc:	04812c83          	lw	x25,72(x2)
    49c0:	01812d83          	lw	x27,24(x2)
    49c4:	00068493          	addi	x9,x13,0
    49c8:	b7ab7263          	bgeu	x22,x26,3d2c <_vfprintf_r+0x10e8>
    49cc:	000b0d13          	addi	x26,x22,0
    49d0:	b5cff06f          	jal	x0,3d2c <_vfprintf_r+0x10e8>
    49d4:	0c812703          	lw	x14,200(x2)
    49d8:	0000d597          	auipc	x11,0xd
    49dc:	44c58593          	addi	x11,x11,1100 # 11e24 <zeroes.0>
    49e0:	072a5a63          	bge	x20,x18,4a54 <_vfprintf_r+0x1e10>
    49e4:	00912a23          	sw	x9,20(x2)
    49e8:	00090493          	addi	x9,x18,0
    49ec:	000b8913          	addi	x18,x23,0
    49f0:	00c0006f          	jal	x0,49fc <_vfprintf_r+0x1db8>
    49f4:	ff048493          	addi	x9,x9,-16
    49f8:	049a5863          	bge	x20,x9,4a48 <_vfprintf_r+0x1e04>
    49fc:	01060613          	addi	x12,x12,16
    4a00:	00170713          	addi	x14,x14,1
    4a04:	0176a023          	sw	x23,0(x13)
    4a08:	0146a223          	sw	x20,4(x13)
    4a0c:	0cc12623          	sw	x12,204(x2)
    4a10:	0ce12423          	sw	x14,200(x2)
    4a14:	00868693          	addi	x13,x13,8
    4a18:	fce8dee3          	bge	x17,x14,49f4 <_vfprintf_r+0x1db0>
    4a1c:	00012583          	lw	x11,0(x2)
    4a20:	0c410613          	addi	x12,x2,196
    4a24:	000a8513          	addi	x10,x21,0
    4a28:	588010ef          	jal	x1,5fb0 <__sprint_r>
    4a2c:	86051863          	bne	x10,x0,3a9c <_vfprintf_r+0xe58>
    4a30:	ff048493          	addi	x9,x9,-16
    4a34:	0cc12603          	lw	x12,204(x2)
    4a38:	0c812703          	lw	x14,200(x2)
    4a3c:	000c0693          	addi	x13,x24,0
    4a40:	00700893          	addi	x17,x0,7
    4a44:	fa9a4ce3          	blt	x20,x9,49fc <_vfprintf_r+0x1db8>
    4a48:	00090593          	addi	x11,x18,0
    4a4c:	00048913          	addi	x18,x9,0
    4a50:	01412483          	lw	x9,20(x2)
    4a54:	01260633          	add	x12,x12,x18
    4a58:	00170713          	addi	x14,x14,1
    4a5c:	00b6a023          	sw	x11,0(x13)
    4a60:	0126a223          	sw	x18,4(x13)
    4a64:	0cc12623          	sw	x12,204(x2)
    4a68:	0ce12423          	sw	x14,200(x2)
    4a6c:	08e8c4e3          	blt	x17,x14,52f4 <_vfprintf_r+0x26b0>
    4a70:	000d4703          	lbu	x14,0(x26)
    4a74:	00868693          	addi	x13,x13,8
    4a78:	00ed8db3          	add	x27,x27,x14
    4a7c:	f29ff06f          	jal	x0,49a4 <_vfprintf_r+0x1d60>
    4a80:	fffd0d13          	addi	x26,x26,-1
    4a84:	fff48493          	addi	x9,x9,-1
    4a88:	ea1ff06f          	jal	x0,4928 <_vfprintf_r+0x1ce4>
    4a8c:	00012583          	lw	x11,0(x2)
    4a90:	0c410613          	addi	x12,x2,196
    4a94:	000a8513          	addi	x10,x21,0
    4a98:	518010ef          	jal	x1,5fb0 <__sprint_r>
    4a9c:	00050463          	beq	x10,x0,4aa4 <_vfprintf_r+0x1e60>
    4aa0:	ffdfe06f          	jal	x0,3a9c <_vfprintf_r+0xe58>
    4aa4:	0cc12603          	lw	x12,204(x2)
    4aa8:	000c0693          	addi	x13,x24,0
    4aac:	00700893          	addi	x17,x0,7
    4ab0:	ea1ff06f          	jal	x0,4950 <_vfprintf_r+0x1d0c>
    4ab4:	00012583          	lw	x11,0(x2)
    4ab8:	0c410613          	addi	x12,x2,196
    4abc:	000a8513          	addi	x10,x21,0
    4ac0:	4f0010ef          	jal	x1,5fb0 <__sprint_r>
    4ac4:	00050463          	beq	x10,x0,4acc <_vfprintf_r+0x1e88>
    4ac8:	fd5fe06f          	jal	x0,3a9c <_vfprintf_r+0xe58>
    4acc:	000d4703          	lbu	x14,0(x26)
    4ad0:	0cc12603          	lw	x12,204(x2)
    4ad4:	000c0693          	addi	x13,x24,0
    4ad8:	00700893          	addi	x17,x0,7
    4adc:	eb1ff06f          	jal	x0,498c <_vfprintf_r+0x1d48>
    4ae0:	04412783          	lw	x15,68(x2)
    4ae4:	03c12583          	lw	x11,60(x2)
    4ae8:	03012823          	sw	x16,48(x2)
    4aec:	40f686b3          	sub	x13,x13,x15
    4af0:	00078613          	addi	x12,x15,0
    4af4:	00068513          	addi	x10,x13,0
    4af8:	01e12e23          	sw	x30,28(x2)
    4afc:	01d12c23          	sw	x29,24(x2)
    4b00:	01112a23          	sw	x17,20(x2)
    4b04:	00e12823          	sw	x14,16(x2)
    4b08:	00d12423          	sw	x13,8(x2)
    4b0c:	319040ef          	jal	x1,9624 <strncpy>
    4b10:	012d37b3          	sltu	x15,x26,x18
    4b14:	00500613          	addi	x12,x0,5
    4b18:	00fd07b3          	add	x15,x26,x15
    4b1c:	02c7f7b3          	remu	x15,x15,x12
    4b20:	01012703          	lw	x14,16(x2)
    4b24:	ccccd337          	lui	x6,0xccccd
    4b28:	ccccd537          	lui	x10,0xccccd
    4b2c:	00174583          	lbu	x11,1(x14)
    4b30:	ccd30313          	addi	x6,x6,-819 # cccccccd <__heap_end+0xcc8ccccd>
    4b34:	ccc50513          	addi	x10,x10,-820 # cccccccc <__heap_end+0xcc8ccccc>
    4b38:	00b035b3          	sltu	x11,x0,x11
    4b3c:	00b70733          	add	x14,x14,x11
    4b40:	00812683          	lw	x13,8(x2)
    4b44:	01412883          	lw	x17,20(x2)
    4b48:	01812e83          	lw	x29,24(x2)
    4b4c:	01c12f03          	lw	x30,28(x2)
    4b50:	03012803          	lw	x16,48(x2)
    4b54:	00000613          	addi	x12,x0,0
    4b58:	00500e13          	addi	x28,x0,5
    4b5c:	40f907b3          	sub	x15,x18,x15
    4b60:	00f935b3          	sltu	x11,x18,x15
    4b64:	40bd85b3          	sub	x11,x27,x11
    4b68:	02a78533          	mul	x10,x15,x10
    4b6c:	026585b3          	mul	x11,x11,x6
    4b70:	0267bfb3          	mulhu	x31,x15,x6
    4b74:	00a585b3          	add	x11,x11,x10
    4b78:	02678533          	mul	x10,x15,x6
    4b7c:	01f585b3          	add	x11,x11,x31
    4b80:	01f59793          	slli	x15,x11,0x1f
    4b84:	0015d593          	srli	x11,x11,0x1
    4b88:	00155513          	srli	x10,x10,0x1
    4b8c:	00a7e7b3          	or	x15,x15,x10
    4b90:	9f1ff06f          	jal	x0,4580 <_vfprintf_r+0x193c>
    4b94:	00012583          	lw	x11,0(x2)
    4b98:	0c410613          	addi	x12,x2,196
    4b9c:	000a8513          	addi	x10,x21,0
    4ba0:	01c12a23          	sw	x28,20(x2)
    4ba4:	40c010ef          	jal	x1,5fb0 <__sprint_r>
    4ba8:	00050463          	beq	x10,x0,4bb0 <_vfprintf_r+0x1f6c>
    4bac:	ef1fe06f          	jal	x0,3a9c <_vfprintf_r+0xe58>
    4bb0:	0ac12583          	lw	x11,172(x2)
    4bb4:	0cc12603          	lw	x12,204(x2)
    4bb8:	01412e03          	lw	x28,20(x2)
    4bbc:	000c0493          	addi	x9,x24,0
    4bc0:	a91ff06f          	jal	x0,4650 <_vfprintf_r+0x1a0c>
    4bc4:	00012583          	lw	x11,0(x2)
    4bc8:	0c410613          	addi	x12,x2,196
    4bcc:	000a8513          	addi	x10,x21,0
    4bd0:	03c12823          	sw	x28,48(x2)
    4bd4:	3dc010ef          	jal	x1,5fb0 <__sprint_r>
    4bd8:	00050463          	beq	x10,x0,4be0 <_vfprintf_r+0x1f9c>
    4bdc:	ec1fe06f          	jal	x0,3a9c <_vfprintf_r+0xe58>
    4be0:	0cc12603          	lw	x12,204(x2)
    4be4:	03012e03          	lw	x28,48(x2)
    4be8:	000c0493          	addi	x9,x24,0
    4bec:	918ff06f          	jal	x0,3d04 <_vfprintf_r+0x10c0>
    4bf0:	00600913          	addi	x18,x0,6
    4bf4:	da0ff06f          	jal	x0,4194 <_vfprintf_r+0x1550>
    4bf8:	00c12783          	lw	x15,12(x2)
    4bfc:	00412703          	lw	x14,4(x2)
    4c00:	0007a783          	lw	x15,0(x15)
    4c04:	00e79023          	sh	x14,0(x15)
    4c08:	a51fe06f          	jal	x0,3658 <_vfprintf_r+0xa14>
    4c0c:	0ff97913          	andi	x18,x18,255
    4c10:	00000d93          	addi	x27,x0,0
    4c14:	cdcff06f          	jal	x0,40f0 <_vfprintf_r+0x14ac>
    4c18:	01891913          	slli	x18,x18,0x18
    4c1c:	41895913          	srai	x18,x18,0x18
    4c20:	41f95d93          	srai	x27,x18,0x1f
    4c24:	000d8793          	addi	x15,x27,0
    4c28:	93dfe06f          	jal	x0,3564 <_vfprintf_r+0x920>
    4c2c:	0ff97913          	andi	x18,x18,255
    4c30:	00000d93          	addi	x27,x0,0
    4c34:	9a9fe06f          	jal	x0,35dc <_vfprintf_r+0x998>
    4c38:	0a714703          	lbu	x14,167(x2)
    4c3c:	c31ff06f          	jal	x0,486c <_vfprintf_r+0x1c28>
    4c40:	00012583          	lw	x11,0(x2)
    4c44:	02012503          	lw	x10,32(x2)
    4c48:	0c410613          	addi	x12,x2,196
    4c4c:	364010ef          	jal	x1,5fb0 <__sprint_r>
    4c50:	b4cfe06f          	jal	x0,2f9c <_vfprintf_r+0x358>
    4c54:	00012583          	lw	x11,0(x2)
    4c58:	0c410613          	addi	x12,x2,196
    4c5c:	000a8513          	addi	x10,x21,0
    4c60:	01c12a23          	sw	x28,20(x2)
    4c64:	34c010ef          	jal	x1,5fb0 <__sprint_r>
    4c68:	00050463          	beq	x10,x0,4c70 <_vfprintf_r+0x202c>
    4c6c:	e31fe06f          	jal	x0,3a9c <_vfprintf_r+0xe58>
    4c70:	0ac12583          	lw	x11,172(x2)
    4c74:	0cc12603          	lw	x12,204(x2)
    4c78:	0c812703          	lw	x14,200(x2)
    4c7c:	01412e03          	lw	x28,20(x2)
    4c80:	000c0493          	addi	x9,x24,0
    4c84:	b39ff06f          	jal	x0,47bc <_vfprintf_r+0x1b78>
    4c88:	014506b3          	add	x13,x10,x20
    4c8c:	08010593          	addi	x11,x2,128
    4c90:	00090513          	addi	x10,x18,0
    4c94:	01c12c23          	sw	x28,24(x2)
    4c98:	01112a23          	sw	x17,20(x2)
    4c9c:	00d12823          	sw	x13,16(x2)
    4ca0:	09e12823          	sw	x30,144(x2)
    4ca4:	09f12a23          	sw	x31,148(x2)
    4ca8:	08512c23          	sw	x5,152(x2)
    4cac:	09d12e23          	sw	x29,156(x2)
    4cb0:	08012023          	sw	x0,128(x2)
    4cb4:	08012223          	sw	x0,132(x2)
    4cb8:	08012423          	sw	x0,136(x2)
    4cbc:	08012623          	sw	x0,140(x2)
    4cc0:	760090ef          	jal	x1,e420 <__eqtf2>
    4cc4:	01012683          	lw	x13,16(x2)
    4cc8:	01412883          	lw	x17,20(x2)
    4ccc:	01812e03          	lw	x28,24(x2)
    4cd0:	04700613          	addi	x12,x0,71
    4cd4:	56051e63          	bne	x10,x0,5250 <_vfprintf_r+0x260c>
    4cd8:	41a687b3          	sub	x15,x13,x26
    4cdc:	0ac12703          	lw	x14,172(x2)
    4ce0:	00f12823          	sw	x15,16(x2)
    4ce4:	e74ff06f          	jal	x0,4358 <_vfprintf_r+0x1714>
    4ce8:	001a0793          	addi	x15,x20,1
    4cec:	00f12823          	sw	x15,16(x2)
    4cf0:	00200613          	addi	x12,x0,2
    4cf4:	01012b03          	lw	x22,16(x2)
    4cf8:	09010913          	addi	x18,x2,144
    4cfc:	0ac10713          	addi	x14,x2,172
    4d00:	000b0693          	addi	x13,x22,0
    4d04:	0bc10813          	addi	x16,x2,188
    4d08:	0b010793          	addi	x15,x2,176
    4d0c:	00090593          	addi	x11,x18,0
    4d10:	000a8513          	addi	x10,x21,0
    4d14:	05c12823          	sw	x28,80(x2)
    4d18:	05112623          	sw	x17,76(x2)
    4d1c:	09e12823          	sw	x30,144(x2)
    4d20:	05e12423          	sw	x30,72(x2)
    4d24:	09f12a23          	sw	x31,148(x2)
    4d28:	01f12e23          	sw	x31,28(x2)
    4d2c:	08512c23          	sw	x5,152(x2)
    4d30:	00512c23          	sw	x5,24(x2)
    4d34:	09d12e23          	sw	x29,156(x2)
    4d38:	01d12a23          	sw	x29,20(x2)
    4d3c:	2a1000ef          	jal	x1,57dc <_ldtoa_r>
    4d40:	04c12883          	lw	x17,76(x2)
    4d44:	04600713          	addi	x14,x0,70
    4d48:	01412e83          	lw	x29,20(x2)
    4d4c:	fdf8f613          	andi	x12,x17,-33
    4d50:	01812283          	lw	x5,24(x2)
    4d54:	01c12f83          	lw	x31,28(x2)
    4d58:	04812f03          	lw	x30,72(x2)
    4d5c:	05012e03          	lw	x28,80(x2)
    4d60:	00050d13          	addi	x26,x10,0
    4d64:	016506b3          	add	x13,x10,x22
    4d68:	48e61e63          	bne	x12,x14,5204 <_vfprintf_r+0x25c0>
    4d6c:	000d4583          	lbu	x11,0(x26)
    4d70:	03000713          	addi	x14,x0,48
    4d74:	78e58c63          	beq	x11,x14,550c <_vfprintf_r+0x28c8>
    4d78:	08010b93          	addi	x23,x2,128
    4d7c:	0ac12703          	lw	x14,172(x2)
    4d80:	00e686b3          	add	x13,x13,x14
    4d84:	000b8593          	addi	x11,x23,0
    4d88:	00090513          	addi	x10,x18,0
    4d8c:	01c12e23          	sw	x28,28(x2)
    4d90:	01112c23          	sw	x17,24(x2)
    4d94:	00c12a23          	sw	x12,20(x2)
    4d98:	00d12823          	sw	x13,16(x2)
    4d9c:	09e12823          	sw	x30,144(x2)
    4da0:	09f12a23          	sw	x31,148(x2)
    4da4:	08512c23          	sw	x5,152(x2)
    4da8:	09d12e23          	sw	x29,156(x2)
    4dac:	08012023          	sw	x0,128(x2)
    4db0:	08012223          	sw	x0,132(x2)
    4db4:	08012423          	sw	x0,136(x2)
    4db8:	08012623          	sw	x0,140(x2)
    4dbc:	664090ef          	jal	x1,e420 <__eqtf2>
    4dc0:	01012683          	lw	x13,16(x2)
    4dc4:	01412603          	lw	x12,20(x2)
    4dc8:	01812883          	lw	x17,24(x2)
    4dcc:	01c12e03          	lw	x28,28(x2)
    4dd0:	48051063          	bne	x10,x0,5250 <_vfprintf_r+0x260c>
    4dd4:	0ac12783          	lw	x15,172(x2)
    4dd8:	00f12a23          	sw	x15,20(x2)
    4ddc:	41a687b3          	sub	x15,x13,x26
    4de0:	00f12823          	sw	x15,16(x2)
    4de4:	01412783          	lw	x15,20(x2)
    4de8:	001e7713          	andi	x14,x28,1
    4dec:	01476733          	or	x14,x14,x20
    4df0:	06f05ce3          	bge	x0,x15,5668 <_vfprintf_r+0x2a24>
    4df4:	060710e3          	bne	x14,x0,5654 <_vfprintf_r+0x2a10>
    4df8:	01412903          	lw	x18,20(x2)
    4dfc:	06600893          	addi	x17,x0,102
    4e00:	400e7e13          	andi	x28,x28,1024
    4e04:	780e1a63          	bne	x28,x0,5598 <_vfprintf_r+0x2954>
    4e08:	fff94693          	xori	x13,x18,-1
    4e0c:	41f6d693          	srai	x13,x13,0x1f
    4e10:	00d97db3          	and	x27,x18,x13
    4e14:	00012e23          	sw	x0,28(x2)
    4e18:	00012c23          	sw	x0,24(x2)
    4e1c:	e3cff06f          	jal	x0,4458 <_vfprintf_r+0x1814>
    4e20:	09010913          	addi	x18,x2,144
    4e24:	08010b93          	addi	x23,x2,128
    4e28:	0ac10613          	addi	x12,x2,172
    4e2c:	000b8593          	addi	x11,x23,0
    4e30:	00090513          	addi	x10,x18,0
    4e34:	05c12023          	sw	x28,64(x2)
    4e38:	03112c23          	sw	x17,56(x2)
    4e3c:	09e12023          	sw	x30,128(x2)
    4e40:	09f12223          	sw	x31,132(x2)
    4e44:	08512423          	sw	x5,136(x2)
    4e48:	09d12623          	sw	x29,140(x2)
    4e4c:	000050ef          	jal	x1,9e4c <frexpl>
    4e50:	09012503          	lw	x10,144(x2)
    4e54:	0000d717          	auipc	x14,0xd
    4e58:	fec70713          	addi	x14,x14,-20 # 11e40 <zeroes.0+0x1c>
    4e5c:	00072583          	lw	x11,0(x14)
    4e60:	08a12023          	sw	x10,128(x2)
    4e64:	09412503          	lw	x10,148(x2)
    4e68:	00472603          	lw	x12,4(x14)
    4e6c:	00872683          	lw	x13,8(x14)
    4e70:	08a12223          	sw	x10,132(x2)
    4e74:	09812503          	lw	x10,152(x2)
    4e78:	00c72703          	lw	x14,12(x14)
    4e7c:	06b12823          	sw	x11,112(x2)
    4e80:	08a12423          	sw	x10,136(x2)
    4e84:	09c12503          	lw	x10,156(x2)
    4e88:	06c12a23          	sw	x12,116(x2)
    4e8c:	000b8593          	addi	x11,x23,0
    4e90:	08a12623          	sw	x10,140(x2)
    4e94:	07010613          	addi	x12,x2,112
    4e98:	00090513          	addi	x10,x18,0
    4e9c:	06d12c23          	sw	x13,120(x2)
    4ea0:	06e12e23          	sw	x14,124(x2)
    4ea4:	10d090ef          	jal	x1,e7b0 <__multf3>
    4ea8:	09012f03          	lw	x30,144(x2)
    4eac:	09412e83          	lw	x29,148(x2)
    4eb0:	09812803          	lw	x16,152(x2)
    4eb4:	09c12603          	lw	x12,156(x2)
    4eb8:	000b8593          	addi	x11,x23,0
    4ebc:	00090513          	addi	x10,x18,0
    4ec0:	01e12e23          	sw	x30,28(x2)
    4ec4:	01d12c23          	sw	x29,24(x2)
    4ec8:	01012a23          	sw	x16,20(x2)
    4ecc:	00c12823          	sw	x12,16(x2)
    4ed0:	08012023          	sw	x0,128(x2)
    4ed4:	08012223          	sw	x0,132(x2)
    4ed8:	08012423          	sw	x0,136(x2)
    4edc:	08012623          	sw	x0,140(x2)
    4ee0:	540090ef          	jal	x1,e420 <__eqtf2>
    4ee4:	01012603          	lw	x12,16(x2)
    4ee8:	01412803          	lw	x16,20(x2)
    4eec:	01812e83          	lw	x29,24(x2)
    4ef0:	01c12f03          	lw	x30,28(x2)
    4ef4:	03812883          	lw	x17,56(x2)
    4ef8:	04012e03          	lw	x28,64(x2)
    4efc:	00051663          	bne	x10,x0,4f08 <_vfprintf_r+0x22c4>
    4f00:	00100713          	addi	x14,x0,1
    4f04:	0ae12623          	sw	x14,172(x2)
    4f08:	0000d797          	auipc	x15,0xd
    4f0c:	ac078793          	addi	x15,x15,-1344 # 119c8 <__clzsi2+0x34c>
    4f10:	06100713          	addi	x14,x0,97
    4f14:	00f12823          	sw	x15,16(x2)
    4f18:	00e89863          	bne	x17,x14,4f28 <_vfprintf_r+0x22e4>
    4f1c:	0000d797          	auipc	x15,0xd
    4f20:	a9878793          	addi	x15,x15,-1384 # 119b4 <__clzsi2+0x338>
    4f24:	00f12823          	sw	x15,16(x2)
    4f28:	0000d717          	auipc	x14,0xd
    4f2c:	f2870713          	addi	x14,x14,-216 # 11e50 <zeroes.0+0x2c>
    4f30:	00072783          	lw	x15,0(x14)
    4f34:	03312c23          	sw	x19,56(x2)
    4f38:	04912823          	sw	x9,80(x2)
    4f3c:	00f12a23          	sw	x15,20(x2)
    4f40:	00472783          	lw	x15,4(x14)
    4f44:	000d0993          	addi	x19,x26,0
    4f48:	05512a23          	sw	x21,84(x2)
    4f4c:	00f12c23          	sw	x15,24(x2)
    4f50:	00872783          	lw	x15,8(x14)
    4f54:	05a12c23          	sw	x26,88(x2)
    4f58:	fffa0a13          	addi	x20,x20,-1
    4f5c:	00f12e23          	sw	x15,28(x2)
    4f60:	00c72783          	lw	x15,12(x14)
    4f64:	05112023          	sw	x17,64(x2)
    4f68:	05c12423          	sw	x28,72(x2)
    4f6c:	05912623          	sw	x25,76(x2)
    4f70:	00078d13          	addi	x26,x15,0
    4f74:	000f0d93          	addi	x27,x30,0
    4f78:	000e8493          	addi	x9,x29,0
    4f7c:	00080a93          	addi	x21,x16,0
    4f80:	00060b13          	addi	x22,x12,0
    4f84:	03c0006f          	jal	x0,4fc0 <_vfprintf_r+0x237c>
    4f88:	000b8593          	addi	x11,x23,0
    4f8c:	00090513          	addi	x10,x18,0
    4f90:	09b12823          	sw	x27,144(x2)
    4f94:	08912a23          	sw	x9,148(x2)
    4f98:	09512c23          	sw	x21,152(x2)
    4f9c:	09612e23          	sw	x22,156(x2)
    4fa0:	08012023          	sw	x0,128(x2)
    4fa4:	08012223          	sw	x0,132(x2)
    4fa8:	08012423          	sw	x0,136(x2)
    4fac:	08012623          	sw	x0,140(x2)
    4fb0:	fffa0c93          	addi	x25,x20,-1
    4fb4:	46c090ef          	jal	x1,e420 <__eqtf2>
    4fb8:	64050e63          	beq	x10,x0,5614 <_vfprintf_r+0x29d0>
    4fbc:	000c8a13          	addi	x20,x25,0
    4fc0:	01412783          	lw	x15,20(x2)
    4fc4:	07010613          	addi	x12,x2,112
    4fc8:	000b8593          	addi	x11,x23,0
    4fcc:	06f12823          	sw	x15,112(x2)
    4fd0:	01812783          	lw	x15,24(x2)
    4fd4:	00090513          	addi	x10,x18,0
    4fd8:	09b12023          	sw	x27,128(x2)
    4fdc:	06f12a23          	sw	x15,116(x2)
    4fe0:	01c12783          	lw	x15,28(x2)
    4fe4:	08912223          	sw	x9,132(x2)
    4fe8:	09512423          	sw	x21,136(x2)
    4fec:	06f12c23          	sw	x15,120(x2)
    4ff0:	09612623          	sw	x22,140(x2)
    4ff4:	07a12e23          	sw	x26,124(x2)
    4ff8:	7b8090ef          	jal	x1,e7b0 <__multf3>
    4ffc:	00090513          	addi	x10,x18,0
    5000:	19c0c0ef          	jal	x1,1119c <__fixtfsi>
    5004:	00050593          	addi	x11,x10,0
    5008:	00050c93          	addi	x25,x10,0
    500c:	00090513          	addi	x10,x18,0
    5010:	09012d83          	lw	x27,144(x2)
    5014:	09412b03          	lw	x22,148(x2)
    5018:	09812a83          	lw	x21,152(x2)
    501c:	09c12483          	lw	x9,156(x2)
    5020:	27c0c0ef          	jal	x1,1129c <__floatsitf>
    5024:	09012683          	lw	x13,144(x2)
    5028:	06010613          	addi	x12,x2,96
    502c:	07010593          	addi	x11,x2,112
    5030:	06d12023          	sw	x13,96(x2)
    5034:	09412683          	lw	x13,148(x2)
    5038:	000b8513          	addi	x10,x23,0
    503c:	07b12823          	sw	x27,112(x2)
    5040:	06d12223          	sw	x13,100(x2)
    5044:	09812683          	lw	x13,152(x2)
    5048:	07612a23          	sw	x22,116(x2)
    504c:	07512c23          	sw	x21,120(x2)
    5050:	06d12423          	sw	x13,104(x2)
    5054:	09c12683          	lw	x13,156(x2)
    5058:	06912e23          	sw	x9,124(x2)
    505c:	06d12623          	sw	x13,108(x2)
    5060:	1050a0ef          	jal	x1,f964 <__subtf3>
    5064:	01012783          	lw	x15,16(x2)
    5068:	00098f93          	addi	x31,x19,0
    506c:	00198993          	addi	x19,x19,1
    5070:	019786b3          	add	x13,x15,x25
    5074:	0006c683          	lbu	x13,0(x13)
    5078:	08012d83          	lw	x27,128(x2)
    507c:	08412483          	lw	x9,132(x2)
    5080:	08812a83          	lw	x21,136(x2)
    5084:	08c12b03          	lw	x22,140(x2)
    5088:	fff00793          	addi	x15,x0,-1
    508c:	fed98fa3          	sb	x13,-1(x19)
    5090:	eefa1ce3          	bne	x20,x15,4f88 <_vfprintf_r+0x2344>
    5094:	0000d597          	auipc	x11,0xd
    5098:	dcc58593          	addi	x11,x11,-564 # 11e60 <zeroes.0+0x3c>
    509c:	04012883          	lw	x17,64(x2)
    50a0:	04812e03          	lw	x28,72(x2)
    50a4:	0045a283          	lw	x5,4(x11)
    50a8:	0085a383          	lw	x7,8(x11)
    50ac:	00c5a783          	lw	x15,12(x11)
    50b0:	0005aa03          	lw	x20,0(x11)
    50b4:	000d8f13          	addi	x30,x27,0
    50b8:	00048e93          	addi	x29,x9,0
    50bc:	000a8813          	addi	x16,x21,0
    50c0:	000b8593          	addi	x11,x23,0
    50c4:	00090513          	addi	x10,x18,0
    50c8:	05812d03          	lw	x26,88(x2)
    50cc:	05012483          	lw	x9,80(x2)
    50d0:	05412a83          	lw	x21,84(x2)
    50d4:	01112e23          	sw	x17,28(x2)
    50d8:	01c12c23          	sw	x28,24(x2)
    50dc:	01f12a23          	sw	x31,20(x2)
    50e0:	05912e23          	sw	x25,92(x2)
    50e4:	00098d93          	addi	x27,x19,0
    50e8:	04c12c83          	lw	x25,76(x2)
    50ec:	03812983          	lw	x19,56(x2)
    50f0:	09e12823          	sw	x30,144(x2)
    50f4:	05e12c23          	sw	x30,88(x2)
    50f8:	09d12a23          	sw	x29,148(x2)
    50fc:	05d12a23          	sw	x29,84(x2)
    5100:	09012c23          	sw	x16,152(x2)
    5104:	05012823          	sw	x16,80(x2)
    5108:	09612e23          	sw	x22,156(x2)
    510c:	05612623          	sw	x22,76(x2)
    5110:	09412023          	sw	x20,128(x2)
    5114:	08512223          	sw	x5,132(x2)
    5118:	04512423          	sw	x5,72(x2)
    511c:	08712423          	sw	x7,136(x2)
    5120:	04712023          	sw	x7,64(x2)
    5124:	08f12623          	sw	x15,140(x2)
    5128:	02f12c23          	sw	x15,56(x2)
    512c:	3c4090ef          	jal	x1,e4f0 <__getf2>
    5130:	01412f83          	lw	x31,20(x2)
    5134:	01812e03          	lw	x28,24(x2)
    5138:	01c12883          	lw	x17,28(x2)
    513c:	02a04a63          	blt	x0,x10,5170 <_vfprintf_r+0x252c>
    5140:	000b8593          	addi	x11,x23,0
    5144:	00090513          	addi	x10,x18,0
    5148:	01112a23          	sw	x17,20(x2)
    514c:	01f12e23          	sw	x31,28(x2)
    5150:	2d0090ef          	jal	x1,e420 <__eqtf2>
    5154:	01412883          	lw	x17,20(x2)
    5158:	01812e03          	lw	x28,24(x2)
    515c:	04051e63          	bne	x10,x0,51b8 <_vfprintf_r+0x2574>
    5160:	05c12703          	lw	x14,92(x2)
    5164:	01c12f83          	lw	x31,28(x2)
    5168:	00177693          	andi	x13,x14,1
    516c:	04068663          	beq	x13,x0,51b8 <_vfprintf_r+0x2574>
    5170:	01012783          	lw	x15,16(x2)
    5174:	0bf12e23          	sw	x31,188(x2)
    5178:	fffdc603          	lbu	x12,-1(x27)
    517c:	00f7c583          	lbu	x11,15(x15)
    5180:	000d8693          	addi	x13,x27,0
    5184:	02c59063          	bne	x11,x12,51a4 <_vfprintf_r+0x2560>
    5188:	03000513          	addi	x10,x0,48
    518c:	fea68fa3          	sb	x10,-1(x13)
    5190:	0bc12683          	lw	x13,188(x2)
    5194:	fff68793          	addi	x15,x13,-1
    5198:	0af12e23          	sw	x15,188(x2)
    519c:	fff6c603          	lbu	x12,-1(x13)
    51a0:	fec586e3          	beq	x11,x12,518c <_vfprintf_r+0x2548>
    51a4:	00160593          	addi	x11,x12,1
    51a8:	03900513          	addi	x10,x0,57
    51ac:	0ff5f593          	andi	x11,x11,255
    51b0:	04a60463          	beq	x12,x10,51f8 <_vfprintf_r+0x25b4>
    51b4:	feb68fa3          	sb	x11,-1(x13)
    51b8:	0ac12783          	lw	x15,172(x2)
    51bc:	41ad8733          	sub	x14,x27,x26
    51c0:	00e12823          	sw	x14,16(x2)
    51c4:	fff78713          	addi	x14,x15,-1
    51c8:	00f12a23          	sw	x15,20(x2)
    51cc:	06100613          	addi	x12,x0,97
    51d0:	0ae12623          	sw	x14,172(x2)
    51d4:	07000693          	addi	x13,x0,112
    51d8:	00c88663          	beq	x17,x12,51e4 <_vfprintf_r+0x25a0>
    51dc:	05000693          	addi	x13,x0,80
    51e0:	04100893          	addi	x17,x0,65
    51e4:	00100613          	addi	x12,x0,1
    51e8:	994ff06f          	jal	x0,437c <_vfprintf_r+0x1738>
    51ec:	01412823          	sw	x20,16(x2)
    51f0:	00300613          	addi	x12,x0,3
    51f4:	b01ff06f          	jal	x0,4cf4 <_vfprintf_r+0x20b0>
    51f8:	01012783          	lw	x15,16(x2)
    51fc:	00a7c583          	lbu	x11,10(x15)
    5200:	fb5ff06f          	jal	x0,51b4 <_vfprintf_r+0x2570>
    5204:	08010593          	addi	x11,x2,128
    5208:	00090513          	addi	x10,x18,0
    520c:	01c12e23          	sw	x28,28(x2)
    5210:	01112c23          	sw	x17,24(x2)
    5214:	00d12a23          	sw	x13,20(x2)
    5218:	09e12823          	sw	x30,144(x2)
    521c:	09f12a23          	sw	x31,148(x2)
    5220:	08512c23          	sw	x5,152(x2)
    5224:	09d12e23          	sw	x29,156(x2)
    5228:	08012023          	sw	x0,128(x2)
    522c:	08012223          	sw	x0,132(x2)
    5230:	08012423          	sw	x0,136(x2)
    5234:	08012623          	sw	x0,140(x2)
    5238:	1e8090ef          	jal	x1,e420 <__eqtf2>
    523c:	01812883          	lw	x17,24(x2)
    5240:	01c12e03          	lw	x28,28(x2)
    5244:	48050a63          	beq	x10,x0,56d8 <_vfprintf_r+0x2a94>
    5248:	01412683          	lw	x13,20(x2)
    524c:	04500613          	addi	x12,x0,69
    5250:	0bc12783          	lw	x15,188(x2)
    5254:	00d7fe63          	bgeu	x15,x13,5270 <_vfprintf_r+0x262c>
    5258:	03000593          	addi	x11,x0,48
    525c:	00178713          	addi	x14,x15,1
    5260:	0ae12e23          	sw	x14,188(x2)
    5264:	00b78023          	sb	x11,0(x15)
    5268:	0bc12783          	lw	x15,188(x2)
    526c:	fed7e8e3          	bltu	x15,x13,525c <_vfprintf_r+0x2618>
    5270:	0ac12703          	lw	x14,172(x2)
    5274:	41a787b3          	sub	x15,x15,x26
    5278:	04700693          	addi	x13,x0,71
    527c:	00f12823          	sw	x15,16(x2)
    5280:	00e12a23          	sw	x14,20(x2)
    5284:	8cd60a63          	beq	x12,x13,4358 <_vfprintf_r+0x1714>
    5288:	04600713          	addi	x14,x0,70
    528c:	b4e60ce3          	beq	x12,x14,4de4 <_vfprintf_r+0x21a0>
    5290:	01412783          	lw	x15,20(x2)
    5294:	fff78713          	addi	x14,x15,-1
    5298:	8d8ff06f          	jal	x0,4370 <_vfprintf_r+0x172c>
    529c:	0a714703          	lbu	x14,167(x2)
    52a0:	04012e03          	lw	x28,64(x2)
    52a4:	00000a13          	addi	x20,x0,0
    52a8:	00070463          	beq	x14,x0,52b0 <_vfprintf_r+0x266c>
    52ac:	940fe06f          	jal	x0,33ec <_vfprintf_r+0x7a8>
    52b0:	bc1fd06f          	jal	x0,2e70 <_vfprintf_r+0x22c>
    52b4:	01412783          	lw	x15,20(x2)
    52b8:	01012683          	lw	x13,16(x2)
    52bc:	0ed7c463          	blt	x15,x13,53a4 <_vfprintf_r+0x2760>
    52c0:	001e7693          	andi	x13,x28,1
    52c4:	00070913          	addi	x18,x14,0
    52c8:	00068663          	beq	x13,x0,52d4 <_vfprintf_r+0x2690>
    52cc:	02412783          	lw	x15,36(x2)
    52d0:	00f70933          	add	x18,x14,x15
    52d4:	400e7e13          	andi	x28,x28,1024
    52d8:	000e0463          	beq	x28,x0,52e0 <_vfprintf_r+0x269c>
    52dc:	2ae04c63          	blt	x0,x14,5594 <_vfprintf_r+0x2950>
    52e0:	fff94693          	xori	x13,x18,-1
    52e4:	41f6d693          	srai	x13,x13,0x1f
    52e8:	00d97db3          	and	x27,x18,x13
    52ec:	06700893          	addi	x17,x0,103
    52f0:	b25ff06f          	jal	x0,4e14 <_vfprintf_r+0x21d0>
    52f4:	00012583          	lw	x11,0(x2)
    52f8:	0c410613          	addi	x12,x2,196
    52fc:	000a8513          	addi	x10,x21,0
    5300:	4b1000ef          	jal	x1,5fb0 <__sprint_r>
    5304:	00050463          	beq	x10,x0,530c <_vfprintf_r+0x26c8>
    5308:	f94fe06f          	jal	x0,3a9c <_vfprintf_r+0xe58>
    530c:	000d4703          	lbu	x14,0(x26)
    5310:	0cc12603          	lw	x12,204(x2)
    5314:	000c0693          	addi	x13,x24,0
    5318:	00700893          	addi	x17,x0,7
    531c:	00ed8db3          	add	x27,x27,x14
    5320:	e84ff06f          	jal	x0,49a4 <_vfprintf_r+0x1d60>
    5324:	00900513          	addi	x10,x0,9
    5328:	a5256c63          	bltu	x10,x18,4580 <_vfprintf_r+0x193c>
    532c:	ad4ff06f          	jal	x0,4600 <_vfprintf_r+0x19bc>
    5330:	02d00793          	addi	x15,x0,45
    5334:	0af103a3          	sb	x15,167(x2)
    5338:	02d00713          	addi	x14,x0,45
    533c:	bf8ff06f          	jal	x0,4734 <_vfprintf_r+0x1af0>
    5340:	0a714703          	lbu	x14,167(x2)
    5344:	01712623          	sw	x23,12(x2)
    5348:	00012e23          	sw	x0,28(x2)
    534c:	00012c23          	sw	x0,24(x2)
    5350:	00012a23          	sw	x0,20(x2)
    5354:	000a0d93          	addi	x27,x20,0
    5358:	000a0913          	addi	x18,x20,0
    535c:	00000a13          	addi	x20,x0,0
    5360:	00070463          	beq	x14,x0,5368 <_vfprintf_r+0x2724>
    5364:	888fe06f          	jal	x0,33ec <_vfprintf_r+0x7a8>
    5368:	b09fd06f          	jal	x0,2e70 <_vfprintf_r+0x22c>
    536c:	00012583          	lw	x11,0(x2)
    5370:	0c410613          	addi	x12,x2,196
    5374:	000a8513          	addi	x10,x21,0
    5378:	01c12a23          	sw	x28,20(x2)
    537c:	435000ef          	jal	x1,5fb0 <__sprint_r>
    5380:	00050463          	beq	x10,x0,5388 <_vfprintf_r+0x2744>
    5384:	f18fe06f          	jal	x0,3a9c <_vfprintf_r+0xe58>
    5388:	0ac12903          	lw	x18,172(x2)
    538c:	01012783          	lw	x15,16(x2)
    5390:	0cc12603          	lw	x12,204(x2)
    5394:	01412e03          	lw	x28,20(x2)
    5398:	000c0493          	addi	x9,x24,0
    539c:	41278933          	sub	x18,x15,x18
    53a0:	9e5fe06f          	jal	x0,3d84 <_vfprintf_r+0x1140>
    53a4:	01012783          	lw	x15,16(x2)
    53a8:	02412703          	lw	x14,36(x2)
    53ac:	06700893          	addi	x17,x0,103
    53b0:	00e78933          	add	x18,x15,x14
    53b4:	01412783          	lw	x15,20(x2)
    53b8:	a4f044e3          	blt	x0,x15,4e00 <_vfprintf_r+0x21bc>
    53bc:	40f90833          	sub	x16,x18,x15
    53c0:	00180913          	addi	x18,x16,1
    53c4:	fff94693          	xori	x13,x18,-1
    53c8:	41f6d693          	srai	x13,x13,0x1f
    53cc:	00d97db3          	and	x27,x18,x13
    53d0:	a45ff06f          	jal	x0,4e14 <_vfprintf_r+0x21d0>
    53d4:	fff00793          	addi	x15,x0,-1
    53d8:	00f12223          	sw	x15,4(x2)
    53dc:	bfdfd06f          	jal	x0,2fd8 <_vfprintf_r+0x394>
    53e0:	000e0e93          	addi	x29,x28,0
    53e4:	9b8fe06f          	jal	x0,359c <_vfprintf_r+0x958>
    53e8:	ff000513          	addi	x10,x0,-16
    53ec:	40b00933          	sub	x18,x0,x11
    53f0:	0000de97          	auipc	x29,0xd
    53f4:	a34e8e93          	addi	x29,x29,-1484 # 11e24 <zeroes.0>
    53f8:	06a5dc63          	bge	x11,x10,5470 <_vfprintf_r+0x282c>
    53fc:	01312a23          	sw	x19,20(x2)
    5400:	01000a13          	addi	x20,x0,16
    5404:	00700b93          	addi	x23,x0,7
    5408:	000e0b13          	addi	x22,x28,0
    540c:	000e8993          	addi	x19,x29,0
    5410:	00c0006f          	jal	x0,541c <_vfprintf_r+0x27d8>
    5414:	ff090913          	addi	x18,x18,-16
    5418:	052a5663          	bge	x20,x18,5464 <_vfprintf_r+0x2820>
    541c:	01060613          	addi	x12,x12,16
    5420:	00170713          	addi	x14,x14,1
    5424:	0134a023          	sw	x19,0(x9)
    5428:	0144a223          	sw	x20,4(x9)
    542c:	0cc12623          	sw	x12,204(x2)
    5430:	0ce12423          	sw	x14,200(x2)
    5434:	00848493          	addi	x9,x9,8
    5438:	fcebdee3          	bge	x23,x14,5414 <_vfprintf_r+0x27d0>
    543c:	00012583          	lw	x11,0(x2)
    5440:	0c410613          	addi	x12,x2,196
    5444:	000a8513          	addi	x10,x21,0
    5448:	369000ef          	jal	x1,5fb0 <__sprint_r>
    544c:	00050463          	beq	x10,x0,5454 <_vfprintf_r+0x2810>
    5450:	e4cfe06f          	jal	x0,3a9c <_vfprintf_r+0xe58>
    5454:	0cc12603          	lw	x12,204(x2)
    5458:	0c812703          	lw	x14,200(x2)
    545c:	000c0493          	addi	x9,x24,0
    5460:	fb5ff06f          	jal	x0,5414 <_vfprintf_r+0x27d0>
    5464:	00098e93          	addi	x29,x19,0
    5468:	01412983          	lw	x19,20(x2)
    546c:	000b0e13          	addi	x28,x22,0
    5470:	01260633          	add	x12,x12,x18
    5474:	00170713          	addi	x14,x14,1
    5478:	01d4a023          	sw	x29,0(x9)
    547c:	0124a223          	sw	x18,4(x9)
    5480:	0cc12623          	sw	x12,204(x2)
    5484:	0ce12423          	sw	x14,200(x2)
    5488:	00700593          	addi	x11,x0,7
    548c:	a0e5d463          	bge	x11,x14,4694 <_vfprintf_r+0x1a50>
    5490:	00012583          	lw	x11,0(x2)
    5494:	0c410613          	addi	x12,x2,196
    5498:	000a8513          	addi	x10,x21,0
    549c:	01c12a23          	sw	x28,20(x2)
    54a0:	311000ef          	jal	x1,5fb0 <__sprint_r>
    54a4:	00050463          	beq	x10,x0,54ac <_vfprintf_r+0x2868>
    54a8:	df4fe06f          	jal	x0,3a9c <_vfprintf_r+0xe58>
    54ac:	0cc12603          	lw	x12,204(x2)
    54b0:	0c812703          	lw	x14,200(x2)
    54b4:	01412e03          	lw	x28,20(x2)
    54b8:	000c0493          	addi	x9,x24,0
    54bc:	b04ff06f          	jal	x0,47c0 <_vfprintf_r+0x1b7c>
    54c0:	0b610693          	addi	x13,x2,182
    54c4:	00061863          	bne	x12,x0,54d4 <_vfprintf_r+0x2890>
    54c8:	03000693          	addi	x13,x0,48
    54cc:	0ad10b23          	sb	x13,182(x2)
    54d0:	0b710693          	addi	x13,x2,183
    54d4:	19010793          	addi	x15,x2,400
    54d8:	40f68633          	sub	x12,x13,x15
    54dc:	03070713          	addi	x14,x14,48
    54e0:	0dd60793          	addi	x15,x12,221
    54e4:	00e68023          	sb	x14,0(x13)
    54e8:	02f12c23          	sw	x15,56(x2)
    54ec:	f29fe06f          	jal	x0,4414 <_vfprintf_r+0x17d0>
    54f0:	00012423          	sw	x0,8(x2)
    54f4:	00600a13          	addi	x20,x0,6
    54f8:	c75fd06f          	jal	x0,316c <_vfprintf_r+0x528>
    54fc:	001e7713          	andi	x14,x28,1
    5500:	00071463          	bne	x14,x0,5508 <_vfprintf_r+0x28c4>
    5504:	f31fe06f          	jal	x0,4434 <_vfprintf_r+0x17f0>
    5508:	f25fe06f          	jal	x0,442c <_vfprintf_r+0x17e8>
    550c:	08010b93          	addi	x23,x2,128
    5510:	000b8593          	addi	x11,x23,0
    5514:	00090513          	addi	x10,x18,0
    5518:	05c12c23          	sw	x28,88(x2)
    551c:	05112a23          	sw	x17,84(x2)
    5520:	04d12823          	sw	x13,80(x2)
    5524:	04c12623          	sw	x12,76(x2)
    5528:	09e12823          	sw	x30,144(x2)
    552c:	05e12423          	sw	x30,72(x2)
    5530:	09f12a23          	sw	x31,148(x2)
    5534:	01f12e23          	sw	x31,28(x2)
    5538:	08512c23          	sw	x5,152(x2)
    553c:	00512c23          	sw	x5,24(x2)
    5540:	09d12e23          	sw	x29,156(x2)
    5544:	01d12a23          	sw	x29,20(x2)
    5548:	08012023          	sw	x0,128(x2)
    554c:	08012223          	sw	x0,132(x2)
    5550:	08012423          	sw	x0,136(x2)
    5554:	08012623          	sw	x0,140(x2)
    5558:	6c9080ef          	jal	x1,e420 <__eqtf2>
    555c:	01412e83          	lw	x29,20(x2)
    5560:	01812283          	lw	x5,24(x2)
    5564:	01c12f83          	lw	x31,28(x2)
    5568:	04812f03          	lw	x30,72(x2)
    556c:	04c12603          	lw	x12,76(x2)
    5570:	05012683          	lw	x13,80(x2)
    5574:	05412883          	lw	x17,84(x2)
    5578:	05812e03          	lw	x28,88(x2)
    557c:	800500e3          	beq	x10,x0,4d7c <_vfprintf_r+0x2138>
    5580:	01012783          	lw	x15,16(x2)
    5584:	00100713          	addi	x14,x0,1
    5588:	40f70733          	sub	x14,x14,x15
    558c:	0ae12623          	sw	x14,172(x2)
    5590:	ff0ff06f          	jal	x0,4d80 <_vfprintf_r+0x213c>
    5594:	06700893          	addi	x17,x0,103
    5598:	03412603          	lw	x12,52(x2)
    559c:	0ff00693          	addi	x13,x0,255
    55a0:	00064703          	lbu	x14,0(x12)
    55a4:	12d70463          	beq	x14,x13,56cc <_vfprintf_r+0x2a88>
    55a8:	01412783          	lw	x15,20(x2)
    55ac:	00000513          	addi	x10,x0,0
    55b0:	00000593          	addi	x11,x0,0
    55b4:	00f75e63          	bge	x14,x15,55d0 <_vfprintf_r+0x298c>
    55b8:	40e787b3          	sub	x15,x15,x14
    55bc:	00164703          	lbu	x14,1(x12)
    55c0:	04070463          	beq	x14,x0,5608 <_vfprintf_r+0x29c4>
    55c4:	00158593          	addi	x11,x11,1
    55c8:	00160613          	addi	x12,x12,1
    55cc:	fed714e3          	bne	x14,x13,55b4 <_vfprintf_r+0x2970>
    55d0:	02c12a23          	sw	x12,52(x2)
    55d4:	00f12a23          	sw	x15,20(x2)
    55d8:	00b12c23          	sw	x11,24(x2)
    55dc:	00a12e23          	sw	x10,28(x2)
    55e0:	01812783          	lw	x15,24(x2)
    55e4:	01c12703          	lw	x14,28(x2)
    55e8:	00e78733          	add	x14,x15,x14
    55ec:	04412783          	lw	x15,68(x2)
    55f0:	02f70733          	mul	x14,x14,x15
    55f4:	01270933          	add	x18,x14,x18
    55f8:	fff94693          	xori	x13,x18,-1
    55fc:	41f6d693          	srai	x13,x13,0x1f
    5600:	00d97db3          	and	x27,x18,x13
    5604:	e55fe06f          	jal	x0,4458 <_vfprintf_r+0x1814>
    5608:	00064703          	lbu	x14,0(x12)
    560c:	00150513          	addi	x10,x10,1
    5610:	fbdff06f          	jal	x0,55cc <_vfprintf_r+0x2988>
    5614:	00098d93          	addi	x27,x19,0
    5618:	001a0693          	addi	x13,x20,1
    561c:	04012883          	lw	x17,64(x2)
    5620:	04812e03          	lw	x28,72(x2)
    5624:	04c12c83          	lw	x25,76(x2)
    5628:	05012483          	lw	x9,80(x2)
    562c:	03812983          	lw	x19,56(x2)
    5630:	05412a83          	lw	x21,84(x2)
    5634:	05812d03          	lw	x26,88(x2)
    5638:	00dd86b3          	add	x13,x27,x13
    563c:	03000613          	addi	x12,x0,48
    5640:	b60a4ce3          	blt	x20,x0,51b8 <_vfprintf_r+0x2574>
    5644:	001d8d93          	addi	x27,x27,1
    5648:	fecd8fa3          	sb	x12,-1(x27)
    564c:	fedd9ce3          	bne	x27,x13,5644 <_vfprintf_r+0x2a00>
    5650:	b69ff06f          	jal	x0,51b8 <_vfprintf_r+0x2574>
    5654:	02412703          	lw	x14,36(x2)
    5658:	06600893          	addi	x17,x0,102
    565c:	00e78833          	add	x16,x15,x14
    5660:	01480933          	add	x18,x16,x20
    5664:	f9cff06f          	jal	x0,4e00 <_vfprintf_r+0x21bc>
    5668:	00071a63          	bne	x14,x0,567c <_vfprintf_r+0x2a38>
    566c:	00100d93          	addi	x27,x0,1
    5670:	06600893          	addi	x17,x0,102
    5674:	00100913          	addi	x18,x0,1
    5678:	f9cff06f          	jal	x0,4e14 <_vfprintf_r+0x21d0>
    567c:	02412783          	lw	x15,36(x2)
    5680:	06600893          	addi	x17,x0,102
    5684:	00178813          	addi	x16,x15,1
    5688:	01480933          	add	x18,x16,x20
    568c:	fff94693          	xori	x13,x18,-1
    5690:	41f6d693          	srai	x13,x13,0x1f
    5694:	00d97db3          	and	x27,x18,x13
    5698:	f7cff06f          	jal	x0,4e14 <_vfprintf_r+0x21d0>
    569c:	00c12783          	lw	x15,12(x2)
    56a0:	0007aa03          	lw	x20,0(x15)
    56a4:	00478793          	addi	x15,x15,4
    56a8:	000a5463          	bge	x20,x0,56b0 <_vfprintf_r+0x2a6c>
    56ac:	fff00a13          	addi	x20,x0,-1
    56b0:	0019c883          	lbu	x17,1(x19)
    56b4:	00f12623          	sw	x15,12(x2)
    56b8:	00068993          	addi	x19,x13,0
    56bc:	f28fd06f          	jal	x0,2de4 <_vfprintf_r+0x1a0>
    56c0:	00200793          	addi	x15,x0,2
    56c4:	02f12c23          	sw	x15,56(x2)
    56c8:	d4dfe06f          	jal	x0,4414 <_vfprintf_r+0x17d0>
    56cc:	00012e23          	sw	x0,28(x2)
    56d0:	00012c23          	sw	x0,24(x2)
    56d4:	f0dff06f          	jal	x0,55e0 <_vfprintf_r+0x299c>
    56d8:	0ac12783          	lw	x15,172(x2)
    56dc:	04500613          	addi	x12,x0,69
    56e0:	00f12a23          	sw	x15,20(x2)
    56e4:	ba5ff06f          	jal	x0,5288 <_vfprintf_r+0x2644>
    56e8:	00012703          	lw	x14,0(x2)
    56ec:	00c75783          	lhu	x15,12(x14)
    56f0:	0407e793          	ori	x15,x15,64
    56f4:	00f71623          	sh	x15,12(x14)
    56f8:	8a5fd06f          	jal	x0,2f9c <_vfprintf_r+0x358>

000056fc <vfprintf>:
    56fc:	00060693          	addi	x13,x12,0
    5700:	00058613          	addi	x12,x11,0
    5704:	00050593          	addi	x11,x10,0
    5708:	f141a503          	lw	x10,-236(x3) # 12ac4 <_impure_ptr>
    570c:	d38fd06f          	jal	x0,2c44 <_vfprintf_r>

00005710 <__sbprintf>:
    5710:	b8010113          	addi	x2,x2,-1152
    5714:	00c59783          	lh	x15,12(x11)
    5718:	00e5d703          	lhu	x14,14(x11)
    571c:	46812c23          	sw	x8,1144(x2)
    5720:	00058413          	addi	x8,x11,0
    5724:	000105b7          	lui	x11,0x10
    5728:	ffd58593          	addi	x11,x11,-3 # fffd <__subtf3+0x699>
    572c:	06442e03          	lw	x28,100(x8)
    5730:	01c42303          	lw	x6,28(x8)
    5734:	02442883          	lw	x17,36(x8)
    5738:	01071713          	slli	x14,x14,0x10
    573c:	00b7f7b3          	and	x15,x15,x11
    5740:	00e7e7b3          	or	x15,x15,x14
    5744:	40000813          	addi	x16,x0,1024
    5748:	00f12a23          	sw	x15,20(x2)
    574c:	00810593          	addi	x11,x2,8
    5750:	07010793          	addi	x15,x2,112
    5754:	46912a23          	sw	x9,1140(x2)
    5758:	47212823          	sw	x18,1136(x2)
    575c:	46112e23          	sw	x1,1148(x2)
    5760:	00050913          	addi	x18,x10,0
    5764:	07c12623          	sw	x28,108(x2)
    5768:	02612223          	sw	x6,36(x2)
    576c:	03112623          	sw	x17,44(x2)
    5770:	00f12423          	sw	x15,8(x2)
    5774:	00f12c23          	sw	x15,24(x2)
    5778:	01012823          	sw	x16,16(x2)
    577c:	01012e23          	sw	x16,28(x2)
    5780:	02012023          	sw	x0,32(x2)
    5784:	cc0fd0ef          	jal	x1,2c44 <_vfprintf_r>
    5788:	00050493          	addi	x9,x10,0
    578c:	02055c63          	bge	x10,x0,57c4 <__sbprintf+0xb4>
    5790:	01415783          	lhu	x15,20(x2)
    5794:	0407f793          	andi	x15,x15,64
    5798:	00078863          	beq	x15,x0,57a8 <__sbprintf+0x98>
    579c:	00c45783          	lhu	x15,12(x8)
    57a0:	0407e793          	ori	x15,x15,64
    57a4:	00f41623          	sh	x15,12(x8)
    57a8:	47c12083          	lw	x1,1148(x2)
    57ac:	47812403          	lw	x8,1144(x2)
    57b0:	47012903          	lw	x18,1136(x2)
    57b4:	00048513          	addi	x10,x9,0
    57b8:	47412483          	lw	x9,1140(x2)
    57bc:	48010113          	addi	x2,x2,1152
    57c0:	00008067          	jalr	x0,0(x1)
    57c4:	00810593          	addi	x11,x2,8
    57c8:	00090513          	addi	x10,x18,0
    57cc:	810fd0ef          	jal	x1,27dc <_fflush_r>
    57d0:	fc0500e3          	beq	x10,x0,5790 <__sbprintf+0x80>
    57d4:	fff00493          	addi	x9,x0,-1
    57d8:	fb9ff06f          	jal	x0,5790 <__sbprintf+0x80>

000057dc <_ldtoa_r>:
    57dc:	0000c897          	auipc	x17,0xc
    57e0:	6c488893          	addi	x17,x17,1732 # 11ea0 <zeroes.0+0x7c>
    57e4:	0008af83          	lw	x31,0(x17)
    57e8:	0048af03          	lw	x30,4(x17)
    57ec:	0088ae83          	lw	x29,8(x17)
    57f0:	00c8ae03          	lw	x28,12(x17)
    57f4:	0108a303          	lw	x6,16(x17)
    57f8:	03852883          	lw	x17,56(x10)
    57fc:	f4010113          	addi	x2,x2,-192
    5800:	0b212823          	sw	x18,176(x2)
    5804:	0b312623          	sw	x19,172(x2)
    5808:	0b412423          	sw	x20,168(x2)
    580c:	0b612023          	sw	x22,160(x2)
    5810:	09712e23          	sw	x23,156(x2)
    5814:	09812c23          	sw	x24,152(x2)
    5818:	09912a23          	sw	x25,148(x2)
    581c:	09a12823          	sw	x26,144(x2)
    5820:	0a112e23          	sw	x1,188(x2)
    5824:	0a812c23          	sw	x8,184(x2)
    5828:	0a912a23          	sw	x9,180(x2)
    582c:	0b512223          	sw	x21,164(x2)
    5830:	09b12623          	sw	x27,140(x2)
    5834:	07f12623          	sw	x31,108(x2)
    5838:	07e12823          	sw	x30,112(x2)
    583c:	07d12a23          	sw	x29,116(x2)
    5840:	07c12c23          	sw	x28,120(x2)
    5844:	06612e23          	sw	x6,124(x2)
    5848:	02c12023          	sw	x12,32(x2)
    584c:	02d12223          	sw	x13,36(x2)
    5850:	0005aa03          	lw	x20,0(x11)
    5854:	0045a983          	lw	x19,4(x11)
    5858:	0085a903          	lw	x18,8(x11)
    585c:	00c5ac03          	lw	x24,12(x11)
    5860:	00050b13          	addi	x22,x10,0
    5864:	00070b93          	addi	x23,x14,0
    5868:	00078c93          	addi	x25,x15,0
    586c:	00080d13          	addi	x26,x16,0
    5870:	02088263          	beq	x17,x0,5894 <_ldtoa_r+0xb8>
    5874:	03c52683          	lw	x13,60(x10)
    5878:	00100713          	addi	x14,x0,1
    587c:	00088593          	addi	x11,x17,0
    5880:	00d71733          	sll	x14,x14,x13
    5884:	00d8a223          	sw	x13,4(x17)
    5888:	00e8a423          	sw	x14,8(x17)
    588c:	081040ef          	jal	x1,a10c <_Bfree>
    5890:	020b2c23          	sw	x0,56(x22)
    5894:	07812603          	lw	x12,120(x2)
    5898:	01fc5693          	srli	x13,x24,0x1f
    589c:	001c1a93          	slli	x21,x24,0x1
    58a0:	40165713          	srai	x14,x12,0x1
    58a4:	ffffc4b7          	lui	x9,0xffffc
    58a8:	001c1413          	slli	x8,x24,0x1
    58ac:	00d77733          	and	x14,x14,x13
    58b0:	011ada93          	srli	x21,x21,0x11
    58b4:	f9148493          	addi	x9,x9,-111 # ffffbf91 <__heap_end+0xffbfbf91>
    58b8:	010c1d93          	slli	x27,x24,0x10
    58bc:	00dca023          	sw	x13,0(x25)
    58c0:	00145413          	srli	x8,x8,0x1
    58c4:	00c74733          	xor	x14,x14,x12
    58c8:	010ddd93          	srli	x27,x27,0x10
    58cc:	009a87b3          	add	x15,x21,x9
    58d0:	03010593          	addi	x11,x2,48
    58d4:	04010513          	addi	x10,x2,64
    58d8:	05412023          	sw	x20,64(x2)
    58dc:	05312223          	sw	x19,68(x2)
    58e0:	05212423          	sw	x18,72(x2)
    58e4:	04812623          	sw	x8,76(x2)
    58e8:	03412823          	sw	x20,48(x2)
    58ec:	03312a23          	sw	x19,52(x2)
    58f0:	03212c23          	sw	x18,56(x2)
    58f4:	02812e23          	sw	x8,60(x2)
    58f8:	06e12c23          	sw	x14,120(x2)
    58fc:	00f12e23          	sw	x15,28(x2)
    5900:	05412e23          	sw	x20,92(x2)
    5904:	07312023          	sw	x19,96(x2)
    5908:	07212223          	sw	x18,100(x2)
    590c:	07b12423          	sw	x27,104(x2)
    5910:	7f80b0ef          	jal	x1,11108 <__unordtf2>
    5914:	18051e63          	bne	x10,x0,5ab0 <_ldtoa_r+0x2d4>
    5918:	0000c797          	auipc	x15,0xc
    591c:	55878793          	addi	x15,x15,1368 # 11e70 <zeroes.0+0x4c>
    5920:	0007a603          	lw	x12,0(x15)
    5924:	0047a683          	lw	x13,4(x15)
    5928:	0087a483          	lw	x9,8(x15)
    592c:	00c7ac83          	lw	x25,12(x15)
    5930:	03010593          	addi	x11,x2,48
    5934:	04010513          	addi	x10,x2,64
    5938:	05412023          	sw	x20,64(x2)
    593c:	05312223          	sw	x19,68(x2)
    5940:	05212423          	sw	x18,72(x2)
    5944:	04812623          	sw	x8,76(x2)
    5948:	02c12823          	sw	x12,48(x2)
    594c:	02c12623          	sw	x12,44(x2)
    5950:	02d12a23          	sw	x13,52(x2)
    5954:	02d12423          	sw	x13,40(x2)
    5958:	02912c23          	sw	x9,56(x2)
    595c:	03912e23          	sw	x25,60(x2)
    5960:	7a80b0ef          	jal	x1,11108 <__unordtf2>
    5964:	08051c63          	bne	x10,x0,59fc <_ldtoa_r+0x220>
    5968:	03010593          	addi	x11,x2,48
    596c:	04010513          	addi	x10,x2,64
    5970:	4e1080ef          	jal	x1,e650 <__letf2>
    5974:	08a05463          	bge	x0,x10,59fc <_ldtoa_r+0x220>
    5978:	00300793          	addi	x15,x0,3
    597c:	04f12c23          	sw	x15,88(x2)
    5980:	02012783          	lw	x15,32(x2)
    5984:	02412803          	lw	x16,36(x2)
    5988:	01c12603          	lw	x12,28(x2)
    598c:	05810713          	addi	x14,x2,88
    5990:	01a12023          	sw	x26,0(x2)
    5994:	000b8893          	addi	x17,x23,0
    5998:	05c10693          	addi	x13,x2,92
    599c:	06c10593          	addi	x11,x2,108
    59a0:	000b0513          	addi	x10,x22,0
    59a4:	3e9010ef          	jal	x1,758c <__gdtoa>
    59a8:	000ba703          	lw	x14,0(x23)
    59ac:	ffff87b7          	lui	x15,0xffff8
    59b0:	00f71863          	bne	x14,x15,59c0 <_ldtoa_r+0x1e4>
    59b4:	800007b7          	lui	x15,0x80000
    59b8:	fff78793          	addi	x15,x15,-1 # 7fffffff <__heap_end+0x7fbfffff>
    59bc:	00fba023          	sw	x15,0(x23)
    59c0:	0bc12083          	lw	x1,188(x2)
    59c4:	0b812403          	lw	x8,184(x2)
    59c8:	0b412483          	lw	x9,180(x2)
    59cc:	0b012903          	lw	x18,176(x2)
    59d0:	0ac12983          	lw	x19,172(x2)
    59d4:	0a812a03          	lw	x20,168(x2)
    59d8:	0a412a83          	lw	x21,164(x2)
    59dc:	0a012b03          	lw	x22,160(x2)
    59e0:	09c12b83          	lw	x23,156(x2)
    59e4:	09812c03          	lw	x24,152(x2)
    59e8:	09412c83          	lw	x25,148(x2)
    59ec:	09012d03          	lw	x26,144(x2)
    59f0:	08c12d83          	lw	x27,140(x2)
    59f4:	0c010113          	addi	x2,x2,192
    59f8:	00008067          	jalr	x0,0(x1)
    59fc:	0000c797          	auipc	x15,0xc
    5a00:	48478793          	addi	x15,x15,1156 # 11e80 <zeroes.0+0x5c>
    5a04:	0007a603          	lw	x12,0(x15)
    5a08:	0047a683          	lw	x13,4(x15)
    5a0c:	0087a703          	lw	x14,8(x15)
    5a10:	00c7a783          	lw	x15,12(x15)
    5a14:	03010593          	addi	x11,x2,48
    5a18:	04010513          	addi	x10,x2,64
    5a1c:	05412023          	sw	x20,64(x2)
    5a20:	05312223          	sw	x19,68(x2)
    5a24:	05212423          	sw	x18,72(x2)
    5a28:	04812623          	sw	x8,76(x2)
    5a2c:	02c12823          	sw	x12,48(x2)
    5a30:	02d12a23          	sw	x13,52(x2)
    5a34:	02e12c23          	sw	x14,56(x2)
    5a38:	02f12e23          	sw	x15,60(x2)
    5a3c:	2b5080ef          	jal	x1,e4f0 <__getf2>
    5a40:	00054e63          	blt	x10,x0,5a5c <_ldtoa_r+0x280>
    5a44:	000107b7          	lui	x15,0x10
    5a48:	00fdedb3          	or	x27,x27,x15
    5a4c:	00100793          	addi	x15,x0,1
    5a50:	04f12c23          	sw	x15,88(x2)
    5a54:	07b12423          	sw	x27,104(x2)
    5a58:	f29ff06f          	jal	x0,5980 <_ldtoa_r+0x1a4>
    5a5c:	03010593          	addi	x11,x2,48
    5a60:	04010513          	addi	x10,x2,64
    5a64:	05412023          	sw	x20,64(x2)
    5a68:	05312223          	sw	x19,68(x2)
    5a6c:	05212423          	sw	x18,72(x2)
    5a70:	05812623          	sw	x24,76(x2)
    5a74:	02012823          	sw	x0,48(x2)
    5a78:	02012a23          	sw	x0,52(x2)
    5a7c:	02012c23          	sw	x0,56(x2)
    5a80:	02012e23          	sw	x0,60(x2)
    5a84:	19d080ef          	jal	x1,e420 <__eqtf2>
    5a88:	00051663          	bne	x10,x0,5a94 <_ldtoa_r+0x2b8>
    5a8c:	04012c23          	sw	x0,88(x2)
    5a90:	ef1ff06f          	jal	x0,5980 <_ldtoa_r+0x1a4>
    5a94:	ffffc4b7          	lui	x9,0xffffc
    5a98:	00200793          	addi	x15,x0,2
    5a9c:	f9248493          	addi	x9,x9,-110 # ffffbf92 <__heap_end+0xffbfbf92>
    5aa0:	04f12c23          	sw	x15,88(x2)
    5aa4:	009a87b3          	add	x15,x21,x9
    5aa8:	00f12e23          	sw	x15,28(x2)
    5aac:	ed5ff06f          	jal	x0,5980 <_ldtoa_r+0x1a4>
    5ab0:	00400793          	addi	x15,x0,4
    5ab4:	04f12c23          	sw	x15,88(x2)
    5ab8:	ec9ff06f          	jal	x0,5980 <_ldtoa_r+0x1a4>

00005abc <_ldcheck>:
    5abc:	fb010113          	addi	x2,x2,-80
    5ac0:	04912223          	sw	x9,68(x2)
    5ac4:	00c52483          	lw	x9,12(x10)
    5ac8:	05212023          	sw	x18,64(x2)
    5acc:	03312e23          	sw	x19,60(x2)
    5ad0:	00852903          	lw	x18,8(x10)
    5ad4:	00452983          	lw	x19,4(x10)
    5ad8:	03412c23          	sw	x20,56(x2)
    5adc:	00052a03          	lw	x20,0(x10)
    5ae0:	00149493          	slli	x9,x9,0x1
    5ae4:	0014d493          	srli	x9,x9,0x1
    5ae8:	00010593          	addi	x11,x2,0
    5aec:	01010513          	addi	x10,x2,16
    5af0:	04112623          	sw	x1,76(x2)
    5af4:	01412823          	sw	x20,16(x2)
    5af8:	01312a23          	sw	x19,20(x2)
    5afc:	01212c23          	sw	x18,24(x2)
    5b00:	00912e23          	sw	x9,28(x2)
    5b04:	01412023          	sw	x20,0(x2)
    5b08:	01312223          	sw	x19,4(x2)
    5b0c:	01212423          	sw	x18,8(x2)
    5b10:	00912623          	sw	x9,12(x2)
    5b14:	5f40b0ef          	jal	x1,11108 <__unordtf2>
    5b18:	0a051263          	bne	x10,x0,5bbc <_ldcheck+0x100>
    5b1c:	0000c797          	auipc	x15,0xc
    5b20:	35478793          	addi	x15,x15,852 # 11e70 <zeroes.0+0x4c>
    5b24:	03512a23          	sw	x21,52(x2)
    5b28:	03612823          	sw	x22,48(x2)
    5b2c:	03712623          	sw	x23,44(x2)
    5b30:	03812423          	sw	x24,40(x2)
    5b34:	0047ab83          	lw	x23,4(x15)
    5b38:	0007ac03          	lw	x24,0(x15)
    5b3c:	0087ab03          	lw	x22,8(x15)
    5b40:	00c7aa83          	lw	x21,12(x15)
    5b44:	00010593          	addi	x11,x2,0
    5b48:	01010513          	addi	x10,x2,16
    5b4c:	04812423          	sw	x8,72(x2)
    5b50:	01812023          	sw	x24,0(x2)
    5b54:	01712223          	sw	x23,4(x2)
    5b58:	01612423          	sw	x22,8(x2)
    5b5c:	01512623          	sw	x21,12(x2)
    5b60:	00100413          	addi	x8,x0,1
    5b64:	5a40b0ef          	jal	x1,11108 <__unordtf2>
    5b68:	04050063          	beq	x10,x0,5ba8 <_ldcheck+0xec>
    5b6c:	04c12083          	lw	x1,76(x2)
    5b70:	00144513          	xori	x10,x8,1
    5b74:	04812403          	lw	x8,72(x2)
    5b78:	0ff57513          	andi	x10,x10,255
    5b7c:	03412a83          	lw	x21,52(x2)
    5b80:	03012b03          	lw	x22,48(x2)
    5b84:	02c12b83          	lw	x23,44(x2)
    5b88:	02812c03          	lw	x24,40(x2)
    5b8c:	04412483          	lw	x9,68(x2)
    5b90:	04012903          	lw	x18,64(x2)
    5b94:	03c12983          	lw	x19,60(x2)
    5b98:	03812a03          	lw	x20,56(x2)
    5b9c:	00151513          	slli	x10,x10,0x1
    5ba0:	05010113          	addi	x2,x2,80
    5ba4:	00008067          	jalr	x0,0(x1)
    5ba8:	00010593          	addi	x11,x2,0
    5bac:	01010513          	addi	x10,x2,16
    5bb0:	2a1080ef          	jal	x1,e650 <__letf2>
    5bb4:	00152413          	slti	x8,x10,1
    5bb8:	fb5ff06f          	jal	x0,5b6c <_ldcheck+0xb0>
    5bbc:	04c12083          	lw	x1,76(x2)
    5bc0:	04412483          	lw	x9,68(x2)
    5bc4:	04012903          	lw	x18,64(x2)
    5bc8:	03c12983          	lw	x19,60(x2)
    5bcc:	03812a03          	lw	x20,56(x2)
    5bd0:	00100513          	addi	x10,x0,1
    5bd4:	05010113          	addi	x2,x2,80
    5bd8:	00008067          	jalr	x0,0(x1)

00005bdc <memcpy>:
    5bdc:	00a5c7b3          	xor	x15,x11,x10
    5be0:	0037f793          	andi	x15,x15,3
    5be4:	00c508b3          	add	x17,x10,x12
    5be8:	06079463          	bne	x15,x0,5c50 <memcpy+0x74>
    5bec:	00300793          	addi	x15,x0,3
    5bf0:	06c7f063          	bgeu	x15,x12,5c50 <memcpy+0x74>
    5bf4:	00357793          	andi	x15,x10,3
    5bf8:	00050713          	addi	x14,x10,0
    5bfc:	06079a63          	bne	x15,x0,5c70 <memcpy+0x94>
    5c00:	ffc8f613          	andi	x12,x17,-4
    5c04:	40e606b3          	sub	x13,x12,x14
    5c08:	02000793          	addi	x15,x0,32
    5c0c:	08d7ce63          	blt	x15,x13,5ca8 <memcpy+0xcc>
    5c10:	00058693          	addi	x13,x11,0
    5c14:	00070793          	addi	x15,x14,0
    5c18:	02c77863          	bgeu	x14,x12,5c48 <memcpy+0x6c>
    5c1c:	0006a803          	lw	x16,0(x13)
    5c20:	00478793          	addi	x15,x15,4
    5c24:	00468693          	addi	x13,x13,4
    5c28:	ff07ae23          	sw	x16,-4(x15)
    5c2c:	fec7e8e3          	bltu	x15,x12,5c1c <memcpy+0x40>
    5c30:	fff60793          	addi	x15,x12,-1
    5c34:	40e787b3          	sub	x15,x15,x14
    5c38:	ffc7f793          	andi	x15,x15,-4
    5c3c:	00478793          	addi	x15,x15,4
    5c40:	00f70733          	add	x14,x14,x15
    5c44:	00f585b3          	add	x11,x11,x15
    5c48:	01176863          	bltu	x14,x17,5c58 <memcpy+0x7c>
    5c4c:	00008067          	jalr	x0,0(x1)
    5c50:	00050713          	addi	x14,x10,0
    5c54:	05157863          	bgeu	x10,x17,5ca4 <memcpy+0xc8>
    5c58:	0005c783          	lbu	x15,0(x11)
    5c5c:	00170713          	addi	x14,x14,1
    5c60:	00158593          	addi	x11,x11,1
    5c64:	fef70fa3          	sb	x15,-1(x14)
    5c68:	fee898e3          	bne	x17,x14,5c58 <memcpy+0x7c>
    5c6c:	00008067          	jalr	x0,0(x1)
    5c70:	0005c683          	lbu	x13,0(x11)
    5c74:	00170713          	addi	x14,x14,1
    5c78:	00377793          	andi	x15,x14,3
    5c7c:	fed70fa3          	sb	x13,-1(x14)
    5c80:	00158593          	addi	x11,x11,1
    5c84:	f6078ee3          	beq	x15,x0,5c00 <memcpy+0x24>
    5c88:	0005c683          	lbu	x13,0(x11)
    5c8c:	00170713          	addi	x14,x14,1
    5c90:	00377793          	andi	x15,x14,3
    5c94:	fed70fa3          	sb	x13,-1(x14)
    5c98:	00158593          	addi	x11,x11,1
    5c9c:	fc079ae3          	bne	x15,x0,5c70 <memcpy+0x94>
    5ca0:	f61ff06f          	jal	x0,5c00 <memcpy+0x24>
    5ca4:	00008067          	jalr	x0,0(x1)
    5ca8:	ff010113          	addi	x2,x2,-16
    5cac:	00812623          	sw	x8,12(x2)
    5cb0:	02000413          	addi	x8,x0,32
    5cb4:	0005a383          	lw	x7,0(x11)
    5cb8:	0045a283          	lw	x5,4(x11)
    5cbc:	0085af83          	lw	x31,8(x11)
    5cc0:	00c5af03          	lw	x30,12(x11)
    5cc4:	0105ae83          	lw	x29,16(x11)
    5cc8:	0145ae03          	lw	x28,20(x11)
    5ccc:	0185a303          	lw	x6,24(x11)
    5cd0:	01c5a803          	lw	x16,28(x11)
    5cd4:	0205a683          	lw	x13,32(x11)
    5cd8:	02470713          	addi	x14,x14,36
    5cdc:	40e607b3          	sub	x15,x12,x14
    5ce0:	fc772e23          	sw	x7,-36(x14)
    5ce4:	fe572023          	sw	x5,-32(x14)
    5ce8:	fff72223          	sw	x31,-28(x14)
    5cec:	ffe72423          	sw	x30,-24(x14)
    5cf0:	ffd72623          	sw	x29,-20(x14)
    5cf4:	ffc72823          	sw	x28,-16(x14)
    5cf8:	fe672a23          	sw	x6,-12(x14)
    5cfc:	ff072c23          	sw	x16,-8(x14)
    5d00:	fed72e23          	sw	x13,-4(x14)
    5d04:	02458593          	addi	x11,x11,36
    5d08:	faf446e3          	blt	x8,x15,5cb4 <memcpy+0xd8>
    5d0c:	00058693          	addi	x13,x11,0
    5d10:	00070793          	addi	x15,x14,0
    5d14:	02c77863          	bgeu	x14,x12,5d44 <memcpy+0x168>
    5d18:	0006a803          	lw	x16,0(x13)
    5d1c:	00478793          	addi	x15,x15,4
    5d20:	00468693          	addi	x13,x13,4
    5d24:	ff07ae23          	sw	x16,-4(x15)
    5d28:	fec7e8e3          	bltu	x15,x12,5d18 <memcpy+0x13c>
    5d2c:	fff60793          	addi	x15,x12,-1
    5d30:	40e787b3          	sub	x15,x15,x14
    5d34:	ffc7f793          	andi	x15,x15,-4
    5d38:	00478793          	addi	x15,x15,4
    5d3c:	00f70733          	add	x14,x14,x15
    5d40:	00f585b3          	add	x11,x11,x15
    5d44:	01176863          	bltu	x14,x17,5d54 <memcpy+0x178>
    5d48:	00c12403          	lw	x8,12(x2)
    5d4c:	01010113          	addi	x2,x2,16
    5d50:	00008067          	jalr	x0,0(x1)
    5d54:	0005c783          	lbu	x15,0(x11)
    5d58:	00170713          	addi	x14,x14,1
    5d5c:	00158593          	addi	x11,x11,1
    5d60:	fef70fa3          	sb	x15,-1(x14)
    5d64:	fee882e3          	beq	x17,x14,5d48 <memcpy+0x16c>
    5d68:	0005c783          	lbu	x15,0(x11)
    5d6c:	00170713          	addi	x14,x14,1
    5d70:	00158593          	addi	x11,x11,1
    5d74:	fef70fa3          	sb	x15,-1(x14)
    5d78:	fce89ee3          	bne	x17,x14,5d54 <memcpy+0x178>
    5d7c:	fcdff06f          	jal	x0,5d48 <memcpy+0x16c>

00005d80 <memmove>:
    5d80:	02a5f663          	bgeu	x11,x10,5dac <memmove+0x2c>
    5d84:	00c58733          	add	x14,x11,x12
    5d88:	02e57263          	bgeu	x10,x14,5dac <memmove+0x2c>
    5d8c:	00c507b3          	add	x15,x10,x12
    5d90:	04060663          	beq	x12,x0,5ddc <memmove+0x5c>
    5d94:	fff74683          	lbu	x13,-1(x14)
    5d98:	fff78793          	addi	x15,x15,-1
    5d9c:	fff70713          	addi	x14,x14,-1
    5da0:	00d78023          	sb	x13,0(x15)
    5da4:	fef518e3          	bne	x10,x15,5d94 <memmove+0x14>
    5da8:	00008067          	jalr	x0,0(x1)
    5dac:	00f00793          	addi	x15,x0,15
    5db0:	02c7e863          	bltu	x15,x12,5de0 <memmove+0x60>
    5db4:	00050793          	addi	x15,x10,0
    5db8:	fff60693          	addi	x13,x12,-1
    5dbc:	0c060263          	beq	x12,x0,5e80 <memmove+0x100>
    5dc0:	00168693          	addi	x13,x13,1
    5dc4:	00d786b3          	add	x13,x15,x13
    5dc8:	0005c703          	lbu	x14,0(x11)
    5dcc:	00178793          	addi	x15,x15,1
    5dd0:	00158593          	addi	x11,x11,1
    5dd4:	fee78fa3          	sb	x14,-1(x15)
    5dd8:	fed798e3          	bne	x15,x13,5dc8 <memmove+0x48>
    5ddc:	00008067          	jalr	x0,0(x1)
    5de0:	00b567b3          	or	x15,x10,x11
    5de4:	0037f793          	andi	x15,x15,3
    5de8:	08079663          	bne	x15,x0,5e74 <memmove+0xf4>
    5dec:	ff060893          	addi	x17,x12,-16
    5df0:	ff08f893          	andi	x17,x17,-16
    5df4:	01088893          	addi	x17,x17,16
    5df8:	011506b3          	add	x13,x10,x17
    5dfc:	00058713          	addi	x14,x11,0
    5e00:	00050793          	addi	x15,x10,0
    5e04:	00072803          	lw	x16,0(x14)
    5e08:	01070713          	addi	x14,x14,16
    5e0c:	01078793          	addi	x15,x15,16
    5e10:	ff07a823          	sw	x16,-16(x15)
    5e14:	ff472803          	lw	x16,-12(x14)
    5e18:	ff07aa23          	sw	x16,-12(x15)
    5e1c:	ff872803          	lw	x16,-8(x14)
    5e20:	ff07ac23          	sw	x16,-8(x15)
    5e24:	ffc72803          	lw	x16,-4(x14)
    5e28:	ff07ae23          	sw	x16,-4(x15)
    5e2c:	fcd79ce3          	bne	x15,x13,5e04 <memmove+0x84>
    5e30:	00c67813          	andi	x16,x12,12
    5e34:	011585b3          	add	x11,x11,x17
    5e38:	00f67713          	andi	x14,x12,15
    5e3c:	04080463          	beq	x16,x0,5e84 <memmove+0x104>
    5e40:	ffc70813          	addi	x16,x14,-4
    5e44:	ffc87813          	andi	x16,x16,-4
    5e48:	00480813          	addi	x16,x16,4
    5e4c:	010687b3          	add	x15,x13,x16
    5e50:	00058713          	addi	x14,x11,0
    5e54:	00072883          	lw	x17,0(x14)
    5e58:	00468693          	addi	x13,x13,4
    5e5c:	00470713          	addi	x14,x14,4
    5e60:	ff16ae23          	sw	x17,-4(x13)
    5e64:	fef698e3          	bne	x13,x15,5e54 <memmove+0xd4>
    5e68:	00367613          	andi	x12,x12,3
    5e6c:	010585b3          	add	x11,x11,x16
    5e70:	f49ff06f          	jal	x0,5db8 <memmove+0x38>
    5e74:	fff60693          	addi	x13,x12,-1
    5e78:	00050793          	addi	x15,x10,0
    5e7c:	f45ff06f          	jal	x0,5dc0 <memmove+0x40>
    5e80:	00008067          	jalr	x0,0(x1)
    5e84:	00070613          	addi	x12,x14,0
    5e88:	f31ff06f          	jal	x0,5db8 <memmove+0x38>

00005e8c <__sprint_r.part.0>:
    5e8c:	0645a783          	lw	x15,100(x11)
    5e90:	fd010113          	addi	x2,x2,-48
    5e94:	01612823          	sw	x22,16(x2)
    5e98:	02112623          	sw	x1,44(x2)
    5e9c:	01279713          	slli	x14,x15,0x12
    5ea0:	00060b13          	addi	x22,x12,0
    5ea4:	0e075863          	bge	x14,x0,5f94 <__sprint_r.part.0+0x108>
    5ea8:	00862783          	lw	x15,8(x12)
    5eac:	03212023          	sw	x18,32(x2)
    5eb0:	01312e23          	sw	x19,28(x2)
    5eb4:	01512a23          	sw	x21,20(x2)
    5eb8:	01712623          	sw	x23,12(x2)
    5ebc:	00058913          	addi	x18,x11,0
    5ec0:	00062b83          	lw	x23,0(x12)
    5ec4:	00050993          	addi	x19,x10,0
    5ec8:	fff00a93          	addi	x21,x0,-1
    5ecc:	0a078863          	beq	x15,x0,5f7c <__sprint_r.part.0+0xf0>
    5ed0:	02812423          	sw	x8,40(x2)
    5ed4:	02912223          	sw	x9,36(x2)
    5ed8:	01412c23          	sw	x20,24(x2)
    5edc:	01812423          	sw	x24,8(x2)
    5ee0:	004bac03          	lw	x24,4(x23)
    5ee4:	000ba403          	lw	x8,0(x23)
    5ee8:	002c5a13          	srli	x20,x24,0x2
    5eec:	060a0663          	beq	x20,x0,5f58 <__sprint_r.part.0+0xcc>
    5ef0:	00000493          	addi	x9,x0,0
    5ef4:	00c0006f          	jal	x0,5f00 <__sprint_r.part.0+0x74>
    5ef8:	00440413          	addi	x8,x8,4
    5efc:	049a0c63          	beq	x20,x9,5f54 <__sprint_r.part.0+0xc8>
    5f00:	00042583          	lw	x11,0(x8)
    5f04:	00090613          	addi	x12,x18,0
    5f08:	00098513          	addi	x10,x19,0
    5f0c:	699030ef          	jal	x1,9da4 <_fputwc_r>
    5f10:	00148493          	addi	x9,x9,1
    5f14:	ff5512e3          	bne	x10,x21,5ef8 <__sprint_r.part.0+0x6c>
    5f18:	02812403          	lw	x8,40(x2)
    5f1c:	02412483          	lw	x9,36(x2)
    5f20:	02012903          	lw	x18,32(x2)
    5f24:	01c12983          	lw	x19,28(x2)
    5f28:	01812a03          	lw	x20,24(x2)
    5f2c:	01412a83          	lw	x21,20(x2)
    5f30:	00c12b83          	lw	x23,12(x2)
    5f34:	00812c03          	lw	x24,8(x2)
    5f38:	fff00513          	addi	x10,x0,-1
    5f3c:	02c12083          	lw	x1,44(x2)
    5f40:	000b2423          	sw	x0,8(x22)
    5f44:	000b2223          	sw	x0,4(x22)
    5f48:	01012b03          	lw	x22,16(x2)
    5f4c:	03010113          	addi	x2,x2,48
    5f50:	00008067          	jalr	x0,0(x1)
    5f54:	008b2783          	lw	x15,8(x22)
    5f58:	ffcc7c13          	andi	x24,x24,-4
    5f5c:	418787b3          	sub	x15,x15,x24
    5f60:	00fb2423          	sw	x15,8(x22)
    5f64:	008b8b93          	addi	x23,x23,8
    5f68:	f6079ce3          	bne	x15,x0,5ee0 <__sprint_r.part.0+0x54>
    5f6c:	02812403          	lw	x8,40(x2)
    5f70:	02412483          	lw	x9,36(x2)
    5f74:	01812a03          	lw	x20,24(x2)
    5f78:	00812c03          	lw	x24,8(x2)
    5f7c:	02012903          	lw	x18,32(x2)
    5f80:	01c12983          	lw	x19,28(x2)
    5f84:	01412a83          	lw	x21,20(x2)
    5f88:	00c12b83          	lw	x23,12(x2)
    5f8c:	00000513          	addi	x10,x0,0
    5f90:	fadff06f          	jal	x0,5f3c <__sprint_r.part.0+0xb0>
    5f94:	b11fa0ef          	jal	x1,aa4 <__sfvwrite_r>
    5f98:	02c12083          	lw	x1,44(x2)
    5f9c:	000b2423          	sw	x0,8(x22)
    5fa0:	000b2223          	sw	x0,4(x22)
    5fa4:	01012b03          	lw	x22,16(x2)
    5fa8:	03010113          	addi	x2,x2,48
    5fac:	00008067          	jalr	x0,0(x1)

00005fb0 <__sprint_r>:
    5fb0:	00862703          	lw	x14,8(x12)
    5fb4:	00070463          	beq	x14,x0,5fbc <__sprint_r+0xc>
    5fb8:	ed5ff06f          	jal	x0,5e8c <__sprint_r.part.0>
    5fbc:	00062223          	sw	x0,4(x12)
    5fc0:	00000513          	addi	x10,x0,0
    5fc4:	00008067          	jalr	x0,0(x1)

00005fc8 <_vfiprintf_r>:
    5fc8:	ed010113          	addi	x2,x2,-304
    5fcc:	11312e23          	sw	x19,284(x2)
    5fd0:	11612823          	sw	x22,272(x2)
    5fd4:	11712623          	sw	x23,268(x2)
    5fd8:	11812423          	sw	x24,264(x2)
    5fdc:	12112623          	sw	x1,300(x2)
    5fe0:	0fb12e23          	sw	x27,252(x2)
    5fe4:	00050c13          	addi	x24,x10,0
    5fe8:	00058b13          	addi	x22,x11,0
    5fec:	00060993          	addi	x19,x12,0
    5ff0:	00068b93          	addi	x23,x13,0
    5ff4:	00050863          	beq	x10,x0,6004 <_vfiprintf_r+0x3c>
    5ff8:	03452783          	lw	x15,52(x10)
    5ffc:	00079463          	bne	x15,x0,6004 <_vfiprintf_r+0x3c>
    6000:	1e80106f          	jal	x0,71e8 <_vfiprintf_r+0x1220>
    6004:	00cb1783          	lh	x15,12(x22)
    6008:	01279713          	slli	x14,x15,0x12
    600c:	02074663          	blt	x14,x0,6038 <_vfiprintf_r+0x70>
    6010:	064b2703          	lw	x14,100(x22)
    6014:	00002637          	lui	x12,0x2
    6018:	ffffe6b7          	lui	x13,0xffffe
    601c:	00c7e7b3          	or	x15,x15,x12
    6020:	fff68693          	addi	x13,x13,-1 # ffffdfff <__heap_end+0xffbfdfff>
    6024:	01079793          	slli	x15,x15,0x10
    6028:	4107d793          	srai	x15,x15,0x10
    602c:	00d77733          	and	x14,x14,x13
    6030:	00fb1623          	sh	x15,12(x22)
    6034:	06eb2223          	sw	x14,100(x22)
    6038:	0087f713          	andi	x14,x15,8
    603c:	12070e63          	beq	x14,x0,6178 <_vfiprintf_r+0x1b0>
    6040:	010b2703          	lw	x14,16(x22)
    6044:	12070a63          	beq	x14,x0,6178 <_vfiprintf_r+0x1b0>
    6048:	01a7f793          	andi	x15,x15,26
    604c:	00a00713          	addi	x14,x0,10
    6050:	14e78663          	beq	x15,x14,619c <_vfiprintf_r+0x1d4>
    6054:	11512a23          	sw	x21,276(x2)
    6058:	00000d93          	addi	x27,x0,0
    605c:	04c10a93          	addi	x21,x2,76
    6060:	12812423          	sw	x8,296(x2)
    6064:	11412c23          	sw	x20,280(x2)
    6068:	11912223          	sw	x25,260(x2)
    606c:	11a12023          	sw	x26,256(x2)
    6070:	01812023          	sw	x24,0(x2)
    6074:	12912223          	sw	x9,292(x2)
    6078:	13212023          	sw	x18,288(x2)
    607c:	05512023          	sw	x21,64(x2)
    6080:	04012423          	sw	x0,72(x2)
    6084:	04012223          	sw	x0,68(x2)
    6088:	000a8413          	addi	x8,x21,0
    608c:	00012223          	sw	x0,4(x2)
    6090:	00012a23          	sw	x0,20(x2)
    6094:	00012c23          	sw	x0,24(x2)
    6098:	00012e23          	sw	x0,28(x2)
    609c:	0000cd17          	auipc	x26,0xc
    60a0:	e18d0d13          	addi	x26,x26,-488 # 11eb4 <zeroes.0+0x90>
    60a4:	01000a13          	addi	x20,x0,16
    60a8:	0000cc97          	auipc	x25,0xc
    60ac:	f88c8c93          	addi	x25,x25,-120 # 12030 <zeroes.0>
    60b0:	000d8c13          	addi	x24,x27,0
    60b4:	000b8813          	addi	x16,x23,0
    60b8:	0009c783          	lbu	x15,0(x19)
    60bc:	32078863          	beq	x15,x0,63ec <_vfiprintf_r+0x424>
    60c0:	00098493          	addi	x9,x19,0
    60c4:	02500713          	addi	x14,x0,37
    60c8:	3ce78863          	beq	x15,x14,6498 <_vfiprintf_r+0x4d0>
    60cc:	0014c783          	lbu	x15,1(x9)
    60d0:	00148493          	addi	x9,x9,1
    60d4:	fe079ae3          	bne	x15,x0,60c8 <_vfiprintf_r+0x100>
    60d8:	41348933          	sub	x18,x9,x19
    60dc:	31348863          	beq	x9,x19,63ec <_vfiprintf_r+0x424>
    60e0:	04812703          	lw	x14,72(x2)
    60e4:	04412783          	lw	x15,68(x2)
    60e8:	01342023          	sw	x19,0(x8)
    60ec:	00e90733          	add	x14,x18,x14
    60f0:	00178793          	addi	x15,x15,1
    60f4:	01242223          	sw	x18,4(x8)
    60f8:	04e12423          	sw	x14,72(x2)
    60fc:	04f12223          	sw	x15,68(x2)
    6100:	00700693          	addi	x13,x0,7
    6104:	00840413          	addi	x8,x8,8
    6108:	02f6d463          	bge	x13,x15,6130 <_vfiprintf_r+0x168>
    610c:	4e070ce3          	beq	x14,x0,6e04 <_vfiprintf_r+0xe3c>
    6110:	00012503          	lw	x10,0(x2)
    6114:	04010613          	addi	x12,x2,64
    6118:	000b0593          	addi	x11,x22,0
    611c:	01012423          	sw	x16,8(x2)
    6120:	d6dff0ef          	jal	x1,5e8c <__sprint_r.part.0>
    6124:	00812803          	lw	x16,8(x2)
    6128:	0c051463          	bne	x10,x0,61f0 <_vfiprintf_r+0x228>
    612c:	000a8413          	addi	x8,x21,0
    6130:	0004c783          	lbu	x15,0(x9)
    6134:	012c0c33          	add	x24,x24,x18
    6138:	2a078a63          	beq	x15,x0,63ec <_vfiprintf_r+0x424>
    613c:	0014c703          	lbu	x14,1(x9)
    6140:	00148993          	addi	x19,x9,1
    6144:	02010da3          	sb	x0,59(x2)
    6148:	fff00493          	addi	x9,x0,-1
    614c:	00000b93          	addi	x23,x0,0
    6150:	00000d93          	addi	x27,x0,0
    6154:	05a00913          	addi	x18,x0,90
    6158:	00198993          	addi	x19,x19,1
    615c:	fe070793          	addi	x15,x14,-32
    6160:	10f96c63          	bltu	x18,x15,6278 <_vfiprintf_r+0x2b0>
    6164:	00279793          	slli	x15,x15,0x2
    6168:	01a787b3          	add	x15,x15,x26
    616c:	0007a783          	lw	x15,0(x15)
    6170:	01a787b3          	add	x15,x15,x26
    6174:	00078067          	jalr	x0,0(x15)
    6178:	000b0593          	addi	x11,x22,0
    617c:	000c0513          	addi	x10,x24,0
    6180:	819fc0ef          	jal	x1,2998 <__swsetup_r>
    6184:	00050463          	beq	x10,x0,618c <_vfiprintf_r+0x1c4>
    6188:	16c0106f          	jal	x0,72f4 <_vfiprintf_r+0x132c>
    618c:	00cb1783          	lh	x15,12(x22)
    6190:	00a00713          	addi	x14,x0,10
    6194:	01a7f793          	andi	x15,x15,26
    6198:	eae79ee3          	bne	x15,x14,6054 <_vfiprintf_r+0x8c>
    619c:	00eb1783          	lh	x15,14(x22)
    61a0:	ea07cae3          	blt	x15,x0,6054 <_vfiprintf_r+0x8c>
    61a4:	12c12083          	lw	x1,300(x2)
    61a8:	0fc12d83          	lw	x27,252(x2)
    61ac:	000b8693          	addi	x13,x23,0
    61b0:	00098613          	addi	x12,x19,0
    61b4:	10c12b83          	lw	x23,268(x2)
    61b8:	11c12983          	lw	x19,284(x2)
    61bc:	000b0593          	addi	x11,x22,0
    61c0:	000c0513          	addi	x10,x24,0
    61c4:	11012b03          	lw	x22,272(x2)
    61c8:	10812c03          	lw	x24,264(x2)
    61cc:	13010113          	addi	x2,x2,304
    61d0:	16c0106f          	jal	x0,733c <__sbprintf>
    61d4:	00012503          	lw	x10,0(x2)
    61d8:	04010613          	addi	x12,x2,64
    61dc:	000b0593          	addi	x11,x22,0
    61e0:	01012423          	sw	x16,8(x2)
    61e4:	ca9ff0ef          	jal	x1,5e8c <__sprint_r.part.0>
    61e8:	00812803          	lw	x16,8(x2)
    61ec:	1e050863          	beq	x10,x0,63dc <_vfiprintf_r+0x414>
    61f0:	000c0d93          	addi	x27,x24,0
    61f4:	00cb5783          	lhu	x15,12(x22)
    61f8:	12812403          	lw	x8,296(x2)
    61fc:	12412483          	lw	x9,292(x2)
    6200:	0407f793          	andi	x15,x15,64
    6204:	12012903          	lw	x18,288(x2)
    6208:	11812a03          	lw	x20,280(x2)
    620c:	11412a83          	lw	x21,276(x2)
    6210:	10412c83          	lw	x25,260(x2)
    6214:	10012d03          	lw	x26,256(x2)
    6218:	00078463          	beq	x15,x0,6220 <_vfiprintf_r+0x258>
    621c:	0d80106f          	jal	x0,72f4 <_vfiprintf_r+0x132c>
    6220:	12c12083          	lw	x1,300(x2)
    6224:	11c12983          	lw	x19,284(x2)
    6228:	11012b03          	lw	x22,272(x2)
    622c:	10c12b83          	lw	x23,268(x2)
    6230:	10812c03          	lw	x24,264(x2)
    6234:	000d8513          	addi	x10,x27,0
    6238:	0fc12d83          	lw	x27,252(x2)
    623c:	13010113          	addi	x2,x2,304
    6240:	00008067          	jalr	x0,0(x1)
    6244:	00000b93          	addi	x23,x0,0
    6248:	fd070793          	addi	x15,x14,-48
    624c:	00900613          	addi	x12,x0,9
    6250:	0009c703          	lbu	x14,0(x19)
    6254:	002b9693          	slli	x13,x23,0x2
    6258:	01768bb3          	add	x23,x13,x23
    625c:	001b9b93          	slli	x23,x23,0x1
    6260:	01778bb3          	add	x23,x15,x23
    6264:	fd070793          	addi	x15,x14,-48
    6268:	00198993          	addi	x19,x19,1
    626c:	fef672e3          	bgeu	x12,x15,6250 <_vfiprintf_r+0x288>
    6270:	fe070793          	addi	x15,x14,-32
    6274:	eef978e3          	bgeu	x18,x15,6164 <_vfiprintf_r+0x19c>
    6278:	16070a63          	beq	x14,x0,63ec <_vfiprintf_r+0x424>
    627c:	08e10623          	sb	x14,140(x2)
    6280:	02010da3          	sb	x0,59(x2)
    6284:	00100693          	addi	x13,x0,1
    6288:	00100893          	addi	x17,x0,1
    628c:	08c10913          	addi	x18,x2,140
    6290:	00000493          	addi	x9,x0,0
    6294:	00000f13          	addi	x30,x0,0
    6298:	04412603          	lw	x12,68(x2)
    629c:	084dff93          	andi	x31,x27,132
    62a0:	04812783          	lw	x15,72(x2)
    62a4:	00160593          	addi	x11,x12,1 # 2001 <_fwalk_sglue+0x95>
    62a8:	00058e13          	addi	x28,x11,0
    62ac:	000f9663          	bne	x31,x0,62b8 <_vfiprintf_r+0x2f0>
    62b0:	40db8733          	sub	x14,x23,x13
    62b4:	1ee04ae3          	blt	x0,x14,6ca8 <_vfiprintf_r+0xce0>
    62b8:	03b14703          	lbu	x14,59(x2)
    62bc:	02070a63          	beq	x14,x0,62f0 <_vfiprintf_r+0x328>
    62c0:	03b10713          	addi	x14,x2,59
    62c4:	00178793          	addi	x15,x15,1
    62c8:	00e42023          	sw	x14,0(x8)
    62cc:	00100713          	addi	x14,x0,1
    62d0:	00e42223          	sw	x14,4(x8)
    62d4:	04f12423          	sw	x15,72(x2)
    62d8:	05c12223          	sw	x28,68(x2)
    62dc:	00700713          	addi	x14,x0,7
    62e0:	0fc748e3          	blt	x14,x28,6bd0 <_vfiprintf_r+0xc08>
    62e4:	000e0613          	addi	x12,x28,0
    62e8:	00840413          	addi	x8,x8,8
    62ec:	001e0e13          	addi	x28,x28,1
    62f0:	060f0863          	beq	x30,x0,6360 <_vfiprintf_r+0x398>
    62f4:	03c10713          	addi	x14,x2,60
    62f8:	00278793          	addi	x15,x15,2
    62fc:	00e42023          	sw	x14,0(x8)
    6300:	00200713          	addi	x14,x0,2
    6304:	00e42223          	sw	x14,4(x8)
    6308:	04f12423          	sw	x15,72(x2)
    630c:	05c12223          	sw	x28,68(x2)
    6310:	00700713          	addi	x14,x0,7
    6314:	13c756e3          	bge	x14,x28,6c40 <_vfiprintf_r+0xc78>
    6318:	34078ce3          	beq	x15,x0,6e70 <_vfiprintf_r+0xea8>
    631c:	00012503          	lw	x10,0(x2)
    6320:	04010613          	addi	x12,x2,64
    6324:	000b0593          	addi	x11,x22,0
    6328:	03012023          	sw	x16,32(x2)
    632c:	00d12823          	sw	x13,16(x2)
    6330:	01112623          	sw	x17,12(x2)
    6334:	01f12423          	sw	x31,8(x2)
    6338:	b55ff0ef          	jal	x1,5e8c <__sprint_r.part.0>
    633c:	ea051ae3          	bne	x10,x0,61f0 <_vfiprintf_r+0x228>
    6340:	04412603          	lw	x12,68(x2)
    6344:	04812783          	lw	x15,72(x2)
    6348:	02012803          	lw	x16,32(x2)
    634c:	01012683          	lw	x13,16(x2)
    6350:	00c12883          	lw	x17,12(x2)
    6354:	00812f83          	lw	x31,8(x2)
    6358:	000a8413          	addi	x8,x21,0
    635c:	00160e13          	addi	x28,x12,1
    6360:	08000713          	addi	x14,x0,128
    6364:	64ef8a63          	beq	x31,x14,69b8 <_vfiprintf_r+0x9f0>
    6368:	411484b3          	sub	x9,x9,x17
    636c:	76904a63          	blt	x0,x9,6ae0 <_vfiprintf_r+0xb18>
    6370:	00f887b3          	add	x15,x17,x15
    6374:	01242023          	sw	x18,0(x8)
    6378:	01142223          	sw	x17,4(x8)
    637c:	04f12423          	sw	x15,72(x2)
    6380:	05c12223          	sw	x28,68(x2)
    6384:	00700713          	addi	x14,x0,7
    6388:	61c75c63          	bge	x14,x28,69a0 <_vfiprintf_r+0x9d8>
    638c:	10078e63          	beq	x15,x0,64a8 <_vfiprintf_r+0x4e0>
    6390:	00012503          	lw	x10,0(x2)
    6394:	04010613          	addi	x12,x2,64
    6398:	000b0593          	addi	x11,x22,0
    639c:	01012623          	sw	x16,12(x2)
    63a0:	00d12423          	sw	x13,8(x2)
    63a4:	ae9ff0ef          	jal	x1,5e8c <__sprint_r.part.0>
    63a8:	e40514e3          	bne	x10,x0,61f0 <_vfiprintf_r+0x228>
    63ac:	04812783          	lw	x15,72(x2)
    63b0:	00c12803          	lw	x16,12(x2)
    63b4:	00812683          	lw	x13,8(x2)
    63b8:	000a8413          	addi	x8,x21,0
    63bc:	004dfd93          	andi	x27,x27,4
    63c0:	000d8663          	beq	x27,x0,63cc <_vfiprintf_r+0x404>
    63c4:	40db84b3          	sub	x9,x23,x13
    63c8:	0e904c63          	blt	x0,x9,64c0 <_vfiprintf_r+0x4f8>
    63cc:	00dbd463          	bge	x23,x13,63d4 <_vfiprintf_r+0x40c>
    63d0:	00068b93          	addi	x23,x13,0
    63d4:	017c0c33          	add	x24,x24,x23
    63d8:	de079ee3          	bne	x15,x0,61d4 <_vfiprintf_r+0x20c>
    63dc:	0009c783          	lbu	x15,0(x19)
    63e0:	04012223          	sw	x0,68(x2)
    63e4:	000a8413          	addi	x8,x21,0
    63e8:	cc079ce3          	bne	x15,x0,60c0 <_vfiprintf_r+0xf8>
    63ec:	04812783          	lw	x15,72(x2)
    63f0:	000c0d93          	addi	x27,x24,0
    63f4:	00012c03          	lw	x24,0(x2)
    63f8:	de078ee3          	beq	x15,x0,61f4 <_vfiprintf_r+0x22c>
    63fc:	04010613          	addi	x12,x2,64
    6400:	000b0593          	addi	x11,x22,0
    6404:	000c0513          	addi	x10,x24,0
    6408:	a85ff0ef          	jal	x1,5e8c <__sprint_r.part.0>
    640c:	de9ff06f          	jal	x0,61f4 <_vfiprintf_r+0x22c>
    6410:	00082b83          	lw	x23,0(x16)
    6414:	00480813          	addi	x16,x16,4
    6418:	2a0bc663          	blt	x23,x0,66c4 <_vfiprintf_r+0x6fc>
    641c:	0009c703          	lbu	x14,0(x19)
    6420:	d39ff06f          	jal	x0,6158 <_vfiprintf_r+0x190>
    6424:	0009c703          	lbu	x14,0(x19)
    6428:	020ded93          	ori	x27,x27,32
    642c:	d2dff06f          	jal	x0,6158 <_vfiprintf_r+0x190>
    6430:	010ded93          	ori	x27,x27,16
    6434:	020df793          	andi	x15,x27,32
    6438:	16078e63          	beq	x15,x0,65b4 <_vfiprintf_r+0x5ec>
    643c:	00780813          	addi	x16,x16,7
    6440:	ff887813          	andi	x16,x16,-8
    6444:	00482703          	lw	x14,4(x16)
    6448:	00082783          	lw	x15,0(x16)
    644c:	00880813          	addi	x16,x16,8
    6450:	00070893          	addi	x17,x14,0
    6454:	18074663          	blt	x14,x0,65e0 <_vfiprintf_r+0x618>
    6458:	1a04c463          	blt	x9,x0,6600 <_vfiprintf_r+0x638>
    645c:	0117e733          	or	x14,x15,x17
    6460:	f7fdfd93          	andi	x27,x27,-129
    6464:	18071e63          	bne	x14,x0,6600 <_vfiprintf_r+0x638>
    6468:	660492e3          	bne	x9,x0,72cc <_vfiprintf_r+0x1304>
    646c:	03b14783          	lbu	x15,59(x2)
    6470:	00000693          	addi	x13,x0,0
    6474:	00000893          	addi	x17,x0,0
    6478:	0f010913          	addi	x18,x2,240
    647c:	00078463          	beq	x15,x0,6484 <_vfiprintf_r+0x4bc>
    6480:	00168693          	addi	x13,x13,1
    6484:	002dff13          	andi	x30,x27,2
    6488:	e00f08e3          	beq	x30,x0,6298 <_vfiprintf_r+0x2d0>
    648c:	00268693          	addi	x13,x13,2
    6490:	00200f13          	addi	x30,x0,2
    6494:	e05ff06f          	jal	x0,6298 <_vfiprintf_r+0x2d0>
    6498:	41348933          	sub	x18,x9,x19
    649c:	c53492e3          	bne	x9,x19,60e0 <_vfiprintf_r+0x118>
    64a0:	0004c783          	lbu	x15,0(x9)
    64a4:	c95ff06f          	jal	x0,6138 <_vfiprintf_r+0x170>
    64a8:	04012223          	sw	x0,68(x2)
    64ac:	004dfd93          	andi	x27,x27,4
    64b0:	100d80e3          	beq	x27,x0,6db0 <_vfiprintf_r+0xde8>
    64b4:	40db84b3          	sub	x9,x23,x13
    64b8:	0e905ce3          	bge	x0,x9,6db0 <_vfiprintf_r+0xde8>
    64bc:	000a8413          	addi	x8,x21,0
    64c0:	01000713          	addi	x14,x0,16
    64c4:	04412603          	lw	x12,68(x2)
    64c8:	60975ee3          	bge	x14,x9,72e4 <_vfiprintf_r+0x131c>
    64cc:	0000ce17          	auipc	x28,0xc
    64d0:	b54e0e13          	addi	x28,x28,-1196 # 12020 <blanks.1>
    64d4:	00d12423          	sw	x13,8(x2)
    64d8:	01000913          	addi	x18,x0,16
    64dc:	00040693          	addi	x13,x8,0
    64e0:	00700d93          	addi	x27,x0,7
    64e4:	00048413          	addi	x8,x9,0
    64e8:	01012623          	sw	x16,12(x2)
    64ec:	000e0493          	addi	x9,x28,0
    64f0:	0180006f          	jal	x0,6508 <_vfiprintf_r+0x540>
    64f4:	00260593          	addi	x11,x12,2
    64f8:	00868693          	addi	x13,x13,8
    64fc:	00070613          	addi	x12,x14,0
    6500:	ff040413          	addi	x8,x8,-16
    6504:	04895863          	bge	x18,x8,6554 <_vfiprintf_r+0x58c>
    6508:	01078793          	addi	x15,x15,16
    650c:	00160713          	addi	x14,x12,1
    6510:	0096a023          	sw	x9,0(x13)
    6514:	0126a223          	sw	x18,4(x13)
    6518:	04f12423          	sw	x15,72(x2)
    651c:	04e12223          	sw	x14,68(x2)
    6520:	fceddae3          	bge	x27,x14,64f4 <_vfiprintf_r+0x52c>
    6524:	48078263          	beq	x15,x0,69a8 <_vfiprintf_r+0x9e0>
    6528:	00012503          	lw	x10,0(x2)
    652c:	04010613          	addi	x12,x2,64
    6530:	000b0593          	addi	x11,x22,0
    6534:	959ff0ef          	jal	x1,5e8c <__sprint_r.part.0>
    6538:	ca051ce3          	bne	x10,x0,61f0 <_vfiprintf_r+0x228>
    653c:	04412603          	lw	x12,68(x2)
    6540:	ff040413          	addi	x8,x8,-16
    6544:	04812783          	lw	x15,72(x2)
    6548:	000a8693          	addi	x13,x21,0
    654c:	00160593          	addi	x11,x12,1
    6550:	fa894ce3          	blt	x18,x8,6508 <_vfiprintf_r+0x540>
    6554:	00048e13          	addi	x28,x9,0
    6558:	00c12803          	lw	x16,12(x2)
    655c:	00040493          	addi	x9,x8,0
    6560:	00068413          	addi	x8,x13,0
    6564:	00812683          	lw	x13,8(x2)
    6568:	009787b3          	add	x15,x15,x9
    656c:	01c42023          	sw	x28,0(x8)
    6570:	00942223          	sw	x9,4(x8)
    6574:	04f12423          	sw	x15,72(x2)
    6578:	04b12223          	sw	x11,68(x2)
    657c:	00700713          	addi	x14,x0,7
    6580:	e4b756e3          	bge	x14,x11,63cc <_vfiprintf_r+0x404>
    6584:	020786e3          	beq	x15,x0,6db0 <_vfiprintf_r+0xde8>
    6588:	00012503          	lw	x10,0(x2)
    658c:	04010613          	addi	x12,x2,64
    6590:	000b0593          	addi	x11,x22,0
    6594:	01012623          	sw	x16,12(x2)
    6598:	00d12423          	sw	x13,8(x2)
    659c:	8f1ff0ef          	jal	x1,5e8c <__sprint_r.part.0>
    65a0:	c40518e3          	bne	x10,x0,61f0 <_vfiprintf_r+0x228>
    65a4:	04812783          	lw	x15,72(x2)
    65a8:	00c12803          	lw	x16,12(x2)
    65ac:	00812683          	lw	x13,8(x2)
    65b0:	e1dff06f          	jal	x0,63cc <_vfiprintf_r+0x404>
    65b4:	010df713          	andi	x14,x27,16
    65b8:	00082783          	lw	x15,0(x16)
    65bc:	00480813          	addi	x16,x16,4
    65c0:	0e071c63          	bne	x14,x0,66b8 <_vfiprintf_r+0x6f0>
    65c4:	040df713          	andi	x14,x27,64
    65c8:	0e070463          	beq	x14,x0,66b0 <_vfiprintf_r+0x6e8>
    65cc:	01079793          	slli	x15,x15,0x10
    65d0:	4107d793          	srai	x15,x15,0x10
    65d4:	41f7d893          	srai	x17,x15,0x1f
    65d8:	00088713          	addi	x14,x17,0
    65dc:	e6075ee3          	bge	x14,x0,6458 <_vfiprintf_r+0x490>
    65e0:	02d00693          	addi	x13,x0,45
    65e4:	00f03733          	sltu	x14,x0,x15
    65e8:	411008b3          	sub	x17,x0,x17
    65ec:	02d10da3          	sb	x13,59(x2)
    65f0:	40e888b3          	sub	x17,x17,x14
    65f4:	40f007b3          	sub	x15,x0,x15
    65f8:	0004c463          	blt	x9,x0,6600 <_vfiprintf_r+0x638>
    65fc:	f7fdfd93          	andi	x27,x27,-129
    6600:	0c089ae3          	bne	x17,x0,6ed4 <_vfiprintf_r+0xf0c>
    6604:	00900713          	addi	x14,x0,9
    6608:	0cf766e3          	bltu	x14,x15,6ed4 <_vfiprintf_r+0xf0c>
    660c:	03078793          	addi	x15,x15,48
    6610:	0ff7f793          	andi	x15,x15,255
    6614:	0ef107a3          	sb	x15,239(x2)
    6618:	00048693          	addi	x13,x9,0
    661c:	00904463          	blt	x0,x9,6624 <_vfiprintf_r+0x65c>
    6620:	00100693          	addi	x13,x0,1
    6624:	00100893          	addi	x17,x0,1
    6628:	0ef10913          	addi	x18,x2,239
    662c:	03b14783          	lbu	x15,59(x2)
    6630:	e40798e3          	bne	x15,x0,6480 <_vfiprintf_r+0x4b8>
    6634:	e51ff06f          	jal	x0,6484 <_vfiprintf_r+0x4bc>
    6638:	00082903          	lw	x18,0(x16)
    663c:	02010da3          	sb	x0,59(x2)
    6640:	00480813          	addi	x16,x16,4
    6644:	3c090ee3          	beq	x18,x0,7220 <_vfiprintf_r+0x1258>
    6648:	01012423          	sw	x16,8(x2)
    664c:	2604cee3          	blt	x9,x0,70c8 <_vfiprintf_r+0x1100>
    6650:	00048613          	addi	x12,x9,0
    6654:	00000593          	addi	x11,x0,0
    6658:	00090513          	addi	x10,x18,0
    665c:	f70fb0ef          	jal	x1,1dcc <memchr>
    6660:	00812803          	lw	x16,8(x2)
    6664:	00048893          	addi	x17,x9,0
    6668:	00050463          	beq	x10,x0,6670 <_vfiprintf_r+0x6a8>
    666c:	412508b3          	sub	x17,x10,x18
    6670:	03b14783          	lbu	x15,59(x2)
    6674:	fff8c693          	xori	x13,x17,-1
    6678:	41f6d693          	srai	x13,x13,0x1f
    667c:	00d8f6b3          	and	x13,x17,x13
    6680:	00000493          	addi	x9,x0,0
    6684:	00000f13          	addi	x30,x0,0
    6688:	de079ce3          	bne	x15,x0,6480 <_vfiprintf_r+0x4b8>
    668c:	c0dff06f          	jal	x0,6298 <_vfiprintf_r+0x2d0>
    6690:	00082783          	lw	x15,0(x16)
    6694:	02010da3          	sb	x0,59(x2)
    6698:	00480813          	addi	x16,x16,4
    669c:	08f10623          	sb	x15,140(x2)
    66a0:	00100693          	addi	x13,x0,1
    66a4:	00100893          	addi	x17,x0,1
    66a8:	08c10913          	addi	x18,x2,140
    66ac:	be5ff06f          	jal	x0,6290 <_vfiprintf_r+0x2c8>
    66b0:	200df713          	andi	x14,x27,512
    66b4:	3e0716e3          	bne	x14,x0,72a0 <_vfiprintf_r+0x12d8>
    66b8:	41f7d893          	srai	x17,x15,0x1f
    66bc:	00088713          	addi	x14,x17,0
    66c0:	d95ff06f          	jal	x0,6454 <_vfiprintf_r+0x48c>
    66c4:	41700bb3          	sub	x23,x0,x23
    66c8:	0009c703          	lbu	x14,0(x19)
    66cc:	004ded93          	ori	x27,x27,4
    66d0:	a89ff06f          	jal	x0,6158 <_vfiprintf_r+0x190>
    66d4:	02b00793          	addi	x15,x0,43
    66d8:	0009c703          	lbu	x14,0(x19)
    66dc:	02f10da3          	sb	x15,59(x2)
    66e0:	a79ff06f          	jal	x0,6158 <_vfiprintf_r+0x190>
    66e4:	0009c703          	lbu	x14,0(x19)
    66e8:	080ded93          	ori	x27,x27,128
    66ec:	a6dff06f          	jal	x0,6158 <_vfiprintf_r+0x190>
    66f0:	0009c703          	lbu	x14,0(x19)
    66f4:	02a00793          	addi	x15,x0,42
    66f8:	00198613          	addi	x12,x19,1
    66fc:	40f708e3          	beq	x14,x15,730c <_vfiprintf_r+0x1344>
    6700:	fd070793          	addi	x15,x14,-48
    6704:	00900693          	addi	x13,x0,9
    6708:	00000493          	addi	x9,x0,0
    670c:	00900593          	addi	x11,x0,9
    6710:	02f6e463          	bltu	x13,x15,6738 <_vfiprintf_r+0x770>
    6714:	00064703          	lbu	x14,0(x12)
    6718:	00249693          	slli	x13,x9,0x2
    671c:	009684b3          	add	x9,x13,x9
    6720:	00149493          	slli	x9,x9,0x1
    6724:	00f484b3          	add	x9,x9,x15
    6728:	fd070793          	addi	x15,x14,-48
    672c:	00160613          	addi	x12,x12,1
    6730:	fef5f2e3          	bgeu	x11,x15,6714 <_vfiprintf_r+0x74c>
    6734:	0e04c6e3          	blt	x9,x0,7020 <_vfiprintf_r+0x1058>
    6738:	00060993          	addi	x19,x12,0
    673c:	a21ff06f          	jal	x0,615c <_vfiprintf_r+0x194>
    6740:	00012503          	lw	x10,0(x2)
    6744:	01012423          	sw	x16,8(x2)
    6748:	0a5030ef          	jal	x1,9fec <_localeconv_r>
    674c:	00452783          	lw	x15,4(x10)
    6750:	00078513          	addi	x10,x15,0
    6754:	00f12e23          	sw	x15,28(x2)
    6758:	de8fb0ef          	jal	x1,1d40 <strlen>
    675c:	00050793          	addi	x15,x10,0
    6760:	00012503          	lw	x10,0(x2)
    6764:	00f12c23          	sw	x15,24(x2)
    6768:	085030ef          	jal	x1,9fec <_localeconv_r>
    676c:	00852703          	lw	x14,8(x10)
    6770:	01812783          	lw	x15,24(x2)
    6774:	00812803          	lw	x16,8(x2)
    6778:	00e12a23          	sw	x14,20(x2)
    677c:	ca0780e3          	beq	x15,x0,641c <_vfiprintf_r+0x454>
    6780:	01412783          	lw	x15,20(x2)
    6784:	0009c703          	lbu	x14,0(x19)
    6788:	9c0788e3          	beq	x15,x0,6158 <_vfiprintf_r+0x190>
    678c:	0007c783          	lbu	x15,0(x15)
    6790:	9c0784e3          	beq	x15,x0,6158 <_vfiprintf_r+0x190>
    6794:	400ded93          	ori	x27,x27,1024
    6798:	9c1ff06f          	jal	x0,6158 <_vfiprintf_r+0x190>
    679c:	0009c703          	lbu	x14,0(x19)
    67a0:	001ded93          	ori	x27,x27,1
    67a4:	9b5ff06f          	jal	x0,6158 <_vfiprintf_r+0x190>
    67a8:	03b14783          	lbu	x15,59(x2)
    67ac:	0009c703          	lbu	x14,0(x19)
    67b0:	9a0794e3          	bne	x15,x0,6158 <_vfiprintf_r+0x190>
    67b4:	02000793          	addi	x15,x0,32
    67b8:	02f10da3          	sb	x15,59(x2)
    67bc:	99dff06f          	jal	x0,6158 <_vfiprintf_r+0x190>
    67c0:	010de713          	ori	x14,x27,16
    67c4:	02077793          	andi	x15,x14,32
    67c8:	66078863          	beq	x15,x0,6e38 <_vfiprintf_r+0xe70>
    67cc:	00780813          	addi	x16,x16,7
    67d0:	ff887813          	andi	x16,x16,-8
    67d4:	00082783          	lw	x15,0(x16)
    67d8:	00482603          	lw	x12,4(x16)
    67dc:	00880813          	addi	x16,x16,8
    67e0:	02010da3          	sb	x0,59(x2)
    67e4:	bff77d93          	andi	x27,x14,-1025
    67e8:	0c04c063          	blt	x9,x0,68a8 <_vfiprintf_r+0x8e0>
    67ec:	00c7e6b3          	or	x13,x15,x12
    67f0:	b7f77713          	andi	x14,x14,-1153
    67f4:	1e0692e3          	bne	x13,x0,71d8 <_vfiprintf_r+0x1210>
    67f8:	000d8693          	addi	x13,x27,0
    67fc:	00000793          	addi	x15,x0,0
    6800:	00070d93          	addi	x27,x14,0
    6804:	08049663          	bne	x9,x0,6890 <_vfiprintf_r+0x8c8>
    6808:	c60792e3          	bne	x15,x0,646c <_vfiprintf_r+0x4a4>
    680c:	0016f893          	andi	x17,x13,1
    6810:	7c088063          	beq	x17,x0,6fd0 <_vfiprintf_r+0x1008>
    6814:	03000793          	addi	x15,x0,48
    6818:	0ef107a3          	sb	x15,239(x2)
    681c:	00088693          	addi	x13,x17,0
    6820:	0ef10913          	addi	x18,x2,239
    6824:	e09ff06f          	jal	x0,662c <_vfiprintf_r+0x664>
    6828:	0009c703          	lbu	x14,0(x19)
    682c:	06c00793          	addi	x15,x0,108
    6830:	1cf708e3          	beq	x14,x15,7200 <_vfiprintf_r+0x1238>
    6834:	010ded93          	ori	x27,x27,16
    6838:	921ff06f          	jal	x0,6158 <_vfiprintf_r+0x190>
    683c:	0009c703          	lbu	x14,0(x19)
    6840:	06800793          	addi	x15,x0,104
    6844:	1af706e3          	beq	x14,x15,71f0 <_vfiprintf_r+0x1228>
    6848:	040ded93          	ori	x27,x27,64
    684c:	90dff06f          	jal	x0,6158 <_vfiprintf_r+0x190>
    6850:	010de693          	ori	x13,x27,16
    6854:	0206f793          	andi	x15,x13,32
    6858:	5a078c63          	beq	x15,x0,6e10 <_vfiprintf_r+0xe48>
    685c:	00780813          	addi	x16,x16,7
    6860:	ff887813          	andi	x16,x16,-8
    6864:	00082783          	lw	x15,0(x16)
    6868:	00482883          	lw	x17,4(x16)
    686c:	00880813          	addi	x16,x16,8
    6870:	02010da3          	sb	x0,59(x2)
    6874:	00068d93          	addi	x27,x13,0
    6878:	d804c4e3          	blt	x9,x0,6600 <_vfiprintf_r+0x638>
    687c:	0117e733          	or	x14,x15,x17
    6880:	f7f6fd93          	andi	x27,x13,-129
    6884:	d6071ee3          	bne	x14,x0,6600 <_vfiprintf_r+0x638>
    6888:	00100793          	addi	x15,x0,1
    688c:	f6048ee3          	beq	x9,x0,6808 <_vfiprintf_r+0x840>
    6890:	00100713          	addi	x14,x0,1
    6894:	22e78ce3          	beq	x15,x14,72cc <_vfiprintf_r+0x1304>
    6898:	00200713          	addi	x14,x0,2
    689c:	1ae78ae3          	beq	x15,x14,7250 <_vfiprintf_r+0x1288>
    68a0:	00000793          	addi	x15,x0,0
    68a4:	00000613          	addi	x12,x0,0
    68a8:	0f010913          	addi	x18,x2,240
    68ac:	01d61693          	slli	x13,x12,0x1d
    68b0:	0077f713          	andi	x14,x15,7
    68b4:	0037d793          	srli	x15,x15,0x3
    68b8:	03070713          	addi	x14,x14,48
    68bc:	00f6e7b3          	or	x15,x13,x15
    68c0:	00365613          	srli	x12,x12,0x3
    68c4:	fee90fa3          	sb	x14,-1(x18)
    68c8:	00c7e6b3          	or	x13,x15,x12
    68cc:	00090593          	addi	x11,x18,0
    68d0:	fff90913          	addi	x18,x18,-1
    68d4:	fc069ce3          	bne	x13,x0,68ac <_vfiprintf_r+0x8e4>
    68d8:	001df793          	andi	x15,x27,1
    68dc:	3a078a63          	beq	x15,x0,6c90 <_vfiprintf_r+0xcc8>
    68e0:	03000793          	addi	x15,x0,48
    68e4:	3af70663          	beq	x14,x15,6c90 <_vfiprintf_r+0xcc8>
    68e8:	ffe58593          	addi	x11,x11,-2
    68ec:	fef90fa3          	sb	x15,-1(x18)
    68f0:	0f010793          	addi	x15,x2,240
    68f4:	40b788b3          	sub	x17,x15,x11
    68f8:	00048693          	addi	x13,x9,0
    68fc:	7114cc63          	blt	x9,x17,7014 <_vfiprintf_r+0x104c>
    6900:	00058913          	addi	x18,x11,0
    6904:	d29ff06f          	jal	x0,662c <_vfiprintf_r+0x664>
    6908:	00008737          	lui	x14,0x8
    690c:	83070713          	addi	x14,x14,-2000 # 7830 <__gdtoa+0x2a4>
    6910:	02e11e23          	sh	x14,60(x2)
    6914:	0000b717          	auipc	x14,0xb
    6918:	0a070713          	addi	x14,x14,160 # 119b4 <__clzsi2+0x338>
    691c:	00082783          	lw	x15,0(x16)
    6920:	00000613          	addi	x12,x0,0
    6924:	002ded93          	ori	x27,x27,2
    6928:	00480813          	addi	x16,x16,4
    692c:	00e12223          	sw	x14,4(x2)
    6930:	02010da3          	sb	x0,59(x2)
    6934:	3204c463          	blt	x9,x0,6c5c <_vfiprintf_r+0xc94>
    6938:	00c7e733          	or	x14,x15,x12
    693c:	f7fdf593          	andi	x11,x27,-129
    6940:	30071863          	bne	x14,x0,6c50 <_vfiprintf_r+0xc88>
    6944:	000d8693          	addi	x13,x27,0
    6948:	00200793          	addi	x15,x0,2
    694c:	00058d93          	addi	x27,x11,0
    6950:	eb5ff06f          	jal	x0,6804 <_vfiprintf_r+0x83c>
    6954:	020df793          	andi	x15,x27,32
    6958:	68079a63          	bne	x15,x0,6fec <_vfiprintf_r+0x1024>
    695c:	010df793          	andi	x15,x27,16
    6960:	0a0798e3          	bne	x15,x0,7210 <_vfiprintf_r+0x1248>
    6964:	040df793          	andi	x15,x27,64
    6968:	120794e3          	bne	x15,x0,7290 <_vfiprintf_r+0x12c8>
    696c:	200dfd93          	andi	x27,x27,512
    6970:	0a0d80e3          	beq	x27,x0,7210 <_vfiprintf_r+0x1248>
    6974:	00082783          	lw	x15,0(x16)
    6978:	00480813          	addi	x16,x16,4
    697c:	01878023          	sb	x24,0(x15)
    6980:	f38ff06f          	jal	x0,60b8 <_vfiprintf_r+0xf0>
    6984:	00100713          	addi	x14,x0,1
    6988:	00088793          	addi	x15,x17,0
    698c:	05212623          	sw	x18,76(x2)
    6990:	05112823          	sw	x17,80(x2)
    6994:	05112423          	sw	x17,72(x2)
    6998:	04e12223          	sw	x14,68(x2)
    699c:	000a8413          	addi	x8,x21,0
    69a0:	00840413          	addi	x8,x8,8
    69a4:	a19ff06f          	jal	x0,63bc <_vfiprintf_r+0x3f4>
    69a8:	00100593          	addi	x11,x0,1
    69ac:	00000613          	addi	x12,x0,0
    69b0:	000a8693          	addi	x13,x21,0
    69b4:	b4dff06f          	jal	x0,6500 <_vfiprintf_r+0x538>
    69b8:	40db8f33          	sub	x30,x23,x13
    69bc:	9be056e3          	bge	x0,x30,6368 <_vfiprintf_r+0x3a0>
    69c0:	01000713          	addi	x14,x0,16
    69c4:	13e75ce3          	bge	x14,x30,72fc <_vfiprintf_r+0x1334>
    69c8:	0000be97          	auipc	x29,0xb
    69cc:	668e8e93          	addi	x29,x29,1640 # 12030 <zeroes.0>
    69d0:	00912623          	sw	x9,12(x2)
    69d4:	00d12823          	sw	x13,16(x2)
    69d8:	01000e13          	addi	x28,x0,16
    69dc:	00040693          	addi	x13,x8,0
    69e0:	00700f93          	addi	x31,x0,7
    69e4:	01112423          	sw	x17,8(x2)
    69e8:	000f0413          	addi	x8,x30,0
    69ec:	03012023          	sw	x16,32(x2)
    69f0:	000e8493          	addi	x9,x29,0
    69f4:	0180006f          	jal	x0,6a0c <_vfiprintf_r+0xa44>
    69f8:	00260593          	addi	x11,x12,2
    69fc:	00868693          	addi	x13,x13,8
    6a00:	00070613          	addi	x12,x14,0
    6a04:	ff040413          	addi	x8,x8,-16
    6a08:	048e5c63          	bge	x28,x8,6a60 <_vfiprintf_r+0xa98>
    6a0c:	01078793          	addi	x15,x15,16
    6a10:	00160713          	addi	x14,x12,1
    6a14:	0096a023          	sw	x9,0(x13)
    6a18:	01c6a223          	sw	x28,4(x13)
    6a1c:	04f12423          	sw	x15,72(x2)
    6a20:	04e12223          	sw	x14,68(x2)
    6a24:	fcefdae3          	bge	x31,x14,69f8 <_vfiprintf_r+0xa30>
    6a28:	18078c63          	beq	x15,x0,6bc0 <_vfiprintf_r+0xbf8>
    6a2c:	00012503          	lw	x10,0(x2)
    6a30:	04010613          	addi	x12,x2,64
    6a34:	000b0593          	addi	x11,x22,0
    6a38:	c54ff0ef          	jal	x1,5e8c <__sprint_r.part.0>
    6a3c:	fa051a63          	bne	x10,x0,61f0 <_vfiprintf_r+0x228>
    6a40:	04412603          	lw	x12,68(x2)
    6a44:	01000e13          	addi	x28,x0,16
    6a48:	ff040413          	addi	x8,x8,-16
    6a4c:	04812783          	lw	x15,72(x2)
    6a50:	000a8693          	addi	x13,x21,0
    6a54:	00160593          	addi	x11,x12,1
    6a58:	00700f93          	addi	x31,x0,7
    6a5c:	fa8e48e3          	blt	x28,x8,6a0c <_vfiprintf_r+0xa44>
    6a60:	00040f13          	addi	x30,x8,0
    6a64:	00048e93          	addi	x29,x9,0
    6a68:	00068413          	addi	x8,x13,0
    6a6c:	00812883          	lw	x17,8(x2)
    6a70:	01012683          	lw	x13,16(x2)
    6a74:	02012803          	lw	x16,32(x2)
    6a78:	00c12483          	lw	x9,12(x2)
    6a7c:	01e787b3          	add	x15,x15,x30
    6a80:	01d42023          	sw	x29,0(x8)
    6a84:	01e42223          	sw	x30,4(x8)
    6a88:	04f12423          	sw	x15,72(x2)
    6a8c:	04b12223          	sw	x11,68(x2)
    6a90:	00700713          	addi	x14,x0,7
    6a94:	54b75463          	bge	x14,x11,6fdc <_vfiprintf_r+0x1014>
    6a98:	7c078263          	beq	x15,x0,725c <_vfiprintf_r+0x1294>
    6a9c:	00012503          	lw	x10,0(x2)
    6aa0:	04010613          	addi	x12,x2,64
    6aa4:	000b0593          	addi	x11,x22,0
    6aa8:	01012823          	sw	x16,16(x2)
    6aac:	00d12623          	sw	x13,12(x2)
    6ab0:	01112423          	sw	x17,8(x2)
    6ab4:	bd8ff0ef          	jal	x1,5e8c <__sprint_r.part.0>
    6ab8:	f2051c63          	bne	x10,x0,61f0 <_vfiprintf_r+0x228>
    6abc:	00812883          	lw	x17,8(x2)
    6ac0:	04412603          	lw	x12,68(x2)
    6ac4:	04812783          	lw	x15,72(x2)
    6ac8:	411484b3          	sub	x9,x9,x17
    6acc:	01012803          	lw	x16,16(x2)
    6ad0:	00c12683          	lw	x13,12(x2)
    6ad4:	000a8413          	addi	x8,x21,0
    6ad8:	00160e13          	addi	x28,x12,1
    6adc:	88905ae3          	bge	x0,x9,6370 <_vfiprintf_r+0x3a8>
    6ae0:	0000be97          	auipc	x29,0xb
    6ae4:	550e8e93          	addi	x29,x29,1360 # 12030 <zeroes.0>
    6ae8:	0a9a5063          	bge	x20,x9,6b88 <_vfiprintf_r+0xbc0>
    6aec:	00d12623          	sw	x13,12(x2)
    6af0:	00700f13          	addi	x30,x0,7
    6af4:	00040693          	addi	x13,x8,0
    6af8:	01112423          	sw	x17,8(x2)
    6afc:	00048413          	addi	x8,x9,0
    6b00:	01012823          	sw	x16,16(x2)
    6b04:	000c8493          	addi	x9,x25,0
    6b08:	0180006f          	jal	x0,6b20 <_vfiprintf_r+0xb58>
    6b0c:	00260e13          	addi	x28,x12,2
    6b10:	00868693          	addi	x13,x13,8
    6b14:	00070613          	addi	x12,x14,0
    6b18:	ff040413          	addi	x8,x8,-16
    6b1c:	048a5a63          	bge	x20,x8,6b70 <_vfiprintf_r+0xba8>
    6b20:	01078793          	addi	x15,x15,16
    6b24:	00160713          	addi	x14,x12,1
    6b28:	0196a023          	sw	x25,0(x13)
    6b2c:	0146a223          	sw	x20,4(x13)
    6b30:	04f12423          	sw	x15,72(x2)
    6b34:	04e12223          	sw	x14,68(x2)
    6b38:	fcef5ae3          	bge	x30,x14,6b0c <_vfiprintf_r+0xb44>
    6b3c:	06078a63          	beq	x15,x0,6bb0 <_vfiprintf_r+0xbe8>
    6b40:	00012503          	lw	x10,0(x2)
    6b44:	04010613          	addi	x12,x2,64
    6b48:	000b0593          	addi	x11,x22,0
    6b4c:	b40ff0ef          	jal	x1,5e8c <__sprint_r.part.0>
    6b50:	ea051063          	bne	x10,x0,61f0 <_vfiprintf_r+0x228>
    6b54:	04412603          	lw	x12,68(x2)
    6b58:	ff040413          	addi	x8,x8,-16
    6b5c:	04812783          	lw	x15,72(x2)
    6b60:	000a8693          	addi	x13,x21,0
    6b64:	00160e13          	addi	x28,x12,1
    6b68:	00700f13          	addi	x30,x0,7
    6b6c:	fa8a4ae3          	blt	x20,x8,6b20 <_vfiprintf_r+0xb58>
    6b70:	00048e93          	addi	x29,x9,0
    6b74:	00812883          	lw	x17,8(x2)
    6b78:	00040493          	addi	x9,x8,0
    6b7c:	01012803          	lw	x16,16(x2)
    6b80:	00068413          	addi	x8,x13,0
    6b84:	00c12683          	lw	x13,12(x2)
    6b88:	009787b3          	add	x15,x15,x9
    6b8c:	01d42023          	sw	x29,0(x8)
    6b90:	00942223          	sw	x9,4(x8)
    6b94:	04f12423          	sw	x15,72(x2)
    6b98:	05c12223          	sw	x28,68(x2)
    6b9c:	00700713          	addi	x14,x0,7
    6ba0:	23c74063          	blt	x14,x28,6dc0 <_vfiprintf_r+0xdf8>
    6ba4:	00840413          	addi	x8,x8,8
    6ba8:	001e0e13          	addi	x28,x28,1
    6bac:	fc4ff06f          	jal	x0,6370 <_vfiprintf_r+0x3a8>
    6bb0:	00100e13          	addi	x28,x0,1
    6bb4:	00000613          	addi	x12,x0,0
    6bb8:	000a8693          	addi	x13,x21,0
    6bbc:	f5dff06f          	jal	x0,6b18 <_vfiprintf_r+0xb50>
    6bc0:	00100593          	addi	x11,x0,1
    6bc4:	00000613          	addi	x12,x0,0
    6bc8:	000a8693          	addi	x13,x21,0
    6bcc:	e39ff06f          	jal	x0,6a04 <_vfiprintf_r+0xa3c>
    6bd0:	04078a63          	beq	x15,x0,6c24 <_vfiprintf_r+0xc5c>
    6bd4:	00012503          	lw	x10,0(x2)
    6bd8:	04010613          	addi	x12,x2,64
    6bdc:	000b0593          	addi	x11,x22,0
    6be0:	03012223          	sw	x16,36(x2)
    6be4:	02d12023          	sw	x13,32(x2)
    6be8:	01112823          	sw	x17,16(x2)
    6bec:	01f12623          	sw	x31,12(x2)
    6bf0:	01e12423          	sw	x30,8(x2)
    6bf4:	a98ff0ef          	jal	x1,5e8c <__sprint_r.part.0>
    6bf8:	de051c63          	bne	x10,x0,61f0 <_vfiprintf_r+0x228>
    6bfc:	04412603          	lw	x12,68(x2)
    6c00:	04812783          	lw	x15,72(x2)
    6c04:	02412803          	lw	x16,36(x2)
    6c08:	02012683          	lw	x13,32(x2)
    6c0c:	01012883          	lw	x17,16(x2)
    6c10:	00c12f83          	lw	x31,12(x2)
    6c14:	00812f03          	lw	x30,8(x2)
    6c18:	000a8413          	addi	x8,x21,0
    6c1c:	00160e13          	addi	x28,x12,1
    6c20:	ed0ff06f          	jal	x0,62f0 <_vfiprintf_r+0x328>
    6c24:	3e0f0063          	beq	x30,x0,7004 <_vfiprintf_r+0x103c>
    6c28:	03c10793          	addi	x15,x2,60
    6c2c:	04f12623          	sw	x15,76(x2)
    6c30:	00200793          	addi	x15,x0,2
    6c34:	04f12823          	sw	x15,80(x2)
    6c38:	00100e13          	addi	x28,x0,1
    6c3c:	000a8413          	addi	x8,x21,0
    6c40:	000e0613          	addi	x12,x28,0
    6c44:	00840413          	addi	x8,x8,8
    6c48:	001e0e13          	addi	x28,x28,1
    6c4c:	f14ff06f          	jal	x0,6360 <_vfiprintf_r+0x398>
    6c50:	00200713          	addi	x14,x0,2
    6c54:	00058d93          	addi	x27,x11,0
    6c58:	c40708e3          	beq	x14,x0,68a8 <_vfiprintf_r+0x8e0>
    6c5c:	00412583          	lw	x11,4(x2)
    6c60:	0f010913          	addi	x18,x2,240
    6c64:	00f7f713          	andi	x14,x15,15
    6c68:	00e58733          	add	x14,x11,x14
    6c6c:	00074683          	lbu	x13,0(x14)
    6c70:	0047d793          	srli	x15,x15,0x4
    6c74:	01c61713          	slli	x14,x12,0x1c
    6c78:	00f767b3          	or	x15,x14,x15
    6c7c:	00465613          	srli	x12,x12,0x4
    6c80:	fed90fa3          	sb	x13,-1(x18)
    6c84:	00c7e733          	or	x14,x15,x12
    6c88:	fff90913          	addi	x18,x18,-1
    6c8c:	fc071ce3          	bne	x14,x0,6c64 <_vfiprintf_r+0xc9c>
    6c90:	0f010793          	addi	x15,x2,240
    6c94:	412788b3          	sub	x17,x15,x18
    6c98:	00048693          	addi	x13,x9,0
    6c9c:	9914d8e3          	bge	x9,x17,662c <_vfiprintf_r+0x664>
    6ca0:	00088693          	addi	x13,x17,0
    6ca4:	989ff06f          	jal	x0,662c <_vfiprintf_r+0x664>
    6ca8:	01000513          	addi	x10,x0,16
    6cac:	62e55463          	bge	x10,x14,72d4 <_vfiprintf_r+0x130c>
    6cb0:	0000be17          	auipc	x28,0xb
    6cb4:	370e0e13          	addi	x28,x28,880 # 12020 <blanks.1>
    6cb8:	02912023          	sw	x9,32(x2)
    6cbc:	02d12223          	sw	x13,36(x2)
    6cc0:	01000e93          	addi	x29,x0,16
    6cc4:	00040693          	addi	x13,x8,0
    6cc8:	00700293          	addi	x5,x0,7
    6ccc:	01e12423          	sw	x30,8(x2)
    6cd0:	01f12623          	sw	x31,12(x2)
    6cd4:	01112823          	sw	x17,16(x2)
    6cd8:	00070413          	addi	x8,x14,0
    6cdc:	03012423          	sw	x16,40(x2)
    6ce0:	000e0493          	addi	x9,x28,0
    6ce4:	01c0006f          	jal	x0,6d00 <_vfiprintf_r+0xd38>
    6ce8:	00260513          	addi	x10,x12,2
    6cec:	00868693          	addi	x13,x13,8
    6cf0:	00058613          	addi	x12,x11,0
    6cf4:	ff040413          	addi	x8,x8,-16
    6cf8:	048edc63          	bge	x29,x8,6d50 <_vfiprintf_r+0xd88>
    6cfc:	00160593          	addi	x11,x12,1
    6d00:	01078793          	addi	x15,x15,16
    6d04:	0096a023          	sw	x9,0(x13)
    6d08:	01d6a223          	sw	x29,4(x13)
    6d0c:	04f12423          	sw	x15,72(x2)
    6d10:	04b12223          	sw	x11,68(x2)
    6d14:	fcb2dae3          	bge	x5,x11,6ce8 <_vfiprintf_r+0xd20>
    6d18:	08078463          	beq	x15,x0,6da0 <_vfiprintf_r+0xdd8>
    6d1c:	00012503          	lw	x10,0(x2)
    6d20:	04010613          	addi	x12,x2,64
    6d24:	000b0593          	addi	x11,x22,0
    6d28:	964ff0ef          	jal	x1,5e8c <__sprint_r.part.0>
    6d2c:	cc051263          	bne	x10,x0,61f0 <_vfiprintf_r+0x228>
    6d30:	04412603          	lw	x12,68(x2)
    6d34:	01000e93          	addi	x29,x0,16
    6d38:	ff040413          	addi	x8,x8,-16
    6d3c:	04812783          	lw	x15,72(x2)
    6d40:	000a8693          	addi	x13,x21,0
    6d44:	00160513          	addi	x10,x12,1
    6d48:	00700293          	addi	x5,x0,7
    6d4c:	fa8ec8e3          	blt	x29,x8,6cfc <_vfiprintf_r+0xd34>
    6d50:	00040713          	addi	x14,x8,0
    6d54:	00048e13          	addi	x28,x9,0
    6d58:	00068413          	addi	x8,x13,0
    6d5c:	00812f03          	lw	x30,8(x2)
    6d60:	00c12f83          	lw	x31,12(x2)
    6d64:	01012883          	lw	x17,16(x2)
    6d68:	02412683          	lw	x13,36(x2)
    6d6c:	02812803          	lw	x16,40(x2)
    6d70:	02012483          	lw	x9,32(x2)
    6d74:	00e787b3          	add	x15,x15,x14
    6d78:	00e42223          	sw	x14,4(x8)
    6d7c:	01c42023          	sw	x28,0(x8)
    6d80:	04f12423          	sw	x15,72(x2)
    6d84:	04a12223          	sw	x10,68(x2)
    6d88:	00700713          	addi	x14,x0,7
    6d8c:	0ea74a63          	blt	x14,x10,6e80 <_vfiprintf_r+0xeb8>
    6d90:	00840413          	addi	x8,x8,8
    6d94:	00150e13          	addi	x28,x10,1
    6d98:	00050613          	addi	x12,x10,0
    6d9c:	d1cff06f          	jal	x0,62b8 <_vfiprintf_r+0x2f0>
    6da0:	00000613          	addi	x12,x0,0
    6da4:	00100513          	addi	x10,x0,1
    6da8:	000a8693          	addi	x13,x21,0
    6dac:	f49ff06f          	jal	x0,6cf4 <_vfiprintf_r+0xd2c>
    6db0:	00dbd463          	bge	x23,x13,6db8 <_vfiprintf_r+0xdf0>
    6db4:	00068b93          	addi	x23,x13,0
    6db8:	017c0c33          	add	x24,x24,x23
    6dbc:	e20ff06f          	jal	x0,63dc <_vfiprintf_r+0x414>
    6dc0:	bc0782e3          	beq	x15,x0,6984 <_vfiprintf_r+0x9bc>
    6dc4:	00012503          	lw	x10,0(x2)
    6dc8:	04010613          	addi	x12,x2,64
    6dcc:	000b0593          	addi	x11,x22,0
    6dd0:	01012823          	sw	x16,16(x2)
    6dd4:	00d12623          	sw	x13,12(x2)
    6dd8:	01112423          	sw	x17,8(x2)
    6ddc:	8b0ff0ef          	jal	x1,5e8c <__sprint_r.part.0>
    6de0:	c0051863          	bne	x10,x0,61f0 <_vfiprintf_r+0x228>
    6de4:	04412e03          	lw	x28,68(x2)
    6de8:	04812783          	lw	x15,72(x2)
    6dec:	01012803          	lw	x16,16(x2)
    6df0:	00c12683          	lw	x13,12(x2)
    6df4:	00812883          	lw	x17,8(x2)
    6df8:	000a8413          	addi	x8,x21,0
    6dfc:	001e0e13          	addi	x28,x28,1
    6e00:	d70ff06f          	jal	x0,6370 <_vfiprintf_r+0x3a8>
    6e04:	04012223          	sw	x0,68(x2)
    6e08:	000a8413          	addi	x8,x21,0
    6e0c:	b24ff06f          	jal	x0,6130 <_vfiprintf_r+0x168>
    6e10:	0106f713          	andi	x14,x13,16
    6e14:	00082783          	lw	x15,0(x16)
    6e18:	00480813          	addi	x16,x16,4
    6e1c:	00071a63          	bne	x14,x0,6e30 <_vfiprintf_r+0xe68>
    6e20:	0406f713          	andi	x14,x13,64
    6e24:	40070c63          	beq	x14,x0,723c <_vfiprintf_r+0x1274>
    6e28:	01079793          	slli	x15,x15,0x10
    6e2c:	0107d793          	srli	x15,x15,0x10
    6e30:	00000893          	addi	x17,x0,0
    6e34:	a3dff06f          	jal	x0,6870 <_vfiprintf_r+0x8a8>
    6e38:	01077693          	andi	x13,x14,16
    6e3c:	00082783          	lw	x15,0(x16)
    6e40:	00480813          	addi	x16,x16,4
    6e44:	02069263          	bne	x13,x0,6e68 <_vfiprintf_r+0xea0>
    6e48:	04077693          	andi	x13,x14,64
    6e4c:	00068a63          	beq	x13,x0,6e60 <_vfiprintf_r+0xe98>
    6e50:	01079793          	slli	x15,x15,0x10
    6e54:	0107d793          	srli	x15,x15,0x10
    6e58:	00000613          	addi	x12,x0,0
    6e5c:	985ff06f          	jal	x0,67e0 <_vfiprintf_r+0x818>
    6e60:	20077693          	andi	x13,x14,512
    6e64:	44069863          	bne	x13,x0,72b4 <_vfiprintf_r+0x12ec>
    6e68:	00000613          	addi	x12,x0,0
    6e6c:	975ff06f          	jal	x0,67e0 <_vfiprintf_r+0x818>
    6e70:	00100e13          	addi	x28,x0,1
    6e74:	00000613          	addi	x12,x0,0
    6e78:	000a8413          	addi	x8,x21,0
    6e7c:	ce4ff06f          	jal	x0,6360 <_vfiprintf_r+0x398>
    6e80:	24078e63          	beq	x15,x0,70dc <_vfiprintf_r+0x1114>
    6e84:	00012503          	lw	x10,0(x2)
    6e88:	04010613          	addi	x12,x2,64
    6e8c:	000b0593          	addi	x11,x22,0
    6e90:	03012223          	sw	x16,36(x2)
    6e94:	02d12023          	sw	x13,32(x2)
    6e98:	01112823          	sw	x17,16(x2)
    6e9c:	01f12623          	sw	x31,12(x2)
    6ea0:	01e12423          	sw	x30,8(x2)
    6ea4:	fe9fe0ef          	jal	x1,5e8c <__sprint_r.part.0>
    6ea8:	b4051463          	bne	x10,x0,61f0 <_vfiprintf_r+0x228>
    6eac:	04412603          	lw	x12,68(x2)
    6eb0:	04812783          	lw	x15,72(x2)
    6eb4:	02412803          	lw	x16,36(x2)
    6eb8:	02012683          	lw	x13,32(x2)
    6ebc:	01012883          	lw	x17,16(x2)
    6ec0:	00c12f83          	lw	x31,12(x2)
    6ec4:	00812f03          	lw	x30,8(x2)
    6ec8:	000a8413          	addi	x8,x21,0
    6ecc:	00160e13          	addi	x28,x12,1
    6ed0:	be8ff06f          	jal	x0,62b8 <_vfiprintf_r+0x2f0>
    6ed4:	ccccde37          	lui	x28,0xccccd
    6ed8:	ccccd3b7          	lui	x7,0xccccd
    6edc:	01412303          	lw	x6,20(x2)
    6ee0:	400dff13          	andi	x30,x27,1024
    6ee4:	00000513          	addi	x10,x0,0
    6ee8:	0f010593          	addi	x11,x2,240
    6eec:	00500e93          	addi	x29,x0,5
    6ef0:	ccde0e13          	addi	x28,x28,-819 # cccccccd <__heap_end+0xcc8ccccd>
    6ef4:	ccc38393          	addi	x7,x7,-820 # cccccccc <__heap_end+0xcc8ccccc>
    6ef8:	0ff00f93          	addi	x31,x0,255
    6efc:	0540006f          	jal	x0,6f50 <_vfiprintf_r+0xf88>
    6f00:	00f93733          	sltu	x14,x18,x15
    6f04:	00e90733          	add	x14,x18,x14
    6f08:	03d77733          	remu	x14,x14,x29
    6f0c:	40e78733          	sub	x14,x15,x14
    6f10:	00e7b633          	sltu	x12,x15,x14
    6f14:	40c88633          	sub	x12,x17,x12
    6f18:	027702b3          	mul	x5,x14,x7
    6f1c:	03c60633          	mul	x12,x12,x28
    6f20:	03c735b3          	mulhu	x11,x14,x28
    6f24:	00560633          	add	x12,x12,x5
    6f28:	03c70733          	mul	x14,x14,x28
    6f2c:	00b60633          	add	x12,x12,x11
    6f30:	01f61593          	slli	x11,x12,0x1f
    6f34:	00165613          	srli	x12,x12,0x1
    6f38:	00175713          	srli	x14,x14,0x1
    6f3c:	00e5e733          	or	x14,x11,x14
    6f40:	32088663          	beq	x17,x0,726c <_vfiprintf_r+0x12a4>
    6f44:	00070793          	addi	x15,x14,0
    6f48:	00060893          	addi	x17,x12,0
    6f4c:	00068593          	addi	x11,x13,0
    6f50:	01178933          	add	x18,x15,x17
    6f54:	00f93733          	sltu	x14,x18,x15
    6f58:	00e90733          	add	x14,x18,x14
    6f5c:	03d77733          	remu	x14,x14,x29
    6f60:	fff58693          	addi	x13,x11,-1
    6f64:	00150513          	addi	x10,x10,1
    6f68:	40e78733          	sub	x14,x15,x14
    6f6c:	00e7b2b3          	sltu	x5,x15,x14
    6f70:	405882b3          	sub	x5,x17,x5
    6f74:	03c73633          	mulhu	x12,x14,x28
    6f78:	03c282b3          	mul	x5,x5,x28
    6f7c:	03c70733          	mul	x14,x14,x28
    6f80:	00c282b3          	add	x5,x5,x12
    6f84:	01f29293          	slli	x5,x5,0x1f
    6f88:	00175613          	srli	x12,x14,0x1
    6f8c:	00c2e633          	or	x12,x5,x12
    6f90:	00261713          	slli	x14,x12,0x2
    6f94:	00c70733          	add	x14,x14,x12
    6f98:	00171713          	slli	x14,x14,0x1
    6f9c:	40e78733          	sub	x14,x15,x14
    6fa0:	03070713          	addi	x14,x14,48
    6fa4:	fee58fa3          	sb	x14,-1(x11)
    6fa8:	f40f0ce3          	beq	x30,x0,6f00 <_vfiprintf_r+0xf38>
    6fac:	00034703          	lbu	x14,0(x6)
    6fb0:	f4a718e3          	bne	x14,x10,6f00 <_vfiprintf_r+0xf38>
    6fb4:	f5f506e3          	beq	x10,x31,6f00 <_vfiprintf_r+0xf38>
    6fb8:	14089463          	bne	x17,x0,7100 <_vfiprintf_r+0x1138>
    6fbc:	00900713          	addi	x14,x0,9
    6fc0:	14f76063          	bltu	x14,x15,7100 <_vfiprintf_r+0x1138>
    6fc4:	00612a23          	sw	x6,20(x2)
    6fc8:	00068913          	addi	x18,x13,0
    6fcc:	cc5ff06f          	jal	x0,6c90 <_vfiprintf_r+0xcc8>
    6fd0:	00000693          	addi	x13,x0,0
    6fd4:	0f010913          	addi	x18,x2,240
    6fd8:	e54ff06f          	jal	x0,662c <_vfiprintf_r+0x664>
    6fdc:	00840413          	addi	x8,x8,8
    6fe0:	00158e13          	addi	x28,x11,1
    6fe4:	00058613          	addi	x12,x11,0
    6fe8:	b80ff06f          	jal	x0,6368 <_vfiprintf_r+0x3a0>
    6fec:	00082783          	lw	x15,0(x16)
    6ff0:	41fc5713          	srai	x14,x24,0x1f
    6ff4:	00480813          	addi	x16,x16,4
    6ff8:	0187a023          	sw	x24,0(x15)
    6ffc:	00e7a223          	sw	x14,4(x15)
    7000:	8b8ff06f          	jal	x0,60b8 <_vfiprintf_r+0xf0>
    7004:	00000613          	addi	x12,x0,0
    7008:	00100e13          	addi	x28,x0,1
    700c:	000a8413          	addi	x8,x21,0
    7010:	b50ff06f          	jal	x0,6360 <_vfiprintf_r+0x398>
    7014:	00088693          	addi	x13,x17,0
    7018:	00058913          	addi	x18,x11,0
    701c:	e10ff06f          	jal	x0,662c <_vfiprintf_r+0x664>
    7020:	fff00493          	addi	x9,x0,-1
    7024:	00060993          	addi	x19,x12,0
    7028:	934ff06f          	jal	x0,615c <_vfiprintf_r+0x194>
    702c:	000d8693          	addi	x13,x27,0
    7030:	825ff06f          	jal	x0,6854 <_vfiprintf_r+0x88c>
    7034:	000d8713          	addi	x14,x27,0
    7038:	f8cff06f          	jal	x0,67c4 <_vfiprintf_r+0x7fc>
    703c:	0000b797          	auipc	x15,0xb
    7040:	98c78793          	addi	x15,x15,-1652 # 119c8 <__clzsi2+0x34c>
    7044:	00f12223          	sw	x15,4(x2)
    7048:	020df793          	andi	x15,x27,32
    704c:	04078a63          	beq	x15,x0,70a0 <_vfiprintf_r+0x10d8>
    7050:	00780813          	addi	x16,x16,7
    7054:	ff887813          	andi	x16,x16,-8
    7058:	00082783          	lw	x15,0(x16)
    705c:	00482603          	lw	x12,4(x16)
    7060:	00880813          	addi	x16,x16,8
    7064:	001df693          	andi	x13,x27,1
    7068:	00068e63          	beq	x13,x0,7084 <_vfiprintf_r+0x10bc>
    706c:	00c7e6b3          	or	x13,x15,x12
    7070:	00068a63          	beq	x13,x0,7084 <_vfiprintf_r+0x10bc>
    7074:	03000693          	addi	x13,x0,48
    7078:	02d10e23          	sb	x13,60(x2)
    707c:	02e10ea3          	sb	x14,61(x2)
    7080:	002ded93          	ori	x27,x27,2
    7084:	bffdfd93          	andi	x27,x27,-1025
    7088:	8a9ff06f          	jal	x0,6930 <_vfiprintf_r+0x968>
    708c:	0000b797          	auipc	x15,0xb
    7090:	92878793          	addi	x15,x15,-1752 # 119b4 <__clzsi2+0x338>
    7094:	00f12223          	sw	x15,4(x2)
    7098:	020df793          	andi	x15,x27,32
    709c:	fa079ae3          	bne	x15,x0,7050 <_vfiprintf_r+0x1088>
    70a0:	010df693          	andi	x13,x27,16
    70a4:	00082783          	lw	x15,0(x16)
    70a8:	00480813          	addi	x16,x16,4
    70ac:	12069263          	bne	x13,x0,71d0 <_vfiprintf_r+0x1208>
    70b0:	040df693          	andi	x13,x27,64
    70b4:	10068a63          	beq	x13,x0,71c8 <_vfiprintf_r+0x1200>
    70b8:	01079793          	slli	x15,x15,0x10
    70bc:	0107d793          	srli	x15,x15,0x10
    70c0:	00000613          	addi	x12,x0,0
    70c4:	fa1ff06f          	jal	x0,7064 <_vfiprintf_r+0x109c>
    70c8:	00090513          	addi	x10,x18,0
    70cc:	c75fa0ef          	jal	x1,1d40 <strlen>
    70d0:	00812803          	lw	x16,8(x2)
    70d4:	00050893          	addi	x17,x10,0
    70d8:	d98ff06f          	jal	x0,6670 <_vfiprintf_r+0x6a8>
    70dc:	03b14703          	lbu	x14,59(x2)
    70e0:	1a070063          	beq	x14,x0,7280 <_vfiprintf_r+0x12b8>
    70e4:	03b10793          	addi	x15,x2,59
    70e8:	04f12623          	sw	x15,76(x2)
    70ec:	00100793          	addi	x15,x0,1
    70f0:	04f12823          	sw	x15,80(x2)
    70f4:	00100e13          	addi	x28,x0,1
    70f8:	000a8413          	addi	x8,x21,0
    70fc:	9e8ff06f          	jal	x0,62e4 <_vfiprintf_r+0x31c>
    7100:	02f12423          	sw	x15,40(x2)
    7104:	01812783          	lw	x15,24(x2)
    7108:	01c12583          	lw	x11,28(x2)
    710c:	03112623          	sw	x17,44(x2)
    7110:	40f686b3          	sub	x13,x13,x15
    7114:	00078613          	addi	x12,x15,0
    7118:	00068513          	addi	x10,x13,0
    711c:	02712223          	sw	x7,36(x2)
    7120:	03c12023          	sw	x28,32(x2)
    7124:	01012a23          	sw	x16,20(x2)
    7128:	01e12823          	sw	x30,16(x2)
    712c:	00612623          	sw	x6,12(x2)
    7130:	00d12423          	sw	x13,8(x2)
    7134:	4f0020ef          	jal	x1,9624 <strncpy>
    7138:	02812783          	lw	x15,40(x2)
    713c:	00500613          	addi	x12,x0,5
    7140:	00c12303          	lw	x6,12(x2)
    7144:	00f93733          	sltu	x14,x18,x15
    7148:	00e90733          	add	x14,x18,x14
    714c:	02c77733          	remu	x14,x14,x12
    7150:	00134603          	lbu	x12,1(x6)
    7154:	02c12883          	lw	x17,44(x2)
    7158:	ccccd5b7          	lui	x11,0xccccd
    715c:	00c03633          	sltu	x12,x0,x12
    7160:	ccccd2b7          	lui	x5,0xccccd
    7164:	00c30333          	add	x6,x6,x12
    7168:	ccd58593          	addi	x11,x11,-819 # cccccccd <__heap_end+0xcc8ccccd>
    716c:	ccc28293          	addi	x5,x5,-820 # cccccccc <__heap_end+0xcc8ccccc>
    7170:	00812683          	lw	x13,8(x2)
    7174:	01012f03          	lw	x30,16(x2)
    7178:	01412803          	lw	x16,20(x2)
    717c:	02012e03          	lw	x28,32(x2)
    7180:	02412383          	lw	x7,36(x2)
    7184:	00000513          	addi	x10,x0,0
    7188:	00500e93          	addi	x29,x0,5
    718c:	0ff00f93          	addi	x31,x0,255
    7190:	40e78733          	sub	x14,x15,x14
    7194:	00e7b633          	sltu	x12,x15,x14
    7198:	40c88633          	sub	x12,x17,x12
    719c:	025702b3          	mul	x5,x14,x5
    71a0:	02b60633          	mul	x12,x12,x11
    71a4:	02b738b3          	mulhu	x17,x14,x11
    71a8:	00560633          	add	x12,x12,x5
    71ac:	02b707b3          	mul	x15,x14,x11
    71b0:	01160633          	add	x12,x12,x17
    71b4:	01f61713          	slli	x14,x12,0x1f
    71b8:	00165613          	srli	x12,x12,0x1
    71bc:	0017d793          	srli	x15,x15,0x1
    71c0:	00f76733          	or	x14,x14,x15
    71c4:	d81ff06f          	jal	x0,6f44 <_vfiprintf_r+0xf7c>
    71c8:	200df693          	andi	x13,x27,512
    71cc:	0e069a63          	bne	x13,x0,72c0 <_vfiprintf_r+0x12f8>
    71d0:	00000613          	addi	x12,x0,0
    71d4:	e91ff06f          	jal	x0,7064 <_vfiprintf_r+0x109c>
    71d8:	00070d93          	addi	x27,x14,0
    71dc:	00000713          	addi	x14,x0,0
    71e0:	ec070463          	beq	x14,x0,68a8 <_vfiprintf_r+0x8e0>
    71e4:	a79ff06f          	jal	x0,6c5c <_vfiprintf_r+0xc94>
    71e8:	861f90ef          	jal	x1,a48 <__sinit>
    71ec:	e19fe06f          	jal	x0,6004 <_vfiprintf_r+0x3c>
    71f0:	0019c703          	lbu	x14,1(x19)
    71f4:	200ded93          	ori	x27,x27,512
    71f8:	00198993          	addi	x19,x19,1
    71fc:	f5dfe06f          	jal	x0,6158 <_vfiprintf_r+0x190>
    7200:	0019c703          	lbu	x14,1(x19)
    7204:	020ded93          	ori	x27,x27,32
    7208:	00198993          	addi	x19,x19,1
    720c:	f4dfe06f          	jal	x0,6158 <_vfiprintf_r+0x190>
    7210:	00082783          	lw	x15,0(x16)
    7214:	00480813          	addi	x16,x16,4
    7218:	0187a023          	sw	x24,0(x15)
    721c:	e9dfe06f          	jal	x0,60b8 <_vfiprintf_r+0xf0>
    7220:	00600793          	addi	x15,x0,6
    7224:	00048893          	addi	x17,x9,0
    7228:	0497e863          	bltu	x15,x9,7278 <_vfiprintf_r+0x12b0>
    722c:	00088693          	addi	x13,x17,0
    7230:	0000a917          	auipc	x18,0xa
    7234:	7ac90913          	addi	x18,x18,1964 # 119dc <__clzsi2+0x360>
    7238:	858ff06f          	jal	x0,6290 <_vfiprintf_r+0x2c8>
    723c:	2006f713          	andi	x14,x13,512
    7240:	be0708e3          	beq	x14,x0,6e30 <_vfiprintf_r+0xe68>
    7244:	0ff7f793          	andi	x15,x15,255
    7248:	00000893          	addi	x17,x0,0
    724c:	e24ff06f          	jal	x0,6870 <_vfiprintf_r+0x8a8>
    7250:	00000793          	addi	x15,x0,0
    7254:	00000613          	addi	x12,x0,0
    7258:	a05ff06f          	jal	x0,6c5c <_vfiprintf_r+0xc94>
    725c:	00100e13          	addi	x28,x0,1
    7260:	00000613          	addi	x12,x0,0
    7264:	000a8413          	addi	x8,x21,0
    7268:	900ff06f          	jal	x0,6368 <_vfiprintf_r+0x3a0>
    726c:	00900593          	addi	x11,x0,9
    7270:	ccf5eae3          	bltu	x11,x15,6f44 <_vfiprintf_r+0xf7c>
    7274:	d51ff06f          	jal	x0,6fc4 <_vfiprintf_r+0xffc>
    7278:	00600893          	addi	x17,x0,6
    727c:	fb1ff06f          	jal	x0,722c <_vfiprintf_r+0x1264>
    7280:	00000613          	addi	x12,x0,0
    7284:	00100e13          	addi	x28,x0,1
    7288:	000a8413          	addi	x8,x21,0
    728c:	864ff06f          	jal	x0,62f0 <_vfiprintf_r+0x328>
    7290:	00082783          	lw	x15,0(x16)
    7294:	00480813          	addi	x16,x16,4
    7298:	01879023          	sh	x24,0(x15)
    729c:	e1dfe06f          	jal	x0,60b8 <_vfiprintf_r+0xf0>
    72a0:	01879793          	slli	x15,x15,0x18
    72a4:	4187d793          	srai	x15,x15,0x18
    72a8:	41f7d893          	srai	x17,x15,0x1f
    72ac:	00088713          	addi	x14,x17,0
    72b0:	9a4ff06f          	jal	x0,6454 <_vfiprintf_r+0x48c>
    72b4:	0ff7f793          	andi	x15,x15,255
    72b8:	00000613          	addi	x12,x0,0
    72bc:	d24ff06f          	jal	x0,67e0 <_vfiprintf_r+0x818>
    72c0:	0ff7f793          	andi	x15,x15,255
    72c4:	00000613          	addi	x12,x0,0
    72c8:	d9dff06f          	jal	x0,7064 <_vfiprintf_r+0x109c>
    72cc:	03000793          	addi	x15,x0,48
    72d0:	b44ff06f          	jal	x0,6614 <_vfiprintf_r+0x64c>
    72d4:	00058513          	addi	x10,x11,0
    72d8:	0000be17          	auipc	x28,0xb
    72dc:	d48e0e13          	addi	x28,x28,-696 # 12020 <blanks.1>
    72e0:	a95ff06f          	jal	x0,6d74 <_vfiprintf_r+0xdac>
    72e4:	00160593          	addi	x11,x12,1
    72e8:	0000be17          	auipc	x28,0xb
    72ec:	d38e0e13          	addi	x28,x28,-712 # 12020 <blanks.1>
    72f0:	a78ff06f          	jal	x0,6568 <_vfiprintf_r+0x5a0>
    72f4:	fff00d93          	addi	x27,x0,-1
    72f8:	f29fe06f          	jal	x0,6220 <_vfiprintf_r+0x258>
    72fc:	000e0593          	addi	x11,x28,0
    7300:	0000be97          	auipc	x29,0xb
    7304:	d30e8e93          	addi	x29,x29,-720 # 12030 <zeroes.0>
    7308:	f74ff06f          	jal	x0,6a7c <_vfiprintf_r+0xab4>
    730c:	00082483          	lw	x9,0(x16)
    7310:	00480813          	addi	x16,x16,4
    7314:	0004d463          	bge	x9,x0,731c <_vfiprintf_r+0x1354>
    7318:	fff00493          	addi	x9,x0,-1
    731c:	0019c703          	lbu	x14,1(x19)
    7320:	00060993          	addi	x19,x12,0
    7324:	e35fe06f          	jal	x0,6158 <_vfiprintf_r+0x190>

00007328 <vfiprintf>:
    7328:	00060693          	addi	x13,x12,0
    732c:	00058613          	addi	x12,x11,0
    7330:	00050593          	addi	x11,x10,0
    7334:	f141a503          	lw	x10,-236(x3) # 12ac4 <_impure_ptr>
    7338:	c91fe06f          	jal	x0,5fc8 <_vfiprintf_r>

0000733c <__sbprintf>:
    733c:	b8010113          	addi	x2,x2,-1152
    7340:	00c59783          	lh	x15,12(x11)
    7344:	00e5d703          	lhu	x14,14(x11)
    7348:	46812c23          	sw	x8,1144(x2)
    734c:	00058413          	addi	x8,x11,0
    7350:	000105b7          	lui	x11,0x10
    7354:	ffd58593          	addi	x11,x11,-3 # fffd <__subtf3+0x699>
    7358:	06442e03          	lw	x28,100(x8)
    735c:	01c42303          	lw	x6,28(x8)
    7360:	02442883          	lw	x17,36(x8)
    7364:	01071713          	slli	x14,x14,0x10
    7368:	00b7f7b3          	and	x15,x15,x11
    736c:	00e7e7b3          	or	x15,x15,x14
    7370:	40000813          	addi	x16,x0,1024
    7374:	00f12a23          	sw	x15,20(x2)
    7378:	00810593          	addi	x11,x2,8
    737c:	07010793          	addi	x15,x2,112
    7380:	46912a23          	sw	x9,1140(x2)
    7384:	47212823          	sw	x18,1136(x2)
    7388:	46112e23          	sw	x1,1148(x2)
    738c:	00050913          	addi	x18,x10,0
    7390:	07c12623          	sw	x28,108(x2)
    7394:	02612223          	sw	x6,36(x2)
    7398:	03112623          	sw	x17,44(x2)
    739c:	00f12423          	sw	x15,8(x2)
    73a0:	00f12c23          	sw	x15,24(x2)
    73a4:	01012823          	sw	x16,16(x2)
    73a8:	01012e23          	sw	x16,28(x2)
    73ac:	02012023          	sw	x0,32(x2)
    73b0:	c19fe0ef          	jal	x1,5fc8 <_vfiprintf_r>
    73b4:	00050493          	addi	x9,x10,0
    73b8:	02055c63          	bge	x10,x0,73f0 <__sbprintf+0xb4>
    73bc:	01415783          	lhu	x15,20(x2)
    73c0:	0407f793          	andi	x15,x15,64
    73c4:	00078863          	beq	x15,x0,73d4 <__sbprintf+0x98>
    73c8:	00c45783          	lhu	x15,12(x8)
    73cc:	0407e793          	ori	x15,x15,64
    73d0:	00f41623          	sh	x15,12(x8)
    73d4:	47c12083          	lw	x1,1148(x2)
    73d8:	47812403          	lw	x8,1144(x2)
    73dc:	47012903          	lw	x18,1136(x2)
    73e0:	00048513          	addi	x10,x9,0
    73e4:	47412483          	lw	x9,1140(x2)
    73e8:	48010113          	addi	x2,x2,1152
    73ec:	00008067          	jalr	x0,0(x1)
    73f0:	00810593          	addi	x11,x2,8
    73f4:	00090513          	addi	x10,x18,0
    73f8:	be4fb0ef          	jal	x1,27dc <_fflush_r>
    73fc:	fc0500e3          	beq	x10,x0,73bc <__sbprintf+0x80>
    7400:	fff00493          	addi	x9,x0,-1
    7404:	fb9ff06f          	jal	x0,73bc <__sbprintf+0x80>

00007408 <_putc_r>:
    7408:	fe010113          	addi	x2,x2,-32
    740c:	00812c23          	sw	x8,24(x2)
    7410:	00112e23          	sw	x1,28(x2)
    7414:	00050413          	addi	x8,x10,0
    7418:	00050663          	beq	x10,x0,7424 <_putc_r+0x1c>
    741c:	03452783          	lw	x15,52(x10)
    7420:	06078063          	beq	x15,x0,7480 <_putc_r+0x78>
    7424:	00862783          	lw	x15,8(x12)
    7428:	fff78793          	addi	x15,x15,-1
    742c:	00f62423          	sw	x15,8(x12)
    7430:	0007dc63          	bge	x15,x0,7448 <_putc_r+0x40>
    7434:	01862703          	lw	x14,24(x12)
    7438:	02e7ca63          	blt	x15,x14,746c <_putc_r+0x64>
    743c:	0ff5f793          	andi	x15,x11,255
    7440:	00a00713          	addi	x14,x0,10
    7444:	02e78463          	beq	x15,x14,746c <_putc_r+0x64>
    7448:	00062783          	lw	x15,0(x12)
    744c:	0ff5f513          	andi	x10,x11,255
    7450:	00178713          	addi	x14,x15,1
    7454:	00e62023          	sw	x14,0(x12)
    7458:	00b78023          	sb	x11,0(x15)
    745c:	01c12083          	lw	x1,28(x2)
    7460:	01812403          	lw	x8,24(x2)
    7464:	02010113          	addi	x2,x2,32
    7468:	00008067          	jalr	x0,0(x1)
    746c:	00040513          	addi	x10,x8,0
    7470:	01812403          	lw	x8,24(x2)
    7474:	01c12083          	lw	x1,28(x2)
    7478:	02010113          	addi	x2,x2,32
    747c:	0080206f          	jal	x0,9484 <__swbuf_r>
    7480:	00c12623          	sw	x12,12(x2)
    7484:	00b12423          	sw	x11,8(x2)
    7488:	dc0f90ef          	jal	x1,a48 <__sinit>
    748c:	00c12603          	lw	x12,12(x2)
    7490:	00812583          	lw	x11,8(x2)
    7494:	f91ff06f          	jal	x0,7424 <_putc_r+0x1c>

00007498 <putc>:
    7498:	fe010113          	addi	x2,x2,-32
    749c:	00912c23          	sw	x9,24(x2)
    74a0:	01212a23          	sw	x18,20(x2)
    74a4:	00112e23          	sw	x1,28(x2)
    74a8:	f141a903          	lw	x18,-236(x3) # 12ac4 <_impure_ptr>
    74ac:	00050493          	addi	x9,x10,0
    74b0:	00090663          	beq	x18,x0,74bc <putc+0x24>
    74b4:	03492783          	lw	x15,52(x18)
    74b8:	06078863          	beq	x15,x0,7528 <putc+0x90>
    74bc:	0085a783          	lw	x15,8(x11)
    74c0:	fff78793          	addi	x15,x15,-1
    74c4:	00f5a423          	sw	x15,8(x11)
    74c8:	0007dc63          	bge	x15,x0,74e0 <putc+0x48>
    74cc:	0185a703          	lw	x14,24(x11)
    74d0:	02e7cc63          	blt	x15,x14,7508 <putc+0x70>
    74d4:	0ff4f793          	andi	x15,x9,255
    74d8:	00a00713          	addi	x14,x0,10
    74dc:	02e78663          	beq	x15,x14,7508 <putc+0x70>
    74e0:	0005a783          	lw	x15,0(x11)
    74e4:	0ff4f513          	andi	x10,x9,255
    74e8:	00178713          	addi	x14,x15,1
    74ec:	00e5a023          	sw	x14,0(x11)
    74f0:	00978023          	sb	x9,0(x15)
    74f4:	01c12083          	lw	x1,28(x2)
    74f8:	01812483          	lw	x9,24(x2)
    74fc:	01412903          	lw	x18,20(x2)
    7500:	02010113          	addi	x2,x2,32
    7504:	00008067          	jalr	x0,0(x1)
    7508:	01c12083          	lw	x1,28(x2)
    750c:	00058613          	addi	x12,x11,0
    7510:	00090513          	addi	x10,x18,0
    7514:	00048593          	addi	x11,x9,0
    7518:	01412903          	lw	x18,20(x2)
    751c:	01812483          	lw	x9,24(x2)
    7520:	02010113          	addi	x2,x2,32
    7524:	7610106f          	jal	x0,9484 <__swbuf_r>
    7528:	00090513          	addi	x10,x18,0
    752c:	00b12623          	sw	x11,12(x2)
    7530:	d18f90ef          	jal	x1,a48 <__sinit>
    7534:	00c12583          	lw	x11,12(x2)
    7538:	f85ff06f          	jal	x0,74bc <putc+0x24>

0000753c <_sbrk_r>:
    753c:	ff010113          	addi	x2,x2,-16
    7540:	00812423          	sw	x8,8(x2)
    7544:	00050413          	addi	x8,x10,0
    7548:	00058513          	addi	x10,x11,0
    754c:	f001ac23          	sw	x0,-232(x3) # 12ac8 <errno>
    7550:	00112623          	sw	x1,12(x2)
    7554:	ec1f80ef          	jal	x1,414 <_sbrk>
    7558:	fff00793          	addi	x15,x0,-1
    755c:	00f50a63          	beq	x10,x15,7570 <_sbrk_r+0x34>
    7560:	00c12083          	lw	x1,12(x2)
    7564:	00812403          	lw	x8,8(x2)
    7568:	01010113          	addi	x2,x2,16
    756c:	00008067          	jalr	x0,0(x1)
    7570:	f181a783          	lw	x15,-232(x3) # 12ac8 <errno>
    7574:	fe0786e3          	beq	x15,x0,7560 <_sbrk_r+0x24>
    7578:	00c12083          	lw	x1,12(x2)
    757c:	00f42023          	sw	x15,0(x8)
    7580:	00812403          	lw	x8,8(x2)
    7584:	01010113          	addi	x2,x2,16
    7588:	00008067          	jalr	x0,0(x1)

0000758c <__gdtoa>:
    758c:	f4010113          	addi	x2,x2,-192
    7590:	0b612023          	sw	x22,160(x2)
    7594:	00072b03          	lw	x22,0(x14)
    7598:	0b212823          	sw	x18,176(x2)
    759c:	0a112e23          	sw	x1,188(x2)
    75a0:	fcfb7313          	andi	x6,x22,-49
    75a4:	00672023          	sw	x6,0(x14)
    75a8:	00070913          	addi	x18,x14,0
    75ac:	0c012703          	lw	x14,192(x2)
    75b0:	00fb7313          	andi	x6,x22,15
    75b4:	00300e13          	addi	x28,x0,3
    75b8:	00e12423          	sw	x14,8(x2)
    75bc:	00a12023          	sw	x10,0(x2)
    75c0:	00c12823          	sw	x12,16(x2)
    75c4:	01012a23          	sw	x16,20(x2)
    75c8:	01112223          	sw	x17,4(x2)
    75cc:	7fc30663          	beq	x6,x28,7db8 <__gdtoa+0x82c>
    75d0:	09812c23          	sw	x24,152(x2)
    75d4:	00cb7c13          	andi	x24,x22,12
    75d8:	720c1e63          	bne	x24,x0,7d14 <__gdtoa+0x788>
    75dc:	78030c63          	beq	x6,x0,7d74 <__gdtoa+0x7e8>
    75e0:	0b512223          	sw	x21,164(x2)
    75e4:	0005aa83          	lw	x21,0(x11)
    75e8:	0b312623          	sw	x19,172(x2)
    75ec:	09a12823          	sw	x26,144(x2)
    75f0:	09b12623          	sw	x27,140(x2)
    75f4:	00068993          	addi	x19,x13,0
    75f8:	02000693          	addi	x13,x0,32
    75fc:	00058d93          	addi	x27,x11,0
    7600:	00078d13          	addi	x26,x15,0
    7604:	00000593          	addi	x11,x0,0
    7608:	02000793          	addi	x15,x0,32
    760c:	0156d863          	bge	x13,x21,761c <__gdtoa+0x90>
    7610:	00179793          	slli	x15,x15,0x1
    7614:	00158593          	addi	x11,x11,1
    7618:	ff57cce3          	blt	x15,x21,7610 <__gdtoa+0x84>
    761c:	00012503          	lw	x10,0(x2)
    7620:	239020ef          	jal	x1,a058 <_Balloc>
    7624:	00a12623          	sw	x10,12(x2)
    7628:	3c0508e3          	beq	x10,x0,81f8 <__gdtoa+0xc6c>
    762c:	00c12783          	lw	x15,12(x2)
    7630:	fffa8513          	addi	x10,x21,-1
    7634:	40555513          	srai	x10,x10,0x5
    7638:	00251593          	slli	x11,x10,0x2
    763c:	01478693          	addi	x13,x15,20
    7640:	0b412423          	sw	x20,168(x2)
    7644:	09912a23          	sw	x25,148(x2)
    7648:	00b985b3          	add	x11,x19,x11
    764c:	00098793          	addi	x15,x19,0
    7650:	0007a703          	lw	x14,0(x15)
    7654:	00478793          	addi	x15,x15,4
    7658:	00468693          	addi	x13,x13,4
    765c:	fee6ae23          	sw	x14,-4(x13)
    7660:	fef5f8e3          	bgeu	x11,x15,7650 <__gdtoa+0xc4>
    7664:	00158593          	addi	x11,x11,1
    7668:	00198793          	addi	x15,x19,1
    766c:	00400693          	addi	x13,x0,4
    7670:	00f5e663          	bltu	x11,x15,767c <__gdtoa+0xf0>
    7674:	00251513          	slli	x10,x10,0x2
    7678:	00450693          	addi	x13,x10,4
    767c:	00c12783          	lw	x15,12(x2)
    7680:	4026dc93          	srai	x25,x13,0x2
    7684:	00d786b3          	add	x13,x15,x13
    7688:	00c0006f          	jal	x0,7694 <__gdtoa+0x108>
    768c:	ffc68693          	addi	x13,x13,-4
    7690:	7a0c8063          	beq	x25,x0,7e30 <__gdtoa+0x8a4>
    7694:	0106a783          	lw	x15,16(x13)
    7698:	000c8a13          	addi	x20,x25,0
    769c:	fffc8c93          	addi	x25,x25,-1
    76a0:	fe0786e3          	beq	x15,x0,768c <__gdtoa+0x100>
    76a4:	00c12703          	lw	x14,12(x2)
    76a8:	004c8793          	addi	x15,x25,4
    76ac:	00279793          	slli	x15,x15,0x2
    76b0:	00f707b3          	add	x15,x14,x15
    76b4:	0047a503          	lw	x10,4(x15)
    76b8:	01472823          	sw	x20,16(x14)
    76bc:	005a1a13          	slli	x20,x20,0x5
    76c0:	4f5020ef          	jal	x1,a3b4 <__hi0bits>
    76c4:	40aa0cb3          	sub	x25,x20,x10
    76c8:	00c12503          	lw	x10,12(x2)
    76cc:	495030ef          	jal	x1,b360 <__trailz_D2A>
    76d0:	01012783          	lw	x15,16(x2)
    76d4:	06a12e23          	sw	x10,124(x2)
    76d8:	02f12023          	sw	x15,32(x2)
    76dc:	78051e63          	bne	x10,x0,7e78 <__gdtoa+0x8ec>
    76e0:	00c12783          	lw	x15,12(x2)
    76e4:	0107a683          	lw	x13,16(x15)
    76e8:	66068463          	beq	x13,x0,7d50 <__gdtoa+0x7c4>
    76ec:	00c12503          	lw	x10,12(x2)
    76f0:	07c10593          	addi	x11,x2,124
    76f4:	0a812c23          	sw	x8,184(x2)
    76f8:	0a912a23          	sw	x9,180(x2)
    76fc:	09712e23          	sw	x23,156(x2)
    7700:	6f0030ef          	jal	x1,adf0 <__b2d>
    7704:	00c59a13          	slli	x20,x11,0xc
    7708:	00ca5a13          	srli	x20,x20,0xc
    770c:	3ff006b7          	lui	x13,0x3ff00
    7710:	00da64b3          	or	x9,x20,x13
    7714:	02012703          	lw	x14,32(x2)
    7718:	0000b697          	auipc	x13,0xb
    771c:	34068693          	addi	x13,x13,832 # 12a58 <__SDATA_BEGIN__>
    7720:	0006a603          	lw	x12,0(x13)
    7724:	0046a683          	lw	x13,4(x13)
    7728:	01970733          	add	x14,x14,x25
    772c:	00050793          	addi	x15,x10,0
    7730:	00048593          	addi	x11,x9,0
    7734:	fff70a13          	addi	x20,x14,-1
    7738:	04f12423          	sw	x15,72(x2)
    773c:	00e12e23          	sw	x14,28(x2)
    7740:	02a12c23          	sw	x10,56(x2)
    7744:	298060ef          	jal	x1,d9dc <__subdf3>
    7748:	0000b697          	auipc	x13,0xb
    774c:	31868693          	addi	x13,x13,792 # 12a60 <__SDATA_BEGIN__+0x8>
    7750:	0006a603          	lw	x12,0(x13)
    7754:	0046a683          	lw	x13,4(x13)
    7758:	3ad050ef          	jal	x1,d304 <__muldf3>
    775c:	0000b697          	auipc	x13,0xb
    7760:	30c68693          	addi	x13,x13,780 # 12a68 <__SDATA_BEGIN__+0x10>
    7764:	0006a603          	lw	x12,0(x13)
    7768:	0046a683          	lw	x13,4(x13)
    776c:	0b1040ef          	jal	x1,c01c <__adddf3>
    7770:	00050b93          	addi	x23,x10,0
    7774:	000a0513          	addi	x10,x20,0
    7778:	00058413          	addi	x8,x11,0
    777c:	3ed060ef          	jal	x1,e368 <__floatsidf>
    7780:	0000b697          	auipc	x13,0xb
    7784:	2f068693          	addi	x13,x13,752 # 12a70 <__SDATA_BEGIN__+0x18>
    7788:	0006a603          	lw	x12,0(x13)
    778c:	0046a683          	lw	x13,4(x13)
    7790:	375050ef          	jal	x1,d304 <__muldf3>
    7794:	00050613          	addi	x12,x10,0
    7798:	00058693          	addi	x13,x11,0
    779c:	000b8513          	addi	x10,x23,0
    77a0:	00040593          	addi	x11,x8,0
    77a4:	079040ef          	jal	x1,c01c <__adddf3>
    77a8:	00050b93          	addi	x23,x10,0
    77ac:	00058413          	addi	x8,x11,0
    77b0:	000a0513          	addi	x10,x20,0
    77b4:	000a5863          	bge	x20,x0,77c4 <__gdtoa+0x238>
    77b8:	01c12703          	lw	x14,28(x2)
    77bc:	00100513          	addi	x10,x0,1
    77c0:	40e50533          	sub	x10,x10,x14
    77c4:	bcb50513          	addi	x10,x10,-1077
    77c8:	02a05c63          	bge	x0,x10,7800 <__gdtoa+0x274>
    77cc:	39d060ef          	jal	x1,e368 <__floatsidf>
    77d0:	0000b697          	auipc	x13,0xb
    77d4:	2a868693          	addi	x13,x13,680 # 12a78 <__SDATA_BEGIN__+0x20>
    77d8:	0006a603          	lw	x12,0(x13)
    77dc:	0046a683          	lw	x13,4(x13)
    77e0:	325050ef          	jal	x1,d304 <__muldf3>
    77e4:	00050613          	addi	x12,x10,0
    77e8:	00058693          	addi	x13,x11,0
    77ec:	000b8513          	addi	x10,x23,0
    77f0:	00040593          	addi	x11,x8,0
    77f4:	029040ef          	jal	x1,c01c <__adddf3>
    77f8:	00050b93          	addi	x23,x10,0
    77fc:	00058413          	addi	x8,x11,0
    7800:	00040593          	addi	x11,x8,0
    7804:	000b8513          	addi	x10,x23,0
    7808:	2dd060ef          	jal	x1,e2e4 <__fixdfsi>
    780c:	00050813          	addi	x16,x10,0
    7810:	00040593          	addi	x11,x8,0
    7814:	000b8513          	addi	x10,x23,0
    7818:	00000613          	addi	x12,x0,0
    781c:	00000693          	addi	x13,x0,0
    7820:	01012c23          	sw	x16,24(x2)
    7824:	1d9050ef          	jal	x1,d1fc <__ledf2>
    7828:	02055463          	bge	x10,x0,7850 <__gdtoa+0x2c4>
    782c:	01812503          	lw	x10,24(x2)
    7830:	339060ef          	jal	x1,e368 <__floatsidf>
    7834:	000b8613          	addi	x12,x23,0
    7838:	00040693          	addi	x13,x8,0
    783c:	035050ef          	jal	x1,d070 <__eqdf2>
    7840:	01812783          	lw	x15,24(x2)
    7844:	00a03533          	sltu	x10,x0,x10
    7848:	40a787b3          	sub	x15,x15,x10
    784c:	00f12c23          	sw	x15,24(x2)
    7850:	014a1613          	slli	x12,x20,0x14
    7854:	01812783          	lw	x15,24(x2)
    7858:	00960833          	add	x16,x12,x9
    785c:	414c8433          	sub	x8,x25,x20
    7860:	01600693          	addi	x13,x0,22
    7864:	05012023          	sw	x16,64(x2)
    7868:	fff40b93          	addi	x23,x8,-1
    786c:	5cf6e863          	bltu	x13,x15,7e3c <__gdtoa+0x8b0>
    7870:	0000a317          	auipc	x6,0xa
    7874:	7e030313          	addi	x6,x6,2016 # 12050 <__mprec_tens>
    7878:	00379693          	slli	x13,x15,0x3
    787c:	00d306b3          	add	x13,x6,x13
    7880:	03812883          	lw	x17,56(x2)
    7884:	0006a503          	lw	x10,0(x13)
    7888:	0046a583          	lw	x11,4(x13)
    788c:	00088613          	addi	x12,x17,0
    7890:	00080693          	addi	x13,x16,0
    7894:	069050ef          	jal	x1,d0fc <__gedf2>
    7898:	1aa044e3          	blt	x0,x10,8240 <__gdtoa+0xcb4>
    789c:	02012e23          	sw	x0,60(x2)
    78a0:	02012223          	sw	x0,36(x2)
    78a4:	00804a63          	blt	x0,x8,78b8 <__gdtoa+0x32c>
    78a8:	00100693          	addi	x13,x0,1
    78ac:	408687b3          	sub	x15,x13,x8
    78b0:	02f12223          	sw	x15,36(x2)
    78b4:	00000b93          	addi	x23,x0,0
    78b8:	01812783          	lw	x15,24(x2)
    78bc:	02012623          	sw	x0,44(x2)
    78c0:	00fb8bb3          	add	x23,x23,x15
    78c4:	02f12823          	sw	x15,48(x2)
    78c8:	00900693          	addi	x13,x0,9
    78cc:	5da6e863          	bltu	x13,x26,7e9c <__gdtoa+0x910>
    78d0:	00500693          	addi	x13,x0,5
    78d4:	19a6c0e3          	blt	x13,x26,8254 <__gdtoa+0xcc8>
    78d8:	01c12783          	lw	x15,28(x2)
    78dc:	00400613          	addi	x12,x0,4
    78e0:	3fd78a13          	addi	x20,x15,1021
    78e4:	7f8a3a13          	sltiu	x20,x20,2040
    78e8:	00cd1463          	bne	x26,x12,78f0 <__gdtoa+0x364>
    78ec:	0a00106f          	jal	x0,898c <__gdtoa+0x1400>
    78f0:	00dd1463          	bne	x26,x13,78f8 <__gdtoa+0x36c>
    78f4:	08c0106f          	jal	x0,8980 <__gdtoa+0x13f4>
    78f8:	00200693          	addi	x13,x0,2
    78fc:	00dd1463          	bne	x26,x13,7904 <__gdtoa+0x378>
    7900:	0980106f          	jal	x0,8998 <__gdtoa+0x140c>
    7904:	00300693          	addi	x13,x0,3
    7908:	02012a23          	sw	x0,52(x2)
    790c:	5add1063          	bne	x26,x13,7eac <__gdtoa+0x920>
    7910:	03012783          	lw	x15,48(x2)
    7914:	01412703          	lw	x14,20(x2)
    7918:	00e787b3          	add	x15,x15,x14
    791c:	04f12623          	sw	x15,76(x2)
    7920:	00178793          	addi	x15,x15,1
    7924:	00f12e23          	sw	x15,28(x2)
    7928:	62f058e3          	bge	x0,x15,8758 <__gdtoa+0x11cc>
    792c:	00078693          	addi	x13,x15,0
    7930:	00078593          	addi	x11,x15,0
    7934:	00012503          	lw	x10,0(x2)
    7938:	06d12e23          	sw	x13,124(x2)
    793c:	004020ef          	jal	x1,9940 <__rv_alloc_D2A>
    7940:	00050f13          	addi	x30,x10,0
    7944:	4c050063          	beq	x10,x0,7e04 <__gdtoa+0x878>
    7948:	00cda783          	lw	x15,12(x27)
    794c:	fff78793          	addi	x15,x15,-1
    7950:	02f12423          	sw	x15,40(x2)
    7954:	5a078663          	beq	x15,x0,7f00 <__gdtoa+0x974>
    7958:	0c07cee3          	blt	x15,x0,8234 <__gdtoa+0xca8>
    795c:	100b7e93          	andi	x29,x22,256
    7960:	580e9863          	bne	x29,x0,7ef0 <__gdtoa+0x964>
    7964:	02012783          	lw	x15,32(x2)
    7968:	0007c863          	blt	x15,x0,7978 <__gdtoa+0x3ec>
    796c:	03012783          	lw	x15,48(x2)
    7970:	00e00693          	addi	x13,x0,14
    7974:	10f6d4e3          	bge	x13,x15,827c <__gdtoa+0xcf0>
    7978:	03412783          	lw	x15,52(x2)
    797c:	0a0784e3          	beq	x15,x0,8224 <__gdtoa+0xc98>
    7980:	02012783          	lw	x15,32(x2)
    7984:	419a8e33          	sub	x28,x21,x25
    7988:	004da683          	lw	x13,4(x27)
    798c:	001e0613          	addi	x12,x28,1
    7990:	06c12e23          	sw	x12,124(x2)
    7994:	41c78e33          	sub	x28,x15,x28
    7998:	62de52e3          	bge	x28,x13,87bc <__gdtoa+0x1230>
    799c:	ffdd0613          	addi	x12,x26,-3
    79a0:	ffd67613          	andi	x12,x12,-3
    79a4:	500604e3          	beq	x12,x0,86ac <__gdtoa+0x1120>
    79a8:	40d786b3          	sub	x13,x15,x13
    79ac:	00168693          	addi	x13,x13,1
    79b0:	06d12e23          	sw	x13,124(x2)
    79b4:	00100613          	addi	x12,x0,1
    79b8:	01a65c63          	bge	x12,x26,79d0 <__gdtoa+0x444>
    79bc:	01c12783          	lw	x15,28(x2)
    79c0:	00f05863          	bge	x0,x15,79d0 <__gdtoa+0x444>
    79c4:	01c12783          	lw	x15,28(x2)
    79c8:	00d7d463          	bge	x15,x13,79d0 <__gdtoa+0x444>
    79cc:	6400106f          	jal	x0,900c <__gdtoa+0x1a80>
    79d0:	02412783          	lw	x15,36(x2)
    79d4:	02c12483          	lw	x9,44(x2)
    79d8:	00db8bb3          	add	x23,x23,x13
    79dc:	00078a93          	addi	x21,x15,0
    79e0:	00f687b3          	add	x15,x13,x15
    79e4:	02f12223          	sw	x15,36(x2)
    79e8:	00012503          	lw	x10,0(x2)
    79ec:	00100593          	addi	x11,x0,1
    79f0:	03e12023          	sw	x30,32(x2)
    79f4:	319020ef          	jal	x1,a50c <__i2b>
    79f8:	02012f03          	lw	x30,32(x2)
    79fc:	00050a13          	addi	x20,x10,0
    7a00:	40050263          	beq	x10,x0,7e04 <__gdtoa+0x878>
    7a04:	020a8663          	beq	x21,x0,7a30 <__gdtoa+0x4a4>
    7a08:	03705463          	bge	x0,x23,7a30 <__gdtoa+0x4a4>
    7a0c:	000a8693          	addi	x13,x21,0
    7a10:	015bd463          	bge	x23,x21,7a18 <__gdtoa+0x48c>
    7a14:	000b8693          	addi	x13,x23,0
    7a18:	02412783          	lw	x15,36(x2)
    7a1c:	06d12e23          	sw	x13,124(x2)
    7a20:	40da8ab3          	sub	x21,x21,x13
    7a24:	40d787b3          	sub	x15,x15,x13
    7a28:	02f12223          	sw	x15,36(x2)
    7a2c:	40db8bb3          	sub	x23,x23,x13
    7a30:	02c12783          	lw	x15,44(x2)
    7a34:	02078863          	beq	x15,x0,7a64 <__gdtoa+0x4d8>
    7a38:	03412783          	lw	x15,52(x2)
    7a3c:	00078463          	beq	x15,x0,7a44 <__gdtoa+0x4b8>
    7a40:	660490e3          	bne	x9,x0,88a0 <__gdtoa+0x1314>
    7a44:	02c12603          	lw	x12,44(x2)
    7a48:	00c12583          	lw	x11,12(x2)
    7a4c:	00012503          	lw	x10,0(x2)
    7a50:	03e12023          	sw	x30,32(x2)
    7a54:	59d020ef          	jal	x1,a7f0 <__pow5mult>
    7a58:	00a12623          	sw	x10,12(x2)
    7a5c:	02012f03          	lw	x30,32(x2)
    7a60:	3a050263          	beq	x10,x0,7e04 <__gdtoa+0x878>
    7a64:	00012503          	lw	x10,0(x2)
    7a68:	00100593          	addi	x11,x0,1
    7a6c:	03e12023          	sw	x30,32(x2)
    7a70:	29d020ef          	jal	x1,a50c <__i2b>
    7a74:	00050313          	addi	x6,x10,0
    7a78:	38050663          	beq	x10,x0,7e04 <__gdtoa+0x878>
    7a7c:	01812783          	lw	x15,24(x2)
    7a80:	02012f03          	lw	x30,32(x2)
    7a84:	4e0790e3          	bne	x15,x0,8764 <__gdtoa+0x11d8>
    7a88:	00100693          	addi	x13,x0,1
    7a8c:	1da6d0e3          	bge	x13,x26,844c <__gdtoa+0xec0>
    7a90:	01f00b13          	addi	x22,x0,31
    7a94:	02412783          	lw	x15,36(x2)
    7a98:	417b0b33          	sub	x22,x22,x23
    7a9c:	ffcb0b13          	addi	x22,x22,-4
    7aa0:	01fb7b13          	andi	x22,x22,31
    7aa4:	00fb0633          	add	x12,x22,x15
    7aa8:	07612e23          	sw	x22,124(x2)
    7aac:	000b0793          	addi	x15,x22,0
    7ab0:	2ac044e3          	blt	x0,x12,8558 <__gdtoa+0xfcc>
    7ab4:	00fb8633          	add	x12,x23,x15
    7ab8:	32c04863          	blt	x0,x12,7de8 <__gdtoa+0x85c>
    7abc:	03c12783          	lw	x15,60(x2)
    7ac0:	2c0792e3          	bne	x15,x0,8584 <__gdtoa+0xff8>
    7ac4:	01c12783          	lw	x15,28(x2)
    7ac8:	40f058e3          	bge	x0,x15,86d8 <__gdtoa+0x114c>
    7acc:	03412783          	lw	x15,52(x2)
    7ad0:	30078ee3          	beq	x15,x0,85ec <__gdtoa+0x1060>
    7ad4:	015b0633          	add	x12,x22,x21
    7ad8:	66c048e3          	blt	x0,x12,8948 <__gdtoa+0x13bc>
    7adc:	01812783          	lw	x15,24(x2)
    7ae0:	000a0a93          	addi	x21,x20,0
    7ae4:	00078463          	beq	x15,x0,7aec <__gdtoa+0x560>
    7ae8:	6e50006f          	jal	x0,89cc <__gdtoa+0x1440>
    7aec:	01212a23          	sw	x18,20(x2)
    7af0:	00c12483          	lw	x9,12(x2)
    7af4:	00012903          	lw	x18,0(x2)
    7af8:	000f0d93          	addi	x27,x30,0
    7afc:	00100793          	addi	x15,x0,1
    7b00:	00200413          	addi	x8,x0,2
    7b04:	00030c13          	addi	x24,x6,0
    7b08:	01e12823          	sw	x30,16(x2)
    7b0c:	0b00006f          	jal	x0,7bbc <__gdtoa+0x630>
    7b10:	00090513          	addi	x10,x18,0
    7b14:	5f8020ef          	jal	x1,a10c <_Bfree>
    7b18:	000b5463          	bge	x22,x0,7b20 <__gdtoa+0x594>
    7b1c:	06c0106f          	jal	x0,8b88 <__gdtoa+0x15fc>
    7b20:	016d6b33          	or	x22,x26,x22
    7b24:	000b1a63          	bne	x22,x0,7b38 <__gdtoa+0x5ac>
    7b28:	0009a783          	lw	x15,0(x19)
    7b2c:	0017f793          	andi	x15,x15,1
    7b30:	00079463          	bne	x15,x0,7b38 <__gdtoa+0x5ac>
    7b34:	0540106f          	jal	x0,8b88 <__gdtoa+0x15fc>
    7b38:	02812783          	lw	x15,40(x2)
    7b3c:	00878463          	beq	x15,x8,7b44 <__gdtoa+0x5b8>
    7b40:	3c80106f          	jal	x0,8f08 <__gdtoa+0x197c>
    7b44:	019d8023          	sb	x25,0(x27)
    7b48:	07c12783          	lw	x15,124(x2)
    7b4c:	01c12703          	lw	x14,28(x2)
    7b50:	001d8d93          	addi	x27,x27,1
    7b54:	00f71463          	bne	x14,x15,7b5c <__gdtoa+0x5d0>
    7b58:	2d40106f          	jal	x0,8e2c <__gdtoa+0x18a0>
    7b5c:	00048593          	addi	x11,x9,0
    7b60:	00000693          	addi	x13,x0,0
    7b64:	00a00613          	addi	x12,x0,10
    7b68:	00090513          	addi	x10,x18,0
    7b6c:	5c4020ef          	jal	x1,a130 <__multadd>
    7b70:	00050493          	addi	x9,x10,0
    7b74:	28050863          	beq	x10,x0,7e04 <__gdtoa+0x878>
    7b78:	00000693          	addi	x13,x0,0
    7b7c:	00a00613          	addi	x12,x0,10
    7b80:	000a0593          	addi	x11,x20,0
    7b84:	00090513          	addi	x10,x18,0
    7b88:	135a00e3          	beq	x20,x21,84a8 <__gdtoa+0xf1c>
    7b8c:	5a4020ef          	jal	x1,a130 <__multadd>
    7b90:	00050a13          	addi	x20,x10,0
    7b94:	26050863          	beq	x10,x0,7e04 <__gdtoa+0x878>
    7b98:	000a8593          	addi	x11,x21,0
    7b9c:	00000693          	addi	x13,x0,0
    7ba0:	00a00613          	addi	x12,x0,10
    7ba4:	00090513          	addi	x10,x18,0
    7ba8:	588020ef          	jal	x1,a130 <__multadd>
    7bac:	00050a93          	addi	x21,x10,0
    7bb0:	24050a63          	beq	x10,x0,7e04 <__gdtoa+0x878>
    7bb4:	07c12783          	lw	x15,124(x2)
    7bb8:	00178793          	addi	x15,x15,1
    7bbc:	000c0593          	addi	x11,x24,0
    7bc0:	00048513          	addi	x10,x9,0
    7bc4:	06f12e23          	sw	x15,124(x2)
    7bc8:	695010ef          	jal	x1,9a5c <__quorem_D2A>
    7bcc:	00050b93          	addi	x23,x10,0
    7bd0:	000a0593          	addi	x11,x20,0
    7bd4:	00048513          	addi	x10,x9,0
    7bd8:	6f9020ef          	jal	x1,aad0 <__mcmp>
    7bdc:	000c0593          	addi	x11,x24,0
    7be0:	00050b13          	addi	x22,x10,0
    7be4:	000a8613          	addi	x12,x21,0
    7be8:	00090513          	addi	x10,x18,0
    7bec:	73d020ef          	jal	x1,ab28 <__mdiff>
    7bf0:	030b8c93          	addi	x25,x23,48
    7bf4:	00050593          	addi	x11,x10,0
    7bf8:	20050663          	beq	x10,x0,7e04 <__gdtoa+0x878>
    7bfc:	00c52783          	lw	x15,12(x10)
    7c00:	f00798e3          	bne	x15,x0,7b10 <__gdtoa+0x584>
    7c04:	00a12623          	sw	x10,12(x2)
    7c08:	00048513          	addi	x10,x9,0
    7c0c:	6c5020ef          	jal	x1,aad0 <__mcmp>
    7c10:	00c12583          	lw	x11,12(x2)
    7c14:	00050693          	addi	x13,x10,0
    7c18:	00090513          	addi	x10,x18,0
    7c1c:	00d12623          	sw	x13,12(x2)
    7c20:	4ec020ef          	jal	x1,a10c <_Bfree>
    7c24:	00c12683          	lw	x13,12(x2)
    7c28:	00dd6733          	or	x14,x26,x13
    7c2c:	00070463          	beq	x14,x0,7c34 <__gdtoa+0x6a8>
    7c30:	5680106f          	jal	x0,9198 <__gdtoa+0x1c0c>
    7c34:	0009a783          	lw	x15,0(x19)
    7c38:	0017f793          	andi	x15,x15,1
    7c3c:	080790e3          	bne	x15,x0,84bc <__gdtoa+0xf30>
    7c40:	02812783          	lw	x15,40(x2)
    7c44:	00079463          	bne	x15,x0,7c4c <__gdtoa+0x6c0>
    7c48:	4280106f          	jal	x0,9070 <__gdtoa+0x1ae4>
    7c4c:	ef604ce3          	blt	x0,x22,7b44 <__gdtoa+0x5b8>
    7c50:	0104a603          	lw	x12,16(x9)
    7c54:	00912623          	sw	x9,12(x2)
    7c58:	00100693          	addi	x13,x0,1
    7c5c:	000c0313          	addi	x6,x24,0
    7c60:	01012f03          	lw	x30,16(x2)
    7c64:	01412903          	lw	x18,20(x2)
    7c68:	00070c13          	addi	x24,x14,0
    7c6c:	00048793          	addi	x15,x9,0
    7c70:	00c6c463          	blt	x13,x12,7c78 <__gdtoa+0x6ec>
    7c74:	4ec0106f          	jal	x0,9160 <__gdtoa+0x1bd4>
    7c78:	02812783          	lw	x15,40(x2)
    7c7c:	00200693          	addi	x13,x0,2
    7c80:	00d79463          	bne	x15,x13,7c88 <__gdtoa+0x6fc>
    7c84:	4ac0106f          	jal	x0,9130 <__gdtoa+0x1ba4>
    7c88:	00c12483          	lw	x9,12(x2)
    7c8c:	00012b83          	lw	x23,0(x2)
    7c90:	00030b13          	addi	x22,x6,0
    7c94:	000f0c13          	addi	x24,x30,0
    7c98:	0240006f          	jal	x0,7cbc <__gdtoa+0x730>
    7c9c:	494020ef          	jal	x1,a130 <__multadd>
    7ca0:	000b0593          	addi	x11,x22,0
    7ca4:	00050493          	addi	x9,x10,0
    7ca8:	14050e63          	beq	x10,x0,7e04 <__gdtoa+0x878>
    7cac:	5b1010ef          	jal	x1,9a5c <__quorem_D2A>
    7cb0:	03050c93          	addi	x25,x10,48
    7cb4:	00098d93          	addi	x27,x19,0
    7cb8:	00040a93          	addi	x21,x8,0
    7cbc:	000a8593          	addi	x11,x21,0
    7cc0:	000b0513          	addi	x10,x22,0
    7cc4:	60d020ef          	jal	x1,aad0 <__mcmp>
    7cc8:	00050793          	addi	x15,x10,0
    7ccc:	00000693          	addi	x13,x0,0
    7cd0:	00a00613          	addi	x12,x0,10
    7cd4:	000a8593          	addi	x11,x21,0
    7cd8:	000b8513          	addi	x10,x23,0
    7cdc:	001d8993          	addi	x19,x27,1
    7ce0:	00f04463          	blt	x0,x15,7ce8 <__gdtoa+0x75c>
    7ce4:	42c0106f          	jal	x0,9110 <__gdtoa+0x1b84>
    7ce8:	ff998fa3          	sb	x25,-1(x19)
    7cec:	444020ef          	jal	x1,a130 <__multadd>
    7cf0:	00050413          	addi	x8,x10,0
    7cf4:	00000693          	addi	x13,x0,0
    7cf8:	00a00613          	addi	x12,x0,10
    7cfc:	00048593          	addi	x11,x9,0
    7d00:	000b8513          	addi	x10,x23,0
    7d04:	10040063          	beq	x8,x0,7e04 <__gdtoa+0x878>
    7d08:	f95a1ae3          	bne	x20,x21,7c9c <__gdtoa+0x710>
    7d0c:	00040a13          	addi	x20,x8,0
    7d10:	f8dff06f          	jal	x0,7c9c <__gdtoa+0x710>
    7d14:	00400793          	addi	x15,x0,4
    7d18:	10f31863          	bne	x6,x15,7e28 <__gdtoa+0x89c>
    7d1c:	00412703          	lw	x14,4(x2)
    7d20:	00812603          	lw	x12,8(x2)
    7d24:	09812c03          	lw	x24,152(x2)
    7d28:	0bc12083          	lw	x1,188(x2)
    7d2c:	0b012903          	lw	x18,176(x2)
    7d30:	0a012b03          	lw	x22,160(x2)
    7d34:	ffff87b7          	lui	x15,0xffff8
    7d38:	00f72023          	sw	x15,0(x14)
    7d3c:	00300693          	addi	x13,x0,3
    7d40:	0000a597          	auipc	x11,0xa
    7d44:	cb458593          	addi	x11,x11,-844 # 119f4 <__clzsi2+0x378>
    7d48:	0c010113          	addi	x2,x2,192
    7d4c:	4450106f          	jal	x0,9990 <__nrv_alloc_D2A>
    7d50:	00012503          	lw	x10,0(x2)
    7d54:	00078593          	addi	x11,x15,0 # ffff8000 <__heap_end+0xffbf8000>
    7d58:	3b4020ef          	jal	x1,a10c <_Bfree>
    7d5c:	0ac12983          	lw	x19,172(x2)
    7d60:	0a812a03          	lw	x20,168(x2)
    7d64:	0a412a83          	lw	x21,164(x2)
    7d68:	09412c83          	lw	x25,148(x2)
    7d6c:	09012d03          	lw	x26,144(x2)
    7d70:	08c12d83          	lw	x27,140(x2)
    7d74:	00412703          	lw	x14,4(x2)
    7d78:	00812603          	lw	x12,8(x2)
    7d7c:	00012503          	lw	x10,0(x2)
    7d80:	00100793          	addi	x15,x0,1
    7d84:	00f72023          	sw	x15,0(x14)
    7d88:	00100693          	addi	x13,x0,1
    7d8c:	0000a597          	auipc	x11,0xa
    7d90:	c5858593          	addi	x11,x11,-936 # 119e4 <__clzsi2+0x368>
    7d94:	3fd010ef          	jal	x1,9990 <__nrv_alloc_D2A>
    7d98:	00050f13          	addi	x30,x10,0
    7d9c:	0bc12083          	lw	x1,188(x2)
    7da0:	09812c03          	lw	x24,152(x2)
    7da4:	0b012903          	lw	x18,176(x2)
    7da8:	0a012b03          	lw	x22,160(x2)
    7dac:	000f0513          	addi	x10,x30,0
    7db0:	0c010113          	addi	x2,x2,192
    7db4:	00008067          	jalr	x0,0(x1)
    7db8:	00412703          	lw	x14,4(x2)
    7dbc:	00812603          	lw	x12,8(x2)
    7dc0:	0bc12083          	lw	x1,188(x2)
    7dc4:	0b012903          	lw	x18,176(x2)
    7dc8:	0a012b03          	lw	x22,160(x2)
    7dcc:	ffff87b7          	lui	x15,0xffff8
    7dd0:	00f72023          	sw	x15,0(x14)
    7dd4:	00800693          	addi	x13,x0,8
    7dd8:	0000a597          	auipc	x11,0xa
    7ddc:	c1058593          	addi	x11,x11,-1008 # 119e8 <__clzsi2+0x36c>
    7de0:	0c010113          	addi	x2,x2,192
    7de4:	3ad0106f          	jal	x0,9990 <__nrv_alloc_D2A>
    7de8:	00012503          	lw	x10,0(x2)
    7dec:	00030593          	addi	x11,x6,0
    7df0:	01e12823          	sw	x30,16(x2)
    7df4:	34d020ef          	jal	x1,a940 <__lshift>
    7df8:	01012f03          	lw	x30,16(x2)
    7dfc:	00050313          	addi	x6,x10,0
    7e00:	ca051ee3          	bne	x10,x0,7abc <__gdtoa+0x530>
    7e04:	0b812403          	lw	x8,184(x2)
    7e08:	0b412483          	lw	x9,180(x2)
    7e0c:	0ac12983          	lw	x19,172(x2)
    7e10:	0a812a03          	lw	x20,168(x2)
    7e14:	0a412a83          	lw	x21,164(x2)
    7e18:	09c12b83          	lw	x23,156(x2)
    7e1c:	09412c83          	lw	x25,148(x2)
    7e20:	09012d03          	lw	x26,144(x2)
    7e24:	08c12d83          	lw	x27,140(x2)
    7e28:	00000f13          	addi	x30,x0,0
    7e2c:	f71ff06f          	jal	x0,7d9c <__gdtoa+0x810>
    7e30:	00c12783          	lw	x15,12(x2)
    7e34:	0007a823          	sw	x0,16(x15) # ffff8010 <__heap_end+0xffbf8010>
    7e38:	891ff06f          	jal	x0,76c8 <__gdtoa+0x13c>
    7e3c:	00100793          	addi	x15,x0,1
    7e40:	02f12e23          	sw	x15,60(x2)
    7e44:	02012223          	sw	x0,36(x2)
    7e48:	3c0bc463          	blt	x23,x0,8210 <__gdtoa+0xc84>
    7e4c:	01812783          	lw	x15,24(x2)
    7e50:	a607d4e3          	bge	x15,x0,78b8 <__gdtoa+0x32c>
    7e54:	01812783          	lw	x15,24(x2)
    7e58:	02412703          	lw	x14,36(x2)
    7e5c:	00012c23          	sw	x0,24(x2)
    7e60:	02f12823          	sw	x15,48(x2)
    7e64:	40f70733          	sub	x14,x14,x15
    7e68:	02e12223          	sw	x14,36(x2)
    7e6c:	40f00733          	sub	x14,x0,x15
    7e70:	02e12623          	sw	x14,44(x2)
    7e74:	a55ff06f          	jal	x0,78c8 <__gdtoa+0x33c>
    7e78:	00050593          	addi	x11,x10,0
    7e7c:	00c12503          	lw	x10,12(x2)
    7e80:	3fc030ef          	jal	x1,b27c <__rshift_D2A>
    7e84:	07c12683          	lw	x13,124(x2)
    7e88:	01012783          	lw	x15,16(x2)
    7e8c:	40dc8cb3          	sub	x25,x25,x13
    7e90:	00f687b3          	add	x15,x13,x15
    7e94:	02f12023          	sw	x15,32(x2)
    7e98:	849ff06f          	jal	x0,76e0 <__gdtoa+0x154>
    7e9c:	01c12783          	lw	x15,28(x2)
    7ea0:	00000d13          	addi	x26,x0,0
    7ea4:	3fd78793          	addi	x15,x15,1021
    7ea8:	7f87ba13          	sltiu	x20,x15,2040
    7eac:	000a8513          	addi	x10,x21,0
    7eb0:	4b8060ef          	jal	x1,e368 <__floatsidf>
    7eb4:	0000b697          	auipc	x13,0xb
    7eb8:	bcc68693          	addi	x13,x13,-1076 # 12a80 <__SDATA_BEGIN__+0x28>
    7ebc:	0006a603          	lw	x12,0(x13)
    7ec0:	0046a683          	lw	x13,4(x13)
    7ec4:	440050ef          	jal	x1,d304 <__muldf3>
    7ec8:	41c060ef          	jal	x1,e2e4 <__fixdfsi>
    7ecc:	00100793          	addi	x15,x0,1
    7ed0:	00350593          	addi	x11,x10,3
    7ed4:	02f12a23          	sw	x15,52(x2)
    7ed8:	fff00793          	addi	x15,x0,-1
    7edc:	00058693          	addi	x13,x11,0
    7ee0:	00012a23          	sw	x0,20(x2)
    7ee4:	04f12623          	sw	x15,76(x2)
    7ee8:	00f12e23          	sw	x15,28(x2)
    7eec:	a49ff06f          	jal	x0,7934 <__gdtoa+0x3a8>
    7ef0:	02812783          	lw	x15,40(x2)
    7ef4:	00300693          	addi	x13,x0,3
    7ef8:	40f687b3          	sub	x15,x13,x15
    7efc:	02f12423          	sw	x15,40(x2)
    7f00:	01c12483          	lw	x9,28(x2)
    7f04:	00e00693          	addi	x13,x0,14
    7f08:	a496eee3          	bltu	x13,x9,7964 <__gdtoa+0x3d8>
    7f0c:	a40a0ce3          	beq	x20,x0,7964 <__gdtoa+0x3d8>
    7f10:	03012783          	lw	x15,48(x2)
    7f14:	02812703          	lw	x14,40(x2)
    7f18:	00e7e6b3          	or	x13,x15,x14
    7f1c:	a40694e3          	bne	x13,x0,7964 <__gdtoa+0x3d8>
    7f20:	03812403          	lw	x8,56(x2)
    7f24:	04012a03          	lw	x20,64(x2)
    7f28:	03c12783          	lw	x15,60(x2)
    7f2c:	06012e23          	sw	x0,124(x2)
    7f30:	02812423          	sw	x8,40(x2)
    7f34:	03412c23          	sw	x20,56(x2)
    7f38:	02078863          	beq	x15,x0,7f68 <__gdtoa+0x9dc>
    7f3c:	0000b697          	auipc	x13,0xb
    7f40:	b4c68693          	addi	x13,x13,-1204 # 12a88 <__SDATA_BEGIN__+0x30>
    7f44:	0006a603          	lw	x12,0(x13)
    7f48:	0046a683          	lw	x13,4(x13)
    7f4c:	00040513          	addi	x10,x8,0
    7f50:	000a0593          	addi	x11,x20,0
    7f54:	05e12823          	sw	x30,80(x2)
    7f58:	2a4050ef          	jal	x1,d1fc <__ledf2>
    7f5c:	05012f03          	lw	x30,80(x2)
    7f60:	00055463          	bge	x10,x0,7f68 <__gdtoa+0x9dc>
    7f64:	6ed0006f          	jal	x0,8e50 <__gdtoa+0x18c4>
    7f68:	02812783          	lw	x15,40(x2)
    7f6c:	05e12823          	sw	x30,80(x2)
    7f70:	00078613          	addi	x12,x15,0
    7f74:	00078513          	addi	x10,x15,0
    7f78:	03812783          	lw	x15,56(x2)
    7f7c:	00078693          	addi	x13,x15,0
    7f80:	00078593          	addi	x11,x15,0
    7f84:	098040ef          	jal	x1,c01c <__adddf3>
    7f88:	0000b697          	auipc	x13,0xb
    7f8c:	b1868693          	addi	x13,x13,-1256 # 12aa0 <__SDATA_BEGIN__+0x48>
    7f90:	0006a603          	lw	x12,0(x13)
    7f94:	0046a683          	lw	x13,4(x13)
    7f98:	084040ef          	jal	x1,c01c <__adddf3>
    7f9c:	01c12783          	lw	x15,28(x2)
    7fa0:	fcc00737          	lui	x14,0xfcc00
    7fa4:	05012f03          	lw	x30,80(x2)
    7fa8:	00050b13          	addi	x22,x10,0
    7fac:	00b70a33          	add	x20,x14,x11
    7fb0:	2a078ce3          	beq	x15,x0,8a68 <__gdtoa+0x14dc>
    7fb4:	01c12783          	lw	x15,28(x2)
    7fb8:	02812e83          	lw	x29,40(x2)
    7fbc:	03812803          	lw	x16,56(x2)
    7fc0:	04012a23          	sw	x0,84(x2)
    7fc4:	04f12823          	sw	x15,80(x2)
    7fc8:	05012783          	lw	x15,80(x2)
    7fcc:	03412703          	lw	x14,52(x2)
    7fd0:	0000a317          	auipc	x6,0xa
    7fd4:	08030313          	addi	x6,x6,128 # 12050 <__mprec_tens>
    7fd8:	fff78693          	addi	x13,x15,-1
    7fdc:	00369693          	slli	x13,x13,0x3
    7fe0:	00d306b3          	add	x13,x6,x13
    7fe4:	05012e23          	sw	x16,92(x2)
    7fe8:	05d12c23          	sw	x29,88(x2)
    7fec:	0006a603          	lw	x12,0(x13)
    7ff0:	000b0493          	addi	x9,x22,0
    7ff4:	0046a683          	lw	x13,4(x13)
    7ff8:	480704e3          	beq	x14,x0,8c80 <__gdtoa+0x16f4>
    7ffc:	0000b597          	auipc	x11,0xb
    8000:	ab458593          	addi	x11,x11,-1356 # 12ab0 <__SDATA_BEGIN__+0x58>
    8004:	0005a503          	lw	x10,0(x11)
    8008:	0045a583          	lw	x11,4(x11)
    800c:	06612423          	sw	x6,104(x2)
    8010:	001f0b13          	addi	x22,x30,1
    8014:	07e12023          	sw	x30,96(x2)
    8018:	0cd040ef          	jal	x1,c8e4 <__divdf3>
    801c:	00048613          	addi	x12,x9,0
    8020:	000a0693          	addi	x13,x20,0
    8024:	1b9050ef          	jal	x1,d9dc <__subdf3>
    8028:	05812e83          	lw	x29,88(x2)
    802c:	05c12803          	lw	x16,92(x2)
    8030:	00050613          	addi	x12,x10,0
    8034:	00058693          	addi	x13,x11,0
    8038:	000e8513          	addi	x10,x29,0
    803c:	00080593          	addi	x11,x16,0
    8040:	05d12423          	sw	x29,72(x2)
    8044:	05012023          	sw	x16,64(x2)
    8048:	04c12c23          	sw	x12,88(x2)
    804c:	04d12e23          	sw	x13,92(x2)
    8050:	294060ef          	jal	x1,e2e4 <__fixdfsi>
    8054:	00050413          	addi	x8,x10,0
    8058:	310060ef          	jal	x1,e368 <__floatsidf>
    805c:	04012803          	lw	x16,64(x2)
    8060:	04812e83          	lw	x29,72(x2)
    8064:	00050613          	addi	x12,x10,0
    8068:	00058693          	addi	x13,x11,0
    806c:	000e8513          	addi	x10,x29,0
    8070:	00080593          	addi	x11,x16,0
    8074:	169050ef          	jal	x1,d9dc <__subdf3>
    8078:	06012f03          	lw	x30,96(x2)
    807c:	00050613          	addi	x12,x10,0
    8080:	00058693          	addi	x13,x11,0
    8084:	00050493          	addi	x9,x10,0
    8088:	00058a13          	addi	x20,x11,0
    808c:	05812503          	lw	x10,88(x2)
    8090:	05c12583          	lw	x11,92(x2)
    8094:	03040793          	addi	x15,x8,48
    8098:	00ff0023          	sb	x15,0(x30)
    809c:	05e12023          	sw	x30,64(x2)
    80a0:	05c050ef          	jal	x1,d0fc <__gedf2>
    80a4:	04012f03          	lw	x30,64(x2)
    80a8:	00a05463          	bge	x0,x10,80b0 <__gdtoa+0xb24>
    80ac:	71d0006f          	jal	x0,8fc8 <__gdtoa+0x1a3c>
    80b0:	0000b697          	auipc	x13,0xb
    80b4:	9d868693          	addi	x13,x13,-1576 # 12a88 <__SDATA_BEGIN__+0x30>
    80b8:	0006a783          	lw	x15,0(x13)
    80bc:	0046a803          	lw	x16,4(x13)
    80c0:	07712023          	sw	x23,96(x2)
    80c4:	07512223          	sw	x21,100(x2)
    80c8:	05012b83          	lw	x23,80(x2)
    80cc:	05812403          	lw	x8,88(x2)
    80d0:	05c12a83          	lw	x21,92(x2)
    80d4:	04f12023          	sw	x15,64(x2)
    80d8:	05012223          	sw	x16,68(x2)
    80dc:	05e12423          	sw	x30,72(x2)
    80e0:	05212823          	sw	x18,80(x2)
    80e4:	0940006f          	jal	x0,8178 <__gdtoa+0xbec>
    80e8:	07c12783          	lw	x15,124(x2)
    80ec:	00178793          	addi	x15,x15,1
    80f0:	06f12e23          	sw	x15,124(x2)
    80f4:	0177c463          	blt	x15,x23,80fc <__gdtoa+0xb70>
    80f8:	7450006f          	jal	x0,903c <__gdtoa+0x1ab0>
    80fc:	0000b917          	auipc	x18,0xb
    8100:	99490913          	addi	x18,x18,-1644 # 12a90 <__SDATA_BEGIN__+0x38>
    8104:	00092603          	lw	x12,0(x18)
    8108:	00492683          	lw	x13,4(x18)
    810c:	001b0b13          	addi	x22,x22,1
    8110:	1f4050ef          	jal	x1,d304 <__muldf3>
    8114:	00092603          	lw	x12,0(x18)
    8118:	00492683          	lw	x13,4(x18)
    811c:	00050413          	addi	x8,x10,0
    8120:	00058a93          	addi	x21,x11,0
    8124:	00048513          	addi	x10,x9,0
    8128:	000a0593          	addi	x11,x20,0
    812c:	1d8050ef          	jal	x1,d304 <__muldf3>
    8130:	00058a13          	addi	x20,x11,0
    8134:	00050913          	addi	x18,x10,0
    8138:	1ac060ef          	jal	x1,e2e4 <__fixdfsi>
    813c:	00050493          	addi	x9,x10,0
    8140:	228060ef          	jal	x1,e368 <__floatsidf>
    8144:	00050613          	addi	x12,x10,0
    8148:	00058693          	addi	x13,x11,0
    814c:	00090513          	addi	x10,x18,0
    8150:	000a0593          	addi	x11,x20,0
    8154:	089050ef          	jal	x1,d9dc <__subdf3>
    8158:	03048793          	addi	x15,x9,48
    815c:	00040613          	addi	x12,x8,0
    8160:	000a8693          	addi	x13,x21,0
    8164:	fefb0fa3          	sb	x15,-1(x22)
    8168:	00050493          	addi	x9,x10,0
    816c:	00058a13          	addi	x20,x11,0
    8170:	08c050ef          	jal	x1,d1fc <__ledf2>
    8174:	640546e3          	blt	x10,x0,8fc0 <__gdtoa+0x1a34>
    8178:	04012503          	lw	x10,64(x2)
    817c:	04412583          	lw	x11,68(x2)
    8180:	00048613          	addi	x12,x9,0
    8184:	000a0693          	addi	x13,x20,0
    8188:	055050ef          	jal	x1,d9dc <__subdf3>
    818c:	00050613          	addi	x12,x10,0
    8190:	00058693          	addi	x13,x11,0
    8194:	00040513          	addi	x10,x8,0
    8198:	000a8593          	addi	x11,x21,0
    819c:	761040ef          	jal	x1,d0fc <__gedf2>
    81a0:	00050793          	addi	x15,x10,0
    81a4:	000a8593          	addi	x11,x21,0
    81a8:	00040513          	addi	x10,x8,0
    81ac:	f2f05ee3          	bge	x0,x15,80e8 <__gdtoa+0xb5c>
    81b0:	05412783          	lw	x15,84(x2)
    81b4:	04812f03          	lw	x30,72(x2)
    81b8:	05012903          	lw	x18,80(x2)
    81bc:	fffb4703          	lbu	x14,-1(x22)
    81c0:	00178413          	addi	x8,x15,1
    81c4:	03900693          	addi	x13,x0,57
    81c8:	0100006f          	jal	x0,81d8 <__gdtoa+0xc4c>
    81cc:	2aff04e3          	beq	x30,x15,8c74 <__gdtoa+0x16e8>
    81d0:	fff7c703          	lbu	x14,-1(x15)
    81d4:	00078b13          	addi	x22,x15,0
    81d8:	fffb0793          	addi	x15,x22,-1
    81dc:	fed708e3          	beq	x14,x13,81cc <__gdtoa+0xc40>
    81e0:	00170693          	addi	x13,x14,1 # fcc00001 <__heap_end+0xfc800001>
    81e4:	0ff6f693          	andi	x13,x13,255
    81e8:	00d78023          	sb	x13,0(x15)
    81ec:	00040493          	addi	x9,x8,0
    81f0:	02000c13          	addi	x24,x0,32
    81f4:	1f80006f          	jal	x0,83ec <__gdtoa+0xe60>
    81f8:	0ac12983          	lw	x19,172(x2)
    81fc:	0a412a83          	lw	x21,164(x2)
    8200:	09012d03          	lw	x26,144(x2)
    8204:	08c12d83          	lw	x27,140(x2)
    8208:	00000f13          	addi	x30,x0,0
    820c:	b91ff06f          	jal	x0,7d9c <__gdtoa+0x810>
    8210:	00100693          	addi	x13,x0,1
    8214:	408687b3          	sub	x15,x13,x8
    8218:	02f12223          	sw	x15,36(x2)
    821c:	00000b93          	addi	x23,x0,0
    8220:	c2dff06f          	jal	x0,7e4c <__gdtoa+0x8c0>
    8224:	02c12483          	lw	x9,44(x2)
    8228:	02412a83          	lw	x21,36(x2)
    822c:	00000a13          	addi	x20,x0,0
    8230:	fd4ff06f          	jal	x0,7a04 <__gdtoa+0x478>
    8234:	00200793          	addi	x15,x0,2
    8238:	02f12423          	sw	x15,40(x2)
    823c:	f20ff06f          	jal	x0,795c <__gdtoa+0x3d0>
    8240:	01812783          	lw	x15,24(x2)
    8244:	02012e23          	sw	x0,60(x2)
    8248:	fff78793          	addi	x15,x15,-1
    824c:	00f12c23          	sw	x15,24(x2)
    8250:	bf5ff06f          	jal	x0,7e44 <__gdtoa+0x8b8>
    8254:	ffcd0d13          	addi	x26,x26,-4
    8258:	00400613          	addi	x12,x0,4
    825c:	22cd0063          	beq	x26,x12,847c <__gdtoa+0xef0>
    8260:	70dd0863          	beq	x26,x13,8970 <__gdtoa+0x13e4>
    8264:	00200693          	addi	x13,x0,2
    8268:	02012a23          	sw	x0,52(x2)
    826c:	00000a13          	addi	x20,x0,0
    8270:	20dd0c63          	beq	x26,x13,8488 <__gdtoa+0xefc>
    8274:	00300d13          	addi	x26,x0,3
    8278:	e98ff06f          	jal	x0,7910 <__gdtoa+0x384>
    827c:	00379693          	slli	x13,x15,0x3
    8280:	0000a797          	auipc	x15,0xa
    8284:	dd078793          	addi	x15,x15,-560 # 12050 <__mprec_tens>
    8288:	00d787b3          	add	x15,x15,x13
    828c:	0007ad03          	lw	x26,0(x15)
    8290:	0047ad83          	lw	x27,4(x15)
    8294:	01412783          	lw	x15,20(x2)
    8298:	5607c463          	blt	x15,x0,8800 <__gdtoa+0x1274>
    829c:	04812403          	lw	x8,72(x2)
    82a0:	04012a03          	lw	x20,64(x2)
    82a4:	00100793          	addi	x15,x0,1
    82a8:	000d0613          	addi	x12,x26,0
    82ac:	000d8693          	addi	x13,x27,0
    82b0:	00040513          	addi	x10,x8,0
    82b4:	000a0593          	addi	x11,x20,0
    82b8:	01e12823          	sw	x30,16(x2)
    82bc:	06f12e23          	sw	x15,124(x2)
    82c0:	624040ef          	jal	x1,c8e4 <__divdf3>
    82c4:	020060ef          	jal	x1,e2e4 <__fixdfsi>
    82c8:	00050993          	addi	x19,x10,0
    82cc:	09c060ef          	jal	x1,e368 <__floatsidf>
    82d0:	000d0613          	addi	x12,x26,0
    82d4:	000d8693          	addi	x13,x27,0
    82d8:	02c050ef          	jal	x1,d304 <__muldf3>
    82dc:	00050613          	addi	x12,x10,0
    82e0:	00058693          	addi	x13,x11,0
    82e4:	00040513          	addi	x10,x8,0
    82e8:	000a0593          	addi	x11,x20,0
    82ec:	6f0050ef          	jal	x1,d9dc <__subdf3>
    82f0:	01012f03          	lw	x30,16(x2)
    82f4:	03012703          	lw	x14,48(x2)
    82f8:	03098793          	addi	x15,x19,48
    82fc:	00ff0023          	sb	x15,0(x30)
    8300:	00000613          	addi	x12,x0,0
    8304:	00000693          	addi	x13,x0,0
    8308:	00170413          	addi	x8,x14,1
    830c:	001f0b13          	addi	x22,x30,1
    8310:	00050a93          	addi	x21,x10,0
    8314:	00058a13          	addi	x20,x11,0
    8318:	559040ef          	jal	x1,d070 <__eqdf2>
    831c:	01012f03          	lw	x30,16(x2)
    8320:	00040493          	addi	x9,x8,0
    8324:	0c050463          	beq	x10,x0,83ec <__gdtoa+0xe60>
    8328:	01812823          	sw	x24,16(x2)
    832c:	01c12c83          	lw	x25,28(x2)
    8330:	000a0c13          	addi	x24,x20,0
    8334:	0000ab97          	auipc	x23,0xa
    8338:	75cb8b93          	addi	x23,x23,1884 # 12a90 <__SDATA_BEGIN__+0x38>
    833c:	00040a13          	addi	x20,x8,0
    8340:	000f0413          	addi	x8,x30,0
    8344:	0780006f          	jal	x0,83bc <__gdtoa+0xe30>
    8348:	000ba603          	lw	x12,0(x23)
    834c:	004ba683          	lw	x13,4(x23)
    8350:	07012e23          	sw	x16,124(x2)
    8354:	001b0b13          	addi	x22,x22,1
    8358:	7ad040ef          	jal	x1,d304 <__muldf3>
    835c:	000d0613          	addi	x12,x26,0
    8360:	000d8693          	addi	x13,x27,0
    8364:	00050c13          	addi	x24,x10,0
    8368:	00058a93          	addi	x21,x11,0
    836c:	578040ef          	jal	x1,c8e4 <__divdf3>
    8370:	775050ef          	jal	x1,e2e4 <__fixdfsi>
    8374:	00050993          	addi	x19,x10,0
    8378:	7f1050ef          	jal	x1,e368 <__floatsidf>
    837c:	000d0613          	addi	x12,x26,0
    8380:	000d8693          	addi	x13,x27,0
    8384:	781040ef          	jal	x1,d304 <__muldf3>
    8388:	00050613          	addi	x12,x10,0
    838c:	00058693          	addi	x13,x11,0
    8390:	000c0513          	addi	x10,x24,0
    8394:	000a8593          	addi	x11,x21,0
    8398:	644050ef          	jal	x1,d9dc <__subdf3>
    839c:	03098793          	addi	x15,x19,48
    83a0:	fefb0fa3          	sb	x15,-1(x22)
    83a4:	00000613          	addi	x12,x0,0
    83a8:	00000693          	addi	x13,x0,0
    83ac:	00050a93          	addi	x21,x10,0
    83b0:	00058c13          	addi	x24,x11,0
    83b4:	4bd040ef          	jal	x1,d070 <__eqdf2>
    83b8:	42050e63          	beq	x10,x0,87f4 <__gdtoa+0x1268>
    83bc:	07c12703          	lw	x14,124(x2)
    83c0:	000a8513          	addi	x10,x21,0
    83c4:	000c0593          	addi	x11,x24,0
    83c8:	00170813          	addi	x16,x14,1
    83cc:	f7971ee3          	bne	x14,x25,8348 <__gdtoa+0xdbc>
    83d0:	02812703          	lw	x14,40(x2)
    83d4:	00040f13          	addi	x30,x8,0
    83d8:	000a0413          	addi	x8,x20,0
    83dc:	02070ae3          	beq	x14,x0,8c10 <__gdtoa+0x1684>
    83e0:	00100793          	addi	x15,x0,1
    83e4:	01000c13          	addi	x24,x0,16
    83e8:	26f700e3          	beq	x14,x15,8e48 <__gdtoa+0x18bc>
    83ec:	00c12583          	lw	x11,12(x2)
    83f0:	00012503          	lw	x10,0(x2)
    83f4:	01e12823          	sw	x30,16(x2)
    83f8:	515010ef          	jal	x1,a10c <_Bfree>
    83fc:	00412783          	lw	x15,4(x2)
    8400:	000b0023          	sb	x0,0(x22)
    8404:	01012f03          	lw	x30,16(x2)
    8408:	0097a023          	sw	x9,0(x15)
    840c:	00812783          	lw	x15,8(x2)
    8410:	00078463          	beq	x15,x0,8418 <__gdtoa+0xe8c>
    8414:	0167a023          	sw	x22,0(x15)
    8418:	00092783          	lw	x15,0(x18)
    841c:	0b812403          	lw	x8,184(x2)
    8420:	0b412483          	lw	x9,180(x2)
    8424:	0187e7b3          	or	x15,x15,x24
    8428:	0ac12983          	lw	x19,172(x2)
    842c:	0a812a03          	lw	x20,168(x2)
    8430:	0a412a83          	lw	x21,164(x2)
    8434:	09c12b83          	lw	x23,156(x2)
    8438:	09412c83          	lw	x25,148(x2)
    843c:	09012d03          	lw	x26,144(x2)
    8440:	08c12d83          	lw	x27,140(x2)
    8444:	00f92023          	sw	x15,0(x18)
    8448:	955ff06f          	jal	x0,7d9c <__gdtoa+0x810>
    844c:	e4dc9263          	bne	x25,x13,7a90 <__gdtoa+0x504>
    8450:	004da783          	lw	x15,4(x27)
    8454:	01012703          	lw	x14,16(x2)
    8458:	00178793          	addi	x15,x15,1
    845c:	e2e7da63          	bge	x15,x14,7a90 <__gdtoa+0x504>
    8460:	02412783          	lw	x15,36(x2)
    8464:	001b8b93          	addi	x23,x23,1
    8468:	00178793          	addi	x15,x15,1
    846c:	02f12223          	sw	x15,36(x2)
    8470:	00100793          	addi	x15,x0,1
    8474:	00f12c23          	sw	x15,24(x2)
    8478:	e18ff06f          	jal	x0,7a90 <__gdtoa+0x504>
    847c:	00100793          	addi	x15,x0,1
    8480:	00000a13          	addi	x20,x0,0
    8484:	02f12a23          	sw	x15,52(x2)
    8488:	01412583          	lw	x11,20(x2)
    848c:	00b04463          	blt	x0,x11,8494 <__gdtoa+0xf08>
    8490:	00100593          	addi	x11,x0,1
    8494:	00058693          	addi	x13,x11,0
    8498:	04b12623          	sw	x11,76(x2)
    849c:	00b12e23          	sw	x11,28(x2)
    84a0:	00b12a23          	sw	x11,20(x2)
    84a4:	c90ff06f          	jal	x0,7934 <__gdtoa+0x3a8>
    84a8:	489010ef          	jal	x1,a130 <__multadd>
    84ac:	00050a13          	addi	x20,x10,0
    84b0:	94050ae3          	beq	x10,x0,7e04 <__gdtoa+0x878>
    84b4:	00050a93          	addi	x21,x10,0
    84b8:	efcff06f          	jal	x0,7bb4 <__gdtoa+0x628>
    84bc:	e80b5463          	bge	x22,x0,7b44 <__gdtoa+0x5b8>
    84c0:	02812783          	lw	x15,40(x2)
    84c4:	00912623          	sw	x9,12(x2)
    84c8:	000c0313          	addi	x6,x24,0
    84cc:	01012f03          	lw	x30,16(x2)
    84d0:	01412903          	lw	x18,20(x2)
    84d4:	00070c13          	addi	x24,x14,0
    84d8:	46079ae3          	bne	x15,x0,914c <__gdtoa+0x1bc0>
    84dc:	00c12783          	lw	x15,12(x2)
    84e0:	00100693          	addi	x13,x0,1
    84e4:	01000c13          	addi	x24,x0,16
    84e8:	0107a603          	lw	x12,16(x15)
    84ec:	001d8993          	addi	x19,x27,1
    84f0:	3ec6d6e3          	bge	x13,x12,90dc <__gdtoa+0x1b50>
    84f4:	000a0413          	addi	x8,x20,0
    84f8:	00098b13          	addi	x22,x19,0
    84fc:	019d8023          	sb	x25,0(x27)
    8500:	000a8a13          	addi	x20,x21,0
    8504:	00012983          	lw	x19,0(x2)
    8508:	00030593          	addi	x11,x6,0
    850c:	01e12823          	sw	x30,16(x2)
    8510:	00098513          	addi	x10,x19,0
    8514:	3f9010ef          	jal	x1,a10c <_Bfree>
    8518:	03012783          	lw	x15,48(x2)
    851c:	01012f03          	lw	x30,16(x2)
    8520:	00178493          	addi	x9,x15,1
    8524:	ec0a04e3          	beq	x20,x0,83ec <__gdtoa+0xe60>
    8528:	00040c63          	beq	x8,x0,8540 <__gdtoa+0xfb4>
    852c:	01440a63          	beq	x8,x20,8540 <__gdtoa+0xfb4>
    8530:	00040593          	addi	x11,x8,0
    8534:	00098513          	addi	x10,x19,0
    8538:	3d5010ef          	jal	x1,a10c <_Bfree>
    853c:	01012f03          	lw	x30,16(x2)
    8540:	00012503          	lw	x10,0(x2)
    8544:	000a0593          	addi	x11,x20,0
    8548:	01e12823          	sw	x30,16(x2)
    854c:	3c1010ef          	jal	x1,a10c <_Bfree>
    8550:	01012f03          	lw	x30,16(x2)
    8554:	e99ff06f          	jal	x0,83ec <__gdtoa+0xe60>
    8558:	00c12583          	lw	x11,12(x2)
    855c:	00012503          	lw	x10,0(x2)
    8560:	03e12023          	sw	x30,32(x2)
    8564:	00612823          	sw	x6,16(x2)
    8568:	3d8020ef          	jal	x1,a940 <__lshift>
    856c:	00a12623          	sw	x10,12(x2)
    8570:	88050ae3          	beq	x10,x0,7e04 <__gdtoa+0x878>
    8574:	07c12783          	lw	x15,124(x2)
    8578:	02012f03          	lw	x30,32(x2)
    857c:	01012303          	lw	x6,16(x2)
    8580:	d34ff06f          	jal	x0,7ab4 <__gdtoa+0x528>
    8584:	00c12503          	lw	x10,12(x2)
    8588:	00030593          	addi	x11,x6,0
    858c:	03e12023          	sw	x30,32(x2)
    8590:	00612823          	sw	x6,16(x2)
    8594:	53c020ef          	jal	x1,aad0 <__mcmp>
    8598:	01012303          	lw	x6,16(x2)
    859c:	02012f03          	lw	x30,32(x2)
    85a0:	d2055263          	bge	x10,x0,7ac4 <__gdtoa+0x538>
    85a4:	03012783          	lw	x15,48(x2)
    85a8:	00c12583          	lw	x11,12(x2)
    85ac:	00012503          	lw	x10,0(x2)
    85b0:	fff78793          	addi	x15,x15,-1
    85b4:	00000693          	addi	x13,x0,0
    85b8:	00a00613          	addi	x12,x0,10
    85bc:	01e12e23          	sw	x30,28(x2)
    85c0:	02f12823          	sw	x15,48(x2)
    85c4:	36d010ef          	jal	x1,a130 <__multadd>
    85c8:	00a12623          	sw	x10,12(x2)
    85cc:	82050ce3          	beq	x10,x0,7e04 <__gdtoa+0x878>
    85d0:	03412783          	lw	x15,52(x2)
    85d4:	01012303          	lw	x6,16(x2)
    85d8:	01c12f03          	lw	x30,28(x2)
    85dc:	18079ce3          	bne	x15,x0,8f74 <__gdtoa+0x19e8>
    85e0:	04c12783          	lw	x15,76(x2)
    85e4:	1ef05e63          	bge	x0,x15,87e0 <__gdtoa+0x1254>
    85e8:	00f12e23          	sw	x15,28(x2)
    85ec:	01c12483          	lw	x9,28(x2)
    85f0:	00c12403          	lw	x8,12(x2)
    85f4:	00012a83          	lw	x21,0(x2)
    85f8:	000f0d93          	addi	x27,x30,0
    85fc:	00100793          	addi	x15,x0,1
    8600:	00030993          	addi	x19,x6,0
    8604:	000f0b13          	addi	x22,x30,0
    8608:	0180006f          	jal	x0,8620 <__gdtoa+0x1094>
    860c:	325010ef          	jal	x1,a130 <__multadd>
    8610:	00050413          	addi	x8,x10,0
    8614:	fe050863          	beq	x10,x0,7e04 <__gdtoa+0x878>
    8618:	07c12783          	lw	x15,124(x2)
    861c:	00178793          	addi	x15,x15,1
    8620:	00098593          	addi	x11,x19,0
    8624:	00040513          	addi	x10,x8,0
    8628:	06f12e23          	sw	x15,124(x2)
    862c:	430010ef          	jal	x1,9a5c <__quorem_D2A>
    8630:	03050c93          	addi	x25,x10,48
    8634:	019d8023          	sb	x25,0(x27)
    8638:	07c12783          	lw	x15,124(x2)
    863c:	00000693          	addi	x13,x0,0
    8640:	00a00613          	addi	x12,x0,10
    8644:	00040593          	addi	x11,x8,0
    8648:	000a8513          	addi	x10,x21,0
    864c:	001d8d93          	addi	x27,x27,1
    8650:	fa97cee3          	blt	x15,x9,860c <__gdtoa+0x1080>
    8654:	00812623          	sw	x8,12(x2)
    8658:	00098313          	addi	x6,x19,0
    865c:	000b0f13          	addi	x30,x22,0
    8660:	00000413          	addi	x8,x0,0
    8664:	02812703          	lw	x14,40(x2)
    8668:	4a070063          	beq	x14,x0,8b08 <__gdtoa+0x157c>
    866c:	00c12603          	lw	x12,12(x2)
    8670:	00200793          	addi	x15,x0,2
    8674:	01062683          	lw	x13,16(x12)
    8678:	4cf70a63          	beq	x14,x15,8b4c <__gdtoa+0x15c0>
    867c:	00100793          	addi	x15,x0,1
    8680:	28d7ce63          	blt	x15,x13,891c <__gdtoa+0x1390>
    8684:	01462783          	lw	x15,20(x12)
    8688:	28079a63          	bne	x15,x0,891c <__gdtoa+0x1390>
    868c:	00f037b3          	sltu	x15,x0,x15
    8690:	00479c13          	slli	x24,x15,0x4
    8694:	03000693          	addi	x13,x0,48
    8698:	fffdc783          	lbu	x15,-1(x27)
    869c:	000d8b13          	addi	x22,x27,0
    86a0:	fffd8d93          	addi	x27,x27,-1
    86a4:	fed78ae3          	beq	x15,x13,8698 <__gdtoa+0x110c>
    86a8:	e5dff06f          	jal	x0,8504 <__gdtoa+0xf78>
    86ac:	01c12783          	lw	x15,28(x2)
    86b0:	02c12703          	lw	x14,44(x2)
    86b4:	fff78693          	addi	x13,x15,-1
    86b8:	1ad74663          	blt	x14,x13,8864 <__gdtoa+0x12d8>
    86bc:	40d704b3          	sub	x9,x14,x13
    86c0:	0007dee3          	bge	x15,x0,8edc <__gdtoa+0x1950>
    86c4:	02412783          	lw	x15,36(x2)
    86c8:	01c12703          	lw	x14,28(x2)
    86cc:	06012e23          	sw	x0,124(x2)
    86d0:	40e78ab3          	sub	x21,x15,x14
    86d4:	b14ff06f          	jal	x0,79e8 <__gdtoa+0x45c>
    86d8:	00200793          	addi	x15,x0,2
    86dc:	bfa7d863          	bge	x15,x26,7acc <__gdtoa+0x540>
    86e0:	00012503          	lw	x10,0(x2)
    86e4:	00030593          	addi	x11,x6,0
    86e8:	00000693          	addi	x13,x0,0
    86ec:	00500613          	addi	x12,x0,5
    86f0:	01e12823          	sw	x30,16(x2)
    86f4:	23d010ef          	jal	x1,a130 <__multadd>
    86f8:	00050593          	addi	x11,x10,0
    86fc:	f0050463          	beq	x10,x0,7e04 <__gdtoa+0x878>
    8700:	01c12783          	lw	x15,28(x2)
    8704:	01012f03          	lw	x30,16(x2)
    8708:	14079463          	bne	x15,x0,8850 <__gdtoa+0x12c4>
    870c:	00a12823          	sw	x10,16(x2)
    8710:	00c12503          	lw	x10,12(x2)
    8714:	01e12c23          	sw	x30,24(x2)
    8718:	3b8020ef          	jal	x1,aad0 <__mcmp>
    871c:	01012583          	lw	x11,16(x2)
    8720:	01812f03          	lw	x30,24(x2)
    8724:	12a05663          	bge	x0,x10,8850 <__gdtoa+0x12c4>
    8728:	03012783          	lw	x15,48(x2)
    872c:	00278493          	addi	x9,x15,2
    8730:	03100793          	addi	x15,x0,49
    8734:	001f0b13          	addi	x22,x30,1
    8738:	00ff0023          	sb	x15,0(x30)
    873c:	02000c13          	addi	x24,x0,32
    8740:	00012503          	lw	x10,0(x2)
    8744:	01e12823          	sw	x30,16(x2)
    8748:	1c5010ef          	jal	x1,a10c <_Bfree>
    874c:	01012f03          	lw	x30,16(x2)
    8750:	c80a0ee3          	beq	x20,x0,83ec <__gdtoa+0xe60>
    8754:	dedff06f          	jal	x0,8540 <__gdtoa+0xfb4>
    8758:	00100693          	addi	x13,x0,1
    875c:	00100593          	addi	x11,x0,1
    8760:	9d4ff06f          	jal	x0,7934 <__gdtoa+0x3a8>
    8764:	00050593          	addi	x11,x10,0
    8768:	00012503          	lw	x10,0(x2)
    876c:	00078613          	addi	x12,x15,0
    8770:	080020ef          	jal	x1,a7f0 <__pow5mult>
    8774:	00050313          	addi	x6,x10,0
    8778:	e8050663          	beq	x10,x0,7e04 <__gdtoa+0x878>
    877c:	00100693          	addi	x13,x0,1
    8780:	02012f03          	lw	x30,32(x2)
    8784:	21a6de63          	bge	x13,x26,89a0 <__gdtoa+0x1414>
    8788:	01032783          	lw	x15,16(x6)
    878c:	03e12023          	sw	x30,32(x2)
    8790:	00612823          	sw	x6,16(x2)
    8794:	00378793          	addi	x15,x15,3
    8798:	00279793          	slli	x15,x15,0x2
    879c:	00f307b3          	add	x15,x6,x15
    87a0:	0047a503          	lw	x10,4(x15)
    87a4:	411010ef          	jal	x1,a3b4 <__hi0bits>
    87a8:	02012f03          	lw	x30,32(x2)
    87ac:	01012303          	lw	x6,16(x2)
    87b0:	00050b13          	addi	x22,x10,0
    87b4:	01812c23          	sw	x24,24(x2)
    87b8:	adcff06f          	jal	x0,7a94 <__gdtoa+0x508>
    87bc:	00100693          	addi	x13,x0,1
    87c0:	efa6c6e3          	blt	x13,x26,86ac <__gdtoa+0x1120>
    87c4:	02412783          	lw	x15,36(x2)
    87c8:	02c12483          	lw	x9,44(x2)
    87cc:	00cb8bb3          	add	x23,x23,x12
    87d0:	00078a93          	addi	x21,x15,0
    87d4:	00f607b3          	add	x15,x12,x15
    87d8:	02f12223          	sw	x15,36(x2)
    87dc:	a0cff06f          	jal	x0,79e8 <__gdtoa+0x45c>
    87e0:	00200793          	addi	x15,x0,2
    87e4:	13a7c0e3          	blt	x15,x26,9104 <__gdtoa+0x1b78>
    87e8:	04c12783          	lw	x15,76(x2)
    87ec:	00f12e23          	sw	x15,28(x2)
    87f0:	dfdff06f          	jal	x0,85ec <__gdtoa+0x1060>
    87f4:	01012c03          	lw	x24,16(x2)
    87f8:	00040f13          	addi	x30,x8,0
    87fc:	bf1ff06f          	jal	x0,83ec <__gdtoa+0xe60>
    8800:	01c12783          	lw	x15,28(x2)
    8804:	a8f04ce3          	blt	x0,x15,829c <__gdtoa+0xd10>
    8808:	04079063          	bne	x15,x0,8848 <__gdtoa+0x12bc>
    880c:	0000a797          	auipc	x15,0xa
    8810:	29c78793          	addi	x15,x15,668 # 12aa8 <__SDATA_BEGIN__+0x50>
    8814:	0007a603          	lw	x12,0(x15)
    8818:	0047a683          	lw	x13,4(x15)
    881c:	000d0513          	addi	x10,x26,0
    8820:	000d8593          	addi	x11,x27,0
    8824:	01e12823          	sw	x30,16(x2)
    8828:	2dd040ef          	jal	x1,d304 <__muldf3>
    882c:	04812883          	lw	x17,72(x2)
    8830:	04012783          	lw	x15,64(x2)
    8834:	00088613          	addi	x12,x17,0
    8838:	00078693          	addi	x13,x15,0
    883c:	0c1040ef          	jal	x1,d0fc <__gedf2>
    8840:	01012f03          	lw	x30,16(x2)
    8844:	6e054c63          	blt	x10,x0,8f3c <__gdtoa+0x19b0>
    8848:	00000593          	addi	x11,x0,0
    884c:	00000a13          	addi	x20,x0,0
    8850:	01412783          	lw	x15,20(x2)
    8854:	000f0b13          	addi	x22,x30,0
    8858:	01000c13          	addi	x24,x0,16
    885c:	40f004b3          	sub	x9,x0,x15
    8860:	ee1ff06f          	jal	x0,8740 <__gdtoa+0x11b4>
    8864:	02c12783          	lw	x15,44(x2)
    8868:	02412703          	lw	x14,36(x2)
    886c:	00000493          	addi	x9,x0,0
    8870:	40f68633          	sub	x12,x13,x15
    8874:	01812783          	lw	x15,24(x2)
    8878:	00070a93          	addi	x21,x14,0
    887c:	02d12623          	sw	x13,44(x2)
    8880:	00c787b3          	add	x15,x15,x12
    8884:	00f12c23          	sw	x15,24(x2)
    8888:	01c12783          	lw	x15,28(x2)
    888c:	06f12e23          	sw	x15,124(x2)
    8890:	00fb8bb3          	add	x23,x23,x15
    8894:	00f707b3          	add	x15,x14,x15
    8898:	02f12223          	sw	x15,36(x2)
    889c:	94cff06f          	jal	x0,79e8 <__gdtoa+0x45c>
    88a0:	00012b03          	lw	x22,0(x2)
    88a4:	000a0593          	addi	x11,x20,0
    88a8:	00048613          	addi	x12,x9,0
    88ac:	000b0513          	addi	x10,x22,0
    88b0:	03e12023          	sw	x30,32(x2)
    88b4:	73d010ef          	jal	x1,a7f0 <__pow5mult>
    88b8:	00050a13          	addi	x20,x10,0
    88bc:	d4050463          	beq	x10,x0,7e04 <__gdtoa+0x878>
    88c0:	00c12603          	lw	x12,12(x2)
    88c4:	00050593          	addi	x11,x10,0
    88c8:	000b0513          	addi	x10,x22,0
    88cc:	4f1010ef          	jal	x1,a5bc <__multiply>
    88d0:	00050413          	addi	x8,x10,0
    88d4:	d2050863          	beq	x10,x0,7e04 <__gdtoa+0x878>
    88d8:	00c12583          	lw	x11,12(x2)
    88dc:	000b0513          	addi	x10,x22,0
    88e0:	02d010ef          	jal	x1,a10c <_Bfree>
    88e4:	02c12783          	lw	x15,44(x2)
    88e8:	00812623          	sw	x8,12(x2)
    88ec:	02012f03          	lw	x30,32(x2)
    88f0:	409787b3          	sub	x15,x15,x9
    88f4:	02f12623          	sw	x15,44(x2)
    88f8:	96078663          	beq	x15,x0,7a64 <__gdtoa+0x4d8>
    88fc:	948ff06f          	jal	x0,7a44 <__gdtoa+0x4b8>
    8900:	000a0413          	addi	x8,x20,0
    8904:	000d8793          	addi	x15,x27,0
    8908:	001d8993          	addi	x19,x27,1
    890c:	000a8a13          	addi	x20,x21,0
    8910:	03900693          	addi	x13,x0,57
    8914:	00098d93          	addi	x27,x19,0
    8918:	00d78023          	sb	x13,0(x15)
    891c:	03900693          	addi	x13,x0,57
    8920:	0080006f          	jal	x0,8928 <__gdtoa+0x139c>
    8924:	25bf0463          	beq	x30,x27,8b6c <__gdtoa+0x15e0>
    8928:	fffdc783          	lbu	x15,-1(x27)
    892c:	000d8b13          	addi	x22,x27,0
    8930:	fffd8d93          	addi	x27,x27,-1
    8934:	fed788e3          	beq	x15,x13,8924 <__gdtoa+0x1398>
    8938:	00178793          	addi	x15,x15,1
    893c:	00fd8023          	sb	x15,0(x27)
    8940:	02000c13          	addi	x24,x0,32
    8944:	bc1ff06f          	jal	x0,8504 <__gdtoa+0xf78>
    8948:	00012503          	lw	x10,0(x2)
    894c:	000a0593          	addi	x11,x20,0
    8950:	01e12a23          	sw	x30,20(x2)
    8954:	00612823          	sw	x6,16(x2)
    8958:	7e9010ef          	jal	x1,a940 <__lshift>
    895c:	01012303          	lw	x6,16(x2)
    8960:	01412f03          	lw	x30,20(x2)
    8964:	00050a13          	addi	x20,x10,0
    8968:	96051a63          	bne	x10,x0,7adc <__gdtoa+0x550>
    896c:	c98ff06f          	jal	x0,7e04 <__gdtoa+0x878>
    8970:	00100793          	addi	x15,x0,1
    8974:	00000a13          	addi	x20,x0,0
    8978:	02f12a23          	sw	x15,52(x2)
    897c:	f95fe06f          	jal	x0,7910 <__gdtoa+0x384>
    8980:	00100793          	addi	x15,x0,1
    8984:	02f12a23          	sw	x15,52(x2)
    8988:	f89fe06f          	jal	x0,7910 <__gdtoa+0x384>
    898c:	00100793          	addi	x15,x0,1
    8990:	02f12a23          	sw	x15,52(x2)
    8994:	af5ff06f          	jal	x0,8488 <__gdtoa+0xefc>
    8998:	02012a23          	sw	x0,52(x2)
    899c:	aedff06f          	jal	x0,8488 <__gdtoa+0xefc>
    89a0:	dedc94e3          	bne	x25,x13,8788 <__gdtoa+0x11fc>
    89a4:	004da783          	lw	x15,4(x27)
    89a8:	01012703          	lw	x14,16(x2)
    89ac:	00178793          	addi	x15,x15,1
    89b0:	dce7dce3          	bge	x15,x14,8788 <__gdtoa+0x11fc>
    89b4:	02412783          	lw	x15,36(x2)
    89b8:	001b8b93          	addi	x23,x23,1
    89bc:	00100c13          	addi	x24,x0,1
    89c0:	00178793          	addi	x15,x15,1
    89c4:	02f12223          	sw	x15,36(x2)
    89c8:	dc1ff06f          	jal	x0,8788 <__gdtoa+0x11fc>
    89cc:	00012403          	lw	x8,0(x2)
    89d0:	004a2583          	lw	x11,4(x20)
    89d4:	01e12a23          	sw	x30,20(x2)
    89d8:	00040513          	addi	x10,x8,0
    89dc:	00612823          	sw	x6,16(x2)
    89e0:	678010ef          	jal	x1,a058 <_Balloc>
    89e4:	00050a93          	addi	x21,x10,0
    89e8:	c0050e63          	beq	x10,x0,7e04 <__gdtoa+0x878>
    89ec:	010a2603          	lw	x12,16(x20)
    89f0:	00ca0593          	addi	x11,x20,12
    89f4:	00c50513          	addi	x10,x10,12
    89f8:	00260613          	addi	x12,x12,2
    89fc:	00261613          	slli	x12,x12,0x2
    8a00:	9dcfd0ef          	jal	x1,5bdc <memcpy>
    8a04:	000a8593          	addi	x11,x21,0
    8a08:	00100613          	addi	x12,x0,1
    8a0c:	00040513          	addi	x10,x8,0
    8a10:	731010ef          	jal	x1,a940 <__lshift>
    8a14:	01012303          	lw	x6,16(x2)
    8a18:	01412f03          	lw	x30,20(x2)
    8a1c:	00050a93          	addi	x21,x10,0
    8a20:	00050463          	beq	x10,x0,8a28 <__gdtoa+0x149c>
    8a24:	8c8ff06f          	jal	x0,7aec <__gdtoa+0x560>
    8a28:	bdcff06f          	jal	x0,7e04 <__gdtoa+0x878>
    8a2c:	000a0693          	addi	x13,x20,0
    8a30:	00040613          	addi	x12,x8,0
    8a34:	000a0593          	addi	x11,x20,0
    8a38:	00040513          	addi	x10,x8,0
    8a3c:	05e12023          	sw	x30,64(x2)
    8a40:	5dc030ef          	jal	x1,c01c <__adddf3>
    8a44:	0000a697          	auipc	x13,0xa
    8a48:	05c68693          	addi	x13,x13,92 # 12aa0 <__SDATA_BEGIN__+0x48>
    8a4c:	0006a603          	lw	x12,0(x13)
    8a50:	0046a683          	lw	x13,4(x13)
    8a54:	5c8030ef          	jal	x1,c01c <__adddf3>
    8a58:	04012f03          	lw	x30,64(x2)
    8a5c:	fcc00737          	lui	x14,0xfcc00
    8a60:	00050b13          	addi	x22,x10,0
    8a64:	00b70a33          	add	x20,x14,x11
    8a68:	0000a697          	auipc	x13,0xa
    8a6c:	04068693          	addi	x13,x13,64 # 12aa8 <__SDATA_BEGIN__+0x50>
    8a70:	0006a603          	lw	x12,0(x13)
    8a74:	02812503          	lw	x10,40(x2)
    8a78:	0046a683          	lw	x13,4(x13)
    8a7c:	03812583          	lw	x11,56(x2)
    8a80:	05e12023          	sw	x30,64(x2)
    8a84:	759040ef          	jal	x1,d9dc <__subdf3>
    8a88:	000b0613          	addi	x12,x22,0
    8a8c:	000a0693          	addi	x13,x20,0
    8a90:	00050493          	addi	x9,x10,0
    8a94:	00058413          	addi	x8,x11,0
    8a98:	664040ef          	jal	x1,d0fc <__gedf2>
    8a9c:	04012f03          	lw	x30,64(x2)
    8aa0:	44a04c63          	blt	x0,x10,8ef8 <__gdtoa+0x196c>
    8aa4:	800008b7          	lui	x17,0x80000
    8aa8:	0148c8b3          	xor	x17,x17,x20
    8aac:	000b0613          	addi	x12,x22,0
    8ab0:	00048513          	addi	x10,x9,0
    8ab4:	00088693          	addi	x13,x17,0 # 80000000 <__heap_end+0x7fc00000>
    8ab8:	00040593          	addi	x11,x8,0
    8abc:	740040ef          	jal	x1,d1fc <__ledf2>
    8ac0:	04012f03          	lw	x30,64(x2)
    8ac4:	d80542e3          	blt	x10,x0,8848 <__gdtoa+0x12bc>
    8ac8:	02812783          	lw	x15,40(x2)
    8acc:	00009317          	auipc	x6,0x9
    8ad0:	58430313          	addi	x6,x6,1412 # 12050 <__mprec_tens>
    8ad4:	04f12423          	sw	x15,72(x2)
    8ad8:	03812783          	lw	x15,56(x2)
    8adc:	04f12023          	sw	x15,64(x2)
    8ae0:	02012783          	lw	x15,32(x2)
    8ae4:	5207c063          	blt	x15,x0,9004 <__gdtoa+0x1a78>
    8ae8:	01412783          	lw	x15,20(x2)
    8aec:	02012423          	sw	x0,40(x2)
    8af0:	00032d03          	lw	x26,0(x6)
    8af4:	00432d83          	lw	x27,4(x6)
    8af8:	fa07d263          	bge	x15,x0,829c <__gdtoa+0xd10>
    8afc:	01c12783          	lw	x15,28(x2)
    8b00:	f8079e63          	bne	x15,x0,829c <__gdtoa+0xd10>
    8b04:	d09ff06f          	jal	x0,880c <__gdtoa+0x1280>
    8b08:	00c12583          	lw	x11,12(x2)
    8b0c:	00012503          	lw	x10,0(x2)
    8b10:	00100613          	addi	x12,x0,1
    8b14:	01e12a23          	sw	x30,20(x2)
    8b18:	00612823          	sw	x6,16(x2)
    8b1c:	625010ef          	jal	x1,a940 <__lshift>
    8b20:	00a12623          	sw	x10,12(x2)
    8b24:	ae050063          	beq	x10,x0,7e04 <__gdtoa+0x878>
    8b28:	01012303          	lw	x6,16(x2)
    8b2c:	00030593          	addi	x11,x6,0
    8b30:	7a1010ef          	jal	x1,aad0 <__mcmp>
    8b34:	01012303          	lw	x6,16(x2)
    8b38:	01412f03          	lw	x30,20(x2)
    8b3c:	dea040e3          	blt	x0,x10,891c <__gdtoa+0x1390>
    8b40:	00051663          	bne	x10,x0,8b4c <__gdtoa+0x15c0>
    8b44:	001cf793          	andi	x15,x25,1
    8b48:	dc079ae3          	bne	x15,x0,891c <__gdtoa+0x1390>
    8b4c:	00c12783          	lw	x15,12(x2)
    8b50:	01000c13          	addi	x24,x0,16
    8b54:	0107a683          	lw	x13,16(x15)
    8b58:	00100793          	addi	x15,x0,1
    8b5c:	b2d7cce3          	blt	x15,x13,8694 <__gdtoa+0x1108>
    8b60:	00c12783          	lw	x15,12(x2)
    8b64:	0147a783          	lw	x15,20(x15)
    8b68:	b25ff06f          	jal	x0,868c <__gdtoa+0x1100>
    8b6c:	03012783          	lw	x15,48(x2)
    8b70:	02000c13          	addi	x24,x0,32
    8b74:	00178793          	addi	x15,x15,1
    8b78:	02f12823          	sw	x15,48(x2)
    8b7c:	03100793          	addi	x15,x0,49
    8b80:	00ff0023          	sb	x15,0(x30)
    8b84:	981ff06f          	jal	x0,8504 <__gdtoa+0xf78>
    8b88:	02812783          	lw	x15,40(x2)
    8b8c:	00912623          	sw	x9,12(x2)
    8b90:	01012f03          	lw	x30,16(x2)
    8b94:	01412903          	lw	x18,20(x2)
    8b98:	000c0313          	addi	x6,x24,0
    8b9c:	02078263          	beq	x15,x0,8bc0 <__gdtoa+0x1634>
    8ba0:	00c12783          	lw	x15,12(x2)
    8ba4:	00100693          	addi	x13,x0,1
    8ba8:	0107a603          	lw	x12,16(x15)
    8bac:	00c6d463          	bge	x13,x12,8bb4 <__gdtoa+0x1628>
    8bb0:	8c8ff06f          	jal	x0,7c78 <__gdtoa+0x6ec>
    8bb4:	0147a683          	lw	x13,20(x15)
    8bb8:	00068463          	beq	x13,x0,8bc0 <__gdtoa+0x1634>
    8bbc:	8bcff06f          	jal	x0,7c78 <__gdtoa+0x6ec>
    8bc0:	00c12583          	lw	x11,12(x2)
    8bc4:	00012503          	lw	x10,0(x2)
    8bc8:	00100613          	addi	x12,x0,1
    8bcc:	01e12a23          	sw	x30,20(x2)
    8bd0:	00612823          	sw	x6,16(x2)
    8bd4:	56d010ef          	jal	x1,a940 <__lshift>
    8bd8:	00a12623          	sw	x10,12(x2)
    8bdc:	a2050463          	beq	x10,x0,7e04 <__gdtoa+0x878>
    8be0:	01012303          	lw	x6,16(x2)
    8be4:	00030593          	addi	x11,x6,0
    8be8:	6e9010ef          	jal	x1,aad0 <__mcmp>
    8bec:	01012303          	lw	x6,16(x2)
    8bf0:	01412f03          	lw	x30,20(x2)
    8bf4:	4ea05c63          	bge	x0,x10,90ec <__gdtoa+0x1b60>
    8bf8:	03900693          	addi	x13,x0,57
    8bfc:	d0dc82e3          	beq	x25,x13,8900 <__gdtoa+0x1374>
    8c00:	02000793          	addi	x15,x0,32
    8c04:	031b8c93          	addi	x25,x23,49
    8c08:	02f12423          	sw	x15,40(x2)
    8c0c:	8d1ff06f          	jal	x0,84dc <__gdtoa+0xf50>
    8c10:	000a8613          	addi	x12,x21,0
    8c14:	000c0693          	addi	x13,x24,0
    8c18:	01e12a23          	sw	x30,20(x2)
    8c1c:	400030ef          	jal	x1,c01c <__adddf3>
    8c20:	fffb4703          	lbu	x14,-1(x22)
    8c24:	000d0613          	addi	x12,x26,0
    8c28:	000d8693          	addi	x13,x27,0
    8c2c:	00e12823          	sw	x14,16(x2)
    8c30:	00050a93          	addi	x21,x10,0
    8c34:	00058a13          	addi	x20,x11,0
    8c38:	4c4040ef          	jal	x1,d0fc <__gedf2>
    8c3c:	01012703          	lw	x14,16(x2)
    8c40:	01412f03          	lw	x30,20(x2)
    8c44:	d8a04063          	blt	x0,x10,81c4 <__gdtoa+0xc38>
    8c48:	000a8513          	addi	x10,x21,0
    8c4c:	000a0593          	addi	x11,x20,0
    8c50:	000d0613          	addi	x12,x26,0
    8c54:	000d8693          	addi	x13,x27,0
    8c58:	418040ef          	jal	x1,d070 <__eqdf2>
    8c5c:	01412f03          	lw	x30,20(x2)
    8c60:	2e051863          	bne	x10,x0,8f50 <__gdtoa+0x19c4>
    8c64:	0019f993          	andi	x19,x19,1
    8c68:	2e098463          	beq	x19,x0,8f50 <__gdtoa+0x19c4>
    8c6c:	01012703          	lw	x14,16(x2)
    8c70:	d54ff06f          	jal	x0,81c4 <__gdtoa+0xc38>
    8c74:	03100693          	addi	x13,x0,49
    8c78:	00140413          	addi	x8,x8,1
    8c7c:	d6cff06f          	jal	x0,81e8 <__gdtoa+0xc5c>
    8c80:	000b0513          	addi	x10,x22,0
    8c84:	000a0593          	addi	x11,x20,0
    8c88:	06612623          	sw	x6,108(x2)
    8c8c:	07e12023          	sw	x30,96(x2)
    8c90:	674040ef          	jal	x1,d304 <__muldf3>
    8c94:	04812603          	lw	x12,72(x2)
    8c98:	04012683          	lw	x13,64(x2)
    8c9c:	06012f03          	lw	x30,96(x2)
    8ca0:	06c12303          	lw	x6,108(x2)
    8ca4:	00060a93          	addi	x21,x12,0
    8ca8:	04b12e23          	sw	x11,92(x2)
    8cac:	04c12023          	sw	x12,64(x2)
    8cb0:	00100593          	addi	x11,x0,1
    8cb4:	00000613          	addi	x12,x0,0
    8cb8:	07312223          	sw	x19,100(x2)
    8cbc:	07212423          	sw	x18,104(x2)
    8cc0:	04a12c23          	sw	x10,88(x2)
    8cc4:	05012903          	lw	x18,80(x2)
    8cc8:	06b12e23          	sw	x11,124(x2)
    8ccc:	04d12423          	sw	x13,72(x2)
    8cd0:	00068a13          	addi	x20,x13,0
    8cd4:	000f0b13          	addi	x22,x30,0
    8cd8:	0000a497          	auipc	x9,0xa
    8cdc:	db848493          	addi	x9,x9,-584 # 12a90 <__SDATA_BEGIN__+0x38>
    8ce0:	00060413          	addi	x8,x12,0
    8ce4:	04612823          	sw	x6,80(x2)
    8ce8:	000a8993          	addi	x19,x21,0
    8cec:	0200006f          	jal	x0,8d0c <__gdtoa+0x1780>
    8cf0:	0004a603          	lw	x12,0(x9)
    8cf4:	0044a683          	lw	x13,4(x9)
    8cf8:	06612e23          	sw	x6,124(x2)
    8cfc:	00100413          	addi	x8,x0,1
    8d00:	604040ef          	jal	x1,d304 <__muldf3>
    8d04:	00050993          	addi	x19,x10,0
    8d08:	00058a13          	addi	x20,x11,0
    8d0c:	00098513          	addi	x10,x19,0
    8d10:	000a0593          	addi	x11,x20,0
    8d14:	5d0050ef          	jal	x1,e2e4 <__fixdfsi>
    8d18:	00050a93          	addi	x21,x10,0
    8d1c:	02050463          	beq	x10,x0,8d44 <__gdtoa+0x17b8>
    8d20:	648050ef          	jal	x1,e368 <__floatsidf>
    8d24:	00050613          	addi	x12,x10,0
    8d28:	00058693          	addi	x13,x11,0
    8d2c:	00098513          	addi	x10,x19,0
    8d30:	000a0593          	addi	x11,x20,0
    8d34:	4a9040ef          	jal	x1,d9dc <__subdf3>
    8d38:	00050993          	addi	x19,x10,0
    8d3c:	00058a13          	addi	x20,x11,0
    8d40:	00100413          	addi	x8,x0,1
    8d44:	030a8793          	addi	x15,x21,48
    8d48:	0ff7f713          	andi	x14,x15,255
    8d4c:	00eb0023          	sb	x14,0(x22)
    8d50:	07c12783          	lw	x15,124(x2)
    8d54:	001b0b13          	addi	x22,x22,1
    8d58:	00098513          	addi	x10,x19,0
    8d5c:	000a0593          	addi	x11,x20,0
    8d60:	00178313          	addi	x6,x15,1
    8d64:	f92796e3          	bne	x15,x18,8cf0 <__gdtoa+0x1764>
    8d68:	06012f03          	lw	x30,96(x2)
    8d6c:	06812903          	lw	x18,104(x2)
    8d70:	05012303          	lw	x6,80(x2)
    8d74:	06412983          	lw	x19,100(x2)
    8d78:	00040663          	beq	x8,x0,8d84 <__gdtoa+0x17f8>
    8d7c:	04a12023          	sw	x10,64(x2)
    8d80:	05412423          	sw	x20,72(x2)
    8d84:	0000aa17          	auipc	x20,0xa
    8d88:	d2ca0a13          	addi	x20,x20,-724 # 12ab0 <__SDATA_BEGIN__+0x58>
    8d8c:	05c12a83          	lw	x21,92(x2)
    8d90:	000a2603          	lw	x12,0(x20)
    8d94:	004a2683          	lw	x13,4(x20)
    8d98:	05812503          	lw	x10,88(x2)
    8d9c:	000a8593          	addi	x11,x21,0
    8da0:	07e12023          	sw	x30,96(x2)
    8da4:	04e12823          	sw	x14,80(x2)
    8da8:	06612223          	sw	x6,100(x2)
    8dac:	270030ef          	jal	x1,c01c <__adddf3>
    8db0:	04012483          	lw	x9,64(x2)
    8db4:	04812403          	lw	x8,72(x2)
    8db8:	00048613          	addi	x12,x9,0
    8dbc:	00040693          	addi	x13,x8,0
    8dc0:	43c040ef          	jal	x1,d1fc <__ledf2>
    8dc4:	05012703          	lw	x14,80(x2)
    8dc8:	06012f03          	lw	x30,96(x2)
    8dcc:	22054663          	blt	x10,x0,8ff8 <__gdtoa+0x1a6c>
    8dd0:	05812603          	lw	x12,88(x2)
    8dd4:	000a2503          	lw	x10,0(x20)
    8dd8:	004a2583          	lw	x11,4(x20)
    8ddc:	000a8693          	addi	x13,x21,0
    8de0:	05e12823          	sw	x30,80(x2)
    8de4:	3f9040ef          	jal	x1,d9dc <__subdf3>
    8de8:	00048613          	addi	x12,x9,0
    8dec:	00040693          	addi	x13,x8,0
    8df0:	30c040ef          	jal	x1,d0fc <__gedf2>
    8df4:	05012f03          	lw	x30,80(x2)
    8df8:	06412303          	lw	x6,100(x2)
    8dfc:	2aa04663          	blt	x0,x10,90a8 <__gdtoa+0x1b1c>
    8e00:	02812783          	lw	x15,40(x2)
    8e04:	04f12423          	sw	x15,72(x2)
    8e08:	03812783          	lw	x15,56(x2)
    8e0c:	04f12023          	sw	x15,64(x2)
    8e10:	02012783          	lw	x15,32(x2)
    8e14:	cc07dae3          	bge	x15,x0,8ae8 <__gdtoa+0x155c>
    8e18:	02c12483          	lw	x9,44(x2)
    8e1c:	02412a83          	lw	x21,36(x2)
    8e20:	02012423          	sw	x0,40(x2)
    8e24:	00000a13          	addi	x20,x0,0
    8e28:	bddfe06f          	jal	x0,7a04 <__gdtoa+0x478>
    8e2c:	000a0413          	addi	x8,x20,0
    8e30:	01012f03          	lw	x30,16(x2)
    8e34:	01412903          	lw	x18,20(x2)
    8e38:	00912623          	sw	x9,12(x2)
    8e3c:	000c0313          	addi	x6,x24,0
    8e40:	000a8a13          	addi	x20,x21,0
    8e44:	821ff06f          	jal	x0,8664 <__gdtoa+0x10d8>
    8e48:	fffb4703          	lbu	x14,-1(x22)
    8e4c:	b78ff06f          	jal	x0,81c4 <__gdtoa+0xc38>
    8e50:	bc048ee3          	beq	x9,x0,8a2c <__gdtoa+0x14a0>
    8e54:	04c12483          	lw	x9,76(x2)
    8e58:	c69058e3          	bge	x0,x9,8ac8 <__gdtoa+0x153c>
    8e5c:	0000a697          	auipc	x13,0xa
    8e60:	c3468693          	addi	x13,x13,-972 # 12a90 <__SDATA_BEGIN__+0x38>
    8e64:	0006a603          	lw	x12,0(x13)
    8e68:	0046a683          	lw	x13,4(x13)
    8e6c:	000a0593          	addi	x11,x20,0
    8e70:	00040513          	addi	x10,x8,0
    8e74:	07e12023          	sw	x30,96(x2)
    8e78:	48c040ef          	jal	x1,d304 <__muldf3>
    8e7c:	0000a697          	auipc	x13,0xa
    8e80:	c1c68693          	addi	x13,x13,-996 # 12a98 <__SDATA_BEGIN__+0x40>
    8e84:	0006a603          	lw	x12,0(x13)
    8e88:	0046a683          	lw	x13,4(x13)
    8e8c:	04a12423          	sw	x10,72(x2)
    8e90:	04a12e23          	sw	x10,92(x2)
    8e94:	04b12023          	sw	x11,64(x2)
    8e98:	04b12c23          	sw	x11,88(x2)
    8e9c:	468040ef          	jal	x1,d304 <__muldf3>
    8ea0:	0000a697          	auipc	x13,0xa
    8ea4:	c0068693          	addi	x13,x13,-1024 # 12aa0 <__SDATA_BEGIN__+0x48>
    8ea8:	0006a603          	lw	x12,0(x13)
    8eac:	0046a683          	lw	x13,4(x13)
    8eb0:	16c030ef          	jal	x1,c01c <__adddf3>
    8eb4:	fcc00737          	lui	x14,0xfcc00
    8eb8:	fff00793          	addi	x15,x0,-1
    8ebc:	05812803          	lw	x16,88(x2)
    8ec0:	05c12e83          	lw	x29,92(x2)
    8ec4:	06012f03          	lw	x30,96(x2)
    8ec8:	00050b13          	addi	x22,x10,0
    8ecc:	00b70a33          	add	x20,x14,x11
    8ed0:	04912823          	sw	x9,80(x2)
    8ed4:	04f12a23          	sw	x15,84(x2)
    8ed8:	8f0ff06f          	jal	x0,7fc8 <__gdtoa+0xa3c>
    8edc:	02412703          	lw	x14,36(x2)
    8ee0:	06f12e23          	sw	x15,124(x2)
    8ee4:	00fb8bb3          	add	x23,x23,x15
    8ee8:	00f707b3          	add	x15,x14,x15
    8eec:	00070a93          	addi	x21,x14,0 # fcc00000 <__heap_end+0xfc800000>
    8ef0:	02f12223          	sw	x15,36(x2)
    8ef4:	af5fe06f          	jal	x0,79e8 <__gdtoa+0x45c>
    8ef8:	00200493          	addi	x9,x0,2
    8efc:	00000593          	addi	x11,x0,0
    8f00:	00000a13          	addi	x20,x0,0
    8f04:	82dff06f          	jal	x0,8730 <__gdtoa+0x11a4>
    8f08:	00912623          	sw	x9,12(x2)
    8f0c:	03900693          	addi	x13,x0,57
    8f10:	01012f03          	lw	x30,16(x2)
    8f14:	01412903          	lw	x18,20(x2)
    8f18:	000c0313          	addi	x6,x24,0
    8f1c:	9edc82e3          	beq	x25,x13,8900 <__gdtoa+0x1374>
    8f20:	001c8793          	addi	x15,x25,1
    8f24:	000a0413          	addi	x8,x20,0
    8f28:	001d8b13          	addi	x22,x27,1
    8f2c:	00fd8023          	sb	x15,0(x27)
    8f30:	000a8a13          	addi	x20,x21,0
    8f34:	02000c13          	addi	x24,x0,32
    8f38:	dccff06f          	jal	x0,8504 <__gdtoa+0xf78>
    8f3c:	03012783          	lw	x15,48(x2)
    8f40:	00000593          	addi	x11,x0,0
    8f44:	00000a13          	addi	x20,x0,0
    8f48:	00278493          	addi	x9,x15,2
    8f4c:	fe4ff06f          	jal	x0,8730 <__gdtoa+0x11a4>
    8f50:	000b0793          	addi	x15,x22,0
    8f54:	01000c13          	addi	x24,x0,16
    8f58:	03000613          	addi	x12,x0,48
    8f5c:	fff7c703          	lbu	x14,-1(x15)
    8f60:	00078b13          	addi	x22,x15,0
    8f64:	fff78793          	addi	x15,x15,-1
    8f68:	fec70ae3          	beq	x14,x12,8f5c <__gdtoa+0x19d0>
    8f6c:	00040493          	addi	x9,x8,0
    8f70:	c7cff06f          	jal	x0,83ec <__gdtoa+0xe60>
    8f74:	00012503          	lw	x10,0(x2)
    8f78:	000a0593          	addi	x11,x20,0
    8f7c:	00000693          	addi	x13,x0,0
    8f80:	00a00613          	addi	x12,x0,10
    8f84:	1ac010ef          	jal	x1,a130 <__multadd>
    8f88:	00050a13          	addi	x20,x10,0
    8f8c:	00051463          	bne	x10,x0,8f94 <__gdtoa+0x1a08>
    8f90:	e75fe06f          	jal	x0,7e04 <__gdtoa+0x878>
    8f94:	04c12783          	lw	x15,76(x2)
    8f98:	01012303          	lw	x6,16(x2)
    8f9c:	01c12f03          	lw	x30,28(x2)
    8fa0:	00f05663          	bge	x0,x15,8fac <__gdtoa+0x1a20>
    8fa4:	00f12e23          	sw	x15,28(x2)
    8fa8:	b2dfe06f          	jal	x0,7ad4 <__gdtoa+0x548>
    8fac:	00200793          	addi	x15,x0,2
    8fb0:	15a7ca63          	blt	x15,x26,9104 <__gdtoa+0x1b78>
    8fb4:	04c12783          	lw	x15,76(x2)
    8fb8:	00f12e23          	sw	x15,28(x2)
    8fbc:	b19fe06f          	jal	x0,7ad4 <__gdtoa+0x548>
    8fc0:	04812f03          	lw	x30,72(x2)
    8fc4:	05012903          	lw	x18,80(x2)
    8fc8:	00048513          	addi	x10,x9,0
    8fcc:	000a0593          	addi	x11,x20,0
    8fd0:	00000613          	addi	x12,x0,0
    8fd4:	00000693          	addi	x13,x0,0
    8fd8:	01e12823          	sw	x30,16(x2)
    8fdc:	094040ef          	jal	x1,d070 <__eqdf2>
    8fe0:	00a037b3          	sltu	x15,x0,x10
    8fe4:	00479c13          	slli	x24,x15,0x4
    8fe8:	05412783          	lw	x15,84(x2)
    8fec:	01012f03          	lw	x30,16(x2)
    8ff0:	00178493          	addi	x9,x15,1
    8ff4:	bf8ff06f          	jal	x0,83ec <__gdtoa+0xe60>
    8ff8:	05412783          	lw	x15,84(x2)
    8ffc:	00178413          	addi	x8,x15,1
    9000:	9c4ff06f          	jal	x0,81c4 <__gdtoa+0xc38>
    9004:	02012423          	sw	x0,40(x2)
    9008:	971fe06f          	jal	x0,7978 <__gdtoa+0x3ec>
    900c:	01c12783          	lw	x15,28(x2)
    9010:	02c12703          	lw	x14,44(x2)
    9014:	fff78693          	addi	x13,x15,-1
    9018:	84d746e3          	blt	x14,x13,8864 <__gdtoa+0x12d8>
    901c:	02412603          	lw	x12,36(x2)
    9020:	00fb8bb3          	add	x23,x23,x15
    9024:	06f12e23          	sw	x15,124(x2)
    9028:	00f607b3          	add	x15,x12,x15
    902c:	00060a93          	addi	x21,x12,0
    9030:	40d704b3          	sub	x9,x14,x13
    9034:	02f12223          	sw	x15,36(x2)
    9038:	9b1fe06f          	jal	x0,79e8 <__gdtoa+0x45c>
    903c:	02812783          	lw	x15,40(x2)
    9040:	04812f03          	lw	x30,72(x2)
    9044:	06012b83          	lw	x23,96(x2)
    9048:	04f12423          	sw	x15,72(x2)
    904c:	03812783          	lw	x15,56(x2)
    9050:	06412a83          	lw	x21,100(x2)
    9054:	05012903          	lw	x18,80(x2)
    9058:	04f12023          	sw	x15,64(x2)
    905c:	02012783          	lw	x15,32(x2)
    9060:	06812303          	lw	x6,104(x2)
    9064:	a807d2e3          	bge	x15,x0,8ae8 <__gdtoa+0x155c>
    9068:	02012423          	sw	x0,40(x2)
    906c:	915fe06f          	jal	x0,7980 <__gdtoa+0x3f4>
    9070:	00912623          	sw	x9,12(x2)
    9074:	03900693          	addi	x13,x0,57
    9078:	01012f03          	lw	x30,16(x2)
    907c:	01412903          	lw	x18,20(x2)
    9080:	000c0313          	addi	x6,x24,0
    9084:	86dc8ee3          	beq	x25,x13,8900 <__gdtoa+0x1374>
    9088:	0f605663          	bge	x0,x22,9174 <__gdtoa+0x1be8>
    908c:	031b8c93          	addi	x25,x23,49
    9090:	02000c13          	addi	x24,x0,32
    9094:	000a0413          	addi	x8,x20,0
    9098:	001d8b13          	addi	x22,x27,1
    909c:	019d8023          	sb	x25,0(x27)
    90a0:	000a8a13          	addi	x20,x21,0
    90a4:	c60ff06f          	jal	x0,8504 <__gdtoa+0xf78>
    90a8:	00040593          	addi	x11,x8,0
    90ac:	00048513          	addi	x10,x9,0
    90b0:	00000613          	addi	x12,x0,0
    90b4:	00000693          	addi	x13,x0,0
    90b8:	01e12823          	sw	x30,16(x2)
    90bc:	7b5030ef          	jal	x1,d070 <__eqdf2>
    90c0:	05412703          	lw	x14,84(x2)
    90c4:	00a037b3          	sltu	x15,x0,x10
    90c8:	00479c13          	slli	x24,x15,0x4
    90cc:	01012f03          	lw	x30,16(x2)
    90d0:	000b0793          	addi	x15,x22,0
    90d4:	00170413          	addi	x8,x14,1
    90d8:	e81ff06f          	jal	x0,8f58 <__gdtoa+0x19cc>
    90dc:	0147a683          	lw	x13,20(x15)
    90e0:	c0069a63          	bne	x13,x0,84f4 <__gdtoa+0xf68>
    90e4:	02812c03          	lw	x24,40(x2)
    90e8:	c0cff06f          	jal	x0,84f4 <__gdtoa+0xf68>
    90ec:	00051663          	bne	x10,x0,90f8 <__gdtoa+0x1b6c>
    90f0:	001cf693          	andi	x13,x25,1
    90f4:	b00692e3          	bne	x13,x0,8bf8 <__gdtoa+0x166c>
    90f8:	02000793          	addi	x15,x0,32
    90fc:	02f12423          	sw	x15,40(x2)
    9100:	bdcff06f          	jal	x0,84dc <__gdtoa+0xf50>
    9104:	04c12783          	lw	x15,76(x2)
    9108:	00f12e23          	sw	x15,28(x2)
    910c:	dd4ff06f          	jal	x0,86e0 <__gdtoa+0x1154>
    9110:	00912623          	sw	x9,12(x2)
    9114:	03900693          	addi	x13,x0,57
    9118:	000b0313          	addi	x6,x22,0
    911c:	000c0f13          	addi	x30,x24,0
    9120:	00dc8e63          	beq	x25,x13,913c <__gdtoa+0x1bb0>
    9124:	001c8c93          	addi	x25,x25,1
    9128:	02000c13          	addi	x24,x0,32
    912c:	bc8ff06f          	jal	x0,84f4 <__gdtoa+0xf68>
    9130:	01000c13          	addi	x24,x0,16
    9134:	001d8993          	addi	x19,x27,1
    9138:	bbcff06f          	jal	x0,84f4 <__gdtoa+0xf68>
    913c:	000a0413          	addi	x8,x20,0
    9140:	000d8793          	addi	x15,x27,0
    9144:	000a8a13          	addi	x20,x21,0
    9148:	fc8ff06f          	jal	x0,8910 <__gdtoa+0x1384>
    914c:	0104a603          	lw	x12,16(x9)
    9150:	00100693          	addi	x13,x0,1
    9154:	00048793          	addi	x15,x9,0
    9158:	00c6d463          	bge	x13,x12,9160 <__gdtoa+0x1bd4>
    915c:	b1dfe06f          	jal	x0,7c78 <__gdtoa+0x6ec>
    9160:	0147a683          	lw	x13,20(x15)
    9164:	00068463          	beq	x13,x0,916c <__gdtoa+0x1be0>
    9168:	b11fe06f          	jal	x0,7c78 <__gdtoa+0x6ec>
    916c:	001d8993          	addi	x19,x27,1
    9170:	b84ff06f          	jal	x0,84f4 <__gdtoa+0xf68>
    9174:	00c12783          	lw	x15,12(x2)
    9178:	00100693          	addi	x13,x0,1
    917c:	01000c13          	addi	x24,x0,16
    9180:	0107a603          	lw	x12,16(x15)
    9184:	f0c6c8e3          	blt	x13,x12,9094 <__gdtoa+0x1b08>
    9188:	0147a683          	lw	x13,20(x15)
    918c:	00d036b3          	sltu	x13,x0,x13
    9190:	00469c13          	slli	x24,x13,0x4
    9194:	f01ff06f          	jal	x0,9094 <__gdtoa+0x1b08>
    9198:	020b4263          	blt	x22,x0,91bc <__gdtoa+0x1c30>
    919c:	016d6b33          	or	x22,x26,x22
    91a0:	000b1863          	bne	x22,x0,91b0 <__gdtoa+0x1c24>
    91a4:	0009a783          	lw	x15,0(x19)
    91a8:	0017f793          	andi	x15,x15,1
    91ac:	00078863          	beq	x15,x0,91bc <__gdtoa+0x1c30>
    91b0:	00d04463          	blt	x0,x13,91b8 <__gdtoa+0x1c2c>
    91b4:	991fe06f          	jal	x0,7b44 <__gdtoa+0x5b8>
    91b8:	981fe06f          	jal	x0,7b38 <__gdtoa+0x5ac>
    91bc:	02812703          	lw	x14,40(x2)
    91c0:	00912623          	sw	x9,12(x2)
    91c4:	01012f03          	lw	x30,16(x2)
    91c8:	01412903          	lw	x18,20(x2)
    91cc:	000c0313          	addi	x6,x24,0
    91d0:	02070863          	beq	x14,x0,9200 <__gdtoa+0x1c74>
    91d4:	0104a583          	lw	x11,16(x9)
    91d8:	00100613          	addi	x12,x0,1
    91dc:	00b65463          	bge	x12,x11,91e4 <__gdtoa+0x1c58>
    91e0:	a99fe06f          	jal	x0,7c78 <__gdtoa+0x6ec>
    91e4:	0144a603          	lw	x12,20(x9)
    91e8:	00060463          	beq	x12,x0,91f0 <__gdtoa+0x1c64>
    91ec:	a8dfe06f          	jal	x0,7c78 <__gdtoa+0x6ec>
    91f0:	9cd048e3          	blt	x0,x13,8bc0 <__gdtoa+0x1634>
    91f4:	00000c13          	addi	x24,x0,0
    91f8:	001d8993          	addi	x19,x27,1
    91fc:	af8ff06f          	jal	x0,84f4 <__gdtoa+0xf68>
    9200:	acd05e63          	bge	x0,x13,84dc <__gdtoa+0xf50>
    9204:	9bdff06f          	jal	x0,8bc0 <__gdtoa+0x1634>

00009208 <__call_exitprocs>:
    9208:	fd010113          	addi	x2,x2,-48
    920c:	01412c23          	sw	x20,24(x2)
    9210:	f2c18a13          	addi	x20,x3,-212 # 12adc <__atexit>
    9214:	03212023          	sw	x18,32(x2)
    9218:	000a2903          	lw	x18,0(x20)
    921c:	02112623          	sw	x1,44(x2)
    9220:	0a090863          	beq	x18,x0,92d0 <__call_exitprocs+0xc8>
    9224:	01312e23          	sw	x19,28(x2)
    9228:	01512a23          	sw	x21,20(x2)
    922c:	01612823          	sw	x22,16(x2)
    9230:	01712623          	sw	x23,12(x2)
    9234:	02812423          	sw	x8,40(x2)
    9238:	02912223          	sw	x9,36(x2)
    923c:	01812423          	sw	x24,8(x2)
    9240:	00050b13          	addi	x22,x10,0
    9244:	00058b93          	addi	x23,x11,0
    9248:	fff00993          	addi	x19,x0,-1
    924c:	00100a93          	addi	x21,x0,1
    9250:	00492483          	lw	x9,4(x18)
    9254:	fff48413          	addi	x8,x9,-1
    9258:	04044e63          	blt	x8,x0,92b4 <__call_exitprocs+0xac>
    925c:	00249493          	slli	x9,x9,0x2
    9260:	009904b3          	add	x9,x18,x9
    9264:	080b9063          	bne	x23,x0,92e4 <__call_exitprocs+0xdc>
    9268:	00492783          	lw	x15,4(x18)
    926c:	0044a683          	lw	x13,4(x9)
    9270:	fff78793          	addi	x15,x15,-1
    9274:	0a878c63          	beq	x15,x8,932c <__call_exitprocs+0x124>
    9278:	0004a223          	sw	x0,4(x9)
    927c:	02068663          	beq	x13,x0,92a8 <__call_exitprocs+0xa0>
    9280:	18892783          	lw	x15,392(x18)
    9284:	008a9733          	sll	x14,x21,x8
    9288:	00492c03          	lw	x24,4(x18)
    928c:	00f777b3          	and	x15,x14,x15
    9290:	06079663          	bne	x15,x0,92fc <__call_exitprocs+0xf4>
    9294:	000680e7          	jalr	x1,0(x13)
    9298:	00492703          	lw	x14,4(x18)
    929c:	000a2783          	lw	x15,0(x20)
    92a0:	09871063          	bne	x14,x24,9320 <__call_exitprocs+0x118>
    92a4:	07279e63          	bne	x15,x18,9320 <__call_exitprocs+0x118>
    92a8:	fff40413          	addi	x8,x8,-1
    92ac:	ffc48493          	addi	x9,x9,-4
    92b0:	fb341ae3          	bne	x8,x19,9264 <__call_exitprocs+0x5c>
    92b4:	02812403          	lw	x8,40(x2)
    92b8:	02412483          	lw	x9,36(x2)
    92bc:	01c12983          	lw	x19,28(x2)
    92c0:	01412a83          	lw	x21,20(x2)
    92c4:	01012b03          	lw	x22,16(x2)
    92c8:	00c12b83          	lw	x23,12(x2)
    92cc:	00812c03          	lw	x24,8(x2)
    92d0:	02c12083          	lw	x1,44(x2)
    92d4:	02012903          	lw	x18,32(x2)
    92d8:	01812a03          	lw	x20,24(x2)
    92dc:	03010113          	addi	x2,x2,48
    92e0:	00008067          	jalr	x0,0(x1)
    92e4:	1044a783          	lw	x15,260(x9)
    92e8:	f97780e3          	beq	x15,x23,9268 <__call_exitprocs+0x60>
    92ec:	fff40413          	addi	x8,x8,-1
    92f0:	ffc48493          	addi	x9,x9,-4
    92f4:	ff3418e3          	bne	x8,x19,92e4 <__call_exitprocs+0xdc>
    92f8:	fbdff06f          	jal	x0,92b4 <__call_exitprocs+0xac>
    92fc:	18c92783          	lw	x15,396(x18)
    9300:	0844a583          	lw	x11,132(x9)
    9304:	00f77733          	and	x14,x14,x15
    9308:	02071663          	bne	x14,x0,9334 <__call_exitprocs+0x12c>
    930c:	000b0513          	addi	x10,x22,0
    9310:	000680e7          	jalr	x1,0(x13)
    9314:	00492703          	lw	x14,4(x18)
    9318:	000a2783          	lw	x15,0(x20)
    931c:	f98704e3          	beq	x14,x24,92a4 <__call_exitprocs+0x9c>
    9320:	f8078ae3          	beq	x15,x0,92b4 <__call_exitprocs+0xac>
    9324:	00078913          	addi	x18,x15,0
    9328:	f29ff06f          	jal	x0,9250 <__call_exitprocs+0x48>
    932c:	00892223          	sw	x8,4(x18)
    9330:	f4dff06f          	jal	x0,927c <__call_exitprocs+0x74>
    9334:	00058513          	addi	x10,x11,0
    9338:	000680e7          	jalr	x1,0(x13)
    933c:	f5dff06f          	jal	x0,9298 <__call_exitprocs+0x90>

00009340 <_write_r>:
    9340:	ff010113          	addi	x2,x2,-16
    9344:	00058713          	addi	x14,x11,0
    9348:	00812423          	sw	x8,8(x2)
    934c:	00060593          	addi	x11,x12,0
    9350:	00050413          	addi	x8,x10,0
    9354:	00068613          	addi	x12,x13,0
    9358:	00070513          	addi	x10,x14,0
    935c:	f001ac23          	sw	x0,-232(x3) # 12ac8 <errno>
    9360:	00112623          	sw	x1,12(x2)
    9364:	87ef70ef          	jal	x1,3e2 <_write>
    9368:	fff00793          	addi	x15,x0,-1
    936c:	00f50a63          	beq	x10,x15,9380 <_write_r+0x40>
    9370:	00c12083          	lw	x1,12(x2)
    9374:	00812403          	lw	x8,8(x2)
    9378:	01010113          	addi	x2,x2,16
    937c:	00008067          	jalr	x0,0(x1)
    9380:	f181a783          	lw	x15,-232(x3) # 12ac8 <errno>
    9384:	fe0786e3          	beq	x15,x0,9370 <_write_r+0x30>
    9388:	00c12083          	lw	x1,12(x2)
    938c:	00f42023          	sw	x15,0(x8)
    9390:	00812403          	lw	x8,8(x2)
    9394:	01010113          	addi	x2,x2,16
    9398:	00008067          	jalr	x0,0(x1)

0000939c <__register_exitproc>:
    939c:	f2c18713          	addi	x14,x3,-212 # 12adc <__atexit>
    93a0:	00072783          	lw	x15,0(x14)
    93a4:	04078c63          	beq	x15,x0,93fc <__register_exitproc+0x60>
    93a8:	0047a703          	lw	x14,4(x15)
    93ac:	01f00813          	addi	x16,x0,31
    93b0:	06e84e63          	blt	x16,x14,942c <__register_exitproc+0x90>
    93b4:	00271813          	slli	x16,x14,0x2
    93b8:	02050663          	beq	x10,x0,93e4 <__register_exitproc+0x48>
    93bc:	01078333          	add	x6,x15,x16
    93c0:	08c32423          	sw	x12,136(x6)
    93c4:	1887a883          	lw	x17,392(x15)
    93c8:	00100613          	addi	x12,x0,1
    93cc:	00e61633          	sll	x12,x12,x14
    93d0:	00c8e8b3          	or	x17,x17,x12
    93d4:	1917a423          	sw	x17,392(x15)
    93d8:	10d32423          	sw	x13,264(x6)
    93dc:	00200693          	addi	x13,x0,2
    93e0:	02d50463          	beq	x10,x13,9408 <__register_exitproc+0x6c>
    93e4:	00170713          	addi	x14,x14,1
    93e8:	00e7a223          	sw	x14,4(x15)
    93ec:	010787b3          	add	x15,x15,x16
    93f0:	00b7a423          	sw	x11,8(x15)
    93f4:	00000513          	addi	x10,x0,0
    93f8:	00008067          	jalr	x0,0(x1)
    93fc:	09418793          	addi	x15,x3,148 # 12c44 <__atexit0>
    9400:	00f72023          	sw	x15,0(x14)
    9404:	fa5ff06f          	jal	x0,93a8 <__register_exitproc+0xc>
    9408:	18c7a683          	lw	x13,396(x15)
    940c:	00170713          	addi	x14,x14,1
    9410:	00e7a223          	sw	x14,4(x15)
    9414:	00c6e6b3          	or	x13,x13,x12
    9418:	18d7a623          	sw	x13,396(x15)
    941c:	010787b3          	add	x15,x15,x16
    9420:	00b7a423          	sw	x11,8(x15)
    9424:	00000513          	addi	x10,x0,0
    9428:	00008067          	jalr	x0,0(x1)
    942c:	fff00513          	addi	x10,x0,-1
    9430:	00008067          	jalr	x0,0(x1)

00009434 <_close_r>:
    9434:	ff010113          	addi	x2,x2,-16
    9438:	00812423          	sw	x8,8(x2)
    943c:	00050413          	addi	x8,x10,0
    9440:	00058513          	addi	x10,x11,0
    9444:	f001ac23          	sw	x0,-232(x3) # 12ac8 <errno>
    9448:	00112623          	sw	x1,12(x2)
    944c:	ebbf60ef          	jal	x1,306 <_close>
    9450:	fff00793          	addi	x15,x0,-1
    9454:	00f50a63          	beq	x10,x15,9468 <_close_r+0x34>
    9458:	00c12083          	lw	x1,12(x2)
    945c:	00812403          	lw	x8,8(x2)
    9460:	01010113          	addi	x2,x2,16
    9464:	00008067          	jalr	x0,0(x1)
    9468:	f181a783          	lw	x15,-232(x3) # 12ac8 <errno>
    946c:	fe0786e3          	beq	x15,x0,9458 <_close_r+0x24>
    9470:	00c12083          	lw	x1,12(x2)
    9474:	00f42023          	sw	x15,0(x8)
    9478:	00812403          	lw	x8,8(x2)
    947c:	01010113          	addi	x2,x2,16
    9480:	00008067          	jalr	x0,0(x1)

00009484 <__swbuf_r>:
    9484:	fe010113          	addi	x2,x2,-32
    9488:	00812c23          	sw	x8,24(x2)
    948c:	00912a23          	sw	x9,20(x2)
    9490:	01212823          	sw	x18,16(x2)
    9494:	00112e23          	sw	x1,28(x2)
    9498:	00050913          	addi	x18,x10,0
    949c:	00058493          	addi	x9,x11,0
    94a0:	00060413          	addi	x8,x12,0
    94a4:	00050663          	beq	x10,x0,94b0 <__swbuf_r+0x2c>
    94a8:	03452783          	lw	x15,52(x10)
    94ac:	16078063          	beq	x15,x0,960c <__swbuf_r+0x188>
    94b0:	01842783          	lw	x15,24(x8)
    94b4:	00c41703          	lh	x14,12(x8)
    94b8:	00f42423          	sw	x15,8(x8)
    94bc:	00877793          	andi	x15,x14,8
    94c0:	08078063          	beq	x15,x0,9540 <__swbuf_r+0xbc>
    94c4:	01042783          	lw	x15,16(x8)
    94c8:	06078c63          	beq	x15,x0,9540 <__swbuf_r+0xbc>
    94cc:	01312623          	sw	x19,12(x2)
    94d0:	01271693          	slli	x13,x14,0x12
    94d4:	0ff4f993          	andi	x19,x9,255
    94d8:	0ff4f493          	andi	x9,x9,255
    94dc:	0806d863          	bge	x13,x0,956c <__swbuf_r+0xe8>
    94e0:	00042703          	lw	x14,0(x8)
    94e4:	01442683          	lw	x13,20(x8)
    94e8:	40f707b3          	sub	x15,x14,x15
    94ec:	0ad7d863          	bge	x15,x13,959c <__swbuf_r+0x118>
    94f0:	00842683          	lw	x13,8(x8)
    94f4:	00170613          	addi	x12,x14,1
    94f8:	00c42023          	sw	x12,0(x8)
    94fc:	fff68693          	addi	x13,x13,-1
    9500:	00d42423          	sw	x13,8(x8)
    9504:	01370023          	sb	x19,0(x14)
    9508:	01442703          	lw	x14,20(x8)
    950c:	00178793          	addi	x15,x15,1
    9510:	0cf70263          	beq	x14,x15,95d4 <__swbuf_r+0x150>
    9514:	00c45783          	lhu	x15,12(x8)
    9518:	0017f793          	andi	x15,x15,1
    951c:	0c079a63          	bne	x15,x0,95f0 <__swbuf_r+0x16c>
    9520:	00c12983          	lw	x19,12(x2)
    9524:	01c12083          	lw	x1,28(x2)
    9528:	01812403          	lw	x8,24(x2)
    952c:	01012903          	lw	x18,16(x2)
    9530:	00048513          	addi	x10,x9,0
    9534:	01412483          	lw	x9,20(x2)
    9538:	02010113          	addi	x2,x2,32
    953c:	00008067          	jalr	x0,0(x1)
    9540:	00040593          	addi	x11,x8,0
    9544:	00090513          	addi	x10,x18,0
    9548:	c50f90ef          	jal	x1,2998 <__swsetup_r>
    954c:	08051e63          	bne	x10,x0,95e8 <__swbuf_r+0x164>
    9550:	00c41703          	lh	x14,12(x8)
    9554:	01312623          	sw	x19,12(x2)
    9558:	01042783          	lw	x15,16(x8)
    955c:	01271693          	slli	x13,x14,0x12
    9560:	0ff4f993          	andi	x19,x9,255
    9564:	0ff4f493          	andi	x9,x9,255
    9568:	f606cce3          	blt	x13,x0,94e0 <__swbuf_r+0x5c>
    956c:	06442683          	lw	x13,100(x8)
    9570:	ffffe637          	lui	x12,0xffffe
    9574:	000025b7          	lui	x11,0x2
    9578:	00b76733          	or	x14,x14,x11
    957c:	fff60613          	addi	x12,x12,-1 # ffffdfff <__heap_end+0xffbfdfff>
    9580:	00c6f6b3          	and	x13,x13,x12
    9584:	00e41623          	sh	x14,12(x8)
    9588:	00042703          	lw	x14,0(x8)
    958c:	06d42223          	sw	x13,100(x8)
    9590:	01442683          	lw	x13,20(x8)
    9594:	40f707b3          	sub	x15,x14,x15
    9598:	f4d7cce3          	blt	x15,x13,94f0 <__swbuf_r+0x6c>
    959c:	00040593          	addi	x11,x8,0
    95a0:	00090513          	addi	x10,x18,0
    95a4:	a38f90ef          	jal	x1,27dc <_fflush_r>
    95a8:	02051e63          	bne	x10,x0,95e4 <__swbuf_r+0x160>
    95ac:	00042703          	lw	x14,0(x8)
    95b0:	00842683          	lw	x13,8(x8)
    95b4:	00100793          	addi	x15,x0,1
    95b8:	00170613          	addi	x12,x14,1
    95bc:	fff68693          	addi	x13,x13,-1
    95c0:	00c42023          	sw	x12,0(x8)
    95c4:	00d42423          	sw	x13,8(x8)
    95c8:	01370023          	sb	x19,0(x14)
    95cc:	01442703          	lw	x14,20(x8)
    95d0:	f4f712e3          	bne	x14,x15,9514 <__swbuf_r+0x90>
    95d4:	00040593          	addi	x11,x8,0
    95d8:	00090513          	addi	x10,x18,0
    95dc:	a00f90ef          	jal	x1,27dc <_fflush_r>
    95e0:	f40500e3          	beq	x10,x0,9520 <__swbuf_r+0x9c>
    95e4:	00c12983          	lw	x19,12(x2)
    95e8:	fff00493          	addi	x9,x0,-1
    95ec:	f39ff06f          	jal	x0,9524 <__swbuf_r+0xa0>
    95f0:	00a00793          	addi	x15,x0,10
    95f4:	f2f496e3          	bne	x9,x15,9520 <__swbuf_r+0x9c>
    95f8:	00040593          	addi	x11,x8,0
    95fc:	00090513          	addi	x10,x18,0
    9600:	9dcf90ef          	jal	x1,27dc <_fflush_r>
    9604:	f0050ee3          	beq	x10,x0,9520 <__swbuf_r+0x9c>
    9608:	fddff06f          	jal	x0,95e4 <__swbuf_r+0x160>
    960c:	c3cf70ef          	jal	x1,a48 <__sinit>
    9610:	ea1ff06f          	jal	x0,94b0 <__swbuf_r+0x2c>

00009614 <__swbuf>:
    9614:	00058613          	addi	x12,x11,0 # 2000 <_fwalk_sglue+0x94>
    9618:	00050593          	addi	x11,x10,0
    961c:	f141a503          	lw	x10,-236(x3) # 12ac4 <_impure_ptr>
    9620:	e65ff06f          	jal	x0,9484 <__swbuf_r>

00009624 <strncpy>:
    9624:	00a5e7b3          	or	x15,x11,x10
    9628:	0037f793          	andi	x15,x15,3
    962c:	00079663          	bne	x15,x0,9638 <strncpy+0x14>
    9630:	00300793          	addi	x15,x0,3
    9634:	04c7e663          	bltu	x15,x12,9680 <strncpy+0x5c>
    9638:	00050713          	addi	x14,x10,0
    963c:	01c0006f          	jal	x0,9658 <strncpy+0x34>
    9640:	fff5c683          	lbu	x13,-1(x11)
    9644:	fff60813          	addi	x16,x12,-1
    9648:	fed78fa3          	sb	x13,-1(x15)
    964c:	00068e63          	beq	x13,x0,9668 <strncpy+0x44>
    9650:	00078713          	addi	x14,x15,0
    9654:	00080613          	addi	x12,x16,0
    9658:	00158593          	addi	x11,x11,1
    965c:	00170793          	addi	x15,x14,1
    9660:	fe0610e3          	bne	x12,x0,9640 <strncpy+0x1c>
    9664:	00008067          	jalr	x0,0(x1)
    9668:	00c70733          	add	x14,x14,x12
    966c:	06080063          	beq	x16,x0,96cc <strncpy+0xa8>
    9670:	00178793          	addi	x15,x15,1
    9674:	fe078fa3          	sb	x0,-1(x15)
    9678:	fee79ce3          	bne	x15,x14,9670 <strncpy+0x4c>
    967c:	00008067          	jalr	x0,0(x1)
    9680:	feff0337          	lui	x6,0xfeff0
    9684:	808088b7          	lui	x17,0x80808
    9688:	00050713          	addi	x14,x10,0
    968c:	eff30313          	addi	x6,x6,-257 # fefefeff <__heap_end+0xfebefeff>
    9690:	08088893          	addi	x17,x17,128 # 80808080 <__heap_end+0x80408080>
    9694:	00300e13          	addi	x28,x0,3
    9698:	0180006f          	jal	x0,96b0 <strncpy+0x8c>
    969c:	00d72023          	sw	x13,0(x14)
    96a0:	ffc60613          	addi	x12,x12,-4
    96a4:	00470713          	addi	x14,x14,4
    96a8:	00458593          	addi	x11,x11,4
    96ac:	face76e3          	bgeu	x28,x12,9658 <strncpy+0x34>
    96b0:	0005a683          	lw	x13,0(x11)
    96b4:	006687b3          	add	x15,x13,x6
    96b8:	fff6c813          	xori	x16,x13,-1
    96bc:	0107f7b3          	and	x15,x15,x16
    96c0:	0117f7b3          	and	x15,x15,x17
    96c4:	fc078ce3          	beq	x15,x0,969c <strncpy+0x78>
    96c8:	f91ff06f          	jal	x0,9658 <strncpy+0x34>
    96cc:	00008067          	jalr	x0,0(x1)

000096d0 <__smakebuf_r>:
    96d0:	00c59783          	lh	x15,12(x11)
    96d4:	f8010113          	addi	x2,x2,-128
    96d8:	06812c23          	sw	x8,120(x2)
    96dc:	06112e23          	sw	x1,124(x2)
    96e0:	0027f713          	andi	x14,x15,2
    96e4:	00058413          	addi	x8,x11,0
    96e8:	02070463          	beq	x14,x0,9710 <__smakebuf_r+0x40>
    96ec:	04358793          	addi	x15,x11,67
    96f0:	00f5a023          	sw	x15,0(x11)
    96f4:	00f5a823          	sw	x15,16(x11)
    96f8:	00100793          	addi	x15,x0,1
    96fc:	00f5aa23          	sw	x15,20(x11)
    9700:	07c12083          	lw	x1,124(x2)
    9704:	07812403          	lw	x8,120(x2)
    9708:	08010113          	addi	x2,x2,128
    970c:	00008067          	jalr	x0,0(x1)
    9710:	00e59583          	lh	x11,14(x11)
    9714:	06912a23          	sw	x9,116(x2)
    9718:	07212823          	sw	x18,112(x2)
    971c:	07312623          	sw	x19,108(x2)
    9720:	07412423          	sw	x20,104(x2)
    9724:	00050493          	addi	x9,x10,0
    9728:	0805c663          	blt	x11,x0,97b4 <__smakebuf_r+0xe4>
    972c:	00810613          	addi	x12,x2,8
    9730:	77d010ef          	jal	x1,b6ac <_fstat_r>
    9734:	06054e63          	blt	x10,x0,97b0 <__smakebuf_r+0xe0>
    9738:	00c12783          	lw	x15,12(x2)
    973c:	0000f937          	lui	x18,0xf
    9740:	000019b7          	lui	x19,0x1
    9744:	00f97933          	and	x18,x18,x15
    9748:	ffffe7b7          	lui	x15,0xffffe
    974c:	00f90933          	add	x18,x18,x15
    9750:	00193913          	sltiu	x18,x18,1
    9754:	40000a13          	addi	x20,x0,1024
    9758:	80098993          	addi	x19,x19,-2048 # 800 <global_stdio_init.part.0+0x34>
    975c:	000a0593          	addi	x11,x20,0
    9760:	00048513          	addi	x10,x9,0
    9764:	965f70ef          	jal	x1,10c8 <_malloc_r>
    9768:	00c41783          	lh	x15,12(x8)
    976c:	06050863          	beq	x10,x0,97dc <__smakebuf_r+0x10c>
    9770:	0807e793          	ori	x15,x15,128
    9774:	00a42023          	sw	x10,0(x8)
    9778:	00a42823          	sw	x10,16(x8)
    977c:	00f41623          	sh	x15,12(x8)
    9780:	01442a23          	sw	x20,20(x8)
    9784:	0a091063          	bne	x18,x0,9824 <__smakebuf_r+0x154>
    9788:	0137e7b3          	or	x15,x15,x19
    978c:	07c12083          	lw	x1,124(x2)
    9790:	00f41623          	sh	x15,12(x8)
    9794:	07812403          	lw	x8,120(x2)
    9798:	07412483          	lw	x9,116(x2)
    979c:	07012903          	lw	x18,112(x2)
    97a0:	06c12983          	lw	x19,108(x2)
    97a4:	06812a03          	lw	x20,104(x2)
    97a8:	08010113          	addi	x2,x2,128
    97ac:	00008067          	jalr	x0,0(x1)
    97b0:	00c41783          	lh	x15,12(x8)
    97b4:	0807f793          	andi	x15,x15,128
    97b8:	00000913          	addi	x18,x0,0
    97bc:	04078e63          	beq	x15,x0,9818 <__smakebuf_r+0x148>
    97c0:	04000a13          	addi	x20,x0,64
    97c4:	000a0593          	addi	x11,x20,0
    97c8:	00048513          	addi	x10,x9,0
    97cc:	8fdf70ef          	jal	x1,10c8 <_malloc_r>
    97d0:	00c41783          	lh	x15,12(x8)
    97d4:	00000993          	addi	x19,x0,0
    97d8:	f8051ce3          	bne	x10,x0,9770 <__smakebuf_r+0xa0>
    97dc:	2007f713          	andi	x14,x15,512
    97e0:	04071e63          	bne	x14,x0,983c <__smakebuf_r+0x16c>
    97e4:	ffc7f793          	andi	x15,x15,-4
    97e8:	0027e793          	ori	x15,x15,2
    97ec:	04340713          	addi	x14,x8,67
    97f0:	00f41623          	sh	x15,12(x8)
    97f4:	00100793          	addi	x15,x0,1
    97f8:	07412483          	lw	x9,116(x2)
    97fc:	07012903          	lw	x18,112(x2)
    9800:	06c12983          	lw	x19,108(x2)
    9804:	06812a03          	lw	x20,104(x2)
    9808:	00e42023          	sw	x14,0(x8)
    980c:	00e42823          	sw	x14,16(x8)
    9810:	00f42a23          	sw	x15,20(x8)
    9814:	eedff06f          	jal	x0,9700 <__smakebuf_r+0x30>
    9818:	40000a13          	addi	x20,x0,1024
    981c:	00000993          	addi	x19,x0,0
    9820:	f3dff06f          	jal	x0,975c <__smakebuf_r+0x8c>
    9824:	00e41583          	lh	x11,14(x8)
    9828:	00048513          	addi	x10,x9,0
    982c:	6e1010ef          	jal	x1,b70c <_isatty_r>
    9830:	02051063          	bne	x10,x0,9850 <__smakebuf_r+0x180>
    9834:	00c41783          	lh	x15,12(x8)
    9838:	f51ff06f          	jal	x0,9788 <__smakebuf_r+0xb8>
    983c:	07412483          	lw	x9,116(x2)
    9840:	07012903          	lw	x18,112(x2)
    9844:	06c12983          	lw	x19,108(x2)
    9848:	06812a03          	lw	x20,104(x2)
    984c:	eb5ff06f          	jal	x0,9700 <__smakebuf_r+0x30>
    9850:	00c45783          	lhu	x15,12(x8)
    9854:	ffc7f793          	andi	x15,x15,-4
    9858:	0017e793          	ori	x15,x15,1
    985c:	01079793          	slli	x15,x15,0x10
    9860:	4107d793          	srai	x15,x15,0x10
    9864:	f25ff06f          	jal	x0,9788 <__smakebuf_r+0xb8>

00009868 <__swhatbuf_r>:
    9868:	f9010113          	addi	x2,x2,-112
    986c:	06812423          	sw	x8,104(x2)
    9870:	00058413          	addi	x8,x11,0
    9874:	00e59583          	lh	x11,14(x11)
    9878:	06912223          	sw	x9,100(x2)
    987c:	07212023          	sw	x18,96(x2)
    9880:	06112623          	sw	x1,108(x2)
    9884:	00060493          	addi	x9,x12,0
    9888:	00068913          	addi	x18,x13,0
    988c:	0405ca63          	blt	x11,x0,98e0 <__swhatbuf_r+0x78>
    9890:	00810613          	addi	x12,x2,8
    9894:	619010ef          	jal	x1,b6ac <_fstat_r>
    9898:	04054463          	blt	x10,x0,98e0 <__swhatbuf_r+0x78>
    989c:	00c12703          	lw	x14,12(x2)
    98a0:	0000f7b7          	lui	x15,0xf
    98a4:	06c12083          	lw	x1,108(x2)
    98a8:	00e7f7b3          	and	x15,x15,x14
    98ac:	ffffe737          	lui	x14,0xffffe
    98b0:	00e787b3          	add	x15,x15,x14
    98b4:	06812403          	lw	x8,104(x2)
    98b8:	0017b793          	sltiu	x15,x15,1
    98bc:	00f92023          	sw	x15,0(x18) # f000 <__multf3+0x850>
    98c0:	40000713          	addi	x14,x0,1024
    98c4:	00e4a023          	sw	x14,0(x9)
    98c8:	00001537          	lui	x10,0x1
    98cc:	06412483          	lw	x9,100(x2)
    98d0:	06012903          	lw	x18,96(x2)
    98d4:	80050513          	addi	x10,x10,-2048 # 800 <global_stdio_init.part.0+0x34>
    98d8:	07010113          	addi	x2,x2,112
    98dc:	00008067          	jalr	x0,0(x1)
    98e0:	00c45783          	lhu	x15,12(x8)
    98e4:	0807f793          	andi	x15,x15,128
    98e8:	02078863          	beq	x15,x0,9918 <__swhatbuf_r+0xb0>
    98ec:	06c12083          	lw	x1,108(x2)
    98f0:	06812403          	lw	x8,104(x2)
    98f4:	00000793          	addi	x15,x0,0
    98f8:	00f92023          	sw	x15,0(x18)
    98fc:	04000713          	addi	x14,x0,64
    9900:	00e4a023          	sw	x14,0(x9)
    9904:	06012903          	lw	x18,96(x2)
    9908:	06412483          	lw	x9,100(x2)
    990c:	00000513          	addi	x10,x0,0
    9910:	07010113          	addi	x2,x2,112
    9914:	00008067          	jalr	x0,0(x1)
    9918:	06c12083          	lw	x1,108(x2)
    991c:	06812403          	lw	x8,104(x2)
    9920:	00f92023          	sw	x15,0(x18)
    9924:	40000713          	addi	x14,x0,1024
    9928:	00e4a023          	sw	x14,0(x9)
    992c:	06012903          	lw	x18,96(x2)
    9930:	06412483          	lw	x9,100(x2)
    9934:	00000513          	addi	x10,x0,0
    9938:	07010113          	addi	x2,x2,112
    993c:	00008067          	jalr	x0,0(x1)

00009940 <__rv_alloc_D2A>:
    9940:	ff010113          	addi	x2,x2,-16
    9944:	00812423          	sw	x8,8(x2)
    9948:	00112623          	sw	x1,12(x2)
    994c:	01300793          	addi	x15,x0,19
    9950:	00000413          	addi	x8,x0,0
    9954:	00b7fc63          	bgeu	x15,x11,996c <__rv_alloc_D2A+0x2c>
    9958:	00400793          	addi	x15,x0,4
    995c:	00179793          	slli	x15,x15,0x1
    9960:	01078713          	addi	x14,x15,16 # f010 <__multf3+0x860>
    9964:	00140413          	addi	x8,x8,1
    9968:	fee5fae3          	bgeu	x11,x14,995c <__rv_alloc_D2A+0x1c>
    996c:	00040593          	addi	x11,x8,0
    9970:	6e8000ef          	jal	x1,a058 <_Balloc>
    9974:	00050663          	beq	x10,x0,9980 <__rv_alloc_D2A+0x40>
    9978:	00852023          	sw	x8,0(x10)
    997c:	00450513          	addi	x10,x10,4
    9980:	00c12083          	lw	x1,12(x2)
    9984:	00812403          	lw	x8,8(x2)
    9988:	01010113          	addi	x2,x2,16
    998c:	00008067          	jalr	x0,0(x1)

00009990 <__nrv_alloc_D2A>:
    9990:	ff010113          	addi	x2,x2,-16
    9994:	00812423          	sw	x8,8(x2)
    9998:	01212023          	sw	x18,0(x2)
    999c:	00112623          	sw	x1,12(x2)
    99a0:	00912223          	sw	x9,4(x2)
    99a4:	01300793          	addi	x15,x0,19
    99a8:	00058413          	addi	x8,x11,0
    99ac:	00060913          	addi	x18,x12,0
    99b0:	06d7fe63          	bgeu	x15,x13,9a2c <__nrv_alloc_D2A+0x9c>
    99b4:	00400793          	addi	x15,x0,4
    99b8:	00000493          	addi	x9,x0,0
    99bc:	00179793          	slli	x15,x15,0x1
    99c0:	01078713          	addi	x14,x15,16
    99c4:	00148493          	addi	x9,x9,1
    99c8:	fee6fae3          	bgeu	x13,x14,99bc <__nrv_alloc_D2A+0x2c>
    99cc:	00048593          	addi	x11,x9,0
    99d0:	688000ef          	jal	x1,a058 <_Balloc>
    99d4:	00050793          	addi	x15,x10,0
    99d8:	04050e63          	beq	x10,x0,9a34 <__nrv_alloc_D2A+0xa4>
    99dc:	00952023          	sw	x9,0(x10)
    99e0:	00044703          	lbu	x14,0(x8)
    99e4:	00450513          	addi	x10,x10,4
    99e8:	00140593          	addi	x11,x8,1
    99ec:	00e78223          	sb	x14,4(x15)
    99f0:	00050793          	addi	x15,x10,0
    99f4:	00070c63          	beq	x14,x0,9a0c <__nrv_alloc_D2A+0x7c>
    99f8:	0005c703          	lbu	x14,0(x11)
    99fc:	00178793          	addi	x15,x15,1
    9a00:	00158593          	addi	x11,x11,1
    9a04:	00e78023          	sb	x14,0(x15)
    9a08:	fe0718e3          	bne	x14,x0,99f8 <__nrv_alloc_D2A+0x68>
    9a0c:	00090463          	beq	x18,x0,9a14 <__nrv_alloc_D2A+0x84>
    9a10:	00f92023          	sw	x15,0(x18)
    9a14:	00c12083          	lw	x1,12(x2)
    9a18:	00812403          	lw	x8,8(x2)
    9a1c:	00412483          	lw	x9,4(x2)
    9a20:	00012903          	lw	x18,0(x2)
    9a24:	01010113          	addi	x2,x2,16
    9a28:	00008067          	jalr	x0,0(x1)
    9a2c:	00000493          	addi	x9,x0,0
    9a30:	f9dff06f          	jal	x0,99cc <__nrv_alloc_D2A+0x3c>
    9a34:	00000513          	addi	x10,x0,0
    9a38:	fddff06f          	jal	x0,9a14 <__nrv_alloc_D2A+0x84>

00009a3c <__freedtoa>:
    9a3c:	ffc5a683          	lw	x13,-4(x11)
    9a40:	00100713          	addi	x14,x0,1
    9a44:	00058793          	addi	x15,x11,0
    9a48:	00d71733          	sll	x14,x14,x13
    9a4c:	ffc58593          	addi	x11,x11,-4
    9a50:	00d7a023          	sw	x13,0(x15)
    9a54:	00e7a223          	sw	x14,4(x15)
    9a58:	6b40006f          	jal	x0,a10c <_Bfree>

00009a5c <__quorem_D2A>:
    9a5c:	fe010113          	addi	x2,x2,-32
    9a60:	00912a23          	sw	x9,20(x2)
    9a64:	01052783          	lw	x15,16(x10)
    9a68:	0105a483          	lw	x9,16(x11)
    9a6c:	00112e23          	sw	x1,28(x2)
    9a70:	1c97c863          	blt	x15,x9,9c40 <__quorem_D2A+0x1e4>
    9a74:	fff48493          	addi	x9,x9,-1
    9a78:	00249313          	slli	x6,x9,0x2
    9a7c:	00812c23          	sw	x8,24(x2)
    9a80:	01458413          	addi	x8,x11,20
    9a84:	01312623          	sw	x19,12(x2)
    9a88:	01412423          	sw	x20,8(x2)
    9a8c:	006409b3          	add	x19,x8,x6
    9a90:	01450a13          	addi	x20,x10,20
    9a94:	0009a783          	lw	x15,0(x19)
    9a98:	006a0333          	add	x6,x20,x6
    9a9c:	00032703          	lw	x14,0(x6)
    9aa0:	01212823          	sw	x18,16(x2)
    9aa4:	01512223          	sw	x21,4(x2)
    9aa8:	00178793          	addi	x15,x15,1
    9aac:	02f75933          	divu	x18,x14,x15
    9ab0:	00050a93          	addi	x21,x10,0
    9ab4:	0af76e63          	bltu	x14,x15,9b70 <__quorem_D2A+0x114>
    9ab8:	00010537          	lui	x10,0x10
    9abc:	00040893          	addi	x17,x8,0
    9ac0:	000a0813          	addi	x16,x20,0
    9ac4:	00000f13          	addi	x30,x0,0
    9ac8:	00000e93          	addi	x29,x0,0
    9acc:	fff50513          	addi	x10,x10,-1 # ffff <__subtf3+0x69b>
    9ad0:	0008a783          	lw	x15,0(x17)
    9ad4:	00082603          	lw	x12,0(x16)
    9ad8:	00480813          	addi	x16,x16,4
    9adc:	00a7f6b3          	and	x13,x15,x10
    9ae0:	0107d793          	srli	x15,x15,0x10
    9ae4:	00a67733          	and	x14,x12,x10
    9ae8:	01065e13          	srli	x28,x12,0x10
    9aec:	00488893          	addi	x17,x17,4
    9af0:	032686b3          	mul	x13,x13,x18
    9af4:	032787b3          	mul	x15,x15,x18
    9af8:	01e686b3          	add	x13,x13,x30
    9afc:	00a6f633          	and	x12,x13,x10
    9b00:	40c70733          	sub	x14,x14,x12
    9b04:	41d70733          	sub	x14,x14,x29
    9b08:	0106d693          	srli	x13,x13,0x10
    9b0c:	01075613          	srli	x12,x14,0x10
    9b10:	00167613          	andi	x12,x12,1
    9b14:	00a77733          	and	x14,x14,x10
    9b18:	00d787b3          	add	x15,x15,x13
    9b1c:	00a7f6b3          	and	x13,x15,x10
    9b20:	00d60633          	add	x12,x12,x13
    9b24:	40ce06b3          	sub	x13,x28,x12
    9b28:	01069613          	slli	x12,x13,0x10
    9b2c:	00e66733          	or	x14,x12,x14
    9b30:	0106d693          	srli	x13,x13,0x10
    9b34:	fee82e23          	sw	x14,-4(x16)
    9b38:	0107df13          	srli	x30,x15,0x10
    9b3c:	0016fe93          	andi	x29,x13,1
    9b40:	f919f8e3          	bgeu	x19,x17,9ad0 <__quorem_D2A+0x74>
    9b44:	00032783          	lw	x15,0(x6)
    9b48:	02079463          	bne	x15,x0,9b70 <__quorem_D2A+0x114>
    9b4c:	ffc30313          	addi	x6,x6,-4
    9b50:	006a6863          	bltu	x20,x6,9b60 <__quorem_D2A+0x104>
    9b54:	0180006f          	jal	x0,9b6c <__quorem_D2A+0x110>
    9b58:	fff48493          	addi	x9,x9,-1
    9b5c:	006a7863          	bgeu	x20,x6,9b6c <__quorem_D2A+0x110>
    9b60:	00032783          	lw	x15,0(x6)
    9b64:	ffc30313          	addi	x6,x6,-4
    9b68:	fe0788e3          	beq	x15,x0,9b58 <__quorem_D2A+0xfc>
    9b6c:	009aa823          	sw	x9,16(x21)
    9b70:	000a8513          	addi	x10,x21,0
    9b74:	75d000ef          	jal	x1,aad0 <__mcmp>
    9b78:	0a054063          	blt	x10,x0,9c18 <__quorem_D2A+0x1bc>
    9b7c:	00010537          	lui	x10,0x10
    9b80:	000a0593          	addi	x11,x20,0
    9b84:	00000693          	addi	x13,x0,0
    9b88:	fff50513          	addi	x10,x10,-1 # ffff <__subtf3+0x69b>
    9b8c:	0005a783          	lw	x15,0(x11)
    9b90:	00042603          	lw	x12,0(x8)
    9b94:	00458593          	addi	x11,x11,4
    9b98:	00a7f733          	and	x14,x15,x10
    9b9c:	00a67833          	and	x16,x12,x10
    9ba0:	41070733          	sub	x14,x14,x16
    9ba4:	40d70733          	sub	x14,x14,x13
    9ba8:	01075693          	srli	x13,x14,0x10
    9bac:	0016f693          	andi	x13,x13,1
    9bb0:	01065613          	srli	x12,x12,0x10
    9bb4:	00c686b3          	add	x13,x13,x12
    9bb8:	0107d793          	srli	x15,x15,0x10
    9bbc:	40d787b3          	sub	x15,x15,x13
    9bc0:	01079693          	slli	x13,x15,0x10
    9bc4:	00a77733          	and	x14,x14,x10
    9bc8:	00e6e733          	or	x14,x13,x14
    9bcc:	0107d793          	srli	x15,x15,0x10
    9bd0:	00440413          	addi	x8,x8,4
    9bd4:	fee5ae23          	sw	x14,-4(x11)
    9bd8:	0017f693          	andi	x13,x15,1
    9bdc:	fa89f8e3          	bgeu	x19,x8,9b8c <__quorem_D2A+0x130>
    9be0:	00249793          	slli	x15,x9,0x2
    9be4:	00fa07b3          	add	x15,x20,x15
    9be8:	0007a703          	lw	x14,0(x15)
    9bec:	02071463          	bne	x14,x0,9c14 <__quorem_D2A+0x1b8>
    9bf0:	ffc78793          	addi	x15,x15,-4
    9bf4:	00fa6863          	bltu	x20,x15,9c04 <__quorem_D2A+0x1a8>
    9bf8:	0180006f          	jal	x0,9c10 <__quorem_D2A+0x1b4>
    9bfc:	fff48493          	addi	x9,x9,-1
    9c00:	00fa7863          	bgeu	x20,x15,9c10 <__quorem_D2A+0x1b4>
    9c04:	0007a703          	lw	x14,0(x15)
    9c08:	ffc78793          	addi	x15,x15,-4
    9c0c:	fe0708e3          	beq	x14,x0,9bfc <__quorem_D2A+0x1a0>
    9c10:	009aa823          	sw	x9,16(x21)
    9c14:	00190913          	addi	x18,x18,1
    9c18:	01812403          	lw	x8,24(x2)
    9c1c:	01c12083          	lw	x1,28(x2)
    9c20:	00c12983          	lw	x19,12(x2)
    9c24:	00812a03          	lw	x20,8(x2)
    9c28:	00412a83          	lw	x21,4(x2)
    9c2c:	01412483          	lw	x9,20(x2)
    9c30:	00090513          	addi	x10,x18,0
    9c34:	01012903          	lw	x18,16(x2)
    9c38:	02010113          	addi	x2,x2,32
    9c3c:	00008067          	jalr	x0,0(x1)
    9c40:	01c12083          	lw	x1,28(x2)
    9c44:	01412483          	lw	x9,20(x2)
    9c48:	00000513          	addi	x10,x0,0
    9c4c:	02010113          	addi	x2,x2,32
    9c50:	00008067          	jalr	x0,0(x1)

00009c54 <_lseek_r>:
    9c54:	ff010113          	addi	x2,x2,-16
    9c58:	00058713          	addi	x14,x11,0
    9c5c:	00812423          	sw	x8,8(x2)
    9c60:	00060593          	addi	x11,x12,0
    9c64:	00050413          	addi	x8,x10,0
    9c68:	00068613          	addi	x12,x13,0
    9c6c:	00070513          	addi	x10,x14,0 # ffffe000 <__heap_end+0xffbfe000>
    9c70:	f001ac23          	sw	x0,-232(x3) # 12ac8 <errno>
    9c74:	00112623          	sw	x1,12(x2)
    9c78:	f16f60ef          	jal	x1,38e <_lseek>
    9c7c:	fff00793          	addi	x15,x0,-1
    9c80:	00f50a63          	beq	x10,x15,9c94 <_lseek_r+0x40>
    9c84:	00c12083          	lw	x1,12(x2)
    9c88:	00812403          	lw	x8,8(x2)
    9c8c:	01010113          	addi	x2,x2,16
    9c90:	00008067          	jalr	x0,0(x1)
    9c94:	f181a783          	lw	x15,-232(x3) # 12ac8 <errno>
    9c98:	fe0786e3          	beq	x15,x0,9c84 <_lseek_r+0x30>
    9c9c:	00c12083          	lw	x1,12(x2)
    9ca0:	00f42023          	sw	x15,0(x8)
    9ca4:	00812403          	lw	x8,8(x2)
    9ca8:	01010113          	addi	x2,x2,16
    9cac:	00008067          	jalr	x0,0(x1)

00009cb0 <__fputwc>:
    9cb0:	fe010113          	addi	x2,x2,-32
    9cb4:	00812c23          	sw	x8,24(x2)
    9cb8:	00912a23          	sw	x9,20(x2)
    9cbc:	01212823          	sw	x18,16(x2)
    9cc0:	00112e23          	sw	x1,28(x2)
    9cc4:	00050913          	addi	x18,x10,0
    9cc8:	00058493          	addi	x9,x11,0
    9ccc:	00060413          	addi	x8,x12,0
    9cd0:	071010ef          	jal	x1,b540 <__locale_mb_cur_max>
    9cd4:	00100793          	addi	x15,x0,1
    9cd8:	00f51c63          	bne	x10,x15,9cf0 <__fputwc+0x40>
    9cdc:	fff48793          	addi	x15,x9,-1
    9ce0:	0fe00713          	addi	x14,x0,254
    9ce4:	00f76663          	bltu	x14,x15,9cf0 <__fputwc+0x40>
    9ce8:	00910623          	sb	x9,12(x2)
    9cec:	0240006f          	jal	x0,9d10 <__fputwc+0x60>
    9cf0:	05c40693          	addi	x13,x8,92
    9cf4:	00048613          	addi	x12,x9,0
    9cf8:	00c10593          	addi	x11,x2,12
    9cfc:	00090513          	addi	x10,x18,0
    9d00:	6c4010ef          	jal	x1,b3c4 <_wcrtomb_r>
    9d04:	fff00793          	addi	x15,x0,-1
    9d08:	08f50463          	beq	x10,x15,9d90 <__fputwc+0xe0>
    9d0c:	02050c63          	beq	x10,x0,9d44 <__fputwc+0x94>
    9d10:	00842783          	lw	x15,8(x8)
    9d14:	00c14583          	lbu	x11,12(x2)
    9d18:	fff78793          	addi	x15,x15,-1
    9d1c:	00f42423          	sw	x15,8(x8)
    9d20:	0007da63          	bge	x15,x0,9d34 <__fputwc+0x84>
    9d24:	01842703          	lw	x14,24(x8)
    9d28:	02e7cc63          	blt	x15,x14,9d60 <__fputwc+0xb0>
    9d2c:	00a00793          	addi	x15,x0,10
    9d30:	02f58863          	beq	x11,x15,9d60 <__fputwc+0xb0>
    9d34:	00042783          	lw	x15,0(x8)
    9d38:	00178713          	addi	x14,x15,1
    9d3c:	00e42023          	sw	x14,0(x8)
    9d40:	00b78023          	sb	x11,0(x15)
    9d44:	01c12083          	lw	x1,28(x2)
    9d48:	01812403          	lw	x8,24(x2)
    9d4c:	01012903          	lw	x18,16(x2)
    9d50:	00048513          	addi	x10,x9,0
    9d54:	01412483          	lw	x9,20(x2)
    9d58:	02010113          	addi	x2,x2,32
    9d5c:	00008067          	jalr	x0,0(x1)
    9d60:	00040613          	addi	x12,x8,0
    9d64:	00090513          	addi	x10,x18,0
    9d68:	f1cff0ef          	jal	x1,9484 <__swbuf_r>
    9d6c:	fff00793          	addi	x15,x0,-1
    9d70:	fcf51ae3          	bne	x10,x15,9d44 <__fputwc+0x94>
    9d74:	fff00513          	addi	x10,x0,-1
    9d78:	01c12083          	lw	x1,28(x2)
    9d7c:	01812403          	lw	x8,24(x2)
    9d80:	01412483          	lw	x9,20(x2)
    9d84:	01012903          	lw	x18,16(x2)
    9d88:	02010113          	addi	x2,x2,32
    9d8c:	00008067          	jalr	x0,0(x1)
    9d90:	00c45783          	lhu	x15,12(x8)
    9d94:	fff00513          	addi	x10,x0,-1
    9d98:	0407e793          	ori	x15,x15,64
    9d9c:	00f41623          	sh	x15,12(x8)
    9da0:	fd9ff06f          	jal	x0,9d78 <__fputwc+0xc8>

00009da4 <_fputwc_r>:
    9da4:	00c61783          	lh	x15,12(x12)
    9da8:	01279713          	slli	x14,x15,0x12
    9dac:	02074063          	blt	x14,x0,9dcc <_fputwc_r+0x28>
    9db0:	06462703          	lw	x14,100(x12)
    9db4:	000026b7          	lui	x13,0x2
    9db8:	00d7e7b3          	or	x15,x15,x13
    9dbc:	000026b7          	lui	x13,0x2
    9dc0:	00d76733          	or	x14,x14,x13
    9dc4:	00f61623          	sh	x15,12(x12)
    9dc8:	06e62223          	sw	x14,100(x12)
    9dcc:	ee5ff06f          	jal	x0,9cb0 <__fputwc>

00009dd0 <fputwc>:
    9dd0:	fe010113          	addi	x2,x2,-32
    9dd4:	00812c23          	sw	x8,24(x2)
    9dd8:	00112e23          	sw	x1,28(x2)
    9ddc:	f141a403          	lw	x8,-236(x3) # 12ac4 <_impure_ptr>
    9de0:	00058613          	addi	x12,x11,0
    9de4:	00050593          	addi	x11,x10,0
    9de8:	00040663          	beq	x8,x0,9df4 <fputwc+0x24>
    9dec:	03442783          	lw	x15,52(x8)
    9df0:	04078063          	beq	x15,x0,9e30 <fputwc+0x60>
    9df4:	00c61783          	lh	x15,12(x12)
    9df8:	01279713          	slli	x14,x15,0x12
    9dfc:	02074063          	blt	x14,x0,9e1c <fputwc+0x4c>
    9e00:	06462703          	lw	x14,100(x12)
    9e04:	000026b7          	lui	x13,0x2
    9e08:	00d7e7b3          	or	x15,x15,x13
    9e0c:	000026b7          	lui	x13,0x2
    9e10:	00d76733          	or	x14,x14,x13
    9e14:	00f61623          	sh	x15,12(x12)
    9e18:	06e62223          	sw	x14,100(x12)
    9e1c:	00040513          	addi	x10,x8,0
    9e20:	01812403          	lw	x8,24(x2)
    9e24:	01c12083          	lw	x1,28(x2)
    9e28:	02010113          	addi	x2,x2,32
    9e2c:	e85ff06f          	jal	x0,9cb0 <__fputwc>
    9e30:	00a12423          	sw	x10,8(x2)
    9e34:	00040513          	addi	x10,x8,0
    9e38:	00c12623          	sw	x12,12(x2)
    9e3c:	c0df60ef          	jal	x1,a48 <__sinit>
    9e40:	00c12603          	lw	x12,12(x2)
    9e44:	00812583          	lw	x11,8(x2)
    9e48:	fadff06f          	jal	x0,9df4 <fputwc+0x24>

00009e4c <frexpl>:
    9e4c:	f9010113          	addi	x2,x2,-112
    9e50:	07212023          	sw	x18,96(x2)
    9e54:	00c5a903          	lw	x18,12(x11)
    9e58:	05412c23          	sw	x20,88(x2)
    9e5c:	05512a23          	sw	x21,84(x2)
    9e60:	05612823          	sw	x22,80(x2)
    9e64:	0045aa83          	lw	x21,4(x11)
    9e68:	0005ab03          	lw	x22,0(x11)
    9e6c:	0085aa03          	lw	x20,8(x11)
    9e70:	05312e23          	sw	x19,92(x2)
    9e74:	000089b7          	lui	x19,0x8
    9e78:	06812423          	sw	x8,104(x2)
    9e7c:	06912223          	sw	x9,100(x2)
    9e80:	06112623          	sw	x1,108(x2)
    9e84:	01095493          	srli	x9,x18,0x10
    9e88:	fff98993          	addi	x19,x19,-1 # 7fff <__gdtoa+0xa73>
    9e8c:	03612823          	sw	x22,48(x2)
    9e90:	03512a23          	sw	x21,52(x2)
    9e94:	03412c23          	sw	x20,56(x2)
    9e98:	03212e23          	sw	x18,60(x2)
    9e9c:	0134f4b3          	and	x9,x9,x19
    9ea0:	00062023          	sw	x0,0(x12)
    9ea4:	00050413          	addi	x8,x10,0
    9ea8:	09348063          	beq	x9,x19,9f28 <frexpl+0xdc>
    9eac:	01010593          	addi	x11,x2,16
    9eb0:	02010513          	addi	x10,x2,32
    9eb4:	05712623          	sw	x23,76(x2)
    9eb8:	03612023          	sw	x22,32(x2)
    9ebc:	00060b93          	addi	x23,x12,0
    9ec0:	03512223          	sw	x21,36(x2)
    9ec4:	03412423          	sw	x20,40(x2)
    9ec8:	03212623          	sw	x18,44(x2)
    9ecc:	00012823          	sw	x0,16(x2)
    9ed0:	00012a23          	sw	x0,20(x2)
    9ed4:	00012c23          	sw	x0,24(x2)
    9ed8:	00012e23          	sw	x0,28(x2)
    9edc:	544040ef          	jal	x1,e420 <__eqtf2>
    9ee0:	0e050e63          	beq	x10,x0,9fdc <frexpl+0x190>
    9ee4:	00000693          	addi	x13,x0,0
    9ee8:	06048e63          	beq	x9,x0,9f64 <frexpl+0x118>
    9eec:	ffffc737          	lui	x14,0xffffc
    9ef0:	00270713          	addi	x14,x14,2 # ffffc002 <__heap_end+0xffbfc002>
    9ef4:	03c12903          	lw	x18,60(x2)
    9ef8:	00e484b3          	add	x9,x9,x14
    9efc:	800107b7          	lui	x15,0x80010
    9f00:	00d484b3          	add	x9,x9,x13
    9f04:	fff78793          	addi	x15,x15,-1 # 8000ffff <__heap_end+0x7fc0ffff>
    9f08:	009ba023          	sw	x9,0(x23)
    9f0c:	03012b03          	lw	x22,48(x2)
    9f10:	03412a83          	lw	x21,52(x2)
    9f14:	03812a03          	lw	x20,56(x2)
    9f18:	04c12b83          	lw	x23,76(x2)
    9f1c:	00f97933          	and	x18,x18,x15
    9f20:	3ffe07b7          	lui	x15,0x3ffe0
    9f24:	00f96933          	or	x18,x18,x15
    9f28:	01642023          	sw	x22,0(x8)
    9f2c:	01542223          	sw	x21,4(x8)
    9f30:	01442423          	sw	x20,8(x8)
    9f34:	01242623          	sw	x18,12(x8)
    9f38:	06c12083          	lw	x1,108(x2)
    9f3c:	00040513          	addi	x10,x8,0
    9f40:	06812403          	lw	x8,104(x2)
    9f44:	06412483          	lw	x9,100(x2)
    9f48:	06012903          	lw	x18,96(x2)
    9f4c:	05c12983          	lw	x19,92(x2)
    9f50:	05812a03          	lw	x20,88(x2)
    9f54:	05412a83          	lw	x21,84(x2)
    9f58:	05012b03          	lw	x22,80(x2)
    9f5c:	07010113          	addi	x2,x2,112
    9f60:	00008067          	jalr	x0,0(x1)
    9f64:	00008797          	auipc	x15,0x8
    9f68:	f2c78793          	addi	x15,x15,-212 # 11e90 <zeroes.0+0x6c>
    9f6c:	0007a603          	lw	x12,0(x15)
    9f70:	0047a683          	lw	x13,4(x15)
    9f74:	0087a703          	lw	x14,8(x15)
    9f78:	00c7a783          	lw	x15,12(x15)
    9f7c:	00c12023          	sw	x12,0(x2)
    9f80:	01010593          	addi	x11,x2,16
    9f84:	00010613          	addi	x12,x2,0
    9f88:	02010513          	addi	x10,x2,32
    9f8c:	00d12223          	sw	x13,4(x2)
    9f90:	00e12423          	sw	x14,8(x2)
    9f94:	00f12623          	sw	x15,12(x2)
    9f98:	01612823          	sw	x22,16(x2)
    9f9c:	01512a23          	sw	x21,20(x2)
    9fa0:	01412c23          	sw	x20,24(x2)
    9fa4:	01212e23          	sw	x18,28(x2)
    9fa8:	009040ef          	jal	x1,e7b0 <__multf3>
    9fac:	02012703          	lw	x14,32(x2)
    9fb0:	02c12783          	lw	x15,44(x2)
    9fb4:	f8e00693          	addi	x13,x0,-114
    9fb8:	02e12823          	sw	x14,48(x2)
    9fbc:	02412703          	lw	x14,36(x2)
    9fc0:	0107d493          	srli	x9,x15,0x10
    9fc4:	02f12e23          	sw	x15,60(x2)
    9fc8:	02e12a23          	sw	x14,52(x2)
    9fcc:	02812703          	lw	x14,40(x2)
    9fd0:	0134f4b3          	and	x9,x9,x19
    9fd4:	02e12c23          	sw	x14,56(x2)
    9fd8:	f15ff06f          	jal	x0,9eec <frexpl+0xa0>
    9fdc:	04c12b83          	lw	x23,76(x2)
    9fe0:	f49ff06f          	jal	x0,9f28 <frexpl+0xdc>

00009fe4 <__localeconv_l>:
    9fe4:	0f050513          	addi	x10,x10,240
    9fe8:	00008067          	jalr	x0,0(x1)

00009fec <_localeconv_r>:
    9fec:	e2818513          	addi	x10,x3,-472 # 129d8 <__global_locale+0xf0>
    9ff0:	00008067          	jalr	x0,0(x1)

00009ff4 <localeconv>:
    9ff4:	e2818513          	addi	x10,x3,-472 # 129d8 <__global_locale+0xf0>
    9ff8:	00008067          	jalr	x0,0(x1)

00009ffc <_read_r>:
    9ffc:	ff010113          	addi	x2,x2,-16
    a000:	00058713          	addi	x14,x11,0
    a004:	00812423          	sw	x8,8(x2)
    a008:	00060593          	addi	x11,x12,0
    a00c:	00050413          	addi	x8,x10,0
    a010:	00068613          	addi	x12,x13,0 # 2000 <_fwalk_sglue+0x94>
    a014:	00070513          	addi	x10,x14,0
    a018:	f001ac23          	sw	x0,-232(x3) # 12ac8 <errno>
    a01c:	00112623          	sw	x1,12(x2)
    a020:	b8ef60ef          	jal	x1,3ae <_read>
    a024:	fff00793          	addi	x15,x0,-1
    a028:	00f50a63          	beq	x10,x15,a03c <_read_r+0x40>
    a02c:	00c12083          	lw	x1,12(x2)
    a030:	00812403          	lw	x8,8(x2)
    a034:	01010113          	addi	x2,x2,16
    a038:	00008067          	jalr	x0,0(x1)
    a03c:	f181a783          	lw	x15,-232(x3) # 12ac8 <errno>
    a040:	fe0786e3          	beq	x15,x0,a02c <_read_r+0x30>
    a044:	00c12083          	lw	x1,12(x2)
    a048:	00f42023          	sw	x15,0(x8)
    a04c:	00812403          	lw	x8,8(x2)
    a050:	01010113          	addi	x2,x2,16
    a054:	00008067          	jalr	x0,0(x1)

0000a058 <_Balloc>:
    a058:	04452783          	lw	x15,68(x10)
    a05c:	ff010113          	addi	x2,x2,-16
    a060:	00812423          	sw	x8,8(x2)
    a064:	00912223          	sw	x9,4(x2)
    a068:	00112623          	sw	x1,12(x2)
    a06c:	00050413          	addi	x8,x10,0
    a070:	00058493          	addi	x9,x11,0
    a074:	02078c63          	beq	x15,x0,a0ac <_Balloc+0x54>
    a078:	00249713          	slli	x14,x9,0x2
    a07c:	00e787b3          	add	x15,x15,x14
    a080:	0007a503          	lw	x10,0(x15)
    a084:	04050463          	beq	x10,x0,a0cc <_Balloc+0x74>
    a088:	00052703          	lw	x14,0(x10)
    a08c:	00e7a023          	sw	x14,0(x15)
    a090:	00052823          	sw	x0,16(x10)
    a094:	00052623          	sw	x0,12(x10)
    a098:	00c12083          	lw	x1,12(x2)
    a09c:	00812403          	lw	x8,8(x2)
    a0a0:	00412483          	lw	x9,4(x2)
    a0a4:	01010113          	addi	x2,x2,16
    a0a8:	00008067          	jalr	x0,0(x1)
    a0ac:	02100613          	addi	x12,x0,33
    a0b0:	00400593          	addi	x11,x0,4
    a0b4:	510010ef          	jal	x1,b5c4 <_calloc_r>
    a0b8:	04a42223          	sw	x10,68(x8)
    a0bc:	00050793          	addi	x15,x10,0
    a0c0:	fa051ce3          	bne	x10,x0,a078 <_Balloc+0x20>
    a0c4:	00000513          	addi	x10,x0,0
    a0c8:	fd1ff06f          	jal	x0,a098 <_Balloc+0x40>
    a0cc:	01212023          	sw	x18,0(x2)
    a0d0:	00100913          	addi	x18,x0,1
    a0d4:	00991933          	sll	x18,x18,x9
    a0d8:	00590613          	addi	x12,x18,5
    a0dc:	00261613          	slli	x12,x12,0x2
    a0e0:	00100593          	addi	x11,x0,1
    a0e4:	00040513          	addi	x10,x8,0
    a0e8:	4dc010ef          	jal	x1,b5c4 <_calloc_r>
    a0ec:	00050a63          	beq	x10,x0,a100 <_Balloc+0xa8>
    a0f0:	01252423          	sw	x18,8(x10)
    a0f4:	00952223          	sw	x9,4(x10)
    a0f8:	00012903          	lw	x18,0(x2)
    a0fc:	f95ff06f          	jal	x0,a090 <_Balloc+0x38>
    a100:	00012903          	lw	x18,0(x2)
    a104:	00000513          	addi	x10,x0,0
    a108:	f91ff06f          	jal	x0,a098 <_Balloc+0x40>

0000a10c <_Bfree>:
    a10c:	02058063          	beq	x11,x0,a12c <_Bfree+0x20>
    a110:	0045a703          	lw	x14,4(x11)
    a114:	04452783          	lw	x15,68(x10)
    a118:	00271713          	slli	x14,x14,0x2
    a11c:	00e787b3          	add	x15,x15,x14
    a120:	0007a703          	lw	x14,0(x15)
    a124:	00e5a023          	sw	x14,0(x11)
    a128:	00b7a023          	sw	x11,0(x15)
    a12c:	00008067          	jalr	x0,0(x1)

0000a130 <__multadd>:
    a130:	fe010113          	addi	x2,x2,-32
    a134:	00912a23          	sw	x9,20(x2)
    a138:	0105a483          	lw	x9,16(x11)
    a13c:	00010337          	lui	x6,0x10
    a140:	00812c23          	sw	x8,24(x2)
    a144:	01212823          	sw	x18,16(x2)
    a148:	01312623          	sw	x19,12(x2)
    a14c:	00112e23          	sw	x1,28(x2)
    a150:	00058913          	addi	x18,x11,0
    a154:	00050993          	addi	x19,x10,0
    a158:	00068413          	addi	x8,x13,0
    a15c:	01458813          	addi	x16,x11,20
    a160:	00000893          	addi	x17,x0,0
    a164:	fff30313          	addi	x6,x6,-1 # ffff <__subtf3+0x69b>
    a168:	00082783          	lw	x15,0(x16)
    a16c:	00480813          	addi	x16,x16,4
    a170:	00188893          	addi	x17,x17,1
    a174:	0067f733          	and	x14,x15,x6
    a178:	02c70733          	mul	x14,x14,x12
    a17c:	0107d693          	srli	x13,x15,0x10
    a180:	02c686b3          	mul	x13,x13,x12
    a184:	008707b3          	add	x15,x14,x8
    a188:	0107d713          	srli	x14,x15,0x10
    a18c:	0067f7b3          	and	x15,x15,x6
    a190:	00e686b3          	add	x13,x13,x14
    a194:	01069713          	slli	x14,x13,0x10
    a198:	00f707b3          	add	x15,x14,x15
    a19c:	fef82e23          	sw	x15,-4(x16)
    a1a0:	0106d413          	srli	x8,x13,0x10
    a1a4:	fc98c2e3          	blt	x17,x9,a168 <__multadd+0x38>
    a1a8:	02040263          	beq	x8,x0,a1cc <__multadd+0x9c>
    a1ac:	00892783          	lw	x15,8(x18)
    a1b0:	02f4de63          	bge	x9,x15,a1ec <__multadd+0xbc>
    a1b4:	00448793          	addi	x15,x9,4
    a1b8:	00279793          	slli	x15,x15,0x2
    a1bc:	00f907b3          	add	x15,x18,x15
    a1c0:	0087a223          	sw	x8,4(x15)
    a1c4:	00148493          	addi	x9,x9,1
    a1c8:	00992823          	sw	x9,16(x18)
    a1cc:	01c12083          	lw	x1,28(x2)
    a1d0:	01812403          	lw	x8,24(x2)
    a1d4:	01412483          	lw	x9,20(x2)
    a1d8:	00c12983          	lw	x19,12(x2)
    a1dc:	00090513          	addi	x10,x18,0
    a1e0:	01012903          	lw	x18,16(x2)
    a1e4:	02010113          	addi	x2,x2,32
    a1e8:	00008067          	jalr	x0,0(x1)
    a1ec:	00492583          	lw	x11,4(x18)
    a1f0:	00098513          	addi	x10,x19,0
    a1f4:	01412423          	sw	x20,8(x2)
    a1f8:	00158593          	addi	x11,x11,1
    a1fc:	e5dff0ef          	jal	x1,a058 <_Balloc>
    a200:	00050a13          	addi	x20,x10,0
    a204:	04050e63          	beq	x10,x0,a260 <__multadd+0x130>
    a208:	01092603          	lw	x12,16(x18)
    a20c:	00c90593          	addi	x11,x18,12
    a210:	00c50513          	addi	x10,x10,12
    a214:	00260613          	addi	x12,x12,2
    a218:	00261613          	slli	x12,x12,0x2
    a21c:	9c1fb0ef          	jal	x1,5bdc <memcpy>
    a220:	00492703          	lw	x14,4(x18)
    a224:	0449a783          	lw	x15,68(x19)
    a228:	00271713          	slli	x14,x14,0x2
    a22c:	00e787b3          	add	x15,x15,x14
    a230:	0007a703          	lw	x14,0(x15)
    a234:	00e92023          	sw	x14,0(x18)
    a238:	0127a023          	sw	x18,0(x15)
    a23c:	00448793          	addi	x15,x9,4
    a240:	000a0913          	addi	x18,x20,0
    a244:	00279793          	slli	x15,x15,0x2
    a248:	00f907b3          	add	x15,x18,x15
    a24c:	00812a03          	lw	x20,8(x2)
    a250:	00148493          	addi	x9,x9,1
    a254:	0087a223          	sw	x8,4(x15)
    a258:	00992823          	sw	x9,16(x18)
    a25c:	f71ff06f          	jal	x0,a1cc <__multadd+0x9c>
    a260:	00007697          	auipc	x13,0x7
    a264:	79868693          	addi	x13,x13,1944 # 119f8 <__clzsi2+0x37c>
    a268:	00000613          	addi	x12,x0,0
    a26c:	0ba00593          	addi	x11,x0,186
    a270:	00007517          	auipc	x10,0x7
    a274:	79c50513          	addi	x10,x10,1948 # 11a0c <__clzsi2+0x390>
    a278:	51c010ef          	jal	x1,b794 <__assert_func>

0000a27c <__s2b>:
    a27c:	fe010113          	addi	x2,x2,-32
    a280:	00812c23          	sw	x8,24(x2)
    a284:	00912a23          	sw	x9,20(x2)
    a288:	01212823          	sw	x18,16(x2)
    a28c:	01312623          	sw	x19,12(x2)
    a290:	01412423          	sw	x20,8(x2)
    a294:	00068993          	addi	x19,x13,0
    a298:	00900793          	addi	x15,x0,9
    a29c:	00868693          	addi	x13,x13,8
    a2a0:	00112e23          	sw	x1,28(x2)
    a2a4:	02f6c6b3          	div	x13,x13,x15
    a2a8:	00050913          	addi	x18,x10,0
    a2ac:	00058413          	addi	x8,x11,0
    a2b0:	00060a13          	addi	x20,x12,0
    a2b4:	00070493          	addi	x9,x14,0
    a2b8:	0d37da63          	bge	x15,x19,a38c <__s2b+0x110>
    a2bc:	00100793          	addi	x15,x0,1
    a2c0:	00000593          	addi	x11,x0,0
    a2c4:	00179793          	slli	x15,x15,0x1
    a2c8:	00158593          	addi	x11,x11,1
    a2cc:	fed7cce3          	blt	x15,x13,a2c4 <__s2b+0x48>
    a2d0:	00090513          	addi	x10,x18,0
    a2d4:	d85ff0ef          	jal	x1,a058 <_Balloc>
    a2d8:	00050593          	addi	x11,x10,0
    a2dc:	0a050c63          	beq	x10,x0,a394 <__s2b+0x118>
    a2e0:	00100793          	addi	x15,x0,1
    a2e4:	00f52823          	sw	x15,16(x10)
    a2e8:	00952a23          	sw	x9,20(x10)
    a2ec:	00900793          	addi	x15,x0,9
    a2f0:	0947d863          	bge	x15,x20,a380 <__s2b+0x104>
    a2f4:	01512223          	sw	x21,4(x2)
    a2f8:	00940a93          	addi	x21,x8,9
    a2fc:	000a8493          	addi	x9,x21,0
    a300:	01440433          	add	x8,x8,x20
    a304:	0004c683          	lbu	x13,0(x9)
    a308:	00a00613          	addi	x12,x0,10
    a30c:	00090513          	addi	x10,x18,0
    a310:	fd068693          	addi	x13,x13,-48
    a314:	e1dff0ef          	jal	x1,a130 <__multadd>
    a318:	00148493          	addi	x9,x9,1
    a31c:	00050593          	addi	x11,x10,0
    a320:	fe8492e3          	bne	x9,x8,a304 <__s2b+0x88>
    a324:	ff8a0413          	addi	x8,x20,-8
    a328:	008a8433          	add	x8,x21,x8
    a32c:	00412a83          	lw	x21,4(x2)
    a330:	033a5663          	bge	x20,x19,a35c <__s2b+0xe0>
    a334:	414989b3          	sub	x19,x19,x20
    a338:	013409b3          	add	x19,x8,x19
    a33c:	00044683          	lbu	x13,0(x8)
    a340:	00a00613          	addi	x12,x0,10
    a344:	00090513          	addi	x10,x18,0
    a348:	fd068693          	addi	x13,x13,-48
    a34c:	de5ff0ef          	jal	x1,a130 <__multadd>
    a350:	00140413          	addi	x8,x8,1
    a354:	00050593          	addi	x11,x10,0
    a358:	ff3412e3          	bne	x8,x19,a33c <__s2b+0xc0>
    a35c:	01c12083          	lw	x1,28(x2)
    a360:	01812403          	lw	x8,24(x2)
    a364:	01412483          	lw	x9,20(x2)
    a368:	01012903          	lw	x18,16(x2)
    a36c:	00c12983          	lw	x19,12(x2)
    a370:	00812a03          	lw	x20,8(x2)
    a374:	00058513          	addi	x10,x11,0
    a378:	02010113          	addi	x2,x2,32
    a37c:	00008067          	jalr	x0,0(x1)
    a380:	00a40413          	addi	x8,x8,10
    a384:	00900a13          	addi	x20,x0,9
    a388:	fa9ff06f          	jal	x0,a330 <__s2b+0xb4>
    a38c:	00000593          	addi	x11,x0,0
    a390:	f41ff06f          	jal	x0,a2d0 <__s2b+0x54>
    a394:	00007697          	auipc	x13,0x7
    a398:	66468693          	addi	x13,x13,1636 # 119f8 <__clzsi2+0x37c>
    a39c:	00000613          	addi	x12,x0,0
    a3a0:	0d300593          	addi	x11,x0,211
    a3a4:	00007517          	auipc	x10,0x7
    a3a8:	66850513          	addi	x10,x10,1640 # 11a0c <__clzsi2+0x390>
    a3ac:	01512223          	sw	x21,4(x2)
    a3b0:	3e4010ef          	jal	x1,b794 <__assert_func>

0000a3b4 <__hi0bits>:
    a3b4:	00050793          	addi	x15,x10,0
    a3b8:	00010737          	lui	x14,0x10
    a3bc:	00000513          	addi	x10,x0,0
    a3c0:	00e7f663          	bgeu	x15,x14,a3cc <__hi0bits+0x18>
    a3c4:	01079793          	slli	x15,x15,0x10
    a3c8:	01000513          	addi	x10,x0,16
    a3cc:	01000737          	lui	x14,0x1000
    a3d0:	00e7f663          	bgeu	x15,x14,a3dc <__hi0bits+0x28>
    a3d4:	00850513          	addi	x10,x10,8
    a3d8:	00879793          	slli	x15,x15,0x8
    a3dc:	10000737          	lui	x14,0x10000
    a3e0:	00e7f663          	bgeu	x15,x14,a3ec <__hi0bits+0x38>
    a3e4:	00450513          	addi	x10,x10,4
    a3e8:	00479793          	slli	x15,x15,0x4
    a3ec:	40000737          	lui	x14,0x40000
    a3f0:	00e7ea63          	bltu	x15,x14,a404 <__hi0bits+0x50>
    a3f4:	fff7c793          	xori	x15,x15,-1
    a3f8:	01f7d793          	srli	x15,x15,0x1f
    a3fc:	00f50533          	add	x10,x10,x15
    a400:	00008067          	jalr	x0,0(x1)
    a404:	00279793          	slli	x15,x15,0x2
    a408:	0007ca63          	blt	x15,x0,a41c <__hi0bits+0x68>
    a40c:	00179713          	slli	x14,x15,0x1
    a410:	00074a63          	blt	x14,x0,a424 <__hi0bits+0x70>
    a414:	02000513          	addi	x10,x0,32
    a418:	00008067          	jalr	x0,0(x1)
    a41c:	00250513          	addi	x10,x10,2
    a420:	00008067          	jalr	x0,0(x1)
    a424:	00350513          	addi	x10,x10,3
    a428:	00008067          	jalr	x0,0(x1)

0000a42c <__lo0bits>:
    a42c:	00052783          	lw	x15,0(x10)
    a430:	00050713          	addi	x14,x10,0
    a434:	0077f693          	andi	x13,x15,7
    a438:	02068463          	beq	x13,x0,a460 <__lo0bits+0x34>
    a43c:	0017f693          	andi	x13,x15,1
    a440:	00000513          	addi	x10,x0,0
    a444:	04069e63          	bne	x13,x0,a4a0 <__lo0bits+0x74>
    a448:	0027f693          	andi	x13,x15,2
    a44c:	0a068863          	beq	x13,x0,a4fc <__lo0bits+0xd0>
    a450:	0017d793          	srli	x15,x15,0x1
    a454:	00f72023          	sw	x15,0(x14) # 40000000 <__heap_end+0x3fc00000>
    a458:	00100513          	addi	x10,x0,1
    a45c:	00008067          	jalr	x0,0(x1)
    a460:	01079693          	slli	x13,x15,0x10
    a464:	0106d693          	srli	x13,x13,0x10
    a468:	00000513          	addi	x10,x0,0
    a46c:	06068e63          	beq	x13,x0,a4e8 <__lo0bits+0xbc>
    a470:	0ff7f693          	andi	x13,x15,255
    a474:	06068063          	beq	x13,x0,a4d4 <__lo0bits+0xa8>
    a478:	00f7f693          	andi	x13,x15,15
    a47c:	04068263          	beq	x13,x0,a4c0 <__lo0bits+0x94>
    a480:	0037f693          	andi	x13,x15,3
    a484:	02068463          	beq	x13,x0,a4ac <__lo0bits+0x80>
    a488:	0017f693          	andi	x13,x15,1
    a48c:	00069c63          	bne	x13,x0,a4a4 <__lo0bits+0x78>
    a490:	0017d793          	srli	x15,x15,0x1
    a494:	00150513          	addi	x10,x10,1
    a498:	00079663          	bne	x15,x0,a4a4 <__lo0bits+0x78>
    a49c:	02000513          	addi	x10,x0,32
    a4a0:	00008067          	jalr	x0,0(x1)
    a4a4:	00f72023          	sw	x15,0(x14)
    a4a8:	00008067          	jalr	x0,0(x1)
    a4ac:	0027d793          	srli	x15,x15,0x2
    a4b0:	0017f693          	andi	x13,x15,1
    a4b4:	00250513          	addi	x10,x10,2
    a4b8:	fe0696e3          	bne	x13,x0,a4a4 <__lo0bits+0x78>
    a4bc:	fd5ff06f          	jal	x0,a490 <__lo0bits+0x64>
    a4c0:	0047d793          	srli	x15,x15,0x4
    a4c4:	0037f693          	andi	x13,x15,3
    a4c8:	00450513          	addi	x10,x10,4
    a4cc:	fa069ee3          	bne	x13,x0,a488 <__lo0bits+0x5c>
    a4d0:	fddff06f          	jal	x0,a4ac <__lo0bits+0x80>
    a4d4:	0087d793          	srli	x15,x15,0x8
    a4d8:	00f7f693          	andi	x13,x15,15
    a4dc:	00850513          	addi	x10,x10,8
    a4e0:	fa0690e3          	bne	x13,x0,a480 <__lo0bits+0x54>
    a4e4:	fddff06f          	jal	x0,a4c0 <__lo0bits+0x94>
    a4e8:	0107d793          	srli	x15,x15,0x10
    a4ec:	0ff7f693          	andi	x13,x15,255
    a4f0:	01000513          	addi	x10,x0,16
    a4f4:	f80692e3          	bne	x13,x0,a478 <__lo0bits+0x4c>
    a4f8:	fddff06f          	jal	x0,a4d4 <__lo0bits+0xa8>
    a4fc:	0027d793          	srli	x15,x15,0x2
    a500:	00f72023          	sw	x15,0(x14)
    a504:	00200513          	addi	x10,x0,2
    a508:	00008067          	jalr	x0,0(x1)

0000a50c <__i2b>:
    a50c:	04452783          	lw	x15,68(x10)
    a510:	ff010113          	addi	x2,x2,-16
    a514:	00812423          	sw	x8,8(x2)
    a518:	00912223          	sw	x9,4(x2)
    a51c:	00112623          	sw	x1,12(x2)
    a520:	00050413          	addi	x8,x10,0
    a524:	00058493          	addi	x9,x11,0
    a528:	02078c63          	beq	x15,x0,a560 <__i2b+0x54>
    a52c:	0047a503          	lw	x10,4(x15)
    a530:	06050263          	beq	x10,x0,a594 <__i2b+0x88>
    a534:	00052703          	lw	x14,0(x10)
    a538:	00e7a223          	sw	x14,4(x15)
    a53c:	00c12083          	lw	x1,12(x2)
    a540:	00812403          	lw	x8,8(x2)
    a544:	00100793          	addi	x15,x0,1
    a548:	00952a23          	sw	x9,20(x10)
    a54c:	00052623          	sw	x0,12(x10)
    a550:	00f52823          	sw	x15,16(x10)
    a554:	00412483          	lw	x9,4(x2)
    a558:	01010113          	addi	x2,x2,16
    a55c:	00008067          	jalr	x0,0(x1)
    a560:	02100613          	addi	x12,x0,33
    a564:	00400593          	addi	x11,x0,4
    a568:	05c010ef          	jal	x1,b5c4 <_calloc_r>
    a56c:	04a42223          	sw	x10,68(x8)
    a570:	00050793          	addi	x15,x10,0
    a574:	fa051ce3          	bne	x10,x0,a52c <__i2b+0x20>
    a578:	00007697          	auipc	x13,0x7
    a57c:	48068693          	addi	x13,x13,1152 # 119f8 <__clzsi2+0x37c>
    a580:	00000613          	addi	x12,x0,0
    a584:	14500593          	addi	x11,x0,325
    a588:	00007517          	auipc	x10,0x7
    a58c:	48450513          	addi	x10,x10,1156 # 11a0c <__clzsi2+0x390>
    a590:	204010ef          	jal	x1,b794 <__assert_func>
    a594:	01c00613          	addi	x12,x0,28
    a598:	00100593          	addi	x11,x0,1
    a59c:	00040513          	addi	x10,x8,0
    a5a0:	024010ef          	jal	x1,b5c4 <_calloc_r>
    a5a4:	fc050ae3          	beq	x10,x0,a578 <__i2b+0x6c>
    a5a8:	00100793          	addi	x15,x0,1
    a5ac:	00f52223          	sw	x15,4(x10)
    a5b0:	00200793          	addi	x15,x0,2
    a5b4:	00f52423          	sw	x15,8(x10)
    a5b8:	f85ff06f          	jal	x0,a53c <__i2b+0x30>

0000a5bc <__multiply>:
    a5bc:	fe010113          	addi	x2,x2,-32
    a5c0:	01212823          	sw	x18,16(x2)
    a5c4:	01312623          	sw	x19,12(x2)
    a5c8:	0105a903          	lw	x18,16(x11)
    a5cc:	01062983          	lw	x19,16(x12)
    a5d0:	00912a23          	sw	x9,20(x2)
    a5d4:	01412423          	sw	x20,8(x2)
    a5d8:	00112e23          	sw	x1,28(x2)
    a5dc:	00812c23          	sw	x8,24(x2)
    a5e0:	00058a13          	addi	x20,x11,0
    a5e4:	00060493          	addi	x9,x12,0
    a5e8:	01394c63          	blt	x18,x19,a600 <__multiply+0x44>
    a5ec:	00098713          	addi	x14,x19,0
    a5f0:	00058493          	addi	x9,x11,0
    a5f4:	00090993          	addi	x19,x18,0
    a5f8:	00060a13          	addi	x20,x12,0
    a5fc:	00070913          	addi	x18,x14,0
    a600:	0084a783          	lw	x15,8(x9)
    a604:	0044a583          	lw	x11,4(x9)
    a608:	01298433          	add	x8,x19,x18
    a60c:	0087a7b3          	slt	x15,x15,x8
    a610:	00f585b3          	add	x11,x11,x15
    a614:	a45ff0ef          	jal	x1,a058 <_Balloc>
    a618:	1a050e63          	beq	x10,x0,a7d4 <__multiply+0x218>
    a61c:	01450313          	addi	x6,x10,20
    a620:	00241893          	slli	x17,x8,0x2
    a624:	011308b3          	add	x17,x6,x17
    a628:	00030793          	addi	x15,x6,0
    a62c:	01137863          	bgeu	x6,x17,a63c <__multiply+0x80>
    a630:	0007a023          	sw	x0,0(x15)
    a634:	00478793          	addi	x15,x15,4
    a638:	ff17ece3          	bltu	x15,x17,a630 <__multiply+0x74>
    a63c:	014a0813          	addi	x16,x20,20
    a640:	00291e13          	slli	x28,x18,0x2
    a644:	01448e93          	addi	x29,x9,20
    a648:	00299593          	slli	x11,x19,0x2
    a64c:	01c80e33          	add	x28,x16,x28
    a650:	00be85b3          	add	x11,x29,x11
    a654:	13c87663          	bgeu	x16,x28,a780 <__multiply+0x1c4>
    a658:	01548793          	addi	x15,x9,21
    a65c:	00400f13          	addi	x30,x0,4
    a660:	16f5f063          	bgeu	x11,x15,a7c0 <__multiply+0x204>
    a664:	000106b7          	lui	x13,0x10
    a668:	fff68693          	addi	x13,x13,-1 # ffff <__subtf3+0x69b>
    a66c:	0180006f          	jal	x0,a684 <__multiply+0xc8>
    a670:	010fdf93          	srli	x31,x31,0x10
    a674:	080f9863          	bne	x31,x0,a704 <__multiply+0x148>
    a678:	00480813          	addi	x16,x16,4
    a67c:	00430313          	addi	x6,x6,4
    a680:	11c87063          	bgeu	x16,x28,a780 <__multiply+0x1c4>
    a684:	00082f83          	lw	x31,0(x16)
    a688:	00dff3b3          	and	x7,x31,x13
    a68c:	fe0382e3          	beq	x7,x0,a670 <__multiply+0xb4>
    a690:	00030293          	addi	x5,x6,0
    a694:	000e8f93          	addi	x31,x29,0
    a698:	00000493          	addi	x9,x0,0
    a69c:	000fa783          	lw	x15,0(x31)
    a6a0:	0002a603          	lw	x12,0(x5)
    a6a4:	00428293          	addi	x5,x5,4
    a6a8:	00d7f733          	and	x14,x15,x13
    a6ac:	02770733          	mul	x14,x14,x7
    a6b0:	0107d793          	srli	x15,x15,0x10
    a6b4:	00d67933          	and	x18,x12,x13
    a6b8:	01065613          	srli	x12,x12,0x10
    a6bc:	004f8f93          	addi	x31,x31,4
    a6c0:	027787b3          	mul	x15,x15,x7
    a6c4:	01270733          	add	x14,x14,x18
    a6c8:	00970733          	add	x14,x14,x9
    a6cc:	01075493          	srli	x9,x14,0x10
    a6d0:	00d77733          	and	x14,x14,x13
    a6d4:	00c787b3          	add	x15,x15,x12
    a6d8:	009787b3          	add	x15,x15,x9
    a6dc:	01079613          	slli	x12,x15,0x10
    a6e0:	00e66733          	or	x14,x12,x14
    a6e4:	fee2ae23          	sw	x14,-4(x5)
    a6e8:	0107d493          	srli	x9,x15,0x10
    a6ec:	fabfe8e3          	bltu	x31,x11,a69c <__multiply+0xe0>
    a6f0:	01e307b3          	add	x15,x6,x30
    a6f4:	0097a023          	sw	x9,0(x15)
    a6f8:	00082f83          	lw	x31,0(x16)
    a6fc:	010fdf93          	srli	x31,x31,0x10
    a700:	f60f8ce3          	beq	x31,x0,a678 <__multiply+0xbc>
    a704:	00032703          	lw	x14,0(x6)
    a708:	00030293          	addi	x5,x6,0
    a70c:	000e8613          	addi	x12,x29,0
    a710:	00070493          	addi	x9,x14,0
    a714:	00000393          	addi	x7,x0,0
    a718:	00062783          	lw	x15,0(x12)
    a71c:	0104d993          	srli	x19,x9,0x10
    a720:	00d77733          	and	x14,x14,x13
    a724:	00d7f7b3          	and	x15,x15,x13
    a728:	03f787b3          	mul	x15,x15,x31
    a72c:	0042a483          	lw	x9,4(x5)
    a730:	00428293          	addi	x5,x5,4
    a734:	00460613          	addi	x12,x12,4
    a738:	00d4f933          	and	x18,x9,x13
    a73c:	007787b3          	add	x15,x15,x7
    a740:	013787b3          	add	x15,x15,x19
    a744:	01079393          	slli	x7,x15,0x10
    a748:	00e3e733          	or	x14,x7,x14
    a74c:	fee2ae23          	sw	x14,-4(x5)
    a750:	ffe65703          	lhu	x14,-2(x12)
    a754:	0107d793          	srli	x15,x15,0x10
    a758:	03f70733          	mul	x14,x14,x31
    a75c:	01270733          	add	x14,x14,x18
    a760:	00f70733          	add	x14,x14,x15
    a764:	01075393          	srli	x7,x14,0x10
    a768:	fab668e3          	bltu	x12,x11,a718 <__multiply+0x15c>
    a76c:	01e307b3          	add	x15,x6,x30
    a770:	00e7a023          	sw	x14,0(x15)
    a774:	00480813          	addi	x16,x16,4
    a778:	00430313          	addi	x6,x6,4
    a77c:	f1c864e3          	bltu	x16,x28,a684 <__multiply+0xc8>
    a780:	00804863          	blt	x0,x8,a790 <__multiply+0x1d4>
    a784:	0180006f          	jal	x0,a79c <__multiply+0x1e0>
    a788:	fff40413          	addi	x8,x8,-1
    a78c:	00040863          	beq	x8,x0,a79c <__multiply+0x1e0>
    a790:	ffc8a783          	lw	x15,-4(x17)
    a794:	ffc88893          	addi	x17,x17,-4
    a798:	fe0788e3          	beq	x15,x0,a788 <__multiply+0x1cc>
    a79c:	01c12083          	lw	x1,28(x2)
    a7a0:	00852823          	sw	x8,16(x10)
    a7a4:	01812403          	lw	x8,24(x2)
    a7a8:	01412483          	lw	x9,20(x2)
    a7ac:	01012903          	lw	x18,16(x2)
    a7b0:	00c12983          	lw	x19,12(x2)
    a7b4:	00812a03          	lw	x20,8(x2)
    a7b8:	02010113          	addi	x2,x2,32
    a7bc:	00008067          	jalr	x0,0(x1)
    a7c0:	409587b3          	sub	x15,x11,x9
    a7c4:	feb78793          	addi	x15,x15,-21
    a7c8:	ffc7f793          	andi	x15,x15,-4
    a7cc:	00478f13          	addi	x30,x15,4
    a7d0:	e95ff06f          	jal	x0,a664 <__multiply+0xa8>
    a7d4:	00007697          	auipc	x13,0x7
    a7d8:	22468693          	addi	x13,x13,548 # 119f8 <__clzsi2+0x37c>
    a7dc:	00000613          	addi	x12,x0,0
    a7e0:	16200593          	addi	x11,x0,354
    a7e4:	00007517          	auipc	x10,0x7
    a7e8:	22850513          	addi	x10,x10,552 # 11a0c <__clzsi2+0x390>
    a7ec:	7a9000ef          	jal	x1,b794 <__assert_func>

0000a7f0 <__pow5mult>:
    a7f0:	fe010113          	addi	x2,x2,-32
    a7f4:	00812c23          	sw	x8,24(x2)
    a7f8:	01212823          	sw	x18,16(x2)
    a7fc:	01312623          	sw	x19,12(x2)
    a800:	00112e23          	sw	x1,28(x2)
    a804:	00367793          	andi	x15,x12,3
    a808:	00060413          	addi	x8,x12,0
    a80c:	00050993          	addi	x19,x10,0
    a810:	00058913          	addi	x18,x11,0
    a814:	0a079c63          	bne	x15,x0,a8cc <__pow5mult+0xdc>
    a818:	40245413          	srai	x8,x8,0x2
    a81c:	06040a63          	beq	x8,x0,a890 <__pow5mult+0xa0>
    a820:	00912a23          	sw	x9,20(x2)
    a824:	0409a483          	lw	x9,64(x19)
    a828:	0c048663          	beq	x9,x0,a8f4 <__pow5mult+0x104>
    a82c:	00147793          	andi	x15,x8,1
    a830:	02079063          	bne	x15,x0,a850 <__pow5mult+0x60>
    a834:	40145413          	srai	x8,x8,0x1
    a838:	04040a63          	beq	x8,x0,a88c <__pow5mult+0x9c>
    a83c:	0004a503          	lw	x10,0(x9)
    a840:	06050663          	beq	x10,x0,a8ac <__pow5mult+0xbc>
    a844:	00050493          	addi	x9,x10,0
    a848:	00147793          	andi	x15,x8,1
    a84c:	fe0784e3          	beq	x15,x0,a834 <__pow5mult+0x44>
    a850:	00048613          	addi	x12,x9,0
    a854:	00090593          	addi	x11,x18,0
    a858:	00098513          	addi	x10,x19,0
    a85c:	d61ff0ef          	jal	x1,a5bc <__multiply>
    a860:	02090063          	beq	x18,x0,a880 <__pow5mult+0x90>
    a864:	00492703          	lw	x14,4(x18)
    a868:	0449a783          	lw	x15,68(x19)
    a86c:	00271713          	slli	x14,x14,0x2
    a870:	00e787b3          	add	x15,x15,x14
    a874:	0007a703          	lw	x14,0(x15)
    a878:	00e92023          	sw	x14,0(x18)
    a87c:	0127a023          	sw	x18,0(x15)
    a880:	40145413          	srai	x8,x8,0x1
    a884:	00050913          	addi	x18,x10,0
    a888:	fa041ae3          	bne	x8,x0,a83c <__pow5mult+0x4c>
    a88c:	01412483          	lw	x9,20(x2)
    a890:	01c12083          	lw	x1,28(x2)
    a894:	01812403          	lw	x8,24(x2)
    a898:	00c12983          	lw	x19,12(x2)
    a89c:	00090513          	addi	x10,x18,0
    a8a0:	01012903          	lw	x18,16(x2)
    a8a4:	02010113          	addi	x2,x2,32
    a8a8:	00008067          	jalr	x0,0(x1)
    a8ac:	00048613          	addi	x12,x9,0
    a8b0:	00048593          	addi	x11,x9,0
    a8b4:	00098513          	addi	x10,x19,0
    a8b8:	d05ff0ef          	jal	x1,a5bc <__multiply>
    a8bc:	00a4a023          	sw	x10,0(x9)
    a8c0:	00052023          	sw	x0,0(x10)
    a8c4:	00050493          	addi	x9,x10,0
    a8c8:	f81ff06f          	jal	x0,a848 <__pow5mult+0x58>
    a8cc:	fff78793          	addi	x15,x15,-1
    a8d0:	00007717          	auipc	x14,0x7
    a8d4:	77070713          	addi	x14,x14,1904 # 12040 <p05.0>
    a8d8:	00279793          	slli	x15,x15,0x2
    a8dc:	00f707b3          	add	x15,x14,x15
    a8e0:	0007a603          	lw	x12,0(x15)
    a8e4:	00000693          	addi	x13,x0,0
    a8e8:	849ff0ef          	jal	x1,a130 <__multadd>
    a8ec:	00050913          	addi	x18,x10,0
    a8f0:	f29ff06f          	jal	x0,a818 <__pow5mult+0x28>
    a8f4:	00100593          	addi	x11,x0,1
    a8f8:	00098513          	addi	x10,x19,0
    a8fc:	f5cff0ef          	jal	x1,a058 <_Balloc>
    a900:	00050493          	addi	x9,x10,0
    a904:	02050063          	beq	x10,x0,a924 <__pow5mult+0x134>
    a908:	27100793          	addi	x15,x0,625
    a90c:	00f52a23          	sw	x15,20(x10)
    a910:	00100793          	addi	x15,x0,1
    a914:	00f52823          	sw	x15,16(x10)
    a918:	04a9a023          	sw	x10,64(x19)
    a91c:	00052023          	sw	x0,0(x10)
    a920:	f0dff06f          	jal	x0,a82c <__pow5mult+0x3c>
    a924:	00007697          	auipc	x13,0x7
    a928:	0d468693          	addi	x13,x13,212 # 119f8 <__clzsi2+0x37c>
    a92c:	00000613          	addi	x12,x0,0
    a930:	14500593          	addi	x11,x0,325
    a934:	00007517          	auipc	x10,0x7
    a938:	0d850513          	addi	x10,x10,216 # 11a0c <__clzsi2+0x390>
    a93c:	659000ef          	jal	x1,b794 <__assert_func>

0000a940 <__lshift>:
    a940:	fe010113          	addi	x2,x2,-32
    a944:	01512223          	sw	x21,4(x2)
    a948:	0105aa83          	lw	x21,16(x11)
    a94c:	0085a783          	lw	x15,8(x11)
    a950:	01312623          	sw	x19,12(x2)
    a954:	40565993          	srai	x19,x12,0x5
    a958:	01598ab3          	add	x21,x19,x21
    a95c:	00812c23          	sw	x8,24(x2)
    a960:	00912a23          	sw	x9,20(x2)
    a964:	01212823          	sw	x18,16(x2)
    a968:	01412423          	sw	x20,8(x2)
    a96c:	00112e23          	sw	x1,28(x2)
    a970:	001a8913          	addi	x18,x21,1
    a974:	00058493          	addi	x9,x11,0
    a978:	00060413          	addi	x8,x12,0
    a97c:	0045a583          	lw	x11,4(x11)
    a980:	00050a13          	addi	x20,x10,0
    a984:	0127d863          	bge	x15,x18,a994 <__lshift+0x54>
    a988:	00179793          	slli	x15,x15,0x1
    a98c:	00158593          	addi	x11,x11,1
    a990:	ff27cce3          	blt	x15,x18,a988 <__lshift+0x48>
    a994:	000a0513          	addi	x10,x20,0
    a998:	ec0ff0ef          	jal	x1,a058 <_Balloc>
    a99c:	10050c63          	beq	x10,x0,aab4 <__lshift+0x174>
    a9a0:	01450813          	addi	x16,x10,20
    a9a4:	03305463          	bge	x0,x19,a9cc <__lshift+0x8c>
    a9a8:	00598993          	addi	x19,x19,5
    a9ac:	00299993          	slli	x19,x19,0x2
    a9b0:	01350733          	add	x14,x10,x19
    a9b4:	00080793          	addi	x15,x16,0
    a9b8:	00478793          	addi	x15,x15,4
    a9bc:	fe07ae23          	sw	x0,-4(x15)
    a9c0:	fee79ce3          	bne	x15,x14,a9b8 <__lshift+0x78>
    a9c4:	fec98993          	addi	x19,x19,-20
    a9c8:	01380833          	add	x16,x16,x19
    a9cc:	0104a883          	lw	x17,16(x9)
    a9d0:	01448793          	addi	x15,x9,20
    a9d4:	01f47613          	andi	x12,x8,31
    a9d8:	00289893          	slli	x17,x17,0x2
    a9dc:	011788b3          	add	x17,x15,x17
    a9e0:	0a060463          	beq	x12,x0,aa88 <__lshift+0x148>
    a9e4:	02000593          	addi	x11,x0,32
    a9e8:	40c585b3          	sub	x11,x11,x12
    a9ec:	00080313          	addi	x6,x16,0
    a9f0:	00000693          	addi	x13,x0,0
    a9f4:	0007a703          	lw	x14,0(x15)
    a9f8:	00430313          	addi	x6,x6,4
    a9fc:	00478793          	addi	x15,x15,4
    aa00:	00c71733          	sll	x14,x14,x12
    aa04:	00d76733          	or	x14,x14,x13
    aa08:	fee32e23          	sw	x14,-4(x6)
    aa0c:	ffc7a683          	lw	x13,-4(x15)
    aa10:	00b6d6b3          	srl	x13,x13,x11
    aa14:	ff17e0e3          	bltu	x15,x17,a9f4 <__lshift+0xb4>
    aa18:	01548793          	addi	x15,x9,21
    aa1c:	00400713          	addi	x14,x0,4
    aa20:	00f8ea63          	bltu	x17,x15,aa34 <__lshift+0xf4>
    aa24:	409887b3          	sub	x15,x17,x9
    aa28:	feb78793          	addi	x15,x15,-21
    aa2c:	ffc7f793          	andi	x15,x15,-4
    aa30:	00478713          	addi	x14,x15,4
    aa34:	00e80833          	add	x16,x16,x14
    aa38:	00d82023          	sw	x13,0(x16)
    aa3c:	00069463          	bne	x13,x0,aa44 <__lshift+0x104>
    aa40:	000a8913          	addi	x18,x21,0
    aa44:	0044a703          	lw	x14,4(x9)
    aa48:	044a2783          	lw	x15,68(x20)
    aa4c:	01c12083          	lw	x1,28(x2)
    aa50:	00271713          	slli	x14,x14,0x2
    aa54:	00e787b3          	add	x15,x15,x14
    aa58:	0007a703          	lw	x14,0(x15)
    aa5c:	01252823          	sw	x18,16(x10)
    aa60:	01812403          	lw	x8,24(x2)
    aa64:	00e4a023          	sw	x14,0(x9)
    aa68:	0097a023          	sw	x9,0(x15)
    aa6c:	01012903          	lw	x18,16(x2)
    aa70:	01412483          	lw	x9,20(x2)
    aa74:	00c12983          	lw	x19,12(x2)
    aa78:	00812a03          	lw	x20,8(x2)
    aa7c:	00412a83          	lw	x21,4(x2)
    aa80:	02010113          	addi	x2,x2,32
    aa84:	00008067          	jalr	x0,0(x1)
    aa88:	0007a703          	lw	x14,0(x15)
    aa8c:	00478793          	addi	x15,x15,4
    aa90:	00480813          	addi	x16,x16,4
    aa94:	fee82e23          	sw	x14,-4(x16)
    aa98:	fb17f4e3          	bgeu	x15,x17,aa40 <__lshift+0x100>
    aa9c:	0007a703          	lw	x14,0(x15)
    aaa0:	00478793          	addi	x15,x15,4
    aaa4:	00480813          	addi	x16,x16,4
    aaa8:	fee82e23          	sw	x14,-4(x16)
    aaac:	fd17eee3          	bltu	x15,x17,aa88 <__lshift+0x148>
    aab0:	f91ff06f          	jal	x0,aa40 <__lshift+0x100>
    aab4:	00007697          	auipc	x13,0x7
    aab8:	f4468693          	addi	x13,x13,-188 # 119f8 <__clzsi2+0x37c>
    aabc:	00000613          	addi	x12,x0,0
    aac0:	1de00593          	addi	x11,x0,478
    aac4:	00007517          	auipc	x10,0x7
    aac8:	f4850513          	addi	x10,x10,-184 # 11a0c <__clzsi2+0x390>
    aacc:	4c9000ef          	jal	x1,b794 <__assert_func>

0000aad0 <__mcmp>:
    aad0:	01052703          	lw	x14,16(x10)
    aad4:	0105a783          	lw	x15,16(x11)
    aad8:	00050813          	addi	x16,x10,0
    aadc:	40f70533          	sub	x10,x14,x15
    aae0:	04f71263          	bne	x14,x15,ab24 <__mcmp+0x54>
    aae4:	00279793          	slli	x15,x15,0x2
    aae8:	01480813          	addi	x16,x16,20
    aaec:	01458593          	addi	x11,x11,20
    aaf0:	00f80733          	add	x14,x16,x15
    aaf4:	00f587b3          	add	x15,x11,x15
    aaf8:	0080006f          	jal	x0,ab00 <__mcmp+0x30>
    aafc:	02e87463          	bgeu	x16,x14,ab24 <__mcmp+0x54>
    ab00:	ffc72603          	lw	x12,-4(x14)
    ab04:	ffc7a683          	lw	x13,-4(x15)
    ab08:	ffc70713          	addi	x14,x14,-4
    ab0c:	ffc78793          	addi	x15,x15,-4
    ab10:	fed606e3          	beq	x12,x13,aafc <__mcmp+0x2c>
    ab14:	00100513          	addi	x10,x0,1
    ab18:	00d67663          	bgeu	x12,x13,ab24 <__mcmp+0x54>
    ab1c:	fff00513          	addi	x10,x0,-1
    ab20:	00008067          	jalr	x0,0(x1)
    ab24:	00008067          	jalr	x0,0(x1)

0000ab28 <__mdiff>:
    ab28:	0105a703          	lw	x14,16(x11)
    ab2c:	01062783          	lw	x15,16(x12)
    ab30:	ff010113          	addi	x2,x2,-16
    ab34:	00812423          	sw	x8,8(x2)
    ab38:	00912223          	sw	x9,4(x2)
    ab3c:	00112623          	sw	x1,12(x2)
    ab40:	01212023          	sw	x18,0(x2)
    ab44:	00058413          	addi	x8,x11,0
    ab48:	00060493          	addi	x9,x12,0
    ab4c:	40f706b3          	sub	x13,x14,x15
    ab50:	18f71e63          	bne	x14,x15,acec <__mdiff+0x1c4>
    ab54:	00279693          	slli	x13,x15,0x2
    ab58:	01458613          	addi	x12,x11,20
    ab5c:	01448713          	addi	x14,x9,20
    ab60:	00d607b3          	add	x15,x12,x13
    ab64:	00d70733          	add	x14,x14,x13
    ab68:	0080006f          	jal	x0,ab70 <__mdiff+0x48>
    ab6c:	18f67c63          	bgeu	x12,x15,ad04 <__mdiff+0x1dc>
    ab70:	ffc7a583          	lw	x11,-4(x15)
    ab74:	ffc72683          	lw	x13,-4(x14)
    ab78:	ffc78793          	addi	x15,x15,-4
    ab7c:	ffc70713          	addi	x14,x14,-4
    ab80:	fed586e3          	beq	x11,x13,ab6c <__mdiff+0x44>
    ab84:	00100913          	addi	x18,x0,1
    ab88:	00d5ea63          	bltu	x11,x13,ab9c <__mdiff+0x74>
    ab8c:	00048793          	addi	x15,x9,0
    ab90:	00000913          	addi	x18,x0,0
    ab94:	00040493          	addi	x9,x8,0
    ab98:	00078413          	addi	x8,x15,0
    ab9c:	0044a583          	lw	x11,4(x9)
    aba0:	cb8ff0ef          	jal	x1,a058 <_Balloc>
    aba4:	1a050663          	beq	x10,x0,ad50 <__mdiff+0x228>
    aba8:	0104a883          	lw	x17,16(x9)
    abac:	01042283          	lw	x5,16(x8)
    abb0:	01448f93          	addi	x31,x9,20
    abb4:	00289313          	slli	x6,x17,0x2
    abb8:	01440813          	addi	x16,x8,20
    abbc:	00229293          	slli	x5,x5,0x2
    abc0:	01450593          	addi	x11,x10,20
    abc4:	00010e37          	lui	x28,0x10
    abc8:	01252623          	sw	x18,12(x10)
    abcc:	006f8333          	add	x6,x31,x6
    abd0:	005802b3          	add	x5,x16,x5
    abd4:	00058f13          	addi	x30,x11,0
    abd8:	000f8e93          	addi	x29,x31,0
    abdc:	00000693          	addi	x13,x0,0
    abe0:	fffe0e13          	addi	x28,x28,-1 # ffff <__subtf3+0x69b>
    abe4:	000ea703          	lw	x14,0(x29)
    abe8:	00082603          	lw	x12,0(x16)
    abec:	004f0f13          	addi	x30,x30,4
    abf0:	01c777b3          	and	x15,x14,x28
    abf4:	01c673b3          	and	x7,x12,x28
    abf8:	407787b3          	sub	x15,x15,x7
    abfc:	00d787b3          	add	x15,x15,x13
    ac00:	01075713          	srli	x14,x14,0x10
    ac04:	01065613          	srli	x12,x12,0x10
    ac08:	4107d693          	srai	x13,x15,0x10
    ac0c:	40c70733          	sub	x14,x14,x12
    ac10:	00d70733          	add	x14,x14,x13
    ac14:	01071693          	slli	x13,x14,0x10
    ac18:	01c7f7b3          	and	x15,x15,x28
    ac1c:	00d7e7b3          	or	x15,x15,x13
    ac20:	00480813          	addi	x16,x16,4
    ac24:	feff2e23          	sw	x15,-4(x30)
    ac28:	004e8e93          	addi	x29,x29,4
    ac2c:	41075693          	srai	x13,x14,0x10
    ac30:	fa586ae3          	bltu	x16,x5,abe4 <__mdiff+0xbc>
    ac34:	01540713          	addi	x14,x8,21
    ac38:	40828433          	sub	x8,x5,x8
    ac3c:	feb40413          	addi	x8,x8,-21
    ac40:	00e2b2b3          	sltu	x5,x5,x14
    ac44:	0012cf13          	xori	x30,x5,1
    ac48:	00245413          	srli	x8,x8,0x2
    ac4c:	00400713          	addi	x14,x0,4
    ac50:	0a028463          	beq	x5,x0,acf8 <__mdiff+0x1d0>
    ac54:	00ef8fb3          	add	x31,x31,x14
    ac58:	00e58833          	add	x16,x11,x14
    ac5c:	00010eb7          	lui	x29,0x10
    ac60:	00080e13          	addi	x28,x16,0
    ac64:	000f8613          	addi	x12,x31,0
    ac68:	fffe8e93          	addi	x29,x29,-1 # ffff <__subtf3+0x69b>
    ac6c:	0c6ff463          	bgeu	x31,x6,ad34 <__mdiff+0x20c>
    ac70:	00062783          	lw	x15,0(x12)
    ac74:	004e0e13          	addi	x28,x28,4
    ac78:	00460613          	addi	x12,x12,4
    ac7c:	01d7f733          	and	x14,x15,x29
    ac80:	00d70733          	add	x14,x14,x13
    ac84:	0107d593          	srli	x11,x15,0x10
    ac88:	41075713          	srai	x14,x14,0x10
    ac8c:	00b70733          	add	x14,x14,x11
    ac90:	00d787b3          	add	x15,x15,x13
    ac94:	01d7f7b3          	and	x15,x15,x29
    ac98:	01071693          	slli	x13,x14,0x10
    ac9c:	00d7e7b3          	or	x15,x15,x13
    aca0:	fefe2e23          	sw	x15,-4(x28)
    aca4:	41075693          	srai	x13,x14,0x10
    aca8:	fc6664e3          	bltu	x12,x6,ac70 <__mdiff+0x148>
    acac:	fff30313          	addi	x6,x6,-1
    acb0:	41f30333          	sub	x6,x6,x31
    acb4:	ffc37313          	andi	x6,x6,-4
    acb8:	00680733          	add	x14,x16,x6
    acbc:	00079a63          	bne	x15,x0,acd0 <__mdiff+0x1a8>
    acc0:	ffc72783          	lw	x15,-4(x14)
    acc4:	fff88893          	addi	x17,x17,-1
    acc8:	ffc70713          	addi	x14,x14,-4
    accc:	fe078ae3          	beq	x15,x0,acc0 <__mdiff+0x198>
    acd0:	00c12083          	lw	x1,12(x2)
    acd4:	00812403          	lw	x8,8(x2)
    acd8:	01152823          	sw	x17,16(x10)
    acdc:	00412483          	lw	x9,4(x2)
    ace0:	00012903          	lw	x18,0(x2)
    ace4:	01010113          	addi	x2,x2,16
    ace8:	00008067          	jalr	x0,0(x1)
    acec:	00100913          	addi	x18,x0,1
    acf0:	e806dee3          	bge	x13,x0,ab8c <__mdiff+0x64>
    acf4:	ea9ff06f          	jal	x0,ab9c <__mdiff+0x74>
    acf8:	00140713          	addi	x14,x8,1
    acfc:	00271713          	slli	x14,x14,0x2
    ad00:	f55ff06f          	jal	x0,ac54 <__mdiff+0x12c>
    ad04:	00000593          	addi	x11,x0,0
    ad08:	b50ff0ef          	jal	x1,a058 <_Balloc>
    ad0c:	06050063          	beq	x10,x0,ad6c <__mdiff+0x244>
    ad10:	00c12083          	lw	x1,12(x2)
    ad14:	00812403          	lw	x8,8(x2)
    ad18:	00100793          	addi	x15,x0,1
    ad1c:	00f52823          	sw	x15,16(x10)
    ad20:	00052a23          	sw	x0,20(x10)
    ad24:	00412483          	lw	x9,4(x2)
    ad28:	00012903          	lw	x18,0(x2)
    ad2c:	01010113          	addi	x2,x2,16
    ad30:	00008067          	jalr	x0,0(x1)
    ad34:	00000713          	addi	x14,x0,0
    ad38:	000f1663          	bne	x30,x0,ad44 <__mdiff+0x21c>
    ad3c:	00e58733          	add	x14,x11,x14
    ad40:	f7dff06f          	jal	x0,acbc <__mdiff+0x194>
    ad44:	00241713          	slli	x14,x8,0x2
    ad48:	00e58733          	add	x14,x11,x14
    ad4c:	f71ff06f          	jal	x0,acbc <__mdiff+0x194>
    ad50:	00007697          	auipc	x13,0x7
    ad54:	ca868693          	addi	x13,x13,-856 # 119f8 <__clzsi2+0x37c>
    ad58:	00000613          	addi	x12,x0,0
    ad5c:	24500593          	addi	x11,x0,581
    ad60:	00007517          	auipc	x10,0x7
    ad64:	cac50513          	addi	x10,x10,-852 # 11a0c <__clzsi2+0x390>
    ad68:	22d000ef          	jal	x1,b794 <__assert_func>
    ad6c:	00007697          	auipc	x13,0x7
    ad70:	c8c68693          	addi	x13,x13,-884 # 119f8 <__clzsi2+0x37c>
    ad74:	00000613          	addi	x12,x0,0
    ad78:	23700593          	addi	x11,x0,567
    ad7c:	00007517          	auipc	x10,0x7
    ad80:	c9050513          	addi	x10,x10,-880 # 11a0c <__clzsi2+0x390>
    ad84:	211000ef          	jal	x1,b794 <__assert_func>

0000ad88 <__ulp>:
    ad88:	7ff007b7          	lui	x15,0x7ff00
    ad8c:	00b7f5b3          	and	x11,x15,x11
    ad90:	fcc007b7          	lui	x15,0xfcc00
    ad94:	00f585b3          	add	x11,x11,x15
    ad98:	00000793          	addi	x15,x0,0
    ad9c:	00b05663          	bge	x0,x11,ada8 <__ulp+0x20>
    ada0:	00078513          	addi	x10,x15,0 # fcc00000 <__heap_end+0xfc800000>
    ada4:	00008067          	jalr	x0,0(x1)
    ada8:	40b005b3          	sub	x11,x0,x11
    adac:	4145d593          	srai	x11,x11,0x14
    adb0:	01300793          	addi	x15,x0,19
    adb4:	00b7cc63          	blt	x15,x11,adcc <__ulp+0x44>
    adb8:	000807b7          	lui	x15,0x80
    adbc:	40b7d5b3          	sra	x11,x15,x11
    adc0:	00000793          	addi	x15,x0,0
    adc4:	00078513          	addi	x10,x15,0 # 80000 <__heap_start+0x6d220>
    adc8:	00008067          	jalr	x0,0(x1)
    adcc:	fec58593          	addi	x11,x11,-20
    add0:	01e00713          	addi	x14,x0,30
    add4:	00100793          	addi	x15,x0,1
    add8:	00b74663          	blt	x14,x11,ade4 <__ulp+0x5c>
    addc:	800007b7          	lui	x15,0x80000
    ade0:	00b7d7b3          	srl	x15,x15,x11
    ade4:	00000593          	addi	x11,x0,0
    ade8:	00078513          	addi	x10,x15,0 # 80000000 <__heap_end+0x7fc00000>
    adec:	00008067          	jalr	x0,0(x1)

0000adf0 <__b2d>:
    adf0:	fe010113          	addi	x2,x2,-32
    adf4:	00912a23          	sw	x9,20(x2)
    adf8:	01052483          	lw	x9,16(x10)
    adfc:	00812c23          	sw	x8,24(x2)
    ae00:	01450413          	addi	x8,x10,20
    ae04:	00249493          	slli	x9,x9,0x2
    ae08:	009404b3          	add	x9,x8,x9
    ae0c:	01212823          	sw	x18,16(x2)
    ae10:	ffc4a903          	lw	x18,-4(x9)
    ae14:	01312623          	sw	x19,12(x2)
    ae18:	01412423          	sw	x20,8(x2)
    ae1c:	00090513          	addi	x10,x18,0
    ae20:	00058993          	addi	x19,x11,0
    ae24:	00112e23          	sw	x1,28(x2)
    ae28:	d8cff0ef          	jal	x1,a3b4 <__hi0bits>
    ae2c:	02000713          	addi	x14,x0,32
    ae30:	40a707b3          	sub	x15,x14,x10
    ae34:	00f9a023          	sw	x15,0(x19)
    ae38:	00a00793          	addi	x15,x0,10
    ae3c:	ffc48a13          	addi	x20,x9,-4
    ae40:	08a7dc63          	bge	x15,x10,aed8 <__b2d+0xe8>
    ae44:	ff550613          	addi	x12,x10,-11
    ae48:	05447063          	bgeu	x8,x20,ae88 <__b2d+0x98>
    ae4c:	ff84a783          	lw	x15,-8(x9)
    ae50:	04060c63          	beq	x12,x0,aea8 <__b2d+0xb8>
    ae54:	40c706b3          	sub	x13,x14,x12
    ae58:	00d7d733          	srl	x14,x15,x13
    ae5c:	00c91933          	sll	x18,x18,x12
    ae60:	00e96933          	or	x18,x18,x14
    ae64:	ff848593          	addi	x11,x9,-8
    ae68:	3ff00737          	lui	x14,0x3ff00
    ae6c:	00e96733          	or	x14,x18,x14
    ae70:	00c797b3          	sll	x15,x15,x12
    ae74:	02b47e63          	bgeu	x8,x11,aeb0 <__b2d+0xc0>
    ae78:	ff44a603          	lw	x12,-12(x9)
    ae7c:	00d656b3          	srl	x13,x12,x13
    ae80:	00d7e7b3          	or	x15,x15,x13
    ae84:	02c0006f          	jal	x0,aeb0 <__b2d+0xc0>
    ae88:	00b00793          	addi	x15,x0,11
    ae8c:	00f50c63          	beq	x10,x15,aea4 <__b2d+0xb4>
    ae90:	00c91933          	sll	x18,x18,x12
    ae94:	3ff00737          	lui	x14,0x3ff00
    ae98:	00e96733          	or	x14,x18,x14
    ae9c:	00000793          	addi	x15,x0,0
    aea0:	0100006f          	jal	x0,aeb0 <__b2d+0xc0>
    aea4:	00000793          	addi	x15,x0,0
    aea8:	3ff00737          	lui	x14,0x3ff00
    aeac:	00e96733          	or	x14,x18,x14
    aeb0:	01c12083          	lw	x1,28(x2)
    aeb4:	01812403          	lw	x8,24(x2)
    aeb8:	01412483          	lw	x9,20(x2)
    aebc:	01012903          	lw	x18,16(x2)
    aec0:	00c12983          	lw	x19,12(x2)
    aec4:	00812a03          	lw	x20,8(x2)
    aec8:	00078513          	addi	x10,x15,0
    aecc:	00070593          	addi	x11,x14,0 # 3ff00000 <__heap_end+0x3fb00000>
    aed0:	02010113          	addi	x2,x2,32
    aed4:	00008067          	jalr	x0,0(x1)
    aed8:	00b00693          	addi	x13,x0,11
    aedc:	40a686b3          	sub	x13,x13,x10
    aee0:	3ff007b7          	lui	x15,0x3ff00
    aee4:	00d95733          	srl	x14,x18,x13
    aee8:	00f76733          	or	x14,x14,x15
    aeec:	00000793          	addi	x15,x0,0
    aef0:	01447663          	bgeu	x8,x20,aefc <__b2d+0x10c>
    aef4:	ff84a783          	lw	x15,-8(x9)
    aef8:	00d7d7b3          	srl	x15,x15,x13
    aefc:	01550513          	addi	x10,x10,21
    af00:	00a91933          	sll	x18,x18,x10
    af04:	00f967b3          	or	x15,x18,x15
    af08:	fa9ff06f          	jal	x0,aeb0 <__b2d+0xc0>

0000af0c <__d2b>:
    af0c:	fd010113          	addi	x2,x2,-48
    af10:	01512a23          	sw	x21,20(x2)
    af14:	00058a93          	addi	x21,x11,0
    af18:	00100593          	addi	x11,x0,1
    af1c:	02912223          	sw	x9,36(x2)
    af20:	01312e23          	sw	x19,28(x2)
    af24:	01412c23          	sw	x20,24(x2)
    af28:	02112623          	sw	x1,44(x2)
    af2c:	02812423          	sw	x8,40(x2)
    af30:	03212023          	sw	x18,32(x2)
    af34:	00060493          	addi	x9,x12,0
    af38:	00068a13          	addi	x20,x13,0
    af3c:	00070993          	addi	x19,x14,0
    af40:	918ff0ef          	jal	x1,a058 <_Balloc>
    af44:	10050263          	beq	x10,x0,b048 <__d2b+0x13c>
    af48:	00100737          	lui	x14,0x100
    af4c:	0144d913          	srli	x18,x9,0x14
    af50:	fff70793          	addi	x15,x14,-1 # fffff <__heap_start+0xed21f>
    af54:	7ff97913          	andi	x18,x18,2047
    af58:	00050413          	addi	x8,x10,0
    af5c:	0097f7b3          	and	x15,x15,x9
    af60:	00090463          	beq	x18,x0,af68 <__d2b+0x5c>
    af64:	00e7e7b3          	or	x15,x15,x14
    af68:	00f12623          	sw	x15,12(x2)
    af6c:	060a9263          	bne	x21,x0,afd0 <__d2b+0xc4>
    af70:	00c10513          	addi	x10,x2,12
    af74:	cb8ff0ef          	jal	x1,a42c <__lo0bits>
    af78:	00c12703          	lw	x14,12(x2)
    af7c:	00100493          	addi	x9,x0,1
    af80:	00942823          	sw	x9,16(x8)
    af84:	00e42a23          	sw	x14,20(x8)
    af88:	02050793          	addi	x15,x10,32
    af8c:	08090863          	beq	x18,x0,b01c <__d2b+0x110>
    af90:	bcd90913          	addi	x18,x18,-1075
    af94:	00f90933          	add	x18,x18,x15
    af98:	03500493          	addi	x9,x0,53
    af9c:	012a2023          	sw	x18,0(x20)
    afa0:	40f48533          	sub	x10,x9,x15
    afa4:	00a9a023          	sw	x10,0(x19)
    afa8:	02c12083          	lw	x1,44(x2)
    afac:	00040513          	addi	x10,x8,0
    afb0:	02812403          	lw	x8,40(x2)
    afb4:	02412483          	lw	x9,36(x2)
    afb8:	02012903          	lw	x18,32(x2)
    afbc:	01c12983          	lw	x19,28(x2)
    afc0:	01812a03          	lw	x20,24(x2)
    afc4:	01412a83          	lw	x21,20(x2)
    afc8:	03010113          	addi	x2,x2,48
    afcc:	00008067          	jalr	x0,0(x1)
    afd0:	00810513          	addi	x10,x2,8
    afd4:	01512423          	sw	x21,8(x2)
    afd8:	c54ff0ef          	jal	x1,a42c <__lo0bits>
    afdc:	00c12703          	lw	x14,12(x2)
    afe0:	00050793          	addi	x15,x10,0
    afe4:	04050e63          	beq	x10,x0,b040 <__d2b+0x134>
    afe8:	00812603          	lw	x12,8(x2)
    afec:	02000693          	addi	x13,x0,32
    aff0:	40a686b3          	sub	x13,x13,x10
    aff4:	00d716b3          	sll	x13,x14,x13
    aff8:	00a75733          	srl	x14,x14,x10
    affc:	00c6e6b3          	or	x13,x13,x12
    b000:	00e12623          	sw	x14,12(x2)
    b004:	00e034b3          	sltu	x9,x0,x14
    b008:	00148493          	addi	x9,x9,1
    b00c:	00d42a23          	sw	x13,20(x8)
    b010:	00e42c23          	sw	x14,24(x8)
    b014:	00942823          	sw	x9,16(x8)
    b018:	f6091ce3          	bne	x18,x0,af90 <__d2b+0x84>
    b01c:	00249713          	slli	x14,x9,0x2
    b020:	00e40733          	add	x14,x8,x14
    b024:	01072503          	lw	x10,16(x14)
    b028:	bce78793          	addi	x15,x15,-1074 # 3feffbce <__heap_end+0x3faffbce>
    b02c:	00fa2023          	sw	x15,0(x20)
    b030:	b84ff0ef          	jal	x1,a3b4 <__hi0bits>
    b034:	00549493          	slli	x9,x9,0x5
    b038:	40a48533          	sub	x10,x9,x10
    b03c:	f69ff06f          	jal	x0,afa4 <__d2b+0x98>
    b040:	00812683          	lw	x13,8(x2)
    b044:	fc1ff06f          	jal	x0,b004 <__d2b+0xf8>
    b048:	00007697          	auipc	x13,0x7
    b04c:	9b068693          	addi	x13,x13,-1616 # 119f8 <__clzsi2+0x37c>
    b050:	00000613          	addi	x12,x0,0
    b054:	30f00593          	addi	x11,x0,783
    b058:	00007517          	auipc	x10,0x7
    b05c:	9b450513          	addi	x10,x10,-1612 # 11a0c <__clzsi2+0x390>
    b060:	734000ef          	jal	x1,b794 <__assert_func>

0000b064 <__ratio>:
    b064:	fd010113          	addi	x2,x2,-48
    b068:	03212023          	sw	x18,32(x2)
    b06c:	00058913          	addi	x18,x11,0
    b070:	00810593          	addi	x11,x2,8
    b074:	02112623          	sw	x1,44(x2)
    b078:	02812423          	sw	x8,40(x2)
    b07c:	02912223          	sw	x9,36(x2)
    b080:	01312e23          	sw	x19,28(x2)
    b084:	00050993          	addi	x19,x10,0
    b088:	d69ff0ef          	jal	x1,adf0 <__b2d>
    b08c:	00050493          	addi	x9,x10,0
    b090:	00058413          	addi	x8,x11,0
    b094:	00090513          	addi	x10,x18,0
    b098:	00c10593          	addi	x11,x2,12
    b09c:	d55ff0ef          	jal	x1,adf0 <__b2d>
    b0a0:	01092703          	lw	x14,16(x18)
    b0a4:	0109a783          	lw	x15,16(x19)
    b0a8:	00c12683          	lw	x13,12(x2)
    b0ac:	40e787b3          	sub	x15,x15,x14
    b0b0:	00812703          	lw	x14,8(x2)
    b0b4:	00579793          	slli	x15,x15,0x5
    b0b8:	40d70733          	sub	x14,x14,x13
    b0bc:	00e787b3          	add	x15,x15,x14
    b0c0:	00050713          	addi	x14,x10,0
    b0c4:	02f05e63          	bge	x0,x15,b100 <__ratio+0x9c>
    b0c8:	01479793          	slli	x15,x15,0x14
    b0cc:	00878433          	add	x8,x15,x8
    b0d0:	00058693          	addi	x13,x11,0
    b0d4:	00048513          	addi	x10,x9,0
    b0d8:	00040593          	addi	x11,x8,0
    b0dc:	00070613          	addi	x12,x14,0
    b0e0:	005010ef          	jal	x1,c8e4 <__divdf3>
    b0e4:	02c12083          	lw	x1,44(x2)
    b0e8:	02812403          	lw	x8,40(x2)
    b0ec:	02412483          	lw	x9,36(x2)
    b0f0:	02012903          	lw	x18,32(x2)
    b0f4:	01c12983          	lw	x19,28(x2)
    b0f8:	03010113          	addi	x2,x2,48
    b0fc:	00008067          	jalr	x0,0(x1)
    b100:	01479793          	slli	x15,x15,0x14
    b104:	40f585b3          	sub	x11,x11,x15
    b108:	fc9ff06f          	jal	x0,b0d0 <__ratio+0x6c>

0000b10c <_mprec_log10>:
    b10c:	ff010113          	addi	x2,x2,-16
    b110:	01212023          	sw	x18,0(x2)
    b114:	00112623          	sw	x1,12(x2)
    b118:	01700793          	addi	x15,x0,23
    b11c:	00050913          	addi	x18,x10,0
    b120:	06a7d263          	bge	x15,x10,b184 <_mprec_log10+0x78>
    b124:	00008717          	auipc	x14,0x8
    b128:	96470713          	addi	x14,x14,-1692 # 12a88 <__SDATA_BEGIN__+0x30>
    b12c:	00072783          	lw	x15,0(x14)
    b130:	00472583          	lw	x11,4(x14)
    b134:	00008717          	auipc	x14,0x8
    b138:	95c70713          	addi	x14,x14,-1700 # 12a90 <__SDATA_BEGIN__+0x38>
    b13c:	00812423          	sw	x8,8(x2)
    b140:	00912223          	sw	x9,4(x2)
    b144:	00072403          	lw	x8,0(x14)
    b148:	00472483          	lw	x9,4(x14)
    b14c:	00078513          	addi	x10,x15,0
    b150:	00040613          	addi	x12,x8,0
    b154:	00048693          	addi	x13,x9,0
    b158:	1ac020ef          	jal	x1,d304 <__muldf3>
    b15c:	fff90913          	addi	x18,x18,-1
    b160:	00050793          	addi	x15,x10,0
    b164:	fe0914e3          	bne	x18,x0,b14c <_mprec_log10+0x40>
    b168:	00812403          	lw	x8,8(x2)
    b16c:	00c12083          	lw	x1,12(x2)
    b170:	00412483          	lw	x9,4(x2)
    b174:	00012903          	lw	x18,0(x2)
    b178:	00078513          	addi	x10,x15,0
    b17c:	01010113          	addi	x2,x2,16
    b180:	00008067          	jalr	x0,0(x1)
    b184:	00351913          	slli	x18,x10,0x3
    b188:	00007717          	auipc	x14,0x7
    b18c:	eb870713          	addi	x14,x14,-328 # 12040 <p05.0>
    b190:	01270733          	add	x14,x14,x18
    b194:	01072783          	lw	x15,16(x14)
    b198:	00c12083          	lw	x1,12(x2)
    b19c:	01472583          	lw	x11,20(x14)
    b1a0:	00012903          	lw	x18,0(x2)
    b1a4:	00078513          	addi	x10,x15,0
    b1a8:	01010113          	addi	x2,x2,16
    b1ac:	00008067          	jalr	x0,0(x1)

0000b1b0 <__copybits>:
    b1b0:	01062683          	lw	x13,16(x12)
    b1b4:	fff58593          	addi	x11,x11,-1
    b1b8:	4055d593          	srai	x11,x11,0x5
    b1bc:	00158593          	addi	x11,x11,1
    b1c0:	01460793          	addi	x15,x12,20
    b1c4:	00269693          	slli	x13,x13,0x2
    b1c8:	00259593          	slli	x11,x11,0x2
    b1cc:	00d786b3          	add	x13,x15,x13
    b1d0:	00b505b3          	add	x11,x10,x11
    b1d4:	02d7f863          	bgeu	x15,x13,b204 <__copybits+0x54>
    b1d8:	00050713          	addi	x14,x10,0
    b1dc:	0007a803          	lw	x16,0(x15)
    b1e0:	00478793          	addi	x15,x15,4
    b1e4:	00470713          	addi	x14,x14,4
    b1e8:	ff072e23          	sw	x16,-4(x14)
    b1ec:	fed7e8e3          	bltu	x15,x13,b1dc <__copybits+0x2c>
    b1f0:	40c687b3          	sub	x15,x13,x12
    b1f4:	feb78793          	addi	x15,x15,-21
    b1f8:	ffc7f793          	andi	x15,x15,-4
    b1fc:	00478793          	addi	x15,x15,4
    b200:	00f50533          	add	x10,x10,x15
    b204:	00b57863          	bgeu	x10,x11,b214 <__copybits+0x64>
    b208:	00450513          	addi	x10,x10,4
    b20c:	fe052e23          	sw	x0,-4(x10)
    b210:	feb56ce3          	bltu	x10,x11,b208 <__copybits+0x58>
    b214:	00008067          	jalr	x0,0(x1)

0000b218 <__any_on>:
    b218:	01052703          	lw	x14,16(x10)
    b21c:	4055d613          	srai	x12,x11,0x5
    b220:	01450693          	addi	x13,x10,20
    b224:	02c75263          	bge	x14,x12,b248 <__any_on+0x30>
    b228:	00271713          	slli	x14,x14,0x2
    b22c:	00e687b3          	add	x15,x13,x14
    b230:	04f6f263          	bgeu	x13,x15,b274 <__any_on+0x5c>
    b234:	ffc7a703          	lw	x14,-4(x15)
    b238:	ffc78793          	addi	x15,x15,-4
    b23c:	fe070ae3          	beq	x14,x0,b230 <__any_on+0x18>
    b240:	00100513          	addi	x10,x0,1
    b244:	00008067          	jalr	x0,0(x1)
    b248:	00261793          	slli	x15,x12,0x2
    b24c:	00f687b3          	add	x15,x13,x15
    b250:	fee650e3          	bge	x12,x14,b230 <__any_on+0x18>
    b254:	01f5f593          	andi	x11,x11,31
    b258:	fc058ce3          	beq	x11,x0,b230 <__any_on+0x18>
    b25c:	0007a603          	lw	x12,0(x15)
    b260:	00100513          	addi	x10,x0,1
    b264:	00b65733          	srl	x14,x12,x11
    b268:	00b71733          	sll	x14,x14,x11
    b26c:	fce602e3          	beq	x12,x14,b230 <__any_on+0x18>
    b270:	00008067          	jalr	x0,0(x1)
    b274:	00000513          	addi	x10,x0,0
    b278:	00008067          	jalr	x0,0(x1)

0000b27c <__rshift_D2A>:
    b27c:	01052803          	lw	x16,16(x10)
    b280:	4055de13          	srai	x28,x11,0x5
    b284:	010e4863          	blt	x28,x16,b294 <__rshift_D2A+0x18>
    b288:	00052823          	sw	x0,16(x10)
    b28c:	00052a23          	sw	x0,20(x10)
    b290:	00008067          	jalr	x0,0(x1)
    b294:	01450313          	addi	x6,x10,20
    b298:	00281613          	slli	x12,x16,0x2
    b29c:	002e1793          	slli	x15,x28,0x2
    b2a0:	01f5f593          	andi	x11,x11,31
    b2a4:	00c30633          	add	x12,x6,x12
    b2a8:	00f307b3          	add	x15,x6,x15
    b2ac:	06058263          	beq	x11,x0,b310 <__rshift_D2A+0x94>
    b2b0:	0007a683          	lw	x13,0(x15)
    b2b4:	02000e93          	addi	x29,x0,32
    b2b8:	00478793          	addi	x15,x15,4
    b2bc:	40be8eb3          	sub	x29,x29,x11
    b2c0:	00b6d6b3          	srl	x13,x13,x11
    b2c4:	08c7f463          	bgeu	x15,x12,b34c <__rshift_D2A+0xd0>
    b2c8:	00030893          	addi	x17,x6,0
    b2cc:	0007a703          	lw	x14,0(x15)
    b2d0:	00488893          	addi	x17,x17,4
    b2d4:	00478793          	addi	x15,x15,4
    b2d8:	01d71733          	sll	x14,x14,x29
    b2dc:	00d76733          	or	x14,x14,x13
    b2e0:	fee8ae23          	sw	x14,-4(x17)
    b2e4:	ffc7a683          	lw	x13,-4(x15)
    b2e8:	00b6d6b3          	srl	x13,x13,x11
    b2ec:	fec7e0e3          	bltu	x15,x12,b2cc <__rshift_D2A+0x50>
    b2f0:	41c80833          	sub	x16,x16,x28
    b2f4:	00281813          	slli	x16,x16,0x2
    b2f8:	ffc80813          	addi	x16,x16,-4
    b2fc:	01030833          	add	x16,x6,x16
    b300:	00d82023          	sw	x13,0(x16)
    b304:	02068a63          	beq	x13,x0,b338 <__rshift_D2A+0xbc>
    b308:	00480813          	addi	x16,x16,4
    b30c:	02c0006f          	jal	x0,b338 <__rshift_D2A+0xbc>
    b310:	00030713          	addi	x14,x6,0
    b314:	f6c7fae3          	bgeu	x15,x12,b288 <__rshift_D2A+0xc>
    b318:	0007a683          	lw	x13,0(x15)
    b31c:	00478793          	addi	x15,x15,4
    b320:	00470713          	addi	x14,x14,4
    b324:	fed72e23          	sw	x13,-4(x14)
    b328:	fec7e8e3          	bltu	x15,x12,b318 <__rshift_D2A+0x9c>
    b32c:	41c80833          	sub	x16,x16,x28
    b330:	00281813          	slli	x16,x16,0x2
    b334:	01030833          	add	x16,x6,x16
    b338:	406807b3          	sub	x15,x16,x6
    b33c:	4027d793          	srai	x15,x15,0x2
    b340:	00f52823          	sw	x15,16(x10)
    b344:	f46804e3          	beq	x16,x6,b28c <__rshift_D2A+0x10>
    b348:	00008067          	jalr	x0,0(x1)
    b34c:	00d52a23          	sw	x13,20(x10)
    b350:	f2068ce3          	beq	x13,x0,b288 <__rshift_D2A+0xc>
    b354:	00030813          	addi	x16,x6,0
    b358:	00480813          	addi	x16,x16,4
    b35c:	fddff06f          	jal	x0,b338 <__rshift_D2A+0xbc>

0000b360 <__trailz_D2A>:
    b360:	01052703          	lw	x14,16(x10)
    b364:	fe010113          	addi	x2,x2,-32
    b368:	01450513          	addi	x10,x10,20
    b36c:	00271713          	slli	x14,x14,0x2
    b370:	00812c23          	sw	x8,24(x2)
    b374:	00112e23          	sw	x1,28(x2)
    b378:	00e50733          	add	x14,x10,x14
    b37c:	00000413          	addi	x8,x0,0
    b380:	00e56a63          	bltu	x10,x14,b394 <__trailz_D2A+0x34>
    b384:	02c0006f          	jal	x0,b3b0 <__trailz_D2A+0x50>
    b388:	00450513          	addi	x10,x10,4
    b38c:	02040413          	addi	x8,x8,32
    b390:	02e57063          	bgeu	x10,x14,b3b0 <__trailz_D2A+0x50>
    b394:	00052783          	lw	x15,0(x10)
    b398:	fe0788e3          	beq	x15,x0,b388 <__trailz_D2A+0x28>
    b39c:	00e57a63          	bgeu	x10,x14,b3b0 <__trailz_D2A+0x50>
    b3a0:	00c10513          	addi	x10,x2,12
    b3a4:	00f12623          	sw	x15,12(x2)
    b3a8:	884ff0ef          	jal	x1,a42c <__lo0bits>
    b3ac:	00a40433          	add	x8,x8,x10
    b3b0:	01c12083          	lw	x1,28(x2)
    b3b4:	00040513          	addi	x10,x8,0
    b3b8:	01812403          	lw	x8,24(x2)
    b3bc:	02010113          	addi	x2,x2,32
    b3c0:	00008067          	jalr	x0,0(x1)

0000b3c4 <_wcrtomb_r>:
    b3c4:	fe010113          	addi	x2,x2,-32
    b3c8:	00812c23          	sw	x8,24(x2)
    b3cc:	00912a23          	sw	x9,20(x2)
    b3d0:	00112e23          	sw	x1,28(x2)
    b3d4:	00050413          	addi	x8,x10,0
    b3d8:	00068493          	addi	x9,x13,0
    b3dc:	e181a783          	lw	x15,-488(x3) # 129c8 <__global_locale+0xe0>
    b3e0:	02058263          	beq	x11,x0,b404 <_wcrtomb_r+0x40>
    b3e4:	000780e7          	jalr	x1,0(x15)
    b3e8:	fff00793          	addi	x15,x0,-1
    b3ec:	02f50663          	beq	x10,x15,b418 <_wcrtomb_r+0x54>
    b3f0:	01c12083          	lw	x1,28(x2)
    b3f4:	01812403          	lw	x8,24(x2)
    b3f8:	01412483          	lw	x9,20(x2)
    b3fc:	02010113          	addi	x2,x2,32
    b400:	00008067          	jalr	x0,0(x1)
    b404:	00000613          	addi	x12,x0,0
    b408:	00410593          	addi	x11,x2,4
    b40c:	000780e7          	jalr	x1,0(x15)
    b410:	fff00793          	addi	x15,x0,-1
    b414:	fcf51ee3          	bne	x10,x15,b3f0 <_wcrtomb_r+0x2c>
    b418:	0004a023          	sw	x0,0(x9)
    b41c:	08a00793          	addi	x15,x0,138
    b420:	01c12083          	lw	x1,28(x2)
    b424:	00f42023          	sw	x15,0(x8)
    b428:	01812403          	lw	x8,24(x2)
    b42c:	01412483          	lw	x9,20(x2)
    b430:	02010113          	addi	x2,x2,32
    b434:	00008067          	jalr	x0,0(x1)

0000b438 <wcrtomb>:
    b438:	fe010113          	addi	x2,x2,-32
    b43c:	00812c23          	sw	x8,24(x2)
    b440:	00912a23          	sw	x9,20(x2)
    b444:	00112e23          	sw	x1,28(x2)
    b448:	00060413          	addi	x8,x12,0
    b44c:	f141a483          	lw	x9,-236(x3) # 12ac4 <_impure_ptr>
    b450:	e181a783          	lw	x15,-488(x3) # 129c8 <__global_locale+0xe0>
    b454:	02050a63          	beq	x10,x0,b488 <wcrtomb+0x50>
    b458:	00058613          	addi	x12,x11,0
    b45c:	00040693          	addi	x13,x8,0
    b460:	00050593          	addi	x11,x10,0
    b464:	00048513          	addi	x10,x9,0
    b468:	000780e7          	jalr	x1,0(x15)
    b46c:	fff00793          	addi	x15,x0,-1
    b470:	02f50a63          	beq	x10,x15,b4a4 <wcrtomb+0x6c>
    b474:	01c12083          	lw	x1,28(x2)
    b478:	01812403          	lw	x8,24(x2)
    b47c:	01412483          	lw	x9,20(x2)
    b480:	02010113          	addi	x2,x2,32
    b484:	00008067          	jalr	x0,0(x1)
    b488:	00060693          	addi	x13,x12,0
    b48c:	00410593          	addi	x11,x2,4
    b490:	00000613          	addi	x12,x0,0
    b494:	00048513          	addi	x10,x9,0
    b498:	000780e7          	jalr	x1,0(x15)
    b49c:	fff00793          	addi	x15,x0,-1
    b4a0:	fcf51ae3          	bne	x10,x15,b474 <wcrtomb+0x3c>
    b4a4:	00042023          	sw	x0,0(x8)
    b4a8:	01c12083          	lw	x1,28(x2)
    b4ac:	01812403          	lw	x8,24(x2)
    b4b0:	08a00793          	addi	x15,x0,138
    b4b4:	00f4a023          	sw	x15,0(x9)
    b4b8:	01412483          	lw	x9,20(x2)
    b4bc:	02010113          	addi	x2,x2,32
    b4c0:	00008067          	jalr	x0,0(x1)

0000b4c4 <_setlocale_r>:
    b4c4:	04060063          	beq	x12,x0,b504 <_setlocale_r+0x40>
    b4c8:	ff010113          	addi	x2,x2,-16
    b4cc:	00006597          	auipc	x11,0x6
    b4d0:	57858593          	addi	x11,x11,1400 # 11a44 <__clzsi2+0x3c8>
    b4d4:	00060513          	addi	x10,x12,0
    b4d8:	00812423          	sw	x8,8(x2)
    b4dc:	00112623          	sw	x1,12(x2)
    b4e0:	00060413          	addi	x8,x12,0
    b4e4:	318000ef          	jal	x1,b7fc <strcmp>
    b4e8:	02051463          	bne	x10,x0,b510 <_setlocale_r+0x4c>
    b4ec:	00006517          	auipc	x10,0x6
    b4f0:	55450513          	addi	x10,x10,1364 # 11a40 <__clzsi2+0x3c4>
    b4f4:	00c12083          	lw	x1,12(x2)
    b4f8:	00812403          	lw	x8,8(x2)
    b4fc:	01010113          	addi	x2,x2,16
    b500:	00008067          	jalr	x0,0(x1)
    b504:	00006517          	auipc	x10,0x6
    b508:	53c50513          	addi	x10,x10,1340 # 11a40 <__clzsi2+0x3c4>
    b50c:	00008067          	jalr	x0,0(x1)
    b510:	00006597          	auipc	x11,0x6
    b514:	53058593          	addi	x11,x11,1328 # 11a40 <__clzsi2+0x3c4>
    b518:	00040513          	addi	x10,x8,0
    b51c:	2e0000ef          	jal	x1,b7fc <strcmp>
    b520:	fc0506e3          	beq	x10,x0,b4ec <_setlocale_r+0x28>
    b524:	00006597          	auipc	x11,0x6
    b528:	2d858593          	addi	x11,x11,728 # 117fc <__clzsi2+0x180>
    b52c:	00040513          	addi	x10,x8,0
    b530:	2cc000ef          	jal	x1,b7fc <strcmp>
    b534:	fa050ce3          	beq	x10,x0,b4ec <_setlocale_r+0x28>
    b538:	00000513          	addi	x10,x0,0
    b53c:	fb9ff06f          	jal	x0,b4f4 <_setlocale_r+0x30>

0000b540 <__locale_mb_cur_max>:
    b540:	e601c503          	lbu	x10,-416(x3) # 12a10 <__global_locale+0x128>
    b544:	00008067          	jalr	x0,0(x1)

0000b548 <setlocale>:
    b548:	04058063          	beq	x11,x0,b588 <setlocale+0x40>
    b54c:	ff010113          	addi	x2,x2,-16
    b550:	00812423          	sw	x8,8(x2)
    b554:	00058413          	addi	x8,x11,0
    b558:	00040513          	addi	x10,x8,0
    b55c:	00006597          	auipc	x11,0x6
    b560:	4e858593          	addi	x11,x11,1256 # 11a44 <__clzsi2+0x3c8>
    b564:	00112623          	sw	x1,12(x2)
    b568:	294000ef          	jal	x1,b7fc <strcmp>
    b56c:	02051463          	bne	x10,x0,b594 <setlocale+0x4c>
    b570:	00006517          	auipc	x10,0x6
    b574:	4d050513          	addi	x10,x10,1232 # 11a40 <__clzsi2+0x3c4>
    b578:	00c12083          	lw	x1,12(x2)
    b57c:	00812403          	lw	x8,8(x2)
    b580:	01010113          	addi	x2,x2,16
    b584:	00008067          	jalr	x0,0(x1)
    b588:	00006517          	auipc	x10,0x6
    b58c:	4b850513          	addi	x10,x10,1208 # 11a40 <__clzsi2+0x3c4>
    b590:	00008067          	jalr	x0,0(x1)
    b594:	00006597          	auipc	x11,0x6
    b598:	4ac58593          	addi	x11,x11,1196 # 11a40 <__clzsi2+0x3c4>
    b59c:	00040513          	addi	x10,x8,0
    b5a0:	25c000ef          	jal	x1,b7fc <strcmp>
    b5a4:	fc0506e3          	beq	x10,x0,b570 <setlocale+0x28>
    b5a8:	00006597          	auipc	x11,0x6
    b5ac:	25458593          	addi	x11,x11,596 # 117fc <__clzsi2+0x180>
    b5b0:	00040513          	addi	x10,x8,0
    b5b4:	248000ef          	jal	x1,b7fc <strcmp>
    b5b8:	fa050ce3          	beq	x10,x0,b570 <setlocale+0x28>
    b5bc:	00000513          	addi	x10,x0,0
    b5c0:	fb9ff06f          	jal	x0,b578 <setlocale+0x30>

0000b5c4 <_calloc_r>:
    b5c4:	02c5b7b3          	mulhu	x15,x11,x12
    b5c8:	ff010113          	addi	x2,x2,-16
    b5cc:	00112623          	sw	x1,12(x2)
    b5d0:	00812423          	sw	x8,8(x2)
    b5d4:	02c585b3          	mul	x11,x11,x12
    b5d8:	0a079063          	bne	x15,x0,b678 <_calloc_r+0xb4>
    b5dc:	aedf50ef          	jal	x1,10c8 <_malloc_r>
    b5e0:	00050413          	addi	x8,x10,0
    b5e4:	0a050063          	beq	x10,x0,b684 <_calloc_r+0xc0>
    b5e8:	ffc52603          	lw	x12,-4(x10)
    b5ec:	02400713          	addi	x14,x0,36
    b5f0:	ffc67613          	andi	x12,x12,-4
    b5f4:	ffc60613          	addi	x12,x12,-4
    b5f8:	04c76863          	bltu	x14,x12,b648 <_calloc_r+0x84>
    b5fc:	01300693          	addi	x13,x0,19
    b600:	00050793          	addi	x15,x10,0
    b604:	02c6f263          	bgeu	x13,x12,b628 <_calloc_r+0x64>
    b608:	00052023          	sw	x0,0(x10)
    b60c:	00052223          	sw	x0,4(x10)
    b610:	01b00793          	addi	x15,x0,27
    b614:	04c7f863          	bgeu	x15,x12,b664 <_calloc_r+0xa0>
    b618:	00052423          	sw	x0,8(x10)
    b61c:	00052623          	sw	x0,12(x10)
    b620:	01050793          	addi	x15,x10,16
    b624:	06e60c63          	beq	x12,x14,b69c <_calloc_r+0xd8>
    b628:	0007a023          	sw	x0,0(x15)
    b62c:	0007a223          	sw	x0,4(x15)
    b630:	0007a423          	sw	x0,8(x15)
    b634:	00c12083          	lw	x1,12(x2)
    b638:	00040513          	addi	x10,x8,0
    b63c:	00812403          	lw	x8,8(x2)
    b640:	01010113          	addi	x2,x2,16
    b644:	00008067          	jalr	x0,0(x1)
    b648:	00000593          	addi	x11,x0,0
    b64c:	845f60ef          	jal	x1,1e90 <memset>
    b650:	00c12083          	lw	x1,12(x2)
    b654:	00040513          	addi	x10,x8,0
    b658:	00812403          	lw	x8,8(x2)
    b65c:	01010113          	addi	x2,x2,16
    b660:	00008067          	jalr	x0,0(x1)
    b664:	00850793          	addi	x15,x10,8
    b668:	0007a023          	sw	x0,0(x15)
    b66c:	0007a223          	sw	x0,4(x15)
    b670:	0007a423          	sw	x0,8(x15)
    b674:	fc1ff06f          	jal	x0,b634 <_calloc_r+0x70>
    b678:	08c000ef          	jal	x1,b704 <__errno>
    b67c:	00c00793          	addi	x15,x0,12
    b680:	00f52023          	sw	x15,0(x10)
    b684:	00000413          	addi	x8,x0,0
    b688:	00c12083          	lw	x1,12(x2)
    b68c:	00040513          	addi	x10,x8,0
    b690:	00812403          	lw	x8,8(x2)
    b694:	01010113          	addi	x2,x2,16
    b698:	00008067          	jalr	x0,0(x1)
    b69c:	00052823          	sw	x0,16(x10)
    b6a0:	01850793          	addi	x15,x10,24
    b6a4:	00052a23          	sw	x0,20(x10)
    b6a8:	f81ff06f          	jal	x0,b628 <_calloc_r+0x64>

0000b6ac <_fstat_r>:
    b6ac:	ff010113          	addi	x2,x2,-16
    b6b0:	00058713          	addi	x14,x11,0
    b6b4:	00812423          	sw	x8,8(x2)
    b6b8:	00060593          	addi	x11,x12,0
    b6bc:	00050413          	addi	x8,x10,0
    b6c0:	00070513          	addi	x10,x14,0
    b6c4:	f001ac23          	sw	x0,-232(x3) # 12ac8 <errno>
    b6c8:	00112623          	sw	x1,12(x2)
    b6cc:	c6bf40ef          	jal	x1,336 <_fstat>
    b6d0:	fff00793          	addi	x15,x0,-1
    b6d4:	00f50a63          	beq	x10,x15,b6e8 <_fstat_r+0x3c>
    b6d8:	00c12083          	lw	x1,12(x2)
    b6dc:	00812403          	lw	x8,8(x2)
    b6e0:	01010113          	addi	x2,x2,16
    b6e4:	00008067          	jalr	x0,0(x1)
    b6e8:	f181a783          	lw	x15,-232(x3) # 12ac8 <errno>
    b6ec:	fe0786e3          	beq	x15,x0,b6d8 <_fstat_r+0x2c>
    b6f0:	00c12083          	lw	x1,12(x2)
    b6f4:	00f42023          	sw	x15,0(x8)
    b6f8:	00812403          	lw	x8,8(x2)
    b6fc:	01010113          	addi	x2,x2,16
    b700:	00008067          	jalr	x0,0(x1)

0000b704 <__errno>:
    b704:	f141a503          	lw	x10,-236(x3) # 12ac4 <_impure_ptr>
    b708:	00008067          	jalr	x0,0(x1)

0000b70c <_isatty_r>:
    b70c:	ff010113          	addi	x2,x2,-16
    b710:	00812423          	sw	x8,8(x2)
    b714:	00050413          	addi	x8,x10,0
    b718:	00058513          	addi	x10,x11,0
    b71c:	f001ac23          	sw	x0,-232(x3) # 12ac8 <errno>
    b720:	00112623          	sw	x1,12(x2)
    b724:	c4ff40ef          	jal	x1,372 <_isatty>
    b728:	fff00793          	addi	x15,x0,-1
    b72c:	00f50a63          	beq	x10,x15,b740 <_isatty_r+0x34>
    b730:	00c12083          	lw	x1,12(x2)
    b734:	00812403          	lw	x8,8(x2)
    b738:	01010113          	addi	x2,x2,16
    b73c:	00008067          	jalr	x0,0(x1)
    b740:	f181a783          	lw	x15,-232(x3) # 12ac8 <errno>
    b744:	fe0786e3          	beq	x15,x0,b730 <_isatty_r+0x24>
    b748:	00c12083          	lw	x1,12(x2)
    b74c:	00f42023          	sw	x15,0(x8)
    b750:	00812403          	lw	x8,8(x2)
    b754:	01010113          	addi	x2,x2,16
    b758:	00008067          	jalr	x0,0(x1)

0000b75c <_wctomb_r>:
    b75c:	e181a783          	lw	x15,-488(x3) # 129c8 <__global_locale+0xe0>
    b760:	00078067          	jalr	x0,0(x15)

0000b764 <__ascii_wctomb>:
    b764:	02058463          	beq	x11,x0,b78c <__ascii_wctomb+0x28>
    b768:	0ff00793          	addi	x15,x0,255
    b76c:	00c7e863          	bltu	x15,x12,b77c <__ascii_wctomb+0x18>
    b770:	00c58023          	sb	x12,0(x11)
    b774:	00100513          	addi	x10,x0,1
    b778:	00008067          	jalr	x0,0(x1)
    b77c:	08a00793          	addi	x15,x0,138
    b780:	00f52023          	sw	x15,0(x10)
    b784:	fff00513          	addi	x10,x0,-1
    b788:	00008067          	jalr	x0,0(x1)
    b78c:	00000513          	addi	x10,x0,0
    b790:	00008067          	jalr	x0,0(x1)

0000b794 <__assert_func>:
    b794:	ff010113          	addi	x2,x2,-16
    b798:	00068793          	addi	x15,x13,0
    b79c:	f141a703          	lw	x14,-236(x3) # 12ac4 <_impure_ptr>
    b7a0:	00060813          	addi	x16,x12,0
    b7a4:	00112623          	sw	x1,12(x2)
    b7a8:	00c72883          	lw	x17,12(x14)
    b7ac:	00078613          	addi	x12,x15,0
    b7b0:	00050693          	addi	x13,x10,0
    b7b4:	00058713          	addi	x14,x11,0
    b7b8:	00006797          	auipc	x15,0x6
    b7bc:	29878793          	addi	x15,x15,664 # 11a50 <__clzsi2+0x3d4>
    b7c0:	00080c63          	beq	x16,x0,b7d8 <__assert_func+0x44>
    b7c4:	00006597          	auipc	x11,0x6
    b7c8:	29c58593          	addi	x11,x11,668 # 11a60 <__clzsi2+0x3e4>
    b7cc:	00088513          	addi	x10,x17,0
    b7d0:	268000ef          	jal	x1,ba38 <fiprintf>
    b7d4:	214000ef          	jal	x1,b9e8 <abort>
    b7d8:	00006797          	auipc	x15,0x6
    b7dc:	02478793          	addi	x15,x15,36 # 117fc <__clzsi2+0x180>
    b7e0:	00078813          	addi	x16,x15,0
    b7e4:	fe1ff06f          	jal	x0,b7c4 <__assert_func+0x30>

0000b7e8 <__assert>:
    b7e8:	ff010113          	addi	x2,x2,-16
    b7ec:	00060693          	addi	x13,x12,0
    b7f0:	00000613          	addi	x12,x0,0
    b7f4:	00112623          	sw	x1,12(x2)
    b7f8:	f9dff0ef          	jal	x1,b794 <__assert_func>

0000b7fc <strcmp>:
    b7fc:	00b56733          	or	x14,x10,x11
    b800:	fff00393          	addi	x7,x0,-1
    b804:	00377713          	andi	x14,x14,3
    b808:	10071063          	bne	x14,x0,b908 <strcmp+0x10c>
    b80c:	7f7f87b7          	lui	x15,0x7f7f8
    b810:	f7f78793          	addi	x15,x15,-129 # 7f7f7f7f <__heap_end+0x7f3f7f7f>
    b814:	00052603          	lw	x12,0(x10)
    b818:	0005a683          	lw	x13,0(x11)
    b81c:	00f672b3          	and	x5,x12,x15
    b820:	00f66333          	or	x6,x12,x15
    b824:	00f282b3          	add	x5,x5,x15
    b828:	0062e2b3          	or	x5,x5,x6
    b82c:	10729263          	bne	x5,x7,b930 <strcmp+0x134>
    b830:	08d61663          	bne	x12,x13,b8bc <strcmp+0xc0>
    b834:	00452603          	lw	x12,4(x10)
    b838:	0045a683          	lw	x13,4(x11)
    b83c:	00f672b3          	and	x5,x12,x15
    b840:	00f66333          	or	x6,x12,x15
    b844:	00f282b3          	add	x5,x5,x15
    b848:	0062e2b3          	or	x5,x5,x6
    b84c:	0c729e63          	bne	x5,x7,b928 <strcmp+0x12c>
    b850:	06d61663          	bne	x12,x13,b8bc <strcmp+0xc0>
    b854:	00852603          	lw	x12,8(x10)
    b858:	0085a683          	lw	x13,8(x11)
    b85c:	00f672b3          	and	x5,x12,x15
    b860:	00f66333          	or	x6,x12,x15
    b864:	00f282b3          	add	x5,x5,x15
    b868:	0062e2b3          	or	x5,x5,x6
    b86c:	0c729863          	bne	x5,x7,b93c <strcmp+0x140>
    b870:	04d61663          	bne	x12,x13,b8bc <strcmp+0xc0>
    b874:	00c52603          	lw	x12,12(x10)
    b878:	00c5a683          	lw	x13,12(x11)
    b87c:	00f672b3          	and	x5,x12,x15
    b880:	00f66333          	or	x6,x12,x15
    b884:	00f282b3          	add	x5,x5,x15
    b888:	0062e2b3          	or	x5,x5,x6
    b88c:	0c729263          	bne	x5,x7,b950 <strcmp+0x154>
    b890:	02d61663          	bne	x12,x13,b8bc <strcmp+0xc0>
    b894:	01052603          	lw	x12,16(x10)
    b898:	0105a683          	lw	x13,16(x11)
    b89c:	00f672b3          	and	x5,x12,x15
    b8a0:	00f66333          	or	x6,x12,x15
    b8a4:	00f282b3          	add	x5,x5,x15
    b8a8:	0062e2b3          	or	x5,x5,x6
    b8ac:	0a729c63          	bne	x5,x7,b964 <strcmp+0x168>
    b8b0:	01450513          	addi	x10,x10,20
    b8b4:	01458593          	addi	x11,x11,20
    b8b8:	f4d60ee3          	beq	x12,x13,b814 <strcmp+0x18>
    b8bc:	01061713          	slli	x14,x12,0x10
    b8c0:	01069793          	slli	x15,x13,0x10
    b8c4:	00f71e63          	bne	x14,x15,b8e0 <strcmp+0xe4>
    b8c8:	01065713          	srli	x14,x12,0x10
    b8cc:	0106d793          	srli	x15,x13,0x10
    b8d0:	40f70533          	sub	x10,x14,x15
    b8d4:	0ff57593          	andi	x11,x10,255
    b8d8:	02059063          	bne	x11,x0,b8f8 <strcmp+0xfc>
    b8dc:	00008067          	jalr	x0,0(x1)
    b8e0:	01075713          	srli	x14,x14,0x10
    b8e4:	0107d793          	srli	x15,x15,0x10
    b8e8:	40f70533          	sub	x10,x14,x15
    b8ec:	0ff57593          	andi	x11,x10,255
    b8f0:	00059463          	bne	x11,x0,b8f8 <strcmp+0xfc>
    b8f4:	00008067          	jalr	x0,0(x1)
    b8f8:	0ff77713          	andi	x14,x14,255
    b8fc:	0ff7f793          	andi	x15,x15,255
    b900:	40f70533          	sub	x10,x14,x15
    b904:	00008067          	jalr	x0,0(x1)
    b908:	00054603          	lbu	x12,0(x10)
    b90c:	0005c683          	lbu	x13,0(x11)
    b910:	00150513          	addi	x10,x10,1
    b914:	00158593          	addi	x11,x11,1
    b918:	00d61463          	bne	x12,x13,b920 <strcmp+0x124>
    b91c:	fe0616e3          	bne	x12,x0,b908 <strcmp+0x10c>
    b920:	40d60533          	sub	x10,x12,x13
    b924:	00008067          	jalr	x0,0(x1)
    b928:	00450513          	addi	x10,x10,4
    b92c:	00458593          	addi	x11,x11,4
    b930:	fcd61ce3          	bne	x12,x13,b908 <strcmp+0x10c>
    b934:	00000513          	addi	x10,x0,0
    b938:	00008067          	jalr	x0,0(x1)
    b93c:	00850513          	addi	x10,x10,8
    b940:	00858593          	addi	x11,x11,8
    b944:	fcd612e3          	bne	x12,x13,b908 <strcmp+0x10c>
    b948:	00000513          	addi	x10,x0,0
    b94c:	00008067          	jalr	x0,0(x1)
    b950:	00c50513          	addi	x10,x10,12
    b954:	00c58593          	addi	x11,x11,12
    b958:	fad618e3          	bne	x12,x13,b908 <strcmp+0x10c>
    b95c:	00000513          	addi	x10,x0,0
    b960:	00008067          	jalr	x0,0(x1)
    b964:	01050513          	addi	x10,x10,16
    b968:	01058593          	addi	x11,x11,16
    b96c:	f8d61ee3          	bne	x12,x13,b908 <strcmp+0x10c>
    b970:	00000513          	addi	x10,x0,0
    b974:	00008067          	jalr	x0,0(x1)

0000b978 <_mbtowc_r>:
    b978:	e1c1a783          	lw	x15,-484(x3) # 129cc <__global_locale+0xe4>
    b97c:	00078067          	jalr	x0,0(x15)

0000b980 <__ascii_mbtowc>:
    b980:	02058063          	beq	x11,x0,b9a0 <__ascii_mbtowc+0x20>
    b984:	04060263          	beq	x12,x0,b9c8 <__ascii_mbtowc+0x48>
    b988:	04068863          	beq	x13,x0,b9d8 <__ascii_mbtowc+0x58>
    b98c:	00064783          	lbu	x15,0(x12)
    b990:	00f5a023          	sw	x15,0(x11)
    b994:	00064503          	lbu	x10,0(x12)
    b998:	00a03533          	sltu	x10,x0,x10
    b99c:	00008067          	jalr	x0,0(x1)
    b9a0:	ff010113          	addi	x2,x2,-16
    b9a4:	00c10593          	addi	x11,x2,12
    b9a8:	02060463          	beq	x12,x0,b9d0 <__ascii_mbtowc+0x50>
    b9ac:	02068a63          	beq	x13,x0,b9e0 <__ascii_mbtowc+0x60>
    b9b0:	00064783          	lbu	x15,0(x12)
    b9b4:	00f5a023          	sw	x15,0(x11)
    b9b8:	00064503          	lbu	x10,0(x12)
    b9bc:	00a03533          	sltu	x10,x0,x10
    b9c0:	01010113          	addi	x2,x2,16
    b9c4:	00008067          	jalr	x0,0(x1)
    b9c8:	00000513          	addi	x10,x0,0
    b9cc:	00008067          	jalr	x0,0(x1)
    b9d0:	00000513          	addi	x10,x0,0
    b9d4:	fedff06f          	jal	x0,b9c0 <__ascii_mbtowc+0x40>
    b9d8:	ffe00513          	addi	x10,x0,-2
    b9dc:	00008067          	jalr	x0,0(x1)
    b9e0:	ffe00513          	addi	x10,x0,-2
    b9e4:	fddff06f          	jal	x0,b9c0 <__ascii_mbtowc+0x40>

0000b9e8 <abort>:
    b9e8:	ff010113          	addi	x2,x2,-16
    b9ec:	00600513          	addi	x10,x0,6
    b9f0:	00112623          	sw	x1,12(x2)
    b9f4:	328000ef          	jal	x1,bd1c <raise>
    b9f8:	00100513          	addi	x10,x0,1
    b9fc:	919f40ef          	jal	x1,314 <_exit>

0000ba00 <_fiprintf_r>:
    ba00:	fc010113          	addi	x2,x2,-64
    ba04:	02c10313          	addi	x6,x2,44
    ba08:	02d12623          	sw	x13,44(x2)
    ba0c:	00030693          	addi	x13,x6,0
    ba10:	00112e23          	sw	x1,28(x2)
    ba14:	02e12823          	sw	x14,48(x2)
    ba18:	02f12a23          	sw	x15,52(x2)
    ba1c:	03012c23          	sw	x16,56(x2)
    ba20:	03112e23          	sw	x17,60(x2)
    ba24:	00612623          	sw	x6,12(x2)
    ba28:	da0fa0ef          	jal	x1,5fc8 <_vfiprintf_r>
    ba2c:	01c12083          	lw	x1,28(x2)
    ba30:	04010113          	addi	x2,x2,64
    ba34:	00008067          	jalr	x0,0(x1)

0000ba38 <fiprintf>:
    ba38:	fc010113          	addi	x2,x2,-64
    ba3c:	02810313          	addi	x6,x2,40
    ba40:	02c12423          	sw	x12,40(x2)
    ba44:	02d12623          	sw	x13,44(x2)
    ba48:	00058613          	addi	x12,x11,0
    ba4c:	00030693          	addi	x13,x6,0
    ba50:	00050593          	addi	x11,x10,0
    ba54:	f141a503          	lw	x10,-236(x3) # 12ac4 <_impure_ptr>
    ba58:	00112e23          	sw	x1,28(x2)
    ba5c:	02e12823          	sw	x14,48(x2)
    ba60:	02f12a23          	sw	x15,52(x2)
    ba64:	03012c23          	sw	x16,56(x2)
    ba68:	03112e23          	sw	x17,60(x2)
    ba6c:	00612623          	sw	x6,12(x2)
    ba70:	d58fa0ef          	jal	x1,5fc8 <_vfiprintf_r>
    ba74:	01c12083          	lw	x1,28(x2)
    ba78:	04010113          	addi	x2,x2,64
    ba7c:	00008067          	jalr	x0,0(x1)

0000ba80 <_init_signal_r>:
    ba80:	11852783          	lw	x15,280(x10)
    ba84:	00078663          	beq	x15,x0,ba90 <_init_signal_r+0x10>
    ba88:	00000513          	addi	x10,x0,0
    ba8c:	00008067          	jalr	x0,0(x1)
    ba90:	ff010113          	addi	x2,x2,-16
    ba94:	08000593          	addi	x11,x0,128
    ba98:	00812423          	sw	x8,8(x2)
    ba9c:	00112623          	sw	x1,12(x2)
    baa0:	00050413          	addi	x8,x10,0
    baa4:	e24f50ef          	jal	x1,10c8 <_malloc_r>
    baa8:	10a42c23          	sw	x10,280(x8)
    baac:	02050463          	beq	x10,x0,bad4 <_init_signal_r+0x54>
    bab0:	08050793          	addi	x15,x10,128
    bab4:	00052023          	sw	x0,0(x10)
    bab8:	00450513          	addi	x10,x10,4
    babc:	fef51ce3          	bne	x10,x15,bab4 <_init_signal_r+0x34>
    bac0:	00000513          	addi	x10,x0,0
    bac4:	00c12083          	lw	x1,12(x2)
    bac8:	00812403          	lw	x8,8(x2)
    bacc:	01010113          	addi	x2,x2,16
    bad0:	00008067          	jalr	x0,0(x1)
    bad4:	fff00513          	addi	x10,x0,-1
    bad8:	fedff06f          	jal	x0,bac4 <_init_signal_r+0x44>

0000badc <_signal_r>:
    badc:	fe010113          	addi	x2,x2,-32
    bae0:	00912a23          	sw	x9,20(x2)
    bae4:	00112e23          	sw	x1,28(x2)
    bae8:	01f00793          	addi	x15,x0,31
    baec:	00050493          	addi	x9,x10,0
    baf0:	02b7ec63          	bltu	x15,x11,bb28 <_signal_r+0x4c>
    baf4:	11852783          	lw	x15,280(x10)
    baf8:	00812c23          	sw	x8,24(x2)
    bafc:	00058413          	addi	x8,x11,0
    bb00:	02078c63          	beq	x15,x0,bb38 <_signal_r+0x5c>
    bb04:	00241413          	slli	x8,x8,0x2
    bb08:	008787b3          	add	x15,x15,x8
    bb0c:	01812403          	lw	x8,24(x2)
    bb10:	0007a503          	lw	x10,0(x15)
    bb14:	00c7a023          	sw	x12,0(x15)
    bb18:	01c12083          	lw	x1,28(x2)
    bb1c:	01412483          	lw	x9,20(x2)
    bb20:	02010113          	addi	x2,x2,32
    bb24:	00008067          	jalr	x0,0(x1)
    bb28:	01600793          	addi	x15,x0,22
    bb2c:	00f52023          	sw	x15,0(x10)
    bb30:	fff00513          	addi	x10,x0,-1
    bb34:	fe5ff06f          	jal	x0,bb18 <_signal_r+0x3c>
    bb38:	08000593          	addi	x11,x0,128
    bb3c:	00c12623          	sw	x12,12(x2)
    bb40:	d88f50ef          	jal	x1,10c8 <_malloc_r>
    bb44:	10a4ac23          	sw	x10,280(x9)
    bb48:	00c12603          	lw	x12,12(x2)
    bb4c:	00050793          	addi	x15,x10,0
    bb50:	00050713          	addi	x14,x10,0
    bb54:	08050693          	addi	x13,x10,128
    bb58:	00050a63          	beq	x10,x0,bb6c <_signal_r+0x90>
    bb5c:	00072023          	sw	x0,0(x14)
    bb60:	00470713          	addi	x14,x14,4
    bb64:	fed71ce3          	bne	x14,x13,bb5c <_signal_r+0x80>
    bb68:	f9dff06f          	jal	x0,bb04 <_signal_r+0x28>
    bb6c:	01812403          	lw	x8,24(x2)
    bb70:	fff00513          	addi	x10,x0,-1
    bb74:	fa5ff06f          	jal	x0,bb18 <_signal_r+0x3c>

0000bb78 <_raise_r>:
    bb78:	ff010113          	addi	x2,x2,-16
    bb7c:	00912223          	sw	x9,4(x2)
    bb80:	00112623          	sw	x1,12(x2)
    bb84:	01f00793          	addi	x15,x0,31
    bb88:	00050493          	addi	x9,x10,0
    bb8c:	0ab7e063          	bltu	x15,x11,bc2c <_raise_r+0xb4>
    bb90:	11852783          	lw	x15,280(x10)
    bb94:	00812423          	sw	x8,8(x2)
    bb98:	00058413          	addi	x8,x11,0
    bb9c:	04078463          	beq	x15,x0,bbe4 <_raise_r+0x6c>
    bba0:	00259713          	slli	x14,x11,0x2
    bba4:	00e787b3          	add	x15,x15,x14
    bba8:	0007a703          	lw	x14,0(x15)
    bbac:	02070c63          	beq	x14,x0,bbe4 <_raise_r+0x6c>
    bbb0:	00100693          	addi	x13,x0,1
    bbb4:	00d70c63          	beq	x14,x13,bbcc <_raise_r+0x54>
    bbb8:	fff00693          	addi	x13,x0,-1
    bbbc:	04d70863          	beq	x14,x13,bc0c <_raise_r+0x94>
    bbc0:	0007a023          	sw	x0,0(x15)
    bbc4:	00058513          	addi	x10,x11,0
    bbc8:	000700e7          	jalr	x1,0(x14)
    bbcc:	00812403          	lw	x8,8(x2)
    bbd0:	00000513          	addi	x10,x0,0
    bbd4:	00c12083          	lw	x1,12(x2)
    bbd8:	00412483          	lw	x9,4(x2)
    bbdc:	01010113          	addi	x2,x2,16
    bbe0:	00008067          	jalr	x0,0(x1)
    bbe4:	00048513          	addi	x10,x9,0
    bbe8:	430000ef          	jal	x1,c018 <_getpid_r>
    bbec:	00040613          	addi	x12,x8,0
    bbf0:	00812403          	lw	x8,8(x2)
    bbf4:	00c12083          	lw	x1,12(x2)
    bbf8:	00050593          	addi	x11,x10,0
    bbfc:	00048513          	addi	x10,x9,0
    bc00:	00412483          	lw	x9,4(x2)
    bc04:	01010113          	addi	x2,x2,16
    bc08:	3b80006f          	jal	x0,bfc0 <_kill_r>
    bc0c:	00812403          	lw	x8,8(x2)
    bc10:	00c12083          	lw	x1,12(x2)
    bc14:	01600793          	addi	x15,x0,22
    bc18:	00f52023          	sw	x15,0(x10)
    bc1c:	00412483          	lw	x9,4(x2)
    bc20:	00100513          	addi	x10,x0,1
    bc24:	01010113          	addi	x2,x2,16
    bc28:	00008067          	jalr	x0,0(x1)
    bc2c:	01600793          	addi	x15,x0,22
    bc30:	00f52023          	sw	x15,0(x10)
    bc34:	fff00513          	addi	x10,x0,-1
    bc38:	f9dff06f          	jal	x0,bbd4 <_raise_r+0x5c>

0000bc3c <__sigtramp_r>:
    bc3c:	01f00793          	addi	x15,x0,31
    bc40:	0cb7ea63          	bltu	x15,x11,bd14 <__sigtramp_r+0xd8>
    bc44:	11852783          	lw	x15,280(x10)
    bc48:	ff010113          	addi	x2,x2,-16
    bc4c:	00812423          	sw	x8,8(x2)
    bc50:	00912223          	sw	x9,4(x2)
    bc54:	00112623          	sw	x1,12(x2)
    bc58:	00058413          	addi	x8,x11,0
    bc5c:	00050493          	addi	x9,x10,0
    bc60:	08078063          	beq	x15,x0,bce0 <__sigtramp_r+0xa4>
    bc64:	00241713          	slli	x14,x8,0x2
    bc68:	00e787b3          	add	x15,x15,x14
    bc6c:	0007a703          	lw	x14,0(x15)
    bc70:	02070c63          	beq	x14,x0,bca8 <__sigtramp_r+0x6c>
    bc74:	fff00693          	addi	x13,x0,-1
    bc78:	06d70063          	beq	x14,x13,bcd8 <__sigtramp_r+0x9c>
    bc7c:	00100693          	addi	x13,x0,1
    bc80:	04d70063          	beq	x14,x13,bcc0 <__sigtramp_r+0x84>
    bc84:	00040513          	addi	x10,x8,0
    bc88:	0007a023          	sw	x0,0(x15)
    bc8c:	000700e7          	jalr	x1,0(x14)
    bc90:	00000513          	addi	x10,x0,0
    bc94:	00c12083          	lw	x1,12(x2)
    bc98:	00812403          	lw	x8,8(x2)
    bc9c:	00412483          	lw	x9,4(x2)
    bca0:	01010113          	addi	x2,x2,16
    bca4:	00008067          	jalr	x0,0(x1)
    bca8:	00c12083          	lw	x1,12(x2)
    bcac:	00812403          	lw	x8,8(x2)
    bcb0:	00412483          	lw	x9,4(x2)
    bcb4:	00100513          	addi	x10,x0,1
    bcb8:	01010113          	addi	x2,x2,16
    bcbc:	00008067          	jalr	x0,0(x1)
    bcc0:	00c12083          	lw	x1,12(x2)
    bcc4:	00812403          	lw	x8,8(x2)
    bcc8:	00412483          	lw	x9,4(x2)
    bccc:	00300513          	addi	x10,x0,3
    bcd0:	01010113          	addi	x2,x2,16
    bcd4:	00008067          	jalr	x0,0(x1)
    bcd8:	00200513          	addi	x10,x0,2
    bcdc:	fb9ff06f          	jal	x0,bc94 <__sigtramp_r+0x58>
    bce0:	08000593          	addi	x11,x0,128
    bce4:	be4f50ef          	jal	x1,10c8 <_malloc_r>
    bce8:	10a4ac23          	sw	x10,280(x9)
    bcec:	00050793          	addi	x15,x10,0
    bcf0:	00050e63          	beq	x10,x0,bd0c <__sigtramp_r+0xd0>
    bcf4:	00050713          	addi	x14,x10,0
    bcf8:	08050693          	addi	x13,x10,128
    bcfc:	00072023          	sw	x0,0(x14)
    bd00:	00470713          	addi	x14,x14,4
    bd04:	fed71ce3          	bne	x14,x13,bcfc <__sigtramp_r+0xc0>
    bd08:	f5dff06f          	jal	x0,bc64 <__sigtramp_r+0x28>
    bd0c:	fff00513          	addi	x10,x0,-1
    bd10:	f85ff06f          	jal	x0,bc94 <__sigtramp_r+0x58>
    bd14:	fff00513          	addi	x10,x0,-1
    bd18:	00008067          	jalr	x0,0(x1)

0000bd1c <raise>:
    bd1c:	ff010113          	addi	x2,x2,-16
    bd20:	00912223          	sw	x9,4(x2)
    bd24:	00112623          	sw	x1,12(x2)
    bd28:	01f00793          	addi	x15,x0,31
    bd2c:	f141a483          	lw	x9,-236(x3) # 12ac4 <_impure_ptr>
    bd30:	08a7ee63          	bltu	x15,x10,bdcc <raise+0xb0>
    bd34:	1184a783          	lw	x15,280(x9)
    bd38:	00812423          	sw	x8,8(x2)
    bd3c:	00050413          	addi	x8,x10,0
    bd40:	04078263          	beq	x15,x0,bd84 <raise+0x68>
    bd44:	00251713          	slli	x14,x10,0x2
    bd48:	00e787b3          	add	x15,x15,x14
    bd4c:	0007a703          	lw	x14,0(x15)
    bd50:	02070a63          	beq	x14,x0,bd84 <raise+0x68>
    bd54:	00100693          	addi	x13,x0,1
    bd58:	00d70a63          	beq	x14,x13,bd6c <raise+0x50>
    bd5c:	fff00693          	addi	x13,x0,-1
    bd60:	04d70663          	beq	x14,x13,bdac <raise+0x90>
    bd64:	0007a023          	sw	x0,0(x15)
    bd68:	000700e7          	jalr	x1,0(x14)
    bd6c:	00812403          	lw	x8,8(x2)
    bd70:	00000513          	addi	x10,x0,0
    bd74:	00c12083          	lw	x1,12(x2)
    bd78:	00412483          	lw	x9,4(x2)
    bd7c:	01010113          	addi	x2,x2,16
    bd80:	00008067          	jalr	x0,0(x1)
    bd84:	00048513          	addi	x10,x9,0
    bd88:	290000ef          	jal	x1,c018 <_getpid_r>
    bd8c:	00040613          	addi	x12,x8,0
    bd90:	00812403          	lw	x8,8(x2)
    bd94:	00c12083          	lw	x1,12(x2)
    bd98:	00050593          	addi	x11,x10,0
    bd9c:	00048513          	addi	x10,x9,0
    bda0:	00412483          	lw	x9,4(x2)
    bda4:	01010113          	addi	x2,x2,16
    bda8:	2180006f          	jal	x0,bfc0 <_kill_r>
    bdac:	00812403          	lw	x8,8(x2)
    bdb0:	00c12083          	lw	x1,12(x2)
    bdb4:	01600793          	addi	x15,x0,22
    bdb8:	00f4a023          	sw	x15,0(x9)
    bdbc:	00100513          	addi	x10,x0,1
    bdc0:	00412483          	lw	x9,4(x2)
    bdc4:	01010113          	addi	x2,x2,16
    bdc8:	00008067          	jalr	x0,0(x1)
    bdcc:	01600793          	addi	x15,x0,22
    bdd0:	00f4a023          	sw	x15,0(x9)
    bdd4:	fff00513          	addi	x10,x0,-1
    bdd8:	f9dff06f          	jal	x0,bd74 <raise+0x58>

0000bddc <signal>:
    bddc:	ff010113          	addi	x2,x2,-16
    bde0:	01212023          	sw	x18,0(x2)
    bde4:	00112623          	sw	x1,12(x2)
    bde8:	01f00793          	addi	x15,x0,31
    bdec:	f141a903          	lw	x18,-236(x3) # 12ac4 <_impure_ptr>
    bdf0:	04a7e263          	bltu	x15,x10,be34 <signal+0x58>
    bdf4:	00812423          	sw	x8,8(x2)
    bdf8:	00050413          	addi	x8,x10,0
    bdfc:	11892503          	lw	x10,280(x18)
    be00:	00912223          	sw	x9,4(x2)
    be04:	00058493          	addi	x9,x11,0
    be08:	02050e63          	beq	x10,x0,be44 <signal+0x68>
    be0c:	00241413          	slli	x8,x8,0x2
    be10:	008507b3          	add	x15,x10,x8
    be14:	0007a503          	lw	x10,0(x15)
    be18:	00812403          	lw	x8,8(x2)
    be1c:	0097a023          	sw	x9,0(x15)
    be20:	00412483          	lw	x9,4(x2)
    be24:	00c12083          	lw	x1,12(x2)
    be28:	00012903          	lw	x18,0(x2)
    be2c:	01010113          	addi	x2,x2,16
    be30:	00008067          	jalr	x0,0(x1)
    be34:	01600793          	addi	x15,x0,22
    be38:	00f92023          	sw	x15,0(x18)
    be3c:	fff00513          	addi	x10,x0,-1
    be40:	fe5ff06f          	jal	x0,be24 <signal+0x48>
    be44:	08000593          	addi	x11,x0,128
    be48:	00090513          	addi	x10,x18,0
    be4c:	a7cf50ef          	jal	x1,10c8 <_malloc_r>
    be50:	10a92c23          	sw	x10,280(x18)
    be54:	00050793          	addi	x15,x10,0
    be58:	08050713          	addi	x14,x10,128
    be5c:	00050a63          	beq	x10,x0,be70 <signal+0x94>
    be60:	0007a023          	sw	x0,0(x15)
    be64:	00478793          	addi	x15,x15,4
    be68:	fef71ce3          	bne	x14,x15,be60 <signal+0x84>
    be6c:	fa1ff06f          	jal	x0,be0c <signal+0x30>
    be70:	00812403          	lw	x8,8(x2)
    be74:	00412483          	lw	x9,4(x2)
    be78:	fff00513          	addi	x10,x0,-1
    be7c:	fa9ff06f          	jal	x0,be24 <signal+0x48>

0000be80 <_init_signal>:
    be80:	ff010113          	addi	x2,x2,-16
    be84:	00812423          	sw	x8,8(x2)
    be88:	f141a403          	lw	x8,-236(x3) # 12ac4 <_impure_ptr>
    be8c:	11842783          	lw	x15,280(x8)
    be90:	00112623          	sw	x1,12(x2)
    be94:	00078c63          	beq	x15,x0,beac <_init_signal+0x2c>
    be98:	00000513          	addi	x10,x0,0
    be9c:	00c12083          	lw	x1,12(x2)
    bea0:	00812403          	lw	x8,8(x2)
    bea4:	01010113          	addi	x2,x2,16
    bea8:	00008067          	jalr	x0,0(x1)
    beac:	08000593          	addi	x11,x0,128
    beb0:	00040513          	addi	x10,x8,0
    beb4:	a14f50ef          	jal	x1,10c8 <_malloc_r>
    beb8:	10a42c23          	sw	x10,280(x8)
    bebc:	00050c63          	beq	x10,x0,bed4 <_init_signal+0x54>
    bec0:	08050793          	addi	x15,x10,128
    bec4:	00052023          	sw	x0,0(x10)
    bec8:	00450513          	addi	x10,x10,4
    becc:	fef51ce3          	bne	x10,x15,bec4 <_init_signal+0x44>
    bed0:	fc9ff06f          	jal	x0,be98 <_init_signal+0x18>
    bed4:	fff00513          	addi	x10,x0,-1
    bed8:	fc5ff06f          	jal	x0,be9c <_init_signal+0x1c>

0000bedc <__sigtramp>:
    bedc:	ff010113          	addi	x2,x2,-16
    bee0:	00912223          	sw	x9,4(x2)
    bee4:	00112623          	sw	x1,12(x2)
    bee8:	01f00793          	addi	x15,x0,31
    beec:	f141a483          	lw	x9,-236(x3) # 12ac4 <_impure_ptr>
    bef0:	0ca7e463          	bltu	x15,x10,bfb8 <__sigtramp+0xdc>
    bef4:	1184a783          	lw	x15,280(x9)
    bef8:	00812423          	sw	x8,8(x2)
    befc:	00050413          	addi	x8,x10,0
    bf00:	08078263          	beq	x15,x0,bf84 <__sigtramp+0xa8>
    bf04:	00241713          	slli	x14,x8,0x2
    bf08:	00e787b3          	add	x15,x15,x14
    bf0c:	0007a703          	lw	x14,0(x15)
    bf10:	02070c63          	beq	x14,x0,bf48 <__sigtramp+0x6c>
    bf14:	fff00693          	addi	x13,x0,-1
    bf18:	06d70063          	beq	x14,x13,bf78 <__sigtramp+0x9c>
    bf1c:	00100693          	addi	x13,x0,1
    bf20:	04d70063          	beq	x14,x13,bf60 <__sigtramp+0x84>
    bf24:	00040513          	addi	x10,x8,0
    bf28:	0007a023          	sw	x0,0(x15)
    bf2c:	000700e7          	jalr	x1,0(x14)
    bf30:	00812403          	lw	x8,8(x2)
    bf34:	00000513          	addi	x10,x0,0
    bf38:	00c12083          	lw	x1,12(x2)
    bf3c:	00412483          	lw	x9,4(x2)
    bf40:	01010113          	addi	x2,x2,16
    bf44:	00008067          	jalr	x0,0(x1)
    bf48:	00812403          	lw	x8,8(x2)
    bf4c:	00c12083          	lw	x1,12(x2)
    bf50:	00412483          	lw	x9,4(x2)
    bf54:	00100513          	addi	x10,x0,1
    bf58:	01010113          	addi	x2,x2,16
    bf5c:	00008067          	jalr	x0,0(x1)
    bf60:	00812403          	lw	x8,8(x2)
    bf64:	00c12083          	lw	x1,12(x2)
    bf68:	00412483          	lw	x9,4(x2)
    bf6c:	00300513          	addi	x10,x0,3
    bf70:	01010113          	addi	x2,x2,16
    bf74:	00008067          	jalr	x0,0(x1)
    bf78:	00812403          	lw	x8,8(x2)
    bf7c:	00200513          	addi	x10,x0,2
    bf80:	fb9ff06f          	jal	x0,bf38 <__sigtramp+0x5c>
    bf84:	08000593          	addi	x11,x0,128
    bf88:	00048513          	addi	x10,x9,0
    bf8c:	93cf50ef          	jal	x1,10c8 <_malloc_r>
    bf90:	10a4ac23          	sw	x10,280(x9)
    bf94:	00050793          	addi	x15,x10,0
    bf98:	00050e63          	beq	x10,x0,bfb4 <__sigtramp+0xd8>
    bf9c:	00050713          	addi	x14,x10,0
    bfa0:	08050693          	addi	x13,x10,128
    bfa4:	00072023          	sw	x0,0(x14)
    bfa8:	00470713          	addi	x14,x14,4
    bfac:	fee69ce3          	bne	x13,x14,bfa4 <__sigtramp+0xc8>
    bfb0:	f55ff06f          	jal	x0,bf04 <__sigtramp+0x28>
    bfb4:	00812403          	lw	x8,8(x2)
    bfb8:	fff00513          	addi	x10,x0,-1
    bfbc:	f7dff06f          	jal	x0,bf38 <__sigtramp+0x5c>

0000bfc0 <_kill_r>:
    bfc0:	ff010113          	addi	x2,x2,-16
    bfc4:	00058713          	addi	x14,x11,0
    bfc8:	00812423          	sw	x8,8(x2)
    bfcc:	00060593          	addi	x11,x12,0
    bfd0:	00050413          	addi	x8,x10,0
    bfd4:	00070513          	addi	x10,x14,0
    bfd8:	f001ac23          	sw	x0,-232(x3) # 12ac8 <errno>
    bfdc:	00112623          	sw	x1,12(x2)
    bfe0:	b9af40ef          	jal	x1,37a <_kill>
    bfe4:	fff00793          	addi	x15,x0,-1
    bfe8:	00f50a63          	beq	x10,x15,bffc <_kill_r+0x3c>
    bfec:	00c12083          	lw	x1,12(x2)
    bff0:	00812403          	lw	x8,8(x2)
    bff4:	01010113          	addi	x2,x2,16
    bff8:	00008067          	jalr	x0,0(x1)
    bffc:	f181a783          	lw	x15,-232(x3) # 12ac8 <errno>
    c000:	fe0786e3          	beq	x15,x0,bfec <_kill_r+0x2c>
    c004:	00c12083          	lw	x1,12(x2)
    c008:	00f42023          	sw	x15,0(x8)
    c00c:	00812403          	lw	x8,8(x2)
    c010:	01010113          	addi	x2,x2,16
    c014:	00008067          	jalr	x0,0(x1)

0000c018 <_getpid_r>:
    c018:	b4af406f          	jal	x0,362 <_getpid>

0000c01c <__adddf3>:
    c01c:	001007b7          	lui	x15,0x100
    c020:	fe010113          	addi	x2,x2,-32
    c024:	fff78e93          	addi	x29,x15,-1 # fffff <__heap_start+0xed21f>
    c028:	00bef833          	and	x16,x29,x11
    c02c:	00def7b3          	and	x15,x29,x13
    c030:	0146d313          	srli	x6,x13,0x14
    c034:	01212823          	sw	x18,16(x2)
    c038:	0145d913          	srli	x18,x11,0x14
    c03c:	00379793          	slli	x15,x15,0x3
    c040:	00812c23          	sw	x8,24(x2)
    c044:	00381813          	slli	x16,x16,0x3
    c048:	01f5d413          	srli	x8,x11,0x1f
    c04c:	01d55713          	srli	x14,x10,0x1d
    c050:	01d65893          	srli	x17,x12,0x1d
    c054:	7ff97913          	andi	x18,x18,2047
    c058:	7ff37313          	andi	x6,x6,2047
    c05c:	00112e23          	sw	x1,28(x2)
    c060:	00912a23          	sw	x9,20(x2)
    c064:	01312623          	sw	x19,12(x2)
    c068:	01f6d693          	srli	x13,x13,0x1f
    c06c:	00f8e8b3          	or	x17,x17,x15
    c070:	01076733          	or	x14,x14,x16
    c074:	00351593          	slli	x11,x10,0x3
    c078:	00361f13          	slli	x30,x12,0x3
    c07c:	406907b3          	sub	x15,x18,x6
    c080:	1ed40463          	beq	x8,x13,c268 <__adddf3+0x24c>
    c084:	16f05263          	bge	x0,x15,c1e8 <__adddf3+0x1cc>
    c088:	28030663          	beq	x6,x0,c314 <__adddf3+0x2f8>
    c08c:	7ff00693          	addi	x13,x0,2047
    c090:	42d90663          	beq	x18,x13,c4bc <__adddf3+0x4a0>
    c094:	03800693          	addi	x13,x0,56
    c098:	00100613          	addi	x12,x0,1
    c09c:	02f6ce63          	blt	x13,x15,c0d8 <__adddf3+0xbc>
    c0a0:	008006b7          	lui	x13,0x800
    c0a4:	00d8e8b3          	or	x17,x17,x13
    c0a8:	01f00693          	addi	x13,x0,31
    c0ac:	52f6ce63          	blt	x13,x15,c5e8 <__adddf3+0x5cc>
    c0b0:	02000693          	addi	x13,x0,32
    c0b4:	40f686b3          	sub	x13,x13,x15
    c0b8:	00d89633          	sll	x12,x17,x13
    c0bc:	00ff5533          	srl	x10,x30,x15
    c0c0:	00df16b3          	sll	x13,x30,x13
    c0c4:	00a66633          	or	x12,x12,x10
    c0c8:	00d036b3          	sltu	x13,x0,x13
    c0cc:	00f8d8b3          	srl	x17,x17,x15
    c0d0:	00d66633          	or	x12,x12,x13
    c0d4:	41170733          	sub	x14,x14,x17
    c0d8:	40c58633          	sub	x12,x11,x12
    c0dc:	00c5b5b3          	sltu	x11,x11,x12
    c0e0:	00060493          	addi	x9,x12,0
    c0e4:	40b709b3          	sub	x19,x14,x11
    c0e8:	00899793          	slli	x15,x19,0x8
    c0ec:	3207da63          	bge	x15,x0,c420 <__adddf3+0x404>
    c0f0:	008007b7          	lui	x15,0x800
    c0f4:	fff78793          	addi	x15,x15,-1 # 7fffff <__heap_end+0x3fffff>
    c0f8:	00f9f9b3          	and	x19,x19,x15
    c0fc:	2c098863          	beq	x19,x0,c3cc <__adddf3+0x3b0>
    c100:	00098513          	addi	x10,x19,0
    c104:	578050ef          	jal	x1,1167c <__clzsi2>
    c108:	ff850793          	addi	x15,x10,-8
    c10c:	02000693          	addi	x13,x0,32
    c110:	40f68733          	sub	x14,x13,x15
    c114:	00e4d733          	srl	x14,x9,x14
    c118:	00f999b3          	sll	x19,x19,x15
    c11c:	01376733          	or	x14,x14,x19
    c120:	00f494b3          	sll	x9,x9,x15
    c124:	4b27c863          	blt	x15,x18,c5d4 <__adddf3+0x5b8>
    c128:	412787b3          	sub	x15,x15,x18
    c12c:	00178793          	addi	x15,x15,1
    c130:	40f686b3          	sub	x13,x13,x15
    c134:	00d49633          	sll	x12,x9,x13
    c138:	00f4d9b3          	srl	x19,x9,x15
    c13c:	00c03633          	sltu	x12,x0,x12
    c140:	01366633          	or	x12,x12,x19
    c144:	00d716b3          	sll	x13,x14,x13
    c148:	00c6e4b3          	or	x9,x13,x12
    c14c:	00f759b3          	srl	x19,x14,x15
    c150:	00000913          	addi	x18,x0,0
    c154:	0074f793          	andi	x15,x9,7
    c158:	02078063          	beq	x15,x0,c178 <__adddf3+0x15c>
    c15c:	00f4f793          	andi	x15,x9,15
    c160:	00400713          	addi	x14,x0,4
    c164:	00e78a63          	beq	x15,x14,c178 <__adddf3+0x15c>
    c168:	00448793          	addi	x15,x9,4
    c16c:	0097b633          	sltu	x12,x15,x9
    c170:	00c989b3          	add	x19,x19,x12
    c174:	00078493          	addi	x9,x15,0
    c178:	00899793          	slli	x15,x19,0x8
    c17c:	6e07da63          	bge	x15,x0,c870 <__adddf3+0x854>
    c180:	00190793          	addi	x15,x18,1
    c184:	7ff00713          	addi	x14,x0,2047
    c188:	00040e13          	addi	x28,x8,0
    c18c:	2ae78663          	beq	x15,x14,c438 <__adddf3+0x41c>
    c190:	ff800737          	lui	x14,0xff800
    c194:	fff70713          	addi	x14,x14,-1 # ff7fffff <__heap_end+0xff3fffff>
    c198:	00e9f733          	and	x14,x19,x14
    c19c:	7ff7f793          	andi	x15,x15,2047
    c1a0:	01d71813          	slli	x16,x14,0x1d
    c1a4:	0034d613          	srli	x12,x9,0x3
    c1a8:	00971713          	slli	x14,x14,0x9
    c1ac:	00c86833          	or	x16,x16,x12
    c1b0:	00c75713          	srli	x14,x14,0xc
    c1b4:	01c12083          	lw	x1,28(x2)
    c1b8:	01812403          	lw	x8,24(x2)
    c1bc:	01479793          	slli	x15,x15,0x14
    c1c0:	00e7e7b3          	or	x15,x15,x14
    c1c4:	01fe1713          	slli	x14,x28,0x1f
    c1c8:	00e7e7b3          	or	x15,x15,x14
    c1cc:	01412483          	lw	x9,20(x2)
    c1d0:	01012903          	lw	x18,16(x2)
    c1d4:	00c12983          	lw	x19,12(x2)
    c1d8:	00080513          	addi	x10,x16,0
    c1dc:	00078593          	addi	x11,x15,0
    c1e0:	02010113          	addi	x2,x2,32
    c1e4:	00008067          	jalr	x0,0(x1)
    c1e8:	14078c63          	beq	x15,x0,c340 <__adddf3+0x324>
    c1ec:	412307b3          	sub	x15,x6,x18
    c1f0:	3c091263          	bne	x18,x0,c5b4 <__adddf3+0x598>
    c1f4:	00b76533          	or	x10,x14,x11
    c1f8:	4c050463          	beq	x10,x0,c6c0 <__adddf3+0x6a4>
    c1fc:	fff78513          	addi	x10,x15,-1
    c200:	60050263          	beq	x10,x0,c804 <__adddf3+0x7e8>
    c204:	7ff00813          	addi	x16,x0,2047
    c208:	57078663          	beq	x15,x16,c774 <__adddf3+0x758>
    c20c:	03800793          	addi	x15,x0,56
    c210:	00100613          	addi	x12,x0,1
    c214:	02a7cc63          	blt	x15,x10,c24c <__adddf3+0x230>
    c218:	00050793          	addi	x15,x10,0
    c21c:	01f00613          	addi	x12,x0,31
    c220:	56f64c63          	blt	x12,x15,c798 <__adddf3+0x77c>
    c224:	02000513          	addi	x10,x0,32
    c228:	40f50533          	sub	x10,x10,x15
    c22c:	00a71633          	sll	x12,x14,x10
    c230:	00f5d833          	srl	x16,x11,x15
    c234:	00a59533          	sll	x10,x11,x10
    c238:	01066633          	or	x12,x12,x16
    c23c:	00a03533          	sltu	x10,x0,x10
    c240:	00f75733          	srl	x14,x14,x15
    c244:	00a66633          	or	x12,x12,x10
    c248:	40e888b3          	sub	x17,x17,x14
    c24c:	40cf0633          	sub	x12,x30,x12
    c250:	00cf3733          	sltu	x14,x30,x12
    c254:	00060493          	addi	x9,x12,0
    c258:	40e889b3          	sub	x19,x17,x14
    c25c:	00030913          	addi	x18,x6,0
    c260:	00068413          	addi	x8,x13,0 # 800000 <__heap_end+0x400000>
    c264:	e85ff06f          	jal	x0,c0e8 <__adddf3+0xcc>
    c268:	1ef05063          	bge	x0,x15,c448 <__adddf3+0x42c>
    c26c:	14031063          	bne	x6,x0,c3ac <__adddf3+0x390>
    c270:	01e8e6b3          	or	x13,x17,x30
    c274:	26068c63          	beq	x13,x0,c4ec <__adddf3+0x4d0>
    c278:	fff78693          	addi	x13,x15,-1
    c27c:	48068063          	beq	x13,x0,c6fc <__adddf3+0x6e0>
    c280:	7ff00613          	addi	x12,x0,2047
    c284:	22c78c63          	beq	x15,x12,c4bc <__adddf3+0x4a0>
    c288:	03800793          	addi	x15,x0,56
    c28c:	00100993          	addi	x19,x0,1
    c290:	02d7cc63          	blt	x15,x13,c2c8 <__adddf3+0x2ac>
    c294:	00068793          	addi	x15,x13,0
    c298:	01f00693          	addi	x13,x0,31
    c29c:	4af6c063          	blt	x13,x15,c73c <__adddf3+0x720>
    c2a0:	02000693          	addi	x13,x0,32
    c2a4:	40f686b3          	sub	x13,x13,x15
    c2a8:	00d899b3          	sll	x19,x17,x13
    c2ac:	00ff5633          	srl	x12,x30,x15
    c2b0:	00df16b3          	sll	x13,x30,x13
    c2b4:	00c9e9b3          	or	x19,x19,x12
    c2b8:	00d036b3          	sltu	x13,x0,x13
    c2bc:	00f8d8b3          	srl	x17,x17,x15
    c2c0:	00d9e9b3          	or	x19,x19,x13
    c2c4:	01170733          	add	x14,x14,x17
    c2c8:	00b985b3          	add	x11,x19,x11
    c2cc:	0135b9b3          	sltu	x19,x11,x19
    c2d0:	00058493          	addi	x9,x11,0
    c2d4:	00e989b3          	add	x19,x19,x14
    c2d8:	00899793          	slli	x15,x19,0x8
    c2dc:	1407d263          	bge	x15,x0,c420 <__adddf3+0x404>
    c2e0:	00190913          	addi	x18,x18,1
    c2e4:	7ff00793          	addi	x15,x0,2047
    c2e8:	36f90c63          	beq	x18,x15,c660 <__adddf3+0x644>
    c2ec:	ff8007b7          	lui	x15,0xff800
    c2f0:	fff78793          	addi	x15,x15,-1 # ff7fffff <__heap_end+0xff3fffff>
    c2f4:	0014f613          	andi	x12,x9,1
    c2f8:	00f9f7b3          	and	x15,x19,x15
    c2fc:	0014d713          	srli	x14,x9,0x1
    c300:	00c76733          	or	x14,x14,x12
    c304:	01f79613          	slli	x12,x15,0x1f
    c308:	00e664b3          	or	x9,x12,x14
    c30c:	0017d993          	srli	x19,x15,0x1
    c310:	e45ff06f          	jal	x0,c154 <__adddf3+0x138>
    c314:	01e8e6b3          	or	x13,x17,x30
    c318:	1c068a63          	beq	x13,x0,c4ec <__adddf3+0x4d0>
    c31c:	fff78693          	addi	x13,x15,-1
    c320:	40068063          	beq	x13,x0,c720 <__adddf3+0x704>
    c324:	7ff00613          	addi	x12,x0,2047
    c328:	18c78a63          	beq	x15,x12,c4bc <__adddf3+0x4a0>
    c32c:	03800793          	addi	x15,x0,56
    c330:	00100613          	addi	x12,x0,1
    c334:	dad7c2e3          	blt	x15,x13,c0d8 <__adddf3+0xbc>
    c338:	00068793          	addi	x15,x13,0
    c33c:	d6dff06f          	jal	x0,c0a8 <__adddf3+0x8c>
    c340:	00190813          	addi	x16,x18,1
    c344:	7fe87813          	andi	x16,x16,2046
    c348:	22081c63          	bne	x16,x0,c580 <__adddf3+0x564>
    c34c:	00b76333          	or	x6,x14,x11
    c350:	01e8e833          	or	x16,x17,x30
    c354:	38091063          	bne	x18,x0,c6d4 <__adddf3+0x6b8>
    c358:	46030e63          	beq	x6,x0,c7d4 <__adddf3+0x7b8>
    c35c:	40080663          	beq	x16,x0,c768 <__adddf3+0x74c>
    c360:	41e589b3          	sub	x19,x11,x30
    c364:	0135b533          	sltu	x10,x11,x19
    c368:	41170633          	sub	x12,x14,x17
    c36c:	40a60633          	sub	x12,x12,x10
    c370:	00861513          	slli	x10,x12,0x8
    c374:	50055e63          	bge	x10,x0,c890 <__adddf3+0x874>
    c378:	40bf05b3          	sub	x11,x30,x11
    c37c:	40e88733          	sub	x14,x17,x14
    c380:	00bf3f33          	sltu	x30,x30,x11
    c384:	41e70733          	sub	x14,x14,x30
    c388:	00871613          	slli	x12,x14,0x8
    c38c:	00058493          	addi	x9,x11,0
    c390:	52065e63          	bge	x12,x0,c8cc <__adddf3+0x8b0>
    c394:	ff8007b7          	lui	x15,0xff800
    c398:	fff78793          	addi	x15,x15,-1 # ff7fffff <__heap_end+0xff3fffff>
    c39c:	00f77733          	and	x14,x14,x15
    c3a0:	00068e13          	addi	x28,x13,0
    c3a4:	00100793          	addi	x15,x0,1
    c3a8:	df9ff06f          	jal	x0,c1a0 <__adddf3+0x184>
    c3ac:	7ff00693          	addi	x13,x0,2047
    c3b0:	10d90663          	beq	x18,x13,c4bc <__adddf3+0x4a0>
    c3b4:	03800693          	addi	x13,x0,56
    c3b8:	00100993          	addi	x19,x0,1
    c3bc:	f0f6c6e3          	blt	x13,x15,c2c8 <__adddf3+0x2ac>
    c3c0:	008006b7          	lui	x13,0x800
    c3c4:	00d8e8b3          	or	x17,x17,x13
    c3c8:	ed1ff06f          	jal	x0,c298 <__adddf3+0x27c>
    c3cc:	00048513          	addi	x10,x9,0
    c3d0:	2ac050ef          	jal	x1,1167c <__clzsi2>
    c3d4:	01850793          	addi	x15,x10,24
    c3d8:	01f00693          	addi	x13,x0,31
    c3dc:	d2f6d8e3          	bge	x13,x15,c10c <__adddf3+0xf0>
    c3e0:	ff850713          	addi	x14,x10,-8
    c3e4:	00e49733          	sll	x14,x9,x14
    c3e8:	2327c663          	blt	x15,x18,c614 <__adddf3+0x5f8>
    c3ec:	41278933          	sub	x18,x15,x18
    c3f0:	00190793          	addi	x15,x18,1
    c3f4:	48f6d663          	bge	x13,x15,c880 <__adddf3+0x864>
    c3f8:	fe190913          	addi	x18,x18,-31
    c3fc:	02000693          	addi	x13,x0,32
    c400:	012754b3          	srl	x9,x14,x18
    c404:	00d78c63          	beq	x15,x13,c41c <__adddf3+0x400>
    c408:	04000693          	addi	x13,x0,64
    c40c:	40f687b3          	sub	x15,x13,x15
    c410:	00f71733          	sll	x14,x14,x15
    c414:	00e03733          	sltu	x14,x0,x14
    c418:	00e4e4b3          	or	x9,x9,x14
    c41c:	00000913          	addi	x18,x0,0
    c420:	0074f793          	andi	x15,x9,7
    c424:	d2079ce3          	bne	x15,x0,c15c <__adddf3+0x140>
    c428:	00090793          	addi	x15,x18,0
    c42c:	0034d613          	srli	x12,x9,0x3
    c430:	00098713          	addi	x14,x19,0
    c434:	0c00006f          	jal	x0,c4f4 <__adddf3+0x4d8>
    c438:	7ff00793          	addi	x15,x0,2047
    c43c:	00000713          	addi	x14,x0,0
    c440:	00000813          	addi	x16,x0,0
    c444:	d71ff06f          	jal	x0,c1b4 <__adddf3+0x198>
    c448:	0c078a63          	beq	x15,x0,c51c <__adddf3+0x500>
    c44c:	412307b3          	sub	x15,x6,x18
    c450:	1e090263          	beq	x18,x0,c634 <__adddf3+0x618>
    c454:	7ff00693          	addi	x13,x0,2047
    c458:	32d30863          	beq	x6,x13,c788 <__adddf3+0x76c>
    c45c:	03800693          	addi	x13,x0,56
    c460:	00100993          	addi	x19,x0,1
    c464:	02f6ce63          	blt	x13,x15,c4a0 <__adddf3+0x484>
    c468:	008006b7          	lui	x13,0x800
    c46c:	00d76733          	or	x14,x14,x13
    c470:	01f00693          	addi	x13,x0,31
    c474:	3cf6c863          	blt	x13,x15,c844 <__adddf3+0x828>
    c478:	02000693          	addi	x13,x0,32
    c47c:	40f686b3          	sub	x13,x13,x15
    c480:	00d719b3          	sll	x19,x14,x13
    c484:	00f5d633          	srl	x12,x11,x15
    c488:	00d596b3          	sll	x13,x11,x13
    c48c:	00c9e9b3          	or	x19,x19,x12
    c490:	00d036b3          	sltu	x13,x0,x13
    c494:	00f75733          	srl	x14,x14,x15
    c498:	00d9e9b3          	or	x19,x19,x13
    c49c:	00e888b3          	add	x17,x17,x14
    c4a0:	01e98733          	add	x14,x19,x30
    c4a4:	013739b3          	sltu	x19,x14,x19
    c4a8:	00070493          	addi	x9,x14,0
    c4ac:	011989b3          	add	x19,x19,x17
    c4b0:	00030913          	addi	x18,x6,0
    c4b4:	e25ff06f          	jal	x0,c2d8 <__adddf3+0x2bc>
    c4b8:	02081063          	bne	x16,x0,c4d8 <__adddf3+0x4bc>
    c4bc:	00351613          	slli	x12,x10,0x3
    c4c0:	00365613          	srli	x12,x12,0x3
    c4c4:	01d71813          	slli	x16,x14,0x1d
    c4c8:	00c86833          	or	x16,x16,x12
    c4cc:	00375713          	srli	x14,x14,0x3
    c4d0:	01076733          	or	x14,x14,x16
    c4d4:	18070663          	beq	x14,x0,c660 <__adddf3+0x644>
    c4d8:	00000e13          	addi	x28,x0,0
    c4dc:	7ff00793          	addi	x15,x0,2047
    c4e0:	00080737          	lui	x14,0x80
    c4e4:	00000813          	addi	x16,x0,0
    c4e8:	ccdff06f          	jal	x0,c1b4 <__adddf3+0x198>
    c4ec:	00351613          	slli	x12,x10,0x3
    c4f0:	00365613          	srli	x12,x12,0x3
    c4f4:	01d71813          	slli	x16,x14,0x1d
    c4f8:	7ff00693          	addi	x13,x0,2047
    c4fc:	00c86833          	or	x16,x16,x12
    c500:	00375713          	srli	x14,x14,0x3
    c504:	fcd786e3          	beq	x15,x13,c4d0 <__adddf3+0x4b4>
    c508:	00c71713          	slli	x14,x14,0xc
    c50c:	00c75713          	srli	x14,x14,0xc
    c510:	7ff7f793          	andi	x15,x15,2047
    c514:	00040e13          	addi	x28,x8,0
    c518:	c9dff06f          	jal	x0,c1b4 <__adddf3+0x198>
    c51c:	00190693          	addi	x13,x18,1
    c520:	7fe6f813          	andi	x16,x13,2046
    c524:	14081863          	bne	x16,x0,c674 <__adddf3+0x658>
    c528:	00b766b3          	or	x13,x14,x11
    c52c:	28091c63          	bne	x18,x0,c7c4 <__adddf3+0x7a8>
    c530:	30068263          	beq	x13,x0,c834 <__adddf3+0x818>
    c534:	01e8e6b3          	or	x13,x17,x30
    c538:	22068863          	beq	x13,x0,c768 <__adddf3+0x74c>
    c53c:	01e587b3          	add	x15,x11,x30
    c540:	00b7b5b3          	sltu	x11,x15,x11
    c544:	01170733          	add	x14,x14,x17
    c548:	00b70733          	add	x14,x14,x11
    c54c:	0037d813          	srli	x16,x15,0x3
    c550:	00871793          	slli	x15,x14,0x8
    c554:	00040e13          	addi	x28,x8,0
    c558:	3407de63          	bge	x15,x0,c8b4 <__adddf3+0x898>
    c55c:	ff8007b7          	lui	x15,0xff800
    c560:	fff78793          	addi	x15,x15,-1 # ff7fffff <__heap_end+0xff3fffff>
    c564:	00f77733          	and	x14,x14,x15
    c568:	01d71793          	slli	x15,x14,0x1d
    c56c:	00375713          	srli	x14,x14,0x3
    c570:	0107e833          	or	x16,x15,x16
    c574:	01d77733          	and	x14,x14,x29
    c578:	00100793          	addi	x15,x0,1
    c57c:	c39ff06f          	jal	x0,c1b4 <__adddf3+0x198>
    c580:	41e58833          	sub	x16,x11,x30
    c584:	0105b7b3          	sltu	x15,x11,x16
    c588:	411709b3          	sub	x19,x14,x17
    c58c:	40f989b3          	sub	x19,x19,x15
    c590:	00899793          	slli	x15,x19,0x8
    c594:	00080493          	addi	x9,x16,0
    c598:	1007c663          	blt	x15,x0,c6a4 <__adddf3+0x688>
    c59c:	01386833          	or	x16,x16,x19
    c5a0:	b4081ee3          	bne	x16,x0,c0fc <__adddf3+0xe0>
    c5a4:	00000e13          	addi	x28,x0,0
    c5a8:	00000793          	addi	x15,x0,0
    c5ac:	00000713          	addi	x14,x0,0
    c5b0:	c05ff06f          	jal	x0,c1b4 <__adddf3+0x198>
    c5b4:	7ff00513          	addi	x10,x0,2047
    c5b8:	1aa30e63          	beq	x6,x10,c774 <__adddf3+0x758>
    c5bc:	03800513          	addi	x10,x0,56
    c5c0:	00100613          	addi	x12,x0,1
    c5c4:	c8f544e3          	blt	x10,x15,c24c <__adddf3+0x230>
    c5c8:	00800637          	lui	x12,0x800
    c5cc:	00c76733          	or	x14,x14,x12
    c5d0:	c4dff06f          	jal	x0,c21c <__adddf3+0x200>
    c5d4:	ff8009b7          	lui	x19,0xff800
    c5d8:	fff98993          	addi	x19,x19,-1 # ff7fffff <__heap_end+0xff3fffff>
    c5dc:	40f90933          	sub	x18,x18,x15
    c5e0:	013779b3          	and	x19,x14,x19
    c5e4:	b71ff06f          	jal	x0,c154 <__adddf3+0x138>
    c5e8:	fe078693          	addi	x13,x15,-32
    c5ec:	02000613          	addi	x12,x0,32
    c5f0:	00d8d6b3          	srl	x13,x17,x13
    c5f4:	00c78a63          	beq	x15,x12,c608 <__adddf3+0x5ec>
    c5f8:	04000613          	addi	x12,x0,64
    c5fc:	40f607b3          	sub	x15,x12,x15
    c600:	00f897b3          	sll	x15,x17,x15
    c604:	00ff6f33          	or	x30,x30,x15
    c608:	01e03633          	sltu	x12,x0,x30
    c60c:	00d66633          	or	x12,x12,x13
    c610:	ac9ff06f          	jal	x0,c0d8 <__adddf3+0xbc>
    c614:	ff8006b7          	lui	x13,0xff800
    c618:	fff68693          	addi	x13,x13,-1 # ff7fffff <__heap_end+0xff3fffff>
    c61c:	40f907b3          	sub	x15,x18,x15
    c620:	00d77733          	and	x14,x14,x13
    c624:	01d71813          	slli	x16,x14,0x1d
    c628:	01386833          	or	x16,x16,x19
    c62c:	00375713          	srli	x14,x14,0x3
    c630:	ed9ff06f          	jal	x0,c508 <__adddf3+0x4ec>
    c634:	00b766b3          	or	x13,x14,x11
    c638:	1e068663          	beq	x13,x0,c824 <__adddf3+0x808>
    c63c:	fff78693          	addi	x13,x15,-1
    c640:	0a068e63          	beq	x13,x0,c6fc <__adddf3+0x6e0>
    c644:	7ff00513          	addi	x10,x0,2047
    c648:	14a78063          	beq	x15,x10,c788 <__adddf3+0x76c>
    c64c:	03800793          	addi	x15,x0,56
    c650:	00100993          	addi	x19,x0,1
    c654:	e4d7c6e3          	blt	x15,x13,c4a0 <__adddf3+0x484>
    c658:	00068793          	addi	x15,x13,0
    c65c:	e15ff06f          	jal	x0,c470 <__adddf3+0x454>
    c660:	00040e13          	addi	x28,x8,0
    c664:	7ff00793          	addi	x15,x0,2047
    c668:	00000713          	addi	x14,x0,0
    c66c:	00000813          	addi	x16,x0,0
    c670:	b45ff06f          	jal	x0,c1b4 <__adddf3+0x198>
    c674:	7ff00793          	addi	x15,x0,2047
    c678:	fef684e3          	beq	x13,x15,c660 <__adddf3+0x644>
    c67c:	01e58f33          	add	x30,x11,x30
    c680:	00bf35b3          	sltu	x11,x30,x11
    c684:	011707b3          	add	x15,x14,x17
    c688:	00b787b3          	add	x15,x15,x11
    c68c:	01f79613          	slli	x12,x15,0x1f
    c690:	001f5f13          	srli	x30,x30,0x1
    c694:	01e664b3          	or	x9,x12,x30
    c698:	0017d993          	srli	x19,x15,0x1
    c69c:	00068913          	addi	x18,x13,0
    c6a0:	ab5ff06f          	jal	x0,c154 <__adddf3+0x138>
    c6a4:	40bf0633          	sub	x12,x30,x11
    c6a8:	40e887b3          	sub	x15,x17,x14
    c6ac:	00cf3733          	sltu	x14,x30,x12
    c6b0:	00060493          	addi	x9,x12,0 # 800000 <__heap_end+0x400000>
    c6b4:	40e789b3          	sub	x19,x15,x14
    c6b8:	00068413          	addi	x8,x13,0
    c6bc:	a41ff06f          	jal	x0,c0fc <__adddf3+0xe0>
    c6c0:	00361613          	slli	x12,x12,0x3
    c6c4:	00365613          	srli	x12,x12,0x3
    c6c8:	00068413          	addi	x8,x13,0
    c6cc:	00088713          	addi	x14,x17,0
    c6d0:	e25ff06f          	jal	x0,c4f4 <__adddf3+0x4d8>
    c6d4:	de0312e3          	bne	x6,x0,c4b8 <__adddf3+0x49c>
    c6d8:	1c080663          	beq	x16,x0,c8a4 <__adddf3+0x888>
    c6dc:	0038d713          	srli	x14,x17,0x3
    c6e0:	00361613          	slli	x12,x12,0x3
    c6e4:	01d89893          	slli	x17,x17,0x1d
    c6e8:	01176733          	or	x14,x14,x17
    c6ec:	00365613          	srli	x12,x12,0x3
    c6f0:	00c76733          	or	x14,x14,x12
    c6f4:	00068413          	addi	x8,x13,0
    c6f8:	dddff06f          	jal	x0,c4d4 <__adddf3+0x4b8>
    c6fc:	01e58f33          	add	x30,x11,x30
    c700:	011708b3          	add	x17,x14,x17
    c704:	00bf35b3          	sltu	x11,x30,x11
    c708:	00b889b3          	add	x19,x17,x11
    c70c:	00899793          	slli	x15,x19,0x8
    c710:	000f0493          	addi	x9,x30,0
    c714:	0e07d463          	bge	x15,x0,c7fc <__adddf3+0x7e0>
    c718:	00200913          	addi	x18,x0,2
    c71c:	bd1ff06f          	jal	x0,c2ec <__adddf3+0x2d0>
    c720:	41e58f33          	sub	x30,x11,x30
    c724:	411708b3          	sub	x17,x14,x17
    c728:	01e5b5b3          	sltu	x11,x11,x30
    c72c:	000f0493          	addi	x9,x30,0
    c730:	40b889b3          	sub	x19,x17,x11
    c734:	00100913          	addi	x18,x0,1
    c738:	9b1ff06f          	jal	x0,c0e8 <__adddf3+0xcc>
    c73c:	fe078693          	addi	x13,x15,-32
    c740:	02000613          	addi	x12,x0,32
    c744:	00d8d6b3          	srl	x13,x17,x13
    c748:	00c78a63          	beq	x15,x12,c75c <__adddf3+0x740>
    c74c:	04000613          	addi	x12,x0,64
    c750:	40f607b3          	sub	x15,x12,x15
    c754:	00f897b3          	sll	x15,x17,x15
    c758:	00ff6f33          	or	x30,x30,x15
    c75c:	01e039b3          	sltu	x19,x0,x30
    c760:	00d9e9b3          	or	x19,x19,x13
    c764:	b65ff06f          	jal	x0,c2c8 <__adddf3+0x2ac>
    c768:	00351613          	slli	x12,x10,0x3
    c76c:	00365993          	srli	x19,x12,0x3
    c770:	eb5ff06f          	jal	x0,c624 <__adddf3+0x608>
    c774:	00361613          	slli	x12,x12,0x3
    c778:	00365613          	srli	x12,x12,0x3
    c77c:	00068413          	addi	x8,x13,0
    c780:	00088713          	addi	x14,x17,0
    c784:	d41ff06f          	jal	x0,c4c4 <__adddf3+0x4a8>
    c788:	00361613          	slli	x12,x12,0x3
    c78c:	00365613          	srli	x12,x12,0x3
    c790:	00088713          	addi	x14,x17,0
    c794:	d31ff06f          	jal	x0,c4c4 <__adddf3+0x4a8>
    c798:	fe078513          	addi	x10,x15,-32
    c79c:	02000613          	addi	x12,x0,32
    c7a0:	00a75533          	srl	x10,x14,x10
    c7a4:	00c78a63          	beq	x15,x12,c7b8 <__adddf3+0x79c>
    c7a8:	04000613          	addi	x12,x0,64
    c7ac:	40f607b3          	sub	x15,x12,x15
    c7b0:	00f717b3          	sll	x15,x14,x15
    c7b4:	00f5e5b3          	or	x11,x11,x15
    c7b8:	00b03633          	sltu	x12,x0,x11
    c7bc:	00a66633          	or	x12,x12,x10
    c7c0:	a8dff06f          	jal	x0,c24c <__adddf3+0x230>
    c7c4:	fc0682e3          	beq	x13,x0,c788 <__adddf3+0x76c>
    c7c8:	01e8ef33          	or	x30,x17,x30
    c7cc:	d00f16e3          	bne	x30,x0,c4d8 <__adddf3+0x4bc>
    c7d0:	cedff06f          	jal	x0,c4bc <__adddf3+0x4a0>
    c7d4:	dc0808e3          	beq	x16,x0,c5a4 <__adddf3+0x588>
    c7d8:	00361813          	slli	x16,x12,0x3
    c7dc:	01d89793          	slli	x15,x17,0x1d
    c7e0:	00385813          	srli	x16,x16,0x3
    c7e4:	0038d713          	srli	x14,x17,0x3
    c7e8:	00f86833          	or	x16,x16,x15
    c7ec:	01d77733          	and	x14,x14,x29
    c7f0:	00068e13          	addi	x28,x13,0
    c7f4:	00000793          	addi	x15,x0,0
    c7f8:	9bdff06f          	jal	x0,c1b4 <__adddf3+0x198>
    c7fc:	00100793          	addi	x15,x0,1
    c800:	c2dff06f          	jal	x0,c42c <__adddf3+0x410>
    c804:	40bf05b3          	sub	x11,x30,x11
    c808:	40e888b3          	sub	x17,x17,x14
    c80c:	00bf3733          	sltu	x14,x30,x11
    c810:	00058493          	addi	x9,x11,0
    c814:	40e889b3          	sub	x19,x17,x14
    c818:	00068413          	addi	x8,x13,0
    c81c:	00100913          	addi	x18,x0,1
    c820:	8c9ff06f          	jal	x0,c0e8 <__adddf3+0xcc>
    c824:	00361613          	slli	x12,x12,0x3
    c828:	00365613          	srli	x12,x12,0x3
    c82c:	00088713          	addi	x14,x17,0
    c830:	cc5ff06f          	jal	x0,c4f4 <__adddf3+0x4d8>
    c834:	00361613          	slli	x12,x12,0x3
    c838:	00365993          	srli	x19,x12,0x3
    c83c:	00088713          	addi	x14,x17,0
    c840:	de5ff06f          	jal	x0,c624 <__adddf3+0x608>
    c844:	fe078693          	addi	x13,x15,-32
    c848:	02000613          	addi	x12,x0,32
    c84c:	00d756b3          	srl	x13,x14,x13
    c850:	00c78a63          	beq	x15,x12,c864 <__adddf3+0x848>
    c854:	04000613          	addi	x12,x0,64
    c858:	40f607b3          	sub	x15,x12,x15
    c85c:	00f717b3          	sll	x15,x14,x15
    c860:	00f5e5b3          	or	x11,x11,x15
    c864:	00b039b3          	sltu	x19,x0,x11
    c868:	00d9e9b3          	or	x19,x19,x13
    c86c:	c35ff06f          	jal	x0,c4a0 <__adddf3+0x484>
    c870:	0034d613          	srli	x12,x9,0x3
    c874:	00090793          	addi	x15,x18,0
    c878:	00098713          	addi	x14,x19,0
    c87c:	c79ff06f          	jal	x0,c4f4 <__adddf3+0x4d8>
    c880:	02000693          	addi	x13,x0,32
    c884:	40f686b3          	sub	x13,x13,x15
    c888:	00000613          	addi	x12,x0,0
    c88c:	8b5ff06f          	jal	x0,c140 <__adddf3+0x124>
    c890:	00c9e833          	or	x16,x19,x12
    c894:	d00808e3          	beq	x16,x0,c5a4 <__adddf3+0x588>
    c898:	0039d993          	srli	x19,x19,0x3
    c89c:	00060713          	addi	x14,x12,0
    c8a0:	d85ff06f          	jal	x0,c624 <__adddf3+0x608>
    c8a4:	00000e13          	addi	x28,x0,0
    c8a8:	7ff00793          	addi	x15,x0,2047
    c8ac:	00080737          	lui	x14,0x80
    c8b0:	905ff06f          	jal	x0,c1b4 <__adddf3+0x198>
    c8b4:	01d71793          	slli	x15,x14,0x1d
    c8b8:	00375713          	srli	x14,x14,0x3
    c8bc:	0107e833          	or	x16,x15,x16
    c8c0:	01d77733          	and	x14,x14,x29
    c8c4:	00000793          	addi	x15,x0,0
    c8c8:	8edff06f          	jal	x0,c1b4 <__adddf3+0x198>
    c8cc:	01d71813          	slli	x16,x14,0x1d
    c8d0:	0035d593          	srli	x11,x11,0x3
    c8d4:	00b86833          	or	x16,x16,x11
    c8d8:	00375713          	srli	x14,x14,0x3
    c8dc:	00068413          	addi	x8,x13,0
    c8e0:	c29ff06f          	jal	x0,c508 <__adddf3+0x4ec>

0000c8e4 <__divdf3>:
    c8e4:	fd010113          	addi	x2,x2,-48
    c8e8:	01312e23          	sw	x19,28(x2)
    c8ec:	0145d993          	srli	x19,x11,0x14
    c8f0:	02812423          	sw	x8,40(x2)
    c8f4:	02912223          	sw	x9,36(x2)
    c8f8:	03212023          	sw	x18,32(x2)
    c8fc:	01412c23          	sw	x20,24(x2)
    c900:	01712623          	sw	x23,12(x2)
    c904:	00c59493          	slli	x9,x11,0xc
    c908:	02112623          	sw	x1,44(x2)
    c90c:	01512a23          	sw	x21,20(x2)
    c910:	01612823          	sw	x22,16(x2)
    c914:	01812423          	sw	x24,8(x2)
    c918:	7ff9f993          	andi	x19,x19,2047
    c91c:	00050413          	addi	x8,x10,0
    c920:	00060b93          	addi	x23,x12,0
    c924:	00068913          	addi	x18,x13,0
    c928:	00c4d493          	srli	x9,x9,0xc
    c92c:	01f5da13          	srli	x20,x11,0x1f
    c930:	18098a63          	beq	x19,x0,cac4 <__divdf3+0x1e0>
    c934:	7ff00793          	addi	x15,x0,2047
    c938:	08f98863          	beq	x19,x15,c9c8 <__divdf3+0xe4>
    c93c:	00349493          	slli	x9,x9,0x3
    c940:	01d55793          	srli	x15,x10,0x1d
    c944:	0097e7b3          	or	x15,x15,x9
    c948:	00800737          	lui	x14,0x800
    c94c:	00e7eab3          	or	x21,x15,x14
    c950:	00351b13          	slli	x22,x10,0x3
    c954:	c0198993          	addi	x19,x19,-1023
    c958:	00000493          	addi	x9,x0,0
    c95c:	00000c13          	addi	x24,x0,0
    c960:	01495793          	srli	x15,x18,0x14
    c964:	00c91413          	slli	x8,x18,0xc
    c968:	7ff7f793          	andi	x15,x15,2047
    c96c:	00c45413          	srli	x8,x8,0xc
    c970:	01f95913          	srli	x18,x18,0x1f
    c974:	08078263          	beq	x15,x0,c9f8 <__divdf3+0x114>
    c978:	7ff00713          	addi	x14,x0,2047
    c97c:	18e78a63          	beq	x15,x14,cb10 <__divdf3+0x22c>
    c980:	00341413          	slli	x8,x8,0x3
    c984:	01dbd713          	srli	x14,x23,0x1d
    c988:	00876733          	or	x14,x14,x8
    c98c:	c0178793          	addi	x15,x15,-1023
    c990:	00800437          	lui	x8,0x800
    c994:	00876433          	or	x8,x14,x8
    c998:	003b9893          	slli	x17,x23,0x3
    c99c:	40f989b3          	sub	x19,x19,x15
    c9a0:	00000613          	addi	x12,x0,0
    c9a4:	00f00713          	addi	x14,x0,15
    c9a8:	012a46b3          	xor	x13,x20,x18
    c9ac:	24976463          	bltu	x14,x9,cbf4 <__divdf3+0x310>
    c9b0:	000127b7          	lui	x15,0x12
    c9b4:	00249493          	slli	x9,x9,0x2
    c9b8:	26c78793          	addi	x15,x15,620 # 1226c <_ctype_+0x104>
    c9bc:	00f484b3          	add	x9,x9,x15
    c9c0:	0004a703          	lw	x14,0(x9)
    c9c4:	00070067          	jalr	x0,0(x14) # 800000 <__heap_end+0x400000>
    c9c8:	00a4eab3          	or	x21,x9,x10
    c9cc:	1c0a9e63          	bne	x21,x0,cba8 <__divdf3+0x2c4>
    c9d0:	01495793          	srli	x15,x18,0x14
    c9d4:	00c91413          	slli	x8,x18,0xc
    c9d8:	7ff7f793          	andi	x15,x15,2047
    c9dc:	00000b13          	addi	x22,x0,0
    c9e0:	00800493          	addi	x9,x0,8
    c9e4:	7ff00993          	addi	x19,x0,2047
    c9e8:	00200c13          	addi	x24,x0,2
    c9ec:	00c45413          	srli	x8,x8,0xc
    c9f0:	01f95913          	srli	x18,x18,0x1f
    c9f4:	f80792e3          	bne	x15,x0,c978 <__divdf3+0x94>
    c9f8:	017468b3          	or	x17,x8,x23
    c9fc:	1c088263          	beq	x17,x0,cbc0 <__divdf3+0x2dc>
    ca00:	4a040a63          	beq	x8,x0,ceb4 <__divdf3+0x5d0>
    ca04:	00040513          	addi	x10,x8,0 # 800000 <__heap_end+0x400000>
    ca08:	475040ef          	jal	x1,1167c <__clzsi2>
    ca0c:	00050793          	addi	x15,x10,0
    ca10:	ff550693          	addi	x13,x10,-11
    ca14:	01d00713          	addi	x14,x0,29
    ca18:	ff878893          	addi	x17,x15,-8
    ca1c:	40d70733          	sub	x14,x14,x13
    ca20:	01141433          	sll	x8,x8,x17
    ca24:	00ebd733          	srl	x14,x23,x14
    ca28:	00876433          	or	x8,x14,x8
    ca2c:	011b98b3          	sll	x17,x23,x17
    ca30:	013787b3          	add	x15,x15,x19
    ca34:	3f378993          	addi	x19,x15,1011
    ca38:	00000613          	addi	x12,x0,0
    ca3c:	f69ff06f          	jal	x0,c9a4 <__divdf3+0xc0>
    ca40:	40f70733          	sub	x14,x14,x15
    ca44:	03800613          	addi	x12,x0,56
    ca48:	4ee65a63          	bge	x12,x14,cf3c <__divdf3+0x658>
    ca4c:	00000793          	addi	x15,x0,0
    ca50:	00000613          	addi	x12,x0,0
    ca54:	00000713          	addi	x14,x0,0
    ca58:	02c12083          	lw	x1,44(x2)
    ca5c:	02812403          	lw	x8,40(x2)
    ca60:	01479793          	slli	x15,x15,0x14
    ca64:	00c7e7b3          	or	x15,x15,x12
    ca68:	01f69693          	slli	x13,x13,0x1f
    ca6c:	00d7e7b3          	or	x15,x15,x13
    ca70:	02412483          	lw	x9,36(x2)
    ca74:	02012903          	lw	x18,32(x2)
    ca78:	01c12983          	lw	x19,28(x2)
    ca7c:	01812a03          	lw	x20,24(x2)
    ca80:	01412a83          	lw	x21,20(x2)
    ca84:	01012b03          	lw	x22,16(x2)
    ca88:	00c12b83          	lw	x23,12(x2)
    ca8c:	00812c03          	lw	x24,8(x2)
    ca90:	00070513          	addi	x10,x14,0
    ca94:	00078593          	addi	x11,x15,0
    ca98:	03010113          	addi	x2,x2,48
    ca9c:	00008067          	jalr	x0,0(x1)
    caa0:	7ff00793          	addi	x15,x0,2047
    caa4:	00000613          	addi	x12,x0,0
    caa8:	00000713          	addi	x14,x0,0
    caac:	fadff06f          	jal	x0,ca58 <__divdf3+0x174>
    cab0:	00000693          	addi	x13,x0,0
    cab4:	7ff00793          	addi	x15,x0,2047
    cab8:	00080637          	lui	x12,0x80
    cabc:	00000713          	addi	x14,x0,0
    cac0:	f99ff06f          	jal	x0,ca58 <__divdf3+0x174>
    cac4:	00a4eab3          	or	x21,x9,x10
    cac8:	100a8c63          	beq	x21,x0,cbe0 <__divdf3+0x2fc>
    cacc:	40048863          	beq	x9,x0,cedc <__divdf3+0x5f8>
    cad0:	00048513          	addi	x10,x9,0
    cad4:	3a9040ef          	jal	x1,1167c <__clzsi2>
    cad8:	00050713          	addi	x14,x10,0
    cadc:	ff550693          	addi	x13,x10,-11
    cae0:	01d00793          	addi	x15,x0,29
    cae4:	ff870b13          	addi	x22,x14,-8
    cae8:	40d787b3          	sub	x15,x15,x13
    caec:	016494b3          	sll	x9,x9,x22
    caf0:	00f457b3          	srl	x15,x8,x15
    caf4:	0097eab3          	or	x21,x15,x9
    caf8:	01641b33          	sll	x22,x8,x22
    cafc:	c0d00993          	addi	x19,x0,-1011
    cb00:	40e989b3          	sub	x19,x19,x14
    cb04:	00000493          	addi	x9,x0,0
    cb08:	00000c13          	addi	x24,x0,0
    cb0c:	e55ff06f          	jal	x0,c960 <__divdf3+0x7c>
    cb10:	017468b3          	or	x17,x8,x23
    cb14:	80198993          	addi	x19,x19,-2047
    cb18:	0a089c63          	bne	x17,x0,cbd0 <__divdf3+0x2ec>
    cb1c:	0024e493          	ori	x9,x9,2
    cb20:	00000413          	addi	x8,x0,0
    cb24:	00200613          	addi	x12,x0,2
    cb28:	e7dff06f          	jal	x0,c9a4 <__divdf3+0xc0>
    cb2c:	000a0913          	addi	x18,x20,0
    cb30:	000a8413          	addi	x8,x21,0
    cb34:	000b0893          	addi	x17,x22,0
    cb38:	00200793          	addi	x15,x0,2
    cb3c:	4efc0863          	beq	x24,x15,d02c <__divdf3+0x748>
    cb40:	00300793          	addi	x15,x0,3
    cb44:	f6fc06e3          	beq	x24,x15,cab0 <__divdf3+0x1cc>
    cb48:	00100793          	addi	x15,x0,1
    cb4c:	00090693          	addi	x13,x18,0
    cb50:	eefc0ee3          	beq	x24,x15,ca4c <__divdf3+0x168>
    cb54:	3ff98793          	addi	x15,x19,1023
    cb58:	2af05663          	bge	x0,x15,ce04 <__divdf3+0x520>
    cb5c:	0078f713          	andi	x14,x17,7
    cb60:	4a071663          	bne	x14,x0,d00c <__divdf3+0x728>
    cb64:	00741713          	slli	x14,x8,0x7
    cb68:	00075a63          	bge	x14,x0,cb7c <__divdf3+0x298>
    cb6c:	ff0007b7          	lui	x15,0xff000
    cb70:	fff78793          	addi	x15,x15,-1 # feffffff <__heap_end+0xfebfffff>
    cb74:	00f47433          	and	x8,x8,x15
    cb78:	40098793          	addi	x15,x19,1024
    cb7c:	7fe00713          	addi	x14,x0,2046
    cb80:	f2f740e3          	blt	x14,x15,caa0 <__divdf3+0x1bc>
    cb84:	0038d893          	srli	x17,x17,0x3
    cb88:	01d41713          	slli	x14,x8,0x1d
    cb8c:	00941613          	slli	x12,x8,0x9
    cb90:	01176733          	or	x14,x14,x17
    cb94:	00c65613          	srli	x12,x12,0xc
    cb98:	7ff7f793          	andi	x15,x15,2047
    cb9c:	ebdff06f          	jal	x0,ca58 <__divdf3+0x174>
    cba0:	00060c13          	addi	x24,x12,0 # 80000 <__heap_start+0x6d220>
    cba4:	f95ff06f          	jal	x0,cb38 <__divdf3+0x254>
    cba8:	00048a93          	addi	x21,x9,0
    cbac:	00050b13          	addi	x22,x10,0
    cbb0:	00c00493          	addi	x9,x0,12
    cbb4:	7ff00993          	addi	x19,x0,2047
    cbb8:	00300c13          	addi	x24,x0,3
    cbbc:	da5ff06f          	jal	x0,c960 <__divdf3+0x7c>
    cbc0:	0014e493          	ori	x9,x9,1
    cbc4:	00000413          	addi	x8,x0,0
    cbc8:	00100613          	addi	x12,x0,1
    cbcc:	dd9ff06f          	jal	x0,c9a4 <__divdf3+0xc0>
    cbd0:	0034e493          	ori	x9,x9,3
    cbd4:	000b8893          	addi	x17,x23,0
    cbd8:	00300613          	addi	x12,x0,3
    cbdc:	dc9ff06f          	jal	x0,c9a4 <__divdf3+0xc0>
    cbe0:	00000b13          	addi	x22,x0,0
    cbe4:	00400493          	addi	x9,x0,4
    cbe8:	00000993          	addi	x19,x0,0
    cbec:	00100c13          	addi	x24,x0,1
    cbf0:	d71ff06f          	jal	x0,c960 <__divdf3+0x7c>
    cbf4:	2b546463          	bltu	x8,x21,ce9c <__divdf3+0x5b8>
    cbf8:	2a8a8063          	beq	x21,x8,ce98 <__divdf3+0x5b4>
    cbfc:	000b0313          	addi	x6,x22,0
    cc00:	fff98993          	addi	x19,x19,-1
    cc04:	000a8793          	addi	x15,x21,0
    cc08:	00000b13          	addi	x22,x0,0
    cc0c:	00841713          	slli	x14,x8,0x8
    cc10:	01075513          	srli	x10,x14,0x10
    cc14:	02a7d433          	divu	x8,x15,x10
    cc18:	0188d613          	srli	x12,x17,0x18
    cc1c:	00e66633          	or	x12,x12,x14
    cc20:	01061813          	slli	x16,x12,0x10
    cc24:	01085813          	srli	x16,x16,0x10
    cc28:	00889593          	slli	x11,x17,0x8
    cc2c:	01035713          	srli	x14,x6,0x10
    cc30:	02a7f7b3          	remu	x15,x15,x10
    cc34:	028808b3          	mul	x17,x16,x8
    cc38:	01079793          	slli	x15,x15,0x10
    cc3c:	00f767b3          	or	x15,x14,x15
    cc40:	0117fa63          	bgeu	x15,x17,cc54 <__divdf3+0x370>
    cc44:	00f607b3          	add	x15,x12,x15
    cc48:	fff40713          	addi	x14,x8,-1
    cc4c:	2ec7f063          	bgeu	x15,x12,cf2c <__divdf3+0x648>
    cc50:	00070413          	addi	x8,x14,0
    cc54:	411787b3          	sub	x15,x15,x17
    cc58:	02a7d8b3          	divu	x17,x15,x10
    cc5c:	01031713          	slli	x14,x6,0x10
    cc60:	01075713          	srli	x14,x14,0x10
    cc64:	02a7f7b3          	remu	x15,x15,x10
    cc68:	03180fb3          	mul	x31,x16,x17
    cc6c:	01079793          	slli	x15,x15,0x10
    cc70:	00f76733          	or	x14,x14,x15
    cc74:	01f77a63          	bgeu	x14,x31,cc88 <__divdf3+0x3a4>
    cc78:	00e60733          	add	x14,x12,x14
    cc7c:	fff88793          	addi	x15,x17,-1
    cc80:	28c77e63          	bgeu	x14,x12,cf1c <__divdf3+0x638>
    cc84:	00078893          	addi	x17,x15,0
    cc88:	01041413          	slli	x8,x8,0x10
    cc8c:	000102b7          	lui	x5,0x10
    cc90:	01146433          	or	x8,x8,x17
    cc94:	fff28313          	addi	x6,x5,-1 # ffff <__subtf3+0x69b>
    cc98:	006478b3          	and	x17,x8,x6
    cc9c:	01045e93          	srli	x29,x8,0x10
    cca0:	0105de13          	srli	x28,x11,0x10
    cca4:	0065f333          	and	x6,x11,x6
    cca8:	03130f33          	mul	x30,x6,x17
    ccac:	41f70733          	sub	x14,x14,x31
    ccb0:	031e08b3          	mul	x17,x28,x17
    ccb4:	010f5793          	srli	x15,x30,0x10
    ccb8:	026e8fb3          	mul	x31,x29,x6
    ccbc:	01f888b3          	add	x17,x17,x31
    ccc0:	011787b3          	add	x15,x15,x17
    ccc4:	03ce8eb3          	mul	x29,x29,x28
    ccc8:	01f7f463          	bgeu	x15,x31,ccd0 <__divdf3+0x3ec>
    cccc:	005e8eb3          	add	x29,x29,x5
    ccd0:	00010fb7          	lui	x31,0x10
    ccd4:	ffff8f93          	addi	x31,x31,-1 # ffff <__subtf3+0x69b>
    ccd8:	0107d893          	srli	x17,x15,0x10
    ccdc:	01f7f7b3          	and	x15,x15,x31
    cce0:	01079793          	slli	x15,x15,0x10
    cce4:	01ff7f33          	and	x30,x30,x31
    cce8:	01d888b3          	add	x17,x17,x29
    ccec:	01e787b3          	add	x15,x15,x30
    ccf0:	17176e63          	bltu	x14,x17,ce6c <__divdf3+0x588>
    ccf4:	17170a63          	beq	x14,x17,ce68 <__divdf3+0x584>
    ccf8:	40fb07b3          	sub	x15,x22,x15
    ccfc:	41170733          	sub	x14,x14,x17
    cd00:	00fb3b33          	sltu	x22,x22,x15
    cd04:	41670733          	sub	x14,x14,x22
    cd08:	2ee60063          	beq	x12,x14,cfe8 <__divdf3+0x704>
    cd0c:	02a758b3          	divu	x17,x14,x10
    cd10:	0107de93          	srli	x29,x15,0x10
    cd14:	02a77733          	remu	x14,x14,x10
    cd18:	03180f33          	mul	x30,x16,x17
    cd1c:	01071713          	slli	x14,x14,0x10
    cd20:	00eee733          	or	x14,x29,x14
    cd24:	01e77e63          	bgeu	x14,x30,cd40 <__divdf3+0x45c>
    cd28:	00e60733          	add	x14,x12,x14
    cd2c:	fff88e93          	addi	x29,x17,-1
    cd30:	2ec76a63          	bltu	x14,x12,d024 <__divdf3+0x740>
    cd34:	2fe77863          	bgeu	x14,x30,d024 <__divdf3+0x740>
    cd38:	ffe88893          	addi	x17,x17,-2
    cd3c:	00c70733          	add	x14,x14,x12
    cd40:	41e70733          	sub	x14,x14,x30
    cd44:	02a75eb3          	divu	x29,x14,x10
    cd48:	01079793          	slli	x15,x15,0x10
    cd4c:	0107d793          	srli	x15,x15,0x10
    cd50:	02a77733          	remu	x14,x14,x10
    cd54:	03d80833          	mul	x16,x16,x29
    cd58:	01071713          	slli	x14,x14,0x10
    cd5c:	00e7e7b3          	or	x15,x15,x14
    cd60:	0107fe63          	bgeu	x15,x16,cd7c <__divdf3+0x498>
    cd64:	00f607b3          	add	x15,x12,x15
    cd68:	fffe8713          	addi	x14,x29,-1
    cd6c:	2ac7e863          	bltu	x15,x12,d01c <__divdf3+0x738>
    cd70:	2b07f663          	bgeu	x15,x16,d01c <__divdf3+0x738>
    cd74:	ffee8e93          	addi	x29,x29,-2
    cd78:	00c787b3          	add	x15,x15,x12
    cd7c:	01089893          	slli	x17,x17,0x10
    cd80:	01d8e8b3          	or	x17,x17,x29
    cd84:	01089513          	slli	x10,x17,0x10
    cd88:	0108df13          	srli	x30,x17,0x10
    cd8c:	01055513          	srli	x10,x10,0x10
    cd90:	02650eb3          	mul	x29,x10,x6
    cd94:	410787b3          	sub	x15,x15,x16
    cd98:	02ae0533          	mul	x10,x28,x10
    cd9c:	010ed713          	srli	x14,x29,0x10
    cda0:	026f0333          	mul	x6,x30,x6
    cda4:	00650533          	add	x10,x10,x6
    cda8:	00a70733          	add	x14,x14,x10
    cdac:	03ee0e33          	mul	x28,x28,x30
    cdb0:	00677663          	bgeu	x14,x6,cdbc <__divdf3+0x4d8>
    cdb4:	00010537          	lui	x10,0x10
    cdb8:	00ae0e33          	add	x28,x28,x10
    cdbc:	00010837          	lui	x16,0x10
    cdc0:	fff80813          	addi	x16,x16,-1 # ffff <__subtf3+0x69b>
    cdc4:	01075513          	srli	x10,x14,0x10
    cdc8:	01077733          	and	x14,x14,x16
    cdcc:	01071713          	slli	x14,x14,0x10
    cdd0:	010efeb3          	and	x29,x29,x16
    cdd4:	01c50533          	add	x10,x10,x28
    cdd8:	01d70733          	add	x14,x14,x29
    cddc:	12a7f263          	bgeu	x15,x10,cf00 <__divdf3+0x61c>
    cde0:	00f607b3          	add	x15,x12,x15
    cde4:	fff88313          	addi	x6,x17,-1
    cde8:	00078813          	addi	x16,x15,0
    cdec:	1cc7e463          	bltu	x15,x12,cfb4 <__divdf3+0x6d0>
    cdf0:	24a7e863          	bltu	x15,x10,d040 <__divdf3+0x75c>
    cdf4:	26a78663          	beq	x15,x10,d060 <__divdf3+0x77c>
    cdf8:	00030893          	addi	x17,x6,0
    cdfc:	0018e893          	ori	x17,x17,1
    ce00:	d55ff06f          	jal	x0,cb54 <__divdf3+0x270>
    ce04:	00100713          	addi	x14,x0,1
    ce08:	c2079ce3          	bne	x15,x0,ca40 <__divdf3+0x15c>
    ce0c:	41e98993          	addi	x19,x19,1054
    ce10:	013897b3          	sll	x15,x17,x19
    ce14:	00f037b3          	sltu	x15,x0,x15
    ce18:	013419b3          	sll	x19,x8,x19
    ce1c:	0137e7b3          	or	x15,x15,x19
    ce20:	00e8d8b3          	srl	x17,x17,x14
    ce24:	00f8e8b3          	or	x17,x17,x15
    ce28:	0078f793          	andi	x15,x17,7
    ce2c:	00e45433          	srl	x8,x8,x14
    ce30:	02078063          	beq	x15,x0,ce50 <__divdf3+0x56c>
    ce34:	00f8f793          	andi	x15,x17,15
    ce38:	00400713          	addi	x14,x0,4
    ce3c:	00e78a63          	beq	x15,x14,ce50 <__divdf3+0x56c>
    ce40:	00488793          	addi	x15,x17,4
    ce44:	0117b8b3          	sltu	x17,x15,x17
    ce48:	01140433          	add	x8,x8,x17
    ce4c:	00078893          	addi	x17,x15,0
    ce50:	00841593          	slli	x11,x8,0x8
    ce54:	00100793          	addi	x15,x0,1
    ce58:	00000613          	addi	x12,x0,0
    ce5c:	00000713          	addi	x14,x0,0
    ce60:	be05cce3          	blt	x11,x0,ca58 <__divdf3+0x174>
    ce64:	1340006f          	jal	x0,cf98 <__divdf3+0x6b4>
    ce68:	e8fb78e3          	bgeu	x22,x15,ccf8 <__divdf3+0x414>
    ce6c:	00bb0eb3          	add	x29,x22,x11
    ce70:	016ebf33          	sltu	x30,x29,x22
    ce74:	00cf0fb3          	add	x31,x30,x12
    ce78:	01f70733          	add	x14,x14,x31
    ce7c:	000e8b13          	addi	x22,x29,0
    ce80:	fff40f93          	addi	x31,x8,-1
    ce84:	08e67463          	bgeu	x12,x14,cf0c <__divdf3+0x628>
    ce88:	15176263          	bltu	x14,x17,cfcc <__divdf3+0x6e8>
    ce8c:	12e88e63          	beq	x17,x14,cfc8 <__divdf3+0x6e4>
    ce90:	000f8413          	addi	x8,x31,0
    ce94:	e65ff06f          	jal	x0,ccf8 <__divdf3+0x414>
    ce98:	d71b62e3          	bltu	x22,x17,cbfc <__divdf3+0x318>
    ce9c:	001b5713          	srli	x14,x22,0x1
    cea0:	01fa9313          	slli	x6,x21,0x1f
    cea4:	001ad793          	srli	x15,x21,0x1
    cea8:	00e36333          	or	x6,x6,x14
    ceac:	01fb1b13          	slli	x22,x22,0x1f
    ceb0:	d5dff06f          	jal	x0,cc0c <__divdf3+0x328>
    ceb4:	000b8513          	addi	x10,x23,0
    ceb8:	7c4040ef          	jal	x1,1167c <__clzsi2>
    cebc:	01550693          	addi	x13,x10,21 # 10015 <__subtf3+0x6b1>
    cec0:	01c00713          	addi	x14,x0,28
    cec4:	02050793          	addi	x15,x10,32
    cec8:	b4d756e3          	bge	x14,x13,ca14 <__divdf3+0x130>
    cecc:	ff850513          	addi	x10,x10,-8
    ced0:	00000893          	addi	x17,x0,0
    ced4:	00ab9433          	sll	x8,x23,x10
    ced8:	b59ff06f          	jal	x0,ca30 <__divdf3+0x14c>
    cedc:	7a0040ef          	jal	x1,1167c <__clzsi2>
    cee0:	01550693          	addi	x13,x10,21
    cee4:	01c00793          	addi	x15,x0,28
    cee8:	02050713          	addi	x14,x10,32
    ceec:	bed7dae3          	bge	x15,x13,cae0 <__divdf3+0x1fc>
    cef0:	ff850793          	addi	x15,x10,-8
    cef4:	00f41ab3          	sll	x21,x8,x15
    cef8:	00000b13          	addi	x22,x0,0
    cefc:	c01ff06f          	jal	x0,cafc <__divdf3+0x218>
    cf00:	eea79ee3          	bne	x15,x10,cdfc <__divdf3+0x518>
    cf04:	c40708e3          	beq	x14,x0,cb54 <__divdf3+0x270>
    cf08:	ed9ff06f          	jal	x0,cde0 <__divdf3+0x4fc>
    cf0c:	f8e612e3          	bne	x12,x14,ce90 <__divdf3+0x5ac>
    cf10:	f60f0ce3          	beq	x30,x0,ce88 <__divdf3+0x5a4>
    cf14:	000f8413          	addi	x8,x31,0
    cf18:	de1ff06f          	jal	x0,ccf8 <__divdf3+0x414>
    cf1c:	d7f774e3          	bgeu	x14,x31,cc84 <__divdf3+0x3a0>
    cf20:	ffe88893          	addi	x17,x17,-2
    cf24:	00c70733          	add	x14,x14,x12
    cf28:	d61ff06f          	jal	x0,cc88 <__divdf3+0x3a4>
    cf2c:	d317f2e3          	bgeu	x15,x17,cc50 <__divdf3+0x36c>
    cf30:	ffe40413          	addi	x8,x8,-2
    cf34:	00c787b3          	add	x15,x15,x12
    cf38:	d1dff06f          	jal	x0,cc54 <__divdf3+0x370>
    cf3c:	01f00613          	addi	x12,x0,31
    cf40:	ece656e3          	bge	x12,x14,ce0c <__divdf3+0x528>
    cf44:	fe100613          	addi	x12,x0,-31
    cf48:	40f607b3          	sub	x15,x12,x15
    cf4c:	02000613          	addi	x12,x0,32
    cf50:	00f457b3          	srl	x15,x8,x15
    cf54:	00c70863          	beq	x14,x12,cf64 <__divdf3+0x680>
    cf58:	43e98993          	addi	x19,x19,1086
    cf5c:	013419b3          	sll	x19,x8,x19
    cf60:	0138e8b3          	or	x17,x17,x19
    cf64:	011038b3          	sltu	x17,x0,x17
    cf68:	00f8e8b3          	or	x17,x17,x15
    cf6c:	0078f713          	andi	x14,x17,7
    cf70:	00000613          	addi	x12,x0,0
    cf74:	02070863          	beq	x14,x0,cfa4 <__divdf3+0x6c0>
    cf78:	00f8f793          	andi	x15,x17,15
    cf7c:	00400713          	addi	x14,x0,4
    cf80:	00000413          	addi	x8,x0,0
    cf84:	00e78a63          	beq	x15,x14,cf98 <__divdf3+0x6b4>
    cf88:	00488793          	addi	x15,x17,4
    cf8c:	0117b8b3          	sltu	x17,x15,x17
    cf90:	01103433          	sltu	x8,x0,x17
    cf94:	00078893          	addi	x17,x15,0
    cf98:	00941613          	slli	x12,x8,0x9
    cf9c:	01d41713          	slli	x14,x8,0x1d
    cfa0:	00c65613          	srli	x12,x12,0xc
    cfa4:	0038d893          	srli	x17,x17,0x3
    cfa8:	00e8e733          	or	x14,x17,x14
    cfac:	00000793          	addi	x15,x0,0
    cfb0:	aa9ff06f          	jal	x0,ca58 <__divdf3+0x174>
    cfb4:	00030893          	addi	x17,x6,0
    cfb8:	e4a812e3          	bne	x16,x10,cdfc <__divdf3+0x518>
    cfbc:	b8b70ce3          	beq	x14,x11,cb54 <__divdf3+0x270>
    cfc0:	0018e893          	ori	x17,x17,1
    cfc4:	b91ff06f          	jal	x0,cb54 <__divdf3+0x270>
    cfc8:	ecfef4e3          	bgeu	x29,x15,ce90 <__divdf3+0x5ac>
    cfcc:	01d58eb3          	add	x29,x11,x29
    cfd0:	00bebf33          	sltu	x30,x29,x11
    cfd4:	00cf0f33          	add	x30,x30,x12
    cfd8:	ffe40413          	addi	x8,x8,-2
    cfdc:	000e8b13          	addi	x22,x29,0
    cfe0:	01e70733          	add	x14,x14,x30
    cfe4:	d15ff06f          	jal	x0,ccf8 <__divdf3+0x414>
    cfe8:	c0200713          	addi	x14,x0,-1022
    cfec:	3ff98793          	addi	x15,x19,1023
    cff0:	fff00893          	addi	x17,x0,-1
    cff4:	e0e9c8e3          	blt	x19,x14,ce04 <__divdf3+0x520>
    cff8:	00488713          	addi	x14,x17,4
    cffc:	011738b3          	sltu	x17,x14,x17
    d000:	01140433          	add	x8,x8,x17
    d004:	00070893          	addi	x17,x14,0
    d008:	b5dff06f          	jal	x0,cb64 <__divdf3+0x280>
    d00c:	00f8f713          	andi	x14,x17,15
    d010:	00400613          	addi	x12,x0,4
    d014:	b4c708e3          	beq	x14,x12,cb64 <__divdf3+0x280>
    d018:	fe1ff06f          	jal	x0,cff8 <__divdf3+0x714>
    d01c:	00070e93          	addi	x29,x14,0
    d020:	d5dff06f          	jal	x0,cd7c <__divdf3+0x498>
    d024:	000e8893          	addi	x17,x29,0
    d028:	d19ff06f          	jal	x0,cd40 <__divdf3+0x45c>
    d02c:	00090693          	addi	x13,x18,0
    d030:	7ff00793          	addi	x15,x0,2047
    d034:	00000613          	addi	x12,x0,0
    d038:	00000713          	addi	x14,x0,0
    d03c:	a1dff06f          	jal	x0,ca58 <__divdf3+0x174>
    d040:	00159313          	slli	x6,x11,0x1
    d044:	00b33833          	sltu	x16,x6,x11
    d048:	00c80833          	add	x16,x16,x12
    d04c:	01078833          	add	x16,x15,x16
    d050:	ffe88893          	addi	x17,x17,-2
    d054:	00030593          	addi	x11,x6,0
    d058:	f6a802e3          	beq	x16,x10,cfbc <__divdf3+0x6d8>
    d05c:	da1ff06f          	jal	x0,cdfc <__divdf3+0x518>
    d060:	fee5e0e3          	bltu	x11,x14,d040 <__divdf3+0x75c>
    d064:	00030893          	addi	x17,x6,0
    d068:	f4b71ce3          	bne	x14,x11,cfc0 <__divdf3+0x6dc>
    d06c:	ae9ff06f          	jal	x0,cb54 <__divdf3+0x270>

0000d070 <__eqdf2>:
    d070:	0145d713          	srli	x14,x11,0x14
    d074:	001007b7          	lui	x15,0x100
    d078:	fff78793          	addi	x15,x15,-1 # fffff <__heap_start+0xed21f>
    d07c:	0146d813          	srli	x16,x13,0x14
    d080:	7ff77713          	andi	x14,x14,2047
    d084:	7ff00313          	addi	x6,x0,2047
    d088:	00b7fe33          	and	x28,x15,x11
    d08c:	00050893          	addi	x17,x10,0
    d090:	00d7f7b3          	and	x15,x15,x13
    d094:	01f5d593          	srli	x11,x11,0x1f
    d098:	7ff87813          	andi	x16,x16,2047
    d09c:	01f6d693          	srli	x13,x13,0x1f
    d0a0:	00100513          	addi	x10,x0,1
    d0a4:	00670c63          	beq	x14,x6,d0bc <__eqdf2+0x4c>
    d0a8:	00680863          	beq	x16,x6,d0b8 <__eqdf2+0x48>
    d0ac:	01071463          	bne	x14,x16,d0b4 <__eqdf2+0x44>
    d0b0:	02fe0663          	beq	x28,x15,d0dc <__eqdf2+0x6c>
    d0b4:	00008067          	jalr	x0,0(x1)
    d0b8:	00008067          	jalr	x0,0(x1)
    d0bc:	fee81ce3          	bne	x16,x14,d0b4 <__eqdf2+0x44>
    d0c0:	00fe67b3          	or	x15,x28,x15
    d0c4:	00c7e7b3          	or	x15,x15,x12
    d0c8:	0117e7b3          	or	x15,x15,x17
    d0cc:	fe0794e3          	bne	x15,x0,d0b4 <__eqdf2+0x44>
    d0d0:	40d585b3          	sub	x11,x11,x13
    d0d4:	00b03533          	sltu	x10,x0,x11
    d0d8:	00008067          	jalr	x0,0(x1)
    d0dc:	fcc89ce3          	bne	x17,x12,d0b4 <__eqdf2+0x44>
    d0e0:	00d58a63          	beq	x11,x13,d0f4 <__eqdf2+0x84>
    d0e4:	fc0718e3          	bne	x14,x0,d0b4 <__eqdf2+0x44>
    d0e8:	011e6e33          	or	x28,x28,x17
    d0ec:	01c03533          	sltu	x10,x0,x28
    d0f0:	00008067          	jalr	x0,0(x1)
    d0f4:	00000513          	addi	x10,x0,0
    d0f8:	00008067          	jalr	x0,0(x1)

0000d0fc <__gedf2>:
    d0fc:	0145d893          	srli	x17,x11,0x14
    d100:	001007b7          	lui	x15,0x100
    d104:	fff78793          	addi	x15,x15,-1 # fffff <__heap_start+0xed21f>
    d108:	0146d713          	srli	x14,x13,0x14
    d10c:	7ff8f893          	andi	x17,x17,2047
    d110:	7ff00e13          	addi	x28,x0,2047
    d114:	00b7f333          	and	x6,x15,x11
    d118:	00050813          	addi	x16,x10,0
    d11c:	00050e93          	addi	x29,x10,0
    d120:	00d7f7b3          	and	x15,x15,x13
    d124:	01f5d593          	srli	x11,x11,0x1f
    d128:	00060f13          	addi	x30,x12,0
    d12c:	7ff77513          	andi	x10,x14,2047
    d130:	01f6d693          	srli	x13,x13,0x1f
    d134:	05c88863          	beq	x17,x28,d184 <__gedf2+0x88>
    d138:	03c50463          	beq	x10,x28,d160 <__gedf2+0x64>
    d13c:	06089a63          	bne	x17,x0,d1b0 <__gedf2+0xb4>
    d140:	01036833          	or	x16,x6,x16
    d144:	06051063          	bne	x10,x0,d1a4 <__gedf2+0xa8>
    d148:	00c7e633          	or	x12,x15,x12
    d14c:	08060c63          	beq	x12,x0,d1e4 <__gedf2+0xe8>
    d150:	0a081263          	bne	x16,x0,d1f4 <__gedf2+0xf8>
    d154:	00100513          	addi	x10,x0,1
    d158:	08068263          	beq	x13,x0,d1dc <__gedf2+0xe0>
    d15c:	00008067          	jalr	x0,0(x1)
    d160:	00c7e633          	or	x12,x15,x12
    d164:	08061463          	bne	x12,x0,d1ec <__gedf2+0xf0>
    d168:	00089663          	bne	x17,x0,d174 <__gedf2+0x78>
    d16c:	01036333          	or	x6,x6,x16
    d170:	fe0302e3          	beq	x6,x0,d154 <__gedf2+0x58>
    d174:	06d58063          	beq	x11,x13,d1d4 <__gedf2+0xd8>
    d178:	06059263          	bne	x11,x0,d1dc <__gedf2+0xe0>
    d17c:	00100513          	addi	x10,x0,1
    d180:	00008067          	jalr	x0,0(x1)
    d184:	01036333          	or	x6,x6,x16
    d188:	06031263          	bne	x6,x0,d1ec <__gedf2+0xf0>
    d18c:	ff1516e3          	bne	x10,x17,d178 <__gedf2+0x7c>
    d190:	00c7e7b3          	or	x15,x15,x12
    d194:	04079c63          	bne	x15,x0,d1ec <__gedf2+0xf0>
    d198:	fed590e3          	bne	x11,x13,d178 <__gedf2+0x7c>
    d19c:	00000513          	addi	x10,x0,0
    d1a0:	00008067          	jalr	x0,0(x1)
    d1a4:	fa0808e3          	beq	x16,x0,d154 <__gedf2+0x58>
    d1a8:	fcd598e3          	bne	x11,x13,d178 <__gedf2+0x7c>
    d1ac:	0280006f          	jal	x0,d1d4 <__gedf2+0xd8>
    d1b0:	fc0504e3          	beq	x10,x0,d178 <__gedf2+0x7c>
    d1b4:	fcd592e3          	bne	x11,x13,d178 <__gedf2+0x7c>
    d1b8:	fd1540e3          	blt	x10,x17,d178 <__gedf2+0x7c>
    d1bc:	00a8cc63          	blt	x17,x10,d1d4 <__gedf2+0xd8>
    d1c0:	fa67ece3          	bltu	x15,x6,d178 <__gedf2+0x7c>
    d1c4:	00f31863          	bne	x6,x15,d1d4 <__gedf2+0xd8>
    d1c8:	fbdf68e3          	bltu	x30,x29,d178 <__gedf2+0x7c>
    d1cc:	00000513          	addi	x10,x0,0
    d1d0:	f9eef6e3          	bgeu	x29,x30,d15c <__gedf2+0x60>
    d1d4:	00100513          	addi	x10,x0,1
    d1d8:	f80592e3          	bne	x11,x0,d15c <__gedf2+0x60>
    d1dc:	fff00513          	addi	x10,x0,-1
    d1e0:	00008067          	jalr	x0,0(x1)
    d1e4:	f8081ae3          	bne	x16,x0,d178 <__gedf2+0x7c>
    d1e8:	00008067          	jalr	x0,0(x1)
    d1ec:	ffe00513          	addi	x10,x0,-2
    d1f0:	00008067          	jalr	x0,0(x1)
    d1f4:	fcd586e3          	beq	x11,x13,d1c0 <__gedf2+0xc4>
    d1f8:	f81ff06f          	jal	x0,d178 <__gedf2+0x7c>

0000d1fc <__ledf2>:
    d1fc:	0145d893          	srli	x17,x11,0x14
    d200:	001007b7          	lui	x15,0x100
    d204:	fff78793          	addi	x15,x15,-1 # fffff <__heap_start+0xed21f>
    d208:	0146d713          	srli	x14,x13,0x14
    d20c:	7ff8f893          	andi	x17,x17,2047
    d210:	7ff00313          	addi	x6,x0,2047
    d214:	00b7fe33          	and	x28,x15,x11
    d218:	00050813          	addi	x16,x10,0
    d21c:	00050e93          	addi	x29,x10,0
    d220:	00d7f7b3          	and	x15,x15,x13
    d224:	01f5d593          	srli	x11,x11,0x1f
    d228:	00060f13          	addi	x30,x12,0
    d22c:	7ff77513          	andi	x10,x14,2047
    d230:	01f6d693          	srli	x13,x13,0x1f
    d234:	04688a63          	beq	x17,x6,d288 <__ledf2+0x8c>
    d238:	02650463          	beq	x10,x6,d260 <__ledf2+0x64>
    d23c:	06089863          	bne	x17,x0,d2ac <__ledf2+0xb0>
    d240:	010e6833          	or	x16,x28,x16
    d244:	08051e63          	bne	x10,x0,d2e0 <__ledf2+0xe4>
    d248:	00c7e633          	or	x12,x15,x12
    d24c:	0a060463          	beq	x12,x0,d2f4 <__ledf2+0xf8>
    d250:	0a081663          	bne	x16,x0,d2fc <__ledf2+0x100>
    d254:	00100513          	addi	x10,x0,1
    d258:	08068063          	beq	x13,x0,d2d8 <__ledf2+0xdc>
    d25c:	00008067          	jalr	x0,0(x1)
    d260:	00c7e633          	or	x12,x15,x12
    d264:	00200513          	addi	x10,x0,2
    d268:	fe061ae3          	bne	x12,x0,d25c <__ledf2+0x60>
    d26c:	00089663          	bne	x17,x0,d278 <__ledf2+0x7c>
    d270:	010e6e33          	or	x28,x28,x16
    d274:	fe0e00e3          	beq	x28,x0,d254 <__ledf2+0x58>
    d278:	04d58c63          	beq	x11,x13,d2d0 <__ledf2+0xd4>
    d27c:	04059e63          	bne	x11,x0,d2d8 <__ledf2+0xdc>
    d280:	00100513          	addi	x10,x0,1
    d284:	00008067          	jalr	x0,0(x1)
    d288:	010e6e33          	or	x28,x28,x16
    d28c:	060e1063          	bne	x28,x0,d2ec <__ledf2+0xf0>
    d290:	ff1516e3          	bne	x10,x17,d27c <__ledf2+0x80>
    d294:	00c7e7b3          	or	x15,x15,x12
    d298:	00200513          	addi	x10,x0,2
    d29c:	fc0790e3          	bne	x15,x0,d25c <__ledf2+0x60>
    d2a0:	fcd59ee3          	bne	x11,x13,d27c <__ledf2+0x80>
    d2a4:	00000513          	addi	x10,x0,0
    d2a8:	00008067          	jalr	x0,0(x1)
    d2ac:	fc0508e3          	beq	x10,x0,d27c <__ledf2+0x80>
    d2b0:	fcd596e3          	bne	x11,x13,d27c <__ledf2+0x80>
    d2b4:	fd1544e3          	blt	x10,x17,d27c <__ledf2+0x80>
    d2b8:	00a8cc63          	blt	x17,x10,d2d0 <__ledf2+0xd4>
    d2bc:	fdc7e0e3          	bltu	x15,x28,d27c <__ledf2+0x80>
    d2c0:	00fe1863          	bne	x28,x15,d2d0 <__ledf2+0xd4>
    d2c4:	fbdf6ce3          	bltu	x30,x29,d27c <__ledf2+0x80>
    d2c8:	00000513          	addi	x10,x0,0
    d2cc:	f9eef8e3          	bgeu	x29,x30,d25c <__ledf2+0x60>
    d2d0:	00100513          	addi	x10,x0,1
    d2d4:	f80594e3          	bne	x11,x0,d25c <__ledf2+0x60>
    d2d8:	fff00513          	addi	x10,x0,-1
    d2dc:	00008067          	jalr	x0,0(x1)
    d2e0:	f6080ae3          	beq	x16,x0,d254 <__ledf2+0x58>
    d2e4:	f8d59ce3          	bne	x11,x13,d27c <__ledf2+0x80>
    d2e8:	fe9ff06f          	jal	x0,d2d0 <__ledf2+0xd4>
    d2ec:	00200513          	addi	x10,x0,2
    d2f0:	00008067          	jalr	x0,0(x1)
    d2f4:	f80814e3          	bne	x16,x0,d27c <__ledf2+0x80>
    d2f8:	00008067          	jalr	x0,0(x1)
    d2fc:	fcd580e3          	beq	x11,x13,d2bc <__ledf2+0xc0>
    d300:	f7dff06f          	jal	x0,d27c <__ledf2+0x80>

0000d304 <__muldf3>:
    d304:	fd010113          	addi	x2,x2,-48
    d308:	0145d793          	srli	x15,x11,0x14
    d30c:	02812423          	sw	x8,40(x2)
    d310:	02912223          	sw	x9,36(x2)
    d314:	03212023          	sw	x18,32(x2)
    d318:	01312e23          	sw	x19,28(x2)
    d31c:	01512a23          	sw	x21,20(x2)
    d320:	00c59493          	slli	x9,x11,0xc
    d324:	02112623          	sw	x1,44(x2)
    d328:	01412c23          	sw	x20,24(x2)
    d32c:	01612823          	sw	x22,16(x2)
    d330:	01712623          	sw	x23,12(x2)
    d334:	01812423          	sw	x24,8(x2)
    d338:	7ff7f793          	andi	x15,x15,2047
    d33c:	00050413          	addi	x8,x10,0
    d340:	00060a93          	addi	x21,x12,0
    d344:	00068993          	addi	x19,x13,0
    d348:	00c4d493          	srli	x9,x9,0xc
    d34c:	01f5d913          	srli	x18,x11,0x1f
    d350:	42078463          	beq	x15,x0,d778 <__muldf3+0x474>
    d354:	7ff00713          	addi	x14,x0,2047
    d358:	0ae78663          	beq	x15,x14,d404 <__muldf3+0x100>
    d35c:	00349693          	slli	x13,x9,0x3
    d360:	01d55713          	srli	x14,x10,0x1d
    d364:	00d76733          	or	x14,x14,x13
    d368:	008006b7          	lui	x13,0x800
    d36c:	00d764b3          	or	x9,x14,x13
    d370:	00351a13          	slli	x20,x10,0x3
    d374:	c0178c13          	addi	x24,x15,-1023
    d378:	00000b13          	addi	x22,x0,0
    d37c:	00000b93          	addi	x23,x0,0
    d380:	0149d793          	srli	x15,x19,0x14
    d384:	00c99713          	slli	x14,x19,0xc
    d388:	7ff7f793          	andi	x15,x15,2047
    d38c:	000a8f13          	addi	x30,x21,0
    d390:	00c75413          	srli	x8,x14,0xc
    d394:	01f9d993          	srli	x19,x19,0x1f
    d398:	0a078063          	beq	x15,x0,d438 <__muldf3+0x134>
    d39c:	7ff00713          	addi	x14,x0,2047
    d3a0:	14e78e63          	beq	x15,x14,d4fc <__muldf3+0x1f8>
    d3a4:	00341713          	slli	x14,x8,0x3
    d3a8:	01dad593          	srli	x11,x21,0x1d
    d3ac:	00e5e5b3          	or	x11,x11,x14
    d3b0:	c0178793          	addi	x15,x15,-1023
    d3b4:	00800737          	lui	x14,0x800
    d3b8:	00e5e433          	or	x8,x11,x14
    d3bc:	003a9f13          	slli	x30,x21,0x3
    d3c0:	018788b3          	add	x17,x15,x24
    d3c4:	00000313          	addi	x6,x0,0
    d3c8:	00a00713          	addi	x14,x0,10
    d3cc:	00188513          	addi	x10,x17,1
    d3d0:	0b674c63          	blt	x14,x22,d488 <__muldf3+0x184>
    d3d4:	013945b3          	xor	x11,x18,x19
    d3d8:	00200793          	addi	x15,x0,2
    d3dc:	00058813          	addi	x16,x11,0
    d3e0:	1567c663          	blt	x15,x22,d52c <__muldf3+0x228>
    d3e4:	fffb0b13          	addi	x22,x22,-1
    d3e8:	00100713          	addi	x14,x0,1
    d3ec:	17676063          	bltu	x14,x22,d54c <__muldf3+0x248>
    d3f0:	3cf30a63          	beq	x6,x15,d7c4 <__muldf3+0x4c0>
    d3f4:	00040493          	addi	x9,x8,0
    d3f8:	000f0a13          	addi	x20,x30,0
    d3fc:	00030b93          	addi	x23,x6,0
    d400:	09c0006f          	jal	x0,d49c <__muldf3+0x198>
    d404:	00a4ea33          	or	x20,x9,x10
    d408:	3c0a1863          	bne	x20,x0,d7d8 <__muldf3+0x4d4>
    d40c:	0149d793          	srli	x15,x19,0x14
    d410:	00c99713          	slli	x14,x19,0xc
    d414:	7ff7f793          	andi	x15,x15,2047
    d418:	00000493          	addi	x9,x0,0
    d41c:	00800b13          	addi	x22,x0,8
    d420:	7ff00c13          	addi	x24,x0,2047
    d424:	00200b93          	addi	x23,x0,2
    d428:	000a8f13          	addi	x30,x21,0
    d42c:	00c75413          	srli	x8,x14,0xc
    d430:	01f9d993          	srli	x19,x19,0x1f
    d434:	f60794e3          	bne	x15,x0,d39c <__muldf3+0x98>
    d438:	015467b3          	or	x15,x8,x21
    d43c:	3c078263          	beq	x15,x0,d800 <__muldf3+0x4fc>
    d440:	4a040063          	beq	x8,x0,d8e0 <__muldf3+0x5dc>
    d444:	00040513          	addi	x10,x8,0
    d448:	234040ef          	jal	x1,1167c <__clzsi2>
    d44c:	00050893          	addi	x17,x10,0
    d450:	ff550713          	addi	x14,x10,-11
    d454:	01d00793          	addi	x15,x0,29
    d458:	ff888f13          	addi	x30,x17,-8
    d45c:	40e787b3          	sub	x15,x15,x14
    d460:	00fad7b3          	srl	x15,x21,x15
    d464:	01e41733          	sll	x14,x8,x30
    d468:	00e7e433          	or	x8,x15,x14
    d46c:	01ea9f33          	sll	x30,x21,x30
    d470:	411c08b3          	sub	x17,x24,x17
    d474:	c0d88893          	addi	x17,x17,-1011
    d478:	00a00713          	addi	x14,x0,10
    d47c:	00000313          	addi	x6,x0,0
    d480:	00188513          	addi	x10,x17,1
    d484:	f56758e3          	bge	x14,x22,d3d4 <__muldf3+0xd0>
    d488:	00090593          	addi	x11,x18,0
    d48c:	00200793          	addi	x15,x0,2
    d490:	32fb8a63          	beq	x23,x15,d7c4 <__muldf3+0x4c0>
    d494:	00300793          	addi	x15,x0,3
    d498:	48fb8c63          	beq	x23,x15,d930 <__muldf3+0x62c>
    d49c:	00100793          	addi	x15,x0,1
    d4a0:	00058813          	addi	x16,x11,0
    d4a4:	46fb9a63          	bne	x23,x15,d918 <__muldf3+0x614>
    d4a8:	00000793          	addi	x15,x0,0
    d4ac:	00000693          	addi	x13,x0,0
    d4b0:	00000713          	addi	x14,x0,0
    d4b4:	02c12083          	lw	x1,44(x2)
    d4b8:	02812403          	lw	x8,40(x2)
    d4bc:	01479793          	slli	x15,x15,0x14
    d4c0:	00d7e7b3          	or	x15,x15,x13
    d4c4:	01f81693          	slli	x13,x16,0x1f
    d4c8:	00d7e7b3          	or	x15,x15,x13
    d4cc:	02412483          	lw	x9,36(x2)
    d4d0:	02012903          	lw	x18,32(x2)
    d4d4:	01c12983          	lw	x19,28(x2)
    d4d8:	01812a03          	lw	x20,24(x2)
    d4dc:	01412a83          	lw	x21,20(x2)
    d4e0:	01012b03          	lw	x22,16(x2)
    d4e4:	00c12b83          	lw	x23,12(x2)
    d4e8:	00812c03          	lw	x24,8(x2)
    d4ec:	00070513          	addi	x10,x14,0 # 800000 <__heap_end+0x400000>
    d4f0:	00078593          	addi	x11,x15,0
    d4f4:	03010113          	addi	x2,x2,48
    d4f8:	00008067          	jalr	x0,0(x1)
    d4fc:	01546733          	or	x14,x8,x21
    d500:	7ffc0893          	addi	x17,x24,2047
    d504:	30070a63          	beq	x14,x0,d818 <__muldf3+0x514>
    d508:	00001737          	lui	x14,0x1
    d50c:	01394833          	xor	x16,x18,x19
    d510:	80070713          	addi	x14,x14,-2048 # 800 <global_stdio_init.part.0+0x34>
    d514:	003b6b13          	ori	x22,x22,3
    d518:	00a00693          	addi	x13,x0,10
    d51c:	00080593          	addi	x11,x16,0
    d520:	00ec0533          	add	x10,x24,x14
    d524:	3966c063          	blt	x13,x22,d8a4 <__muldf3+0x5a0>
    d528:	00300313          	addi	x6,x0,3
    d52c:	00100613          	addi	x12,x0,1
    d530:	01661633          	sll	x12,x12,x22
    d534:	53067713          	andi	x14,x12,1328
    d538:	f4071ae3          	bne	x14,x0,d48c <__muldf3+0x188>
    d53c:	24067793          	andi	x15,x12,576
    d540:	3c079463          	bne	x15,x0,d908 <__muldf3+0x604>
    d544:	08867613          	andi	x12,x12,136
    d548:	2e061263          	bne	x12,x0,d82c <__muldf3+0x528>
    d54c:	00010fb7          	lui	x31,0x10
    d550:	ffff8e93          	addi	x29,x31,-1 # ffff <__subtf3+0x69b>
    d554:	01da77b3          	and	x15,x20,x29
    d558:	010a5693          	srli	x13,x20,0x10
    d55c:	01df7eb3          	and	x29,x30,x29
    d560:	010f5e13          	srli	x28,x30,0x10
    d564:	03d78733          	mul	x14,x15,x29
    d568:	03d68333          	mul	x6,x13,x29
    d56c:	01075593          	srli	x11,x14,0x10
    d570:	02fe0633          	mul	x12,x28,x15
    d574:	00660633          	add	x12,x12,x6
    d578:	00c585b3          	add	x11,x11,x12
    d57c:	03c68f33          	mul	x30,x13,x28
    d580:	0065f463          	bgeu	x11,x6,d588 <__muldf3+0x284>
    d584:	01ff0f33          	add	x30,x30,x31
    d588:	000103b7          	lui	x7,0x10
    d58c:	fff38613          	addi	x12,x7,-1 # ffff <__subtf3+0x69b>
    d590:	00c5f333          	and	x6,x11,x12
    d594:	01045f93          	srli	x31,x8,0x10
    d598:	00c77733          	and	x14,x14,x12
    d59c:	00c47433          	and	x8,x8,x12
    d5a0:	01031313          	slli	x6,x6,0x10
    d5a4:	028782b3          	mul	x5,x15,x8
    d5a8:	00e30333          	add	x6,x6,x14
    d5ac:	0105d593          	srli	x11,x11,0x10
    d5b0:	02868733          	mul	x14,x13,x8
    d5b4:	0102d613          	srli	x12,x5,0x10
    d5b8:	02ff87b3          	mul	x15,x31,x15
    d5bc:	00e787b3          	add	x15,x15,x14
    d5c0:	00f60633          	add	x12,x12,x15
    d5c4:	03f687b3          	mul	x15,x13,x31
    d5c8:	00e67463          	bgeu	x12,x14,d5d0 <__muldf3+0x2cc>
    d5cc:	007787b3          	add	x15,x15,x7
    d5d0:	00010937          	lui	x18,0x10
    d5d4:	fff90993          	addi	x19,x18,-1 # ffff <__subtf3+0x69b>
    d5d8:	01367733          	and	x14,x12,x19
    d5dc:	0104d393          	srli	x7,x9,0x10
    d5e0:	0134f6b3          	and	x13,x9,x19
    d5e4:	0132f2b3          	and	x5,x5,x19
    d5e8:	01071713          	slli	x14,x14,0x10
    d5ec:	02de84b3          	mul	x9,x29,x13
    d5f0:	00570733          	add	x14,x14,x5
    d5f4:	01065613          	srli	x12,x12,0x10
    d5f8:	00f60633          	add	x12,x12,x15
    d5fc:	00e585b3          	add	x11,x11,x14
    d600:	02de02b3          	mul	x5,x28,x13
    d604:	0104d793          	srli	x15,x9,0x10
    d608:	03d38eb3          	mul	x29,x7,x29
    d60c:	01d282b3          	add	x5,x5,x29
    d610:	005787b3          	add	x15,x15,x5
    d614:	027e0e33          	mul	x28,x28,x7
    d618:	01d7f463          	bgeu	x15,x29,d620 <__muldf3+0x31c>
    d61c:	012e0e33          	add	x28,x28,x18
    d620:	000109b7          	lui	x19,0x10
    d624:	fff98e93          	addi	x29,x19,-1 # ffff <__subtf3+0x69b>
    d628:	01d7f2b3          	and	x5,x15,x29
    d62c:	0107d793          	srli	x15,x15,0x10
    d630:	01c787b3          	add	x15,x15,x28
    d634:	01d4feb3          	and	x29,x9,x29
    d638:	01029293          	slli	x5,x5,0x10
    d63c:	02d40933          	mul	x18,x8,x13
    d640:	01d282b3          	add	x5,x5,x29
    d644:	02838433          	mul	x8,x7,x8
    d648:	01095e13          	srli	x28,x18,0x10
    d64c:	02df86b3          	mul	x13,x31,x13
    d650:	008686b3          	add	x13,x13,x8
    d654:	00de0e33          	add	x28,x28,x13
    d658:	027f8eb3          	mul	x29,x31,x7
    d65c:	008e7463          	bgeu	x28,x8,d664 <__muldf3+0x360>
    d660:	013e8eb3          	add	x29,x29,x19
    d664:	00010fb7          	lui	x31,0x10
    d668:	ffff8f93          	addi	x31,x31,-1 # ffff <__subtf3+0x69b>
    d66c:	01fe76b3          	and	x13,x28,x31
    d670:	01069693          	slli	x13,x13,0x10
    d674:	01f97933          	and	x18,x18,x31
    d678:	01e585b3          	add	x11,x11,x30
    d67c:	012686b3          	add	x13,x13,x18
    d680:	00c68633          	add	x12,x13,x12
    d684:	00e5b733          	sltu	x14,x11,x14
    d688:	00e60733          	add	x14,x12,x14
    d68c:	00558f33          	add	x30,x11,x5
    d690:	00f707b3          	add	x15,x14,x15
    d694:	00bf35b3          	sltu	x11,x30,x11
    d698:	00b785b3          	add	x11,x15,x11
    d69c:	00d636b3          	sltu	x13,x12,x13
    d6a0:	00c73633          	sltu	x12,x14,x12
    d6a4:	00c6e6b3          	or	x13,x13,x12
    d6a8:	00e7b733          	sltu	x14,x15,x14
    d6ac:	010e5e13          	srli	x28,x28,0x10
    d6b0:	00f5b7b3          	sltu	x15,x11,x15
    d6b4:	01c686b3          	add	x13,x13,x28
    d6b8:	00f76733          	or	x14,x14,x15
    d6bc:	009f1793          	slli	x15,x30,0x9
    d6c0:	00d70733          	add	x14,x14,x13
    d6c4:	0067e7b3          	or	x15,x15,x6
    d6c8:	01d70733          	add	x14,x14,x29
    d6cc:	00f037b3          	sltu	x15,x0,x15
    d6d0:	017f5613          	srli	x12,x30,0x17
    d6d4:	00971713          	slli	x14,x14,0x9
    d6d8:	0175d693          	srli	x13,x11,0x17
    d6dc:	00c7e7b3          	or	x15,x15,x12
    d6e0:	00959593          	slli	x11,x11,0x9
    d6e4:	00b7ea33          	or	x20,x15,x11
    d6e8:	00771793          	slli	x15,x14,0x7
    d6ec:	00d764b3          	or	x9,x14,x13
    d6f0:	0207d063          	bge	x15,x0,d710 <__muldf3+0x40c>
    d6f4:	001a5713          	srli	x14,x20,0x1
    d6f8:	001a7793          	andi	x15,x20,1
    d6fc:	01f49693          	slli	x13,x9,0x1f
    d700:	00f767b3          	or	x15,x14,x15
    d704:	00d7ea33          	or	x20,x15,x13
    d708:	0014d493          	srli	x9,x9,0x1
    d70c:	00050893          	addi	x17,x10,0
    d710:	3ff88613          	addi	x12,x17,1023
    d714:	12c05663          	bge	x0,x12,d840 <__muldf3+0x53c>
    d718:	007a7793          	andi	x15,x20,7
    d71c:	02078063          	beq	x15,x0,d73c <__muldf3+0x438>
    d720:	00fa7793          	andi	x15,x20,15
    d724:	00400713          	addi	x14,x0,4
    d728:	00e78a63          	beq	x15,x14,d73c <__muldf3+0x438>
    d72c:	004a0713          	addi	x14,x20,4
    d730:	014737b3          	sltu	x15,x14,x20
    d734:	00f484b3          	add	x9,x9,x15
    d738:	00070a13          	addi	x20,x14,0
    d73c:	00749793          	slli	x15,x9,0x7
    d740:	0007da63          	bge	x15,x0,d754 <__muldf3+0x450>
    d744:	ff0007b7          	lui	x15,0xff000
    d748:	fff78793          	addi	x15,x15,-1 # feffffff <__heap_end+0xfebfffff>
    d74c:	00f4f4b3          	and	x9,x9,x15
    d750:	40088613          	addi	x12,x17,1024
    d754:	7fe00793          	addi	x15,x0,2046
    d758:	1cc7c463          	blt	x15,x12,d920 <__muldf3+0x61c>
    d75c:	003a5793          	srli	x15,x20,0x3
    d760:	01d49713          	slli	x14,x9,0x1d
    d764:	00949693          	slli	x13,x9,0x9
    d768:	00f76733          	or	x14,x14,x15
    d76c:	00c6d693          	srli	x13,x13,0xc
    d770:	7ff67793          	andi	x15,x12,2047
    d774:	d41ff06f          	jal	x0,d4b4 <__muldf3+0x1b0>
    d778:	00a4ea33          	or	x20,x9,x10
    d77c:	060a0863          	beq	x20,x0,d7ec <__muldf3+0x4e8>
    d780:	12048e63          	beq	x9,x0,d8bc <__muldf3+0x5b8>
    d784:	00048513          	addi	x10,x9,0
    d788:	6f5030ef          	jal	x1,1167c <__clzsi2>
    d78c:	00050613          	addi	x12,x10,0
    d790:	ff550693          	addi	x13,x10,-11
    d794:	01d00713          	addi	x14,x0,29
    d798:	ff860793          	addi	x15,x12,-8
    d79c:	40d70733          	sub	x14,x14,x13
    d7a0:	00e45733          	srl	x14,x8,x14
    d7a4:	00f496b3          	sll	x13,x9,x15
    d7a8:	00d764b3          	or	x9,x14,x13
    d7ac:	00f41a33          	sll	x20,x8,x15
    d7b0:	c0d00793          	addi	x15,x0,-1011
    d7b4:	40c78c33          	sub	x24,x15,x12
    d7b8:	00000b13          	addi	x22,x0,0
    d7bc:	00000b93          	addi	x23,x0,0
    d7c0:	bc1ff06f          	jal	x0,d380 <__muldf3+0x7c>
    d7c4:	00058813          	addi	x16,x11,0
    d7c8:	7ff00793          	addi	x15,x0,2047
    d7cc:	00000693          	addi	x13,x0,0
    d7d0:	00000713          	addi	x14,x0,0
    d7d4:	ce1ff06f          	jal	x0,d4b4 <__muldf3+0x1b0>
    d7d8:	00050a13          	addi	x20,x10,0
    d7dc:	00c00b13          	addi	x22,x0,12
    d7e0:	7ff00c13          	addi	x24,x0,2047
    d7e4:	00300b93          	addi	x23,x0,3
    d7e8:	b99ff06f          	jal	x0,d380 <__muldf3+0x7c>
    d7ec:	00000493          	addi	x9,x0,0
    d7f0:	00400b13          	addi	x22,x0,4
    d7f4:	00000c13          	addi	x24,x0,0
    d7f8:	00100b93          	addi	x23,x0,1
    d7fc:	b85ff06f          	jal	x0,d380 <__muldf3+0x7c>
    d800:	001b6b13          	ori	x22,x22,1
    d804:	000c0893          	addi	x17,x24,0
    d808:	00000413          	addi	x8,x0,0
    d80c:	00000f13          	addi	x30,x0,0
    d810:	00100313          	addi	x6,x0,1
    d814:	bb5ff06f          	jal	x0,d3c8 <__muldf3+0xc4>
    d818:	002b6b13          	ori	x22,x22,2
    d81c:	00000413          	addi	x8,x0,0
    d820:	00000f13          	addi	x30,x0,0
    d824:	00200313          	addi	x6,x0,2
    d828:	ba1ff06f          	jal	x0,d3c8 <__muldf3+0xc4>
    d82c:	00040493          	addi	x9,x8,0
    d830:	000f0a13          	addi	x20,x30,0
    d834:	00030b93          	addi	x23,x6,0
    d838:	00098593          	addi	x11,x19,0
    d83c:	c51ff06f          	jal	x0,d48c <__muldf3+0x188>
    d840:	00100713          	addi	x14,x0,1
    d844:	10061063          	bne	x12,x0,d944 <__muldf3+0x640>
    d848:	41e88893          	addi	x17,x17,1054
    d84c:	011a1633          	sll	x12,x20,x17
    d850:	00c03633          	sltu	x12,x0,x12
    d854:	011498b3          	sll	x17,x9,x17
    d858:	00ea57b3          	srl	x15,x20,x14
    d85c:	01166633          	or	x12,x12,x17
    d860:	00f66633          	or	x12,x12,x15
    d864:	00767793          	andi	x15,x12,7
    d868:	00e4d5b3          	srl	x11,x9,x14
    d86c:	02078063          	beq	x15,x0,d88c <__muldf3+0x588>
    d870:	00f67793          	andi	x15,x12,15
    d874:	00400713          	addi	x14,x0,4
    d878:	00e78a63          	beq	x15,x14,d88c <__muldf3+0x588>
    d87c:	00460793          	addi	x15,x12,4
    d880:	00c7b633          	sltu	x12,x15,x12
    d884:	00c585b3          	add	x11,x11,x12
    d888:	00078613          	addi	x12,x15,0
    d88c:	00859513          	slli	x10,x11,0x8
    d890:	00100793          	addi	x15,x0,1
    d894:	00000693          	addi	x13,x0,0
    d898:	00000713          	addi	x14,x0,0
    d89c:	c0054ce3          	blt	x10,x0,d4b4 <__muldf3+0x1b0>
    d8a0:	10c0006f          	jal	x0,d9ac <__muldf3+0x6a8>
    d8a4:	00f00713          	addi	x14,x0,15
    d8a8:	12eb1063          	bne	x22,x14,d9c8 <__muldf3+0x6c4>
    d8ac:	00000813          	addi	x16,x0,0
    d8b0:	000806b7          	lui	x13,0x80
    d8b4:	00000713          	addi	x14,x0,0
    d8b8:	bfdff06f          	jal	x0,d4b4 <__muldf3+0x1b0>
    d8bc:	5c1030ef          	jal	x1,1167c <__clzsi2>
    d8c0:	01550693          	addi	x13,x10,21
    d8c4:	01c00793          	addi	x15,x0,28
    d8c8:	02050613          	addi	x12,x10,32
    d8cc:	ecd7d4e3          	bge	x15,x13,d794 <__muldf3+0x490>
    d8d0:	ff850513          	addi	x10,x10,-8
    d8d4:	00000a13          	addi	x20,x0,0
    d8d8:	00a414b3          	sll	x9,x8,x10
    d8dc:	ed5ff06f          	jal	x0,d7b0 <__muldf3+0x4ac>
    d8e0:	000a8513          	addi	x10,x21,0
    d8e4:	599030ef          	jal	x1,1167c <__clzsi2>
    d8e8:	01550713          	addi	x14,x10,21
    d8ec:	01c00793          	addi	x15,x0,28
    d8f0:	02050893          	addi	x17,x10,32
    d8f4:	b6e7d0e3          	bge	x15,x14,d454 <__muldf3+0x150>
    d8f8:	ff850513          	addi	x10,x10,-8
    d8fc:	00000f13          	addi	x30,x0,0
    d900:	00aa9433          	sll	x8,x21,x10
    d904:	b6dff06f          	jal	x0,d470 <__muldf3+0x16c>
    d908:	00000813          	addi	x16,x0,0
    d90c:	7ff00793          	addi	x15,x0,2047
    d910:	000806b7          	lui	x13,0x80
    d914:	ba1ff06f          	jal	x0,d4b4 <__muldf3+0x1b0>
    d918:	00050893          	addi	x17,x10,0
    d91c:	df5ff06f          	jal	x0,d710 <__muldf3+0x40c>
    d920:	7ff00793          	addi	x15,x0,2047
    d924:	00000693          	addi	x13,x0,0
    d928:	00000713          	addi	x14,x0,0
    d92c:	b89ff06f          	jal	x0,d4b4 <__muldf3+0x1b0>
    d930:	00000813          	addi	x16,x0,0
    d934:	7ff00793          	addi	x15,x0,2047
    d938:	000806b7          	lui	x13,0x80
    d93c:	00000713          	addi	x14,x0,0
    d940:	b75ff06f          	jal	x0,d4b4 <__muldf3+0x1b0>
    d944:	40c70733          	sub	x14,x14,x12
    d948:	03800793          	addi	x15,x0,56
    d94c:	b4e7cee3          	blt	x15,x14,d4a8 <__muldf3+0x1a4>
    d950:	01f00793          	addi	x15,x0,31
    d954:	eee7dae3          	bge	x15,x14,d848 <__muldf3+0x544>
    d958:	fe100793          	addi	x15,x0,-31
    d95c:	40c787b3          	sub	x15,x15,x12
    d960:	02000693          	addi	x13,x0,32
    d964:	00f4d7b3          	srl	x15,x9,x15
    d968:	00d70863          	beq	x14,x13,d978 <__muldf3+0x674>
    d96c:	43e88893          	addi	x17,x17,1086
    d970:	011498b3          	sll	x17,x9,x17
    d974:	011a6a33          	or	x20,x20,x17
    d978:	01403633          	sltu	x12,x0,x20
    d97c:	00f66633          	or	x12,x12,x15
    d980:	00767713          	andi	x14,x12,7
    d984:	00000693          	addi	x13,x0,0
    d988:	02070863          	beq	x14,x0,d9b8 <__muldf3+0x6b4>
    d98c:	00f67793          	andi	x15,x12,15
    d990:	00400713          	addi	x14,x0,4
    d994:	00000593          	addi	x11,x0,0
    d998:	00e78a63          	beq	x15,x14,d9ac <__muldf3+0x6a8>
    d99c:	00460793          	addi	x15,x12,4
    d9a0:	00c7b633          	sltu	x12,x15,x12
    d9a4:	00c035b3          	sltu	x11,x0,x12
    d9a8:	00078613          	addi	x12,x15,0
    d9ac:	00959693          	slli	x13,x11,0x9
    d9b0:	01d59713          	slli	x14,x11,0x1d
    d9b4:	00c6d693          	srli	x13,x13,0xc
    d9b8:	00365613          	srli	x12,x12,0x3
    d9bc:	00e66733          	or	x14,x12,x14
    d9c0:	00000793          	addi	x15,x0,0
    d9c4:	af1ff06f          	jal	x0,d4b4 <__muldf3+0x1b0>
    d9c8:	00040493          	addi	x9,x8,0
    d9cc:	000a8a13          	addi	x20,x21,0
    d9d0:	00300b93          	addi	x23,x0,3
    d9d4:	00098593          	addi	x11,x19,0
    d9d8:	ab5ff06f          	jal	x0,d48c <__muldf3+0x188>

0000d9dc <__subdf3>:
    d9dc:	001007b7          	lui	x15,0x100
    d9e0:	fff78793          	addi	x15,x15,-1 # fffff <__heap_start+0xed21f>
    d9e4:	fe010113          	addi	x2,x2,-32
    d9e8:	00b7f8b3          	and	x17,x15,x11
    d9ec:	00d7f833          	and	x16,x15,x13
    d9f0:	0146d793          	srli	x15,x13,0x14
    d9f4:	00389893          	slli	x17,x17,0x3
    d9f8:	00812c23          	sw	x8,24(x2)
    d9fc:	01312623          	sw	x19,12(x2)
    da00:	01f5d413          	srli	x8,x11,0x1f
    da04:	0145d993          	srli	x19,x11,0x14
    da08:	01d55713          	srli	x14,x10,0x1d
    da0c:	00381813          	slli	x16,x16,0x3
    da10:	01d65593          	srli	x11,x12,0x1d
    da14:	00112e23          	sw	x1,28(x2)
    da18:	00912a23          	sw	x9,20(x2)
    da1c:	01212823          	sw	x18,16(x2)
    da20:	7ff7ff13          	andi	x30,x15,2047
    da24:	7ff00313          	addi	x6,x0,2047
    da28:	01176733          	or	x14,x14,x17
    da2c:	7ff9f993          	andi	x19,x19,2047
    da30:	00040e13          	addi	x28,x8,0
    da34:	00351893          	slli	x17,x10,0x3
    da38:	01f6d693          	srli	x13,x13,0x1f
    da3c:	0105e5b3          	or	x11,x11,x16
    da40:	00361e93          	slli	x29,x12,0x3
    da44:	206f0c63          	beq	x30,x6,dc5c <__subdf3+0x280>
    da48:	0016c693          	xori	x13,x13,1
    da4c:	41e987b3          	sub	x15,x19,x30
    da50:	16d40263          	beq	x8,x13,dbb4 <__subdf3+0x1d8>
    da54:	00f05ae3          	bge	x0,x15,e268 <__subdf3+0x88c>
    da58:	240f0a63          	beq	x30,x0,dcac <__subdf3+0x2d0>
    da5c:	3c698463          	beq	x19,x6,de24 <__subdf3+0x448>
    da60:	03800693          	addi	x13,x0,56
    da64:	00100513          	addi	x10,x0,1
    da68:	02f6ce63          	blt	x13,x15,daa4 <__subdf3+0xc8>
    da6c:	008006b7          	lui	x13,0x800
    da70:	00d5e5b3          	or	x11,x11,x13
    da74:	01f00693          	addi	x13,x0,31
    da78:	4ef6c463          	blt	x13,x15,df60 <__subdf3+0x584>
    da7c:	02000693          	addi	x13,x0,32
    da80:	40f686b3          	sub	x13,x13,x15
    da84:	00d59533          	sll	x10,x11,x13
    da88:	00fed633          	srl	x12,x29,x15
    da8c:	00de96b3          	sll	x13,x29,x13
    da90:	00c56533          	or	x10,x10,x12
    da94:	00d036b3          	sltu	x13,x0,x13
    da98:	00f5d7b3          	srl	x15,x11,x15
    da9c:	00d56533          	or	x10,x10,x13
    daa0:	40f70733          	sub	x14,x14,x15
    daa4:	40a88533          	sub	x10,x17,x10
    daa8:	00a8b633          	sltu	x12,x17,x10
    daac:	00050493          	addi	x9,x10,0
    dab0:	40c70933          	sub	x18,x14,x12
    dab4:	00891793          	slli	x15,x18,0x8
    dab8:	3407d863          	bge	x15,x0,de08 <__subdf3+0x42c>
    dabc:	008007b7          	lui	x15,0x800
    dac0:	fff78793          	addi	x15,x15,-1 # 7fffff <__heap_end+0x3fffff>
    dac4:	00f97933          	and	x18,x18,x15
    dac8:	2e090663          	beq	x18,x0,ddb4 <__subdf3+0x3d8>
    dacc:	00090513          	addi	x10,x18,0
    dad0:	3ad030ef          	jal	x1,1167c <__clzsi2>
    dad4:	ff850793          	addi	x15,x10,-8
    dad8:	02000693          	addi	x13,x0,32
    dadc:	40f68733          	sub	x14,x13,x15
    dae0:	00e4d733          	srl	x14,x9,x14
    dae4:	00f91933          	sll	x18,x18,x15
    dae8:	01276733          	or	x14,x14,x18
    daec:	00f494b3          	sll	x9,x9,x15
    daf0:	3f37c463          	blt	x15,x19,ded8 <__subdf3+0x4fc>
    daf4:	413787b3          	sub	x15,x15,x19
    daf8:	00178793          	addi	x15,x15,1
    dafc:	40f686b3          	sub	x13,x13,x15
    db00:	00d49633          	sll	x12,x9,x13
    db04:	00f4d933          	srl	x18,x9,x15
    db08:	00c03633          	sltu	x12,x0,x12
    db0c:	00c96633          	or	x12,x18,x12
    db10:	00d716b3          	sll	x13,x14,x13
    db14:	00c6e4b3          	or	x9,x13,x12
    db18:	00f75933          	srl	x18,x14,x15
    db1c:	00000993          	addi	x19,x0,0
    db20:	0074f793          	andi	x15,x9,7
    db24:	02078063          	beq	x15,x0,db44 <__subdf3+0x168>
    db28:	00f4f793          	andi	x15,x9,15
    db2c:	00400713          	addi	x14,x0,4
    db30:	00e78a63          	beq	x15,x14,db44 <__subdf3+0x168>
    db34:	00448793          	addi	x15,x9,4
    db38:	0097b533          	sltu	x10,x15,x9
    db3c:	00a90933          	add	x18,x18,x10
    db40:	00078493          	addi	x9,x15,0
    db44:	00891793          	slli	x15,x18,0x8
    db48:	6c07d063          	bge	x15,x0,e208 <__subdf3+0x82c>
    db4c:	00198793          	addi	x15,x19,1
    db50:	7ff00713          	addi	x14,x0,2047
    db54:	24e78663          	beq	x15,x14,dda0 <__subdf3+0x3c4>
    db58:	ff800737          	lui	x14,0xff800
    db5c:	fff70713          	addi	x14,x14,-1 # ff7fffff <__heap_end+0xff3fffff>
    db60:	00e97733          	and	x14,x18,x14
    db64:	7ff7f793          	andi	x15,x15,2047
    db68:	01d71813          	slli	x16,x14,0x1d
    db6c:	0034d513          	srli	x10,x9,0x3
    db70:	00971713          	slli	x14,x14,0x9
    db74:	00a86833          	or	x16,x16,x10
    db78:	00c75713          	srli	x14,x14,0xc
    db7c:	00147e13          	andi	x28,x8,1
    db80:	01c12083          	lw	x1,28(x2)
    db84:	01812403          	lw	x8,24(x2)
    db88:	01479793          	slli	x15,x15,0x14
    db8c:	00e7e7b3          	or	x15,x15,x14
    db90:	01fe1713          	slli	x14,x28,0x1f
    db94:	00e7e7b3          	or	x15,x15,x14
    db98:	01412483          	lw	x9,20(x2)
    db9c:	01012903          	lw	x18,16(x2)
    dba0:	00c12983          	lw	x19,12(x2)
    dba4:	00080513          	addi	x10,x16,0
    dba8:	00078593          	addi	x11,x15,0
    dbac:	02010113          	addi	x2,x2,32
    dbb0:	00008067          	jalr	x0,0(x1)
    dbb4:	70f05263          	bge	x0,x15,e2b8 <__subdf3+0x8dc>
    dbb8:	1c0f1663          	bne	x30,x0,dd84 <__subdf3+0x3a8>
    dbbc:	01d5e6b3          	or	x13,x11,x29
    dbc0:	26068e63          	beq	x13,x0,de3c <__subdf3+0x460>
    dbc4:	fff78693          	addi	x13,x15,-1
    dbc8:	46068863          	beq	x13,x0,e038 <__subdf3+0x65c>
    dbcc:	24678c63          	beq	x15,x6,de24 <__subdf3+0x448>
    dbd0:	03800793          	addi	x15,x0,56
    dbd4:	00100913          	addi	x18,x0,1
    dbd8:	02d7cc63          	blt	x15,x13,dc10 <__subdf3+0x234>
    dbdc:	00068793          	addi	x15,x13,0 # 800000 <__heap_end+0x400000>
    dbe0:	01f00693          	addi	x13,x0,31
    dbe4:	48f6ca63          	blt	x13,x15,e078 <__subdf3+0x69c>
    dbe8:	02000693          	addi	x13,x0,32
    dbec:	40f686b3          	sub	x13,x13,x15
    dbf0:	00d59933          	sll	x18,x11,x13
    dbf4:	00fed633          	srl	x12,x29,x15
    dbf8:	00de96b3          	sll	x13,x29,x13
    dbfc:	00c96933          	or	x18,x18,x12
    dc00:	00d036b3          	sltu	x13,x0,x13
    dc04:	00f5d7b3          	srl	x15,x11,x15
    dc08:	00d96933          	or	x18,x18,x13
    dc0c:	00f70733          	add	x14,x14,x15
    dc10:	01190633          	add	x12,x18,x17
    dc14:	01263933          	sltu	x18,x12,x18
    dc18:	00060493          	addi	x9,x12,0
    dc1c:	00e90933          	add	x18,x18,x14
    dc20:	00891793          	slli	x15,x18,0x8
    dc24:	1e07d263          	bge	x15,x0,de08 <__subdf3+0x42c>
    dc28:	00198993          	addi	x19,x19,1
    dc2c:	7ff00793          	addi	x15,x0,2047
    dc30:	16f98863          	beq	x19,x15,dda0 <__subdf3+0x3c4>
    dc34:	ff8007b7          	lui	x15,0xff800
    dc38:	fff78793          	addi	x15,x15,-1 # ff7fffff <__heap_end+0xff3fffff>
    dc3c:	0014f513          	andi	x10,x9,1
    dc40:	00f977b3          	and	x15,x18,x15
    dc44:	0014d713          	srli	x14,x9,0x1
    dc48:	00a76733          	or	x14,x14,x10
    dc4c:	01f79513          	slli	x10,x15,0x1f
    dc50:	00e564b3          	or	x9,x10,x14
    dc54:	0017d913          	srli	x18,x15,0x1
    dc58:	ec9ff06f          	jal	x0,db20 <__subdf3+0x144>
    dc5c:	01d5e833          	or	x16,x11,x29
    dc60:	80198313          	addi	x6,x19,-2047
    dc64:	06080863          	beq	x16,x0,dcd4 <__subdf3+0x2f8>
    dc68:	06d40a63          	beq	x8,x13,dcdc <__subdf3+0x300>
    dc6c:	0e030463          	beq	x6,x0,dd54 <__subdf3+0x378>
    dc70:	26098e63          	beq	x19,x0,deec <__subdf3+0x510>
    dc74:	00361513          	slli	x10,x12,0x3
    dc78:	00355513          	srli	x10,x10,0x3
    dc7c:	00068413          	addi	x8,x13,0
    dc80:	00058713          	addi	x14,x11,0
    dc84:	01d71813          	slli	x16,x14,0x1d
    dc88:	00a86833          	or	x16,x16,x10
    dc8c:	00375713          	srli	x14,x14,0x3
    dc90:	01076733          	or	x14,x14,x16
    dc94:	10070663          	beq	x14,x0,dda0 <__subdf3+0x3c4>
    dc98:	00000e13          	addi	x28,x0,0
    dc9c:	7ff00793          	addi	x15,x0,2047
    dca0:	00080737          	lui	x14,0x80
    dca4:	00000813          	addi	x16,x0,0
    dca8:	ed9ff06f          	jal	x0,db80 <__subdf3+0x1a4>
    dcac:	01d5e6b3          	or	x13,x11,x29
    dcb0:	18068663          	beq	x13,x0,de3c <__subdf3+0x460>
    dcb4:	fff78693          	addi	x13,x15,-1
    dcb8:	3a068263          	beq	x13,x0,e05c <__subdf3+0x680>
    dcbc:	16678463          	beq	x15,x6,de24 <__subdf3+0x448>
    dcc0:	03800793          	addi	x15,x0,56
    dcc4:	00100513          	addi	x10,x0,1
    dcc8:	dcd7cee3          	blt	x15,x13,daa4 <__subdf3+0xc8>
    dccc:	00068793          	addi	x15,x13,0
    dcd0:	da5ff06f          	jal	x0,da74 <__subdf3+0x98>
    dcd4:	0016c693          	xori	x13,x13,1
    dcd8:	f8d41ae3          	bne	x8,x13,dc6c <__subdf3+0x290>
    dcdc:	18030863          	beq	x6,x0,de6c <__subdf3+0x490>
    dce0:	2c099063          	bne	x19,x0,dfa0 <__subdf3+0x5c4>
    dce4:	7ff00793          	addi	x15,x0,2047
    dce8:	011766b3          	or	x13,x14,x17
    dcec:	48068863          	beq	x13,x0,e17c <__subdf3+0x7a0>
    dcf0:	fff78693          	addi	x13,x15,-1
    dcf4:	34068263          	beq	x13,x0,e038 <__subdf3+0x65c>
    dcf8:	7ff00513          	addi	x10,x0,2047
    dcfc:	2aa78263          	beq	x15,x10,dfa0 <__subdf3+0x5c4>
    dd00:	03800793          	addi	x15,x0,56
    dd04:	00100913          	addi	x18,x0,1
    dd08:	02d7ca63          	blt	x15,x13,dd3c <__subdf3+0x360>
    dd0c:	01f00793          	addi	x15,x0,31
    dd10:	4cd7c663          	blt	x15,x13,e1dc <__subdf3+0x800>
    dd14:	02000793          	addi	x15,x0,32
    dd18:	40d787b3          	sub	x15,x15,x13
    dd1c:	00f71933          	sll	x18,x14,x15
    dd20:	00d8d633          	srl	x12,x17,x13
    dd24:	00f897b3          	sll	x15,x17,x15
    dd28:	00c96933          	or	x18,x18,x12
    dd2c:	00f037b3          	sltu	x15,x0,x15
    dd30:	00d756b3          	srl	x13,x14,x13
    dd34:	00f96933          	or	x18,x18,x15
    dd38:	00d585b3          	add	x11,x11,x13
    dd3c:	01d90733          	add	x14,x18,x29
    dd40:	01273933          	sltu	x18,x14,x18
    dd44:	00070493          	addi	x9,x14,0 # 80000 <__heap_start+0x6d220>
    dd48:	00b90933          	add	x18,x18,x11
    dd4c:	000f0993          	addi	x19,x30,0
    dd50:	ed1ff06f          	jal	x0,dc20 <__subdf3+0x244>
    dd54:	00198793          	addi	x15,x19,1
    dd58:	7fe7f793          	andi	x15,x15,2046
    dd5c:	14079463          	bne	x15,x0,dea4 <__subdf3+0x4c8>
    dd60:	01d5e833          	or	x16,x11,x29
    dd64:	011767b3          	or	x15,x14,x17
    dd68:	2a099463          	bne	x19,x0,e010 <__subdf3+0x634>
    dd6c:	38078e63          	beq	x15,x0,e108 <__subdf3+0x72c>
    dd70:	3c081063          	bne	x16,x0,e130 <__subdf3+0x754>
    dd74:	00351513          	slli	x10,x10,0x3
    dd78:	00355913          	srli	x18,x10,0x3
    dd7c:	00000793          	addi	x15,x0,0
    dd80:	1140006f          	jal	x0,de94 <__subdf3+0x4b8>
    dd84:	0a698063          	beq	x19,x6,de24 <__subdf3+0x448>
    dd88:	03800693          	addi	x13,x0,56
    dd8c:	00100913          	addi	x18,x0,1
    dd90:	e8f6c0e3          	blt	x13,x15,dc10 <__subdf3+0x234>
    dd94:	008006b7          	lui	x13,0x800
    dd98:	00d5e5b3          	or	x11,x11,x13
    dd9c:	e45ff06f          	jal	x0,dbe0 <__subdf3+0x204>
    dda0:	00147e13          	andi	x28,x8,1
    dda4:	7ff00793          	addi	x15,x0,2047
    dda8:	00000713          	addi	x14,x0,0
    ddac:	00000813          	addi	x16,x0,0
    ddb0:	dd1ff06f          	jal	x0,db80 <__subdf3+0x1a4>
    ddb4:	00048513          	addi	x10,x9,0
    ddb8:	0c5030ef          	jal	x1,1167c <__clzsi2>
    ddbc:	01850793          	addi	x15,x10,24
    ddc0:	01f00693          	addi	x13,x0,31
    ddc4:	d0f6dae3          	bge	x13,x15,dad8 <__subdf3+0xfc>
    ddc8:	ff850713          	addi	x14,x10,-8
    ddcc:	00e49733          	sll	x14,x9,x14
    ddd0:	1b37ce63          	blt	x15,x19,df8c <__subdf3+0x5b0>
    ddd4:	413789b3          	sub	x19,x15,x19
    ddd8:	00198793          	addi	x15,x19,1
    dddc:	42f6de63          	bge	x13,x15,e218 <__subdf3+0x83c>
    dde0:	fe198993          	addi	x19,x19,-31
    dde4:	02000693          	addi	x13,x0,32
    dde8:	013754b3          	srl	x9,x14,x19
    ddec:	00d78c63          	beq	x15,x13,de04 <__subdf3+0x428>
    ddf0:	04000693          	addi	x13,x0,64
    ddf4:	40f687b3          	sub	x15,x13,x15
    ddf8:	00f71733          	sll	x14,x14,x15
    ddfc:	00e03733          	sltu	x14,x0,x14
    de00:	00e4e4b3          	or	x9,x9,x14
    de04:	00000993          	addi	x19,x0,0
    de08:	0074f793          	andi	x15,x9,7
    de0c:	d0079ee3          	bne	x15,x0,db28 <__subdf3+0x14c>
    de10:	00098793          	addi	x15,x19,0
    de14:	0034d513          	srli	x10,x9,0x3
    de18:	00090713          	addi	x14,x18,0
    de1c:	0280006f          	jal	x0,de44 <__subdf3+0x468>
    de20:	e6081ce3          	bne	x16,x0,dc98 <__subdf3+0x2bc>
    de24:	00351513          	slli	x10,x10,0x3
    de28:	01d71813          	slli	x16,x14,0x1d
    de2c:	00355513          	srli	x10,x10,0x3
    de30:	00a86833          	or	x16,x16,x10
    de34:	00375713          	srli	x14,x14,0x3
    de38:	e59ff06f          	jal	x0,dc90 <__subdf3+0x2b4>
    de3c:	00351513          	slli	x10,x10,0x3
    de40:	00355513          	srli	x10,x10,0x3
    de44:	01d71813          	slli	x16,x14,0x1d
    de48:	7ff00693          	addi	x13,x0,2047
    de4c:	00a86833          	or	x16,x16,x10
    de50:	00375713          	srli	x14,x14,0x3
    de54:	e2d78ee3          	beq	x15,x13,dc90 <__subdf3+0x2b4>
    de58:	00c71713          	slli	x14,x14,0xc
    de5c:	00c75713          	srli	x14,x14,0xc
    de60:	7ff7f793          	andi	x15,x15,2047
    de64:	00147e13          	andi	x28,x8,1
    de68:	d19ff06f          	jal	x0,db80 <__subdf3+0x1a4>
    de6c:	00198693          	addi	x13,x19,1
    de70:	7fe6f793          	andi	x15,x13,2046
    de74:	12079e63          	bne	x15,x0,dfb0 <__subdf3+0x5d4>
    de78:	011767b3          	or	x15,x14,x17
    de7c:	24099a63          	bne	x19,x0,e0d0 <__subdf3+0x6f4>
    de80:	30078663          	beq	x15,x0,e18c <__subdf3+0x7b0>
    de84:	01d5e7b3          	or	x15,x11,x29
    de88:	30079a63          	bne	x15,x0,e19c <__subdf3+0x7c0>
    de8c:	00351513          	slli	x10,x10,0x3
    de90:	00355913          	srli	x18,x10,0x3
    de94:	01d71813          	slli	x16,x14,0x1d
    de98:	01286833          	or	x16,x16,x18
    de9c:	00375713          	srli	x14,x14,0x3
    dea0:	fb9ff06f          	jal	x0,de58 <__subdf3+0x47c>
    dea4:	41d88833          	sub	x16,x17,x29
    dea8:	0108b7b3          	sltu	x15,x17,x16
    deac:	40b70933          	sub	x18,x14,x11
    deb0:	40f90933          	sub	x18,x18,x15
    deb4:	00891793          	slli	x15,x18,0x8
    deb8:	00080493          	addi	x9,x16,0
    debc:	1207c263          	blt	x15,x0,dfe0 <__subdf3+0x604>
    dec0:	01286833          	or	x16,x16,x18
    dec4:	c00812e3          	bne	x16,x0,dac8 <__subdf3+0xec>
    dec8:	00000e13          	addi	x28,x0,0
    decc:	00000793          	addi	x15,x0,0
    ded0:	00000713          	addi	x14,x0,0
    ded4:	cadff06f          	jal	x0,db80 <__subdf3+0x1a4>
    ded8:	ff800937          	lui	x18,0xff800
    dedc:	fff90913          	addi	x18,x18,-1 # ff7fffff <__heap_end+0xff3fffff>
    dee0:	40f989b3          	sub	x19,x19,x15
    dee4:	01277933          	and	x18,x14,x18
    dee8:	c39ff06f          	jal	x0,db20 <__subdf3+0x144>
    deec:	7ff00793          	addi	x15,x0,2047
    def0:	01176533          	or	x10,x14,x17
    def4:	10050463          	beq	x10,x0,dffc <__subdf3+0x620>
    def8:	fff78813          	addi	x16,x15,-1
    defc:	1e080263          	beq	x16,x0,e0e0 <__subdf3+0x704>
    df00:	7ff00513          	addi	x10,x0,2047
    df04:	d6a788e3          	beq	x15,x10,dc74 <__subdf3+0x298>
    df08:	03800793          	addi	x15,x0,56
    df0c:	00068413          	addi	x8,x13,0 # 800000 <__heap_end+0x400000>
    df10:	00100513          	addi	x10,x0,1
    df14:	0307ca63          	blt	x15,x16,df48 <__subdf3+0x56c>
    df18:	01f00793          	addi	x15,x0,31
    df1c:	1907c463          	blt	x15,x16,e0a4 <__subdf3+0x6c8>
    df20:	02000793          	addi	x15,x0,32
    df24:	410787b3          	sub	x15,x15,x16
    df28:	00f71533          	sll	x10,x14,x15
    df2c:	0108d6b3          	srl	x13,x17,x16
    df30:	00f897b3          	sll	x15,x17,x15
    df34:	00d56533          	or	x10,x10,x13
    df38:	00f037b3          	sltu	x15,x0,x15
    df3c:	01075833          	srl	x16,x14,x16
    df40:	00f56533          	or	x10,x10,x15
    df44:	410585b3          	sub	x11,x11,x16
    df48:	40ae8533          	sub	x10,x29,x10
    df4c:	00aeb733          	sltu	x14,x29,x10
    df50:	00050493          	addi	x9,x10,0
    df54:	40e58933          	sub	x18,x11,x14
    df58:	000f0993          	addi	x19,x30,0
    df5c:	b59ff06f          	jal	x0,dab4 <__subdf3+0xd8>
    df60:	fe078693          	addi	x13,x15,-32
    df64:	02000613          	addi	x12,x0,32
    df68:	00d5d6b3          	srl	x13,x11,x13
    df6c:	00c78a63          	beq	x15,x12,df80 <__subdf3+0x5a4>
    df70:	04000613          	addi	x12,x0,64
    df74:	40f607b3          	sub	x15,x12,x15
    df78:	00f597b3          	sll	x15,x11,x15
    df7c:	00feeeb3          	or	x29,x29,x15
    df80:	01d03533          	sltu	x10,x0,x29
    df84:	00d56533          	or	x10,x10,x13
    df88:	b1dff06f          	jal	x0,daa4 <__subdf3+0xc8>
    df8c:	ff8006b7          	lui	x13,0xff800
    df90:	fff68693          	addi	x13,x13,-1 # ff7fffff <__heap_end+0xff3fffff>
    df94:	40f987b3          	sub	x15,x19,x15
    df98:	00d77733          	and	x14,x14,x13
    df9c:	ef9ff06f          	jal	x0,de94 <__subdf3+0x4b8>
    dfa0:	00361513          	slli	x10,x12,0x3
    dfa4:	00355513          	srli	x10,x10,0x3
    dfa8:	00058713          	addi	x14,x11,0
    dfac:	cd9ff06f          	jal	x0,dc84 <__subdf3+0x2a8>
    dfb0:	7ff00793          	addi	x15,x0,2047
    dfb4:	def686e3          	beq	x13,x15,dda0 <__subdf3+0x3c4>
    dfb8:	01d88eb3          	add	x29,x17,x29
    dfbc:	011eb633          	sltu	x12,x29,x17
    dfc0:	00b707b3          	add	x15,x14,x11
    dfc4:	00c787b3          	add	x15,x15,x12
    dfc8:	01f79513          	slli	x10,x15,0x1f
    dfcc:	001ede93          	srli	x29,x29,0x1
    dfd0:	01d564b3          	or	x9,x10,x29
    dfd4:	0017d913          	srli	x18,x15,0x1
    dfd8:	00068993          	addi	x19,x13,0
    dfdc:	b45ff06f          	jal	x0,db20 <__subdf3+0x144>
    dfe0:	411e8633          	sub	x12,x29,x17
    dfe4:	40e587b3          	sub	x15,x11,x14
    dfe8:	00ceb733          	sltu	x14,x29,x12
    dfec:	00060493          	addi	x9,x12,0
    dff0:	40e78933          	sub	x18,x15,x14
    dff4:	00068413          	addi	x8,x13,0
    dff8:	ad1ff06f          	jal	x0,dac8 <__subdf3+0xec>
    dffc:	00361613          	slli	x12,x12,0x3
    e000:	00365513          	srli	x10,x12,0x3
    e004:	00068413          	addi	x8,x13,0
    e008:	00058713          	addi	x14,x11,0
    e00c:	e39ff06f          	jal	x0,de44 <__subdf3+0x468>
    e010:	e00798e3          	bne	x15,x0,de20 <__subdf3+0x444>
    e014:	22080663          	beq	x16,x0,e240 <__subdf3+0x864>
    e018:	0035d713          	srli	x14,x11,0x3
    e01c:	00361613          	slli	x12,x12,0x3
    e020:	01d59593          	slli	x11,x11,0x1d
    e024:	00b76733          	or	x14,x14,x11
    e028:	00365613          	srli	x12,x12,0x3
    e02c:	00c76733          	or	x14,x14,x12
    e030:	00068413          	addi	x8,x13,0
    e034:	c61ff06f          	jal	x0,dc94 <__subdf3+0x2b8>
    e038:	01d88eb3          	add	x29,x17,x29
    e03c:	00b705b3          	add	x11,x14,x11
    e040:	011eb633          	sltu	x12,x29,x17
    e044:	00c58933          	add	x18,x11,x12
    e048:	00891793          	slli	x15,x18,0x8
    e04c:	000e8493          	addi	x9,x29,0
    e050:	0a07d863          	bge	x15,x0,e100 <__subdf3+0x724>
    e054:	00200993          	addi	x19,x0,2
    e058:	bddff06f          	jal	x0,dc34 <__subdf3+0x258>
    e05c:	41d88eb3          	sub	x29,x17,x29
    e060:	40b705b3          	sub	x11,x14,x11
    e064:	01d8b633          	sltu	x12,x17,x29
    e068:	000e8493          	addi	x9,x29,0
    e06c:	40c58933          	sub	x18,x11,x12
    e070:	00100993          	addi	x19,x0,1
    e074:	a41ff06f          	jal	x0,dab4 <__subdf3+0xd8>
    e078:	fe078693          	addi	x13,x15,-32
    e07c:	02000613          	addi	x12,x0,32
    e080:	00d5d6b3          	srl	x13,x11,x13
    e084:	00c78a63          	beq	x15,x12,e098 <__subdf3+0x6bc>
    e088:	04000613          	addi	x12,x0,64
    e08c:	40f607b3          	sub	x15,x12,x15
    e090:	00f597b3          	sll	x15,x11,x15
    e094:	00feeeb3          	or	x29,x29,x15
    e098:	01d03933          	sltu	x18,x0,x29
    e09c:	00d96933          	or	x18,x18,x13
    e0a0:	b71ff06f          	jal	x0,dc10 <__subdf3+0x234>
    e0a4:	fe080793          	addi	x15,x16,-32
    e0a8:	02000693          	addi	x13,x0,32
    e0ac:	00f757b3          	srl	x15,x14,x15
    e0b0:	00d80a63          	beq	x16,x13,e0c4 <__subdf3+0x6e8>
    e0b4:	04000693          	addi	x13,x0,64
    e0b8:	410686b3          	sub	x13,x13,x16
    e0bc:	00d71733          	sll	x14,x14,x13
    e0c0:	00e8e8b3          	or	x17,x17,x14
    e0c4:	01103533          	sltu	x10,x0,x17
    e0c8:	00f56533          	or	x10,x10,x15
    e0cc:	e7dff06f          	jal	x0,df48 <__subdf3+0x56c>
    e0d0:	ec0788e3          	beq	x15,x0,dfa0 <__subdf3+0x5c4>
    e0d4:	01d5eeb3          	or	x29,x11,x29
    e0d8:	bc0e90e3          	bne	x29,x0,dc98 <__subdf3+0x2bc>
    e0dc:	d49ff06f          	jal	x0,de24 <__subdf3+0x448>
    e0e0:	411e8633          	sub	x12,x29,x17
    e0e4:	40e585b3          	sub	x11,x11,x14
    e0e8:	00ceb733          	sltu	x14,x29,x12
    e0ec:	00060493          	addi	x9,x12,0
    e0f0:	40e58933          	sub	x18,x11,x14
    e0f4:	00068413          	addi	x8,x13,0
    e0f8:	00100993          	addi	x19,x0,1
    e0fc:	9b9ff06f          	jal	x0,dab4 <__subdf3+0xd8>
    e100:	00100793          	addi	x15,x0,1
    e104:	d11ff06f          	jal	x0,de14 <__subdf3+0x438>
    e108:	dc0800e3          	beq	x16,x0,dec8 <__subdf3+0x4ec>
    e10c:	00361613          	slli	x12,x12,0x3
    e110:	00365793          	srli	x15,x12,0x3
    e114:	01d59813          	slli	x16,x11,0x1d
    e118:	00959713          	slli	x14,x11,0x9
    e11c:	00f86833          	or	x16,x16,x15
    e120:	00c75713          	srli	x14,x14,0xc
    e124:	00068e13          	addi	x28,x13,0
    e128:	00000793          	addi	x15,x0,0
    e12c:	a55ff06f          	jal	x0,db80 <__subdf3+0x1a4>
    e130:	41d88933          	sub	x18,x17,x29
    e134:	0128b7b3          	sltu	x15,x17,x18
    e138:	40b70633          	sub	x12,x14,x11
    e13c:	40f60633          	sub	x12,x12,x15
    e140:	00861793          	slli	x15,x12,0x8
    e144:	0e07d263          	bge	x15,x0,e228 <__subdf3+0x84c>
    e148:	411e8633          	sub	x12,x29,x17
    e14c:	40e58733          	sub	x14,x11,x14
    e150:	00cebeb3          	sltu	x29,x29,x12
    e154:	41d70733          	sub	x14,x14,x29
    e158:	00871793          	slli	x15,x14,0x8
    e15c:	00060493          	addi	x9,x12,0
    e160:	1207de63          	bge	x15,x0,e29c <__subdf3+0x8c0>
    e164:	ff8007b7          	lui	x15,0xff800
    e168:	fff78793          	addi	x15,x15,-1 # ff7fffff <__heap_end+0xff3fffff>
    e16c:	00f77733          	and	x14,x14,x15
    e170:	00068413          	addi	x8,x13,0
    e174:	00100793          	addi	x15,x0,1
    e178:	9f1ff06f          	jal	x0,db68 <__subdf3+0x18c>
    e17c:	00361613          	slli	x12,x12,0x3
    e180:	00365513          	srli	x10,x12,0x3
    e184:	00058713          	addi	x14,x11,0
    e188:	cbdff06f          	jal	x0,de44 <__subdf3+0x468>
    e18c:	00361613          	slli	x12,x12,0x3
    e190:	00365913          	srli	x18,x12,0x3
    e194:	00058713          	addi	x14,x11,0
    e198:	cfdff06f          	jal	x0,de94 <__subdf3+0x4b8>
    e19c:	01d886b3          	add	x13,x17,x29
    e1a0:	00b707b3          	add	x15,x14,x11
    e1a4:	0116b633          	sltu	x12,x13,x17
    e1a8:	00c787b3          	add	x15,x15,x12
    e1ac:	00879713          	slli	x14,x15,0x8
    e1b0:	0036d813          	srli	x16,x13,0x3
    e1b4:	08075e63          	bge	x14,x0,e250 <__subdf3+0x874>
    e1b8:	ff800737          	lui	x14,0xff800
    e1bc:	fff70713          	addi	x14,x14,-1 # ff7fffff <__heap_end+0xff3fffff>
    e1c0:	00e7f7b3          	and	x15,x15,x14
    e1c4:	01d79713          	slli	x14,x15,0x1d
    e1c8:	00979793          	slli	x15,x15,0x9
    e1cc:	01076833          	or	x16,x14,x16
    e1d0:	00c7d713          	srli	x14,x15,0xc
    e1d4:	00100793          	addi	x15,x0,1
    e1d8:	9a9ff06f          	jal	x0,db80 <__subdf3+0x1a4>
    e1dc:	fe068793          	addi	x15,x13,-32
    e1e0:	02000613          	addi	x12,x0,32
    e1e4:	00f757b3          	srl	x15,x14,x15
    e1e8:	00c68a63          	beq	x13,x12,e1fc <__subdf3+0x820>
    e1ec:	04000613          	addi	x12,x0,64
    e1f0:	40d606b3          	sub	x13,x12,x13
    e1f4:	00d71733          	sll	x14,x14,x13
    e1f8:	00e8e8b3          	or	x17,x17,x14
    e1fc:	01103933          	sltu	x18,x0,x17
    e200:	00f96933          	or	x18,x18,x15
    e204:	b39ff06f          	jal	x0,dd3c <__subdf3+0x360>
    e208:	0034d513          	srli	x10,x9,0x3
    e20c:	00098793          	addi	x15,x19,0
    e210:	00090713          	addi	x14,x18,0
    e214:	c31ff06f          	jal	x0,de44 <__subdf3+0x468>
    e218:	02000693          	addi	x13,x0,32
    e21c:	40f686b3          	sub	x13,x13,x15
    e220:	00000613          	addi	x12,x0,0
    e224:	8e9ff06f          	jal	x0,db0c <__subdf3+0x130>
    e228:	00c96833          	or	x16,x18,x12
    e22c:	c8080ee3          	beq	x16,x0,dec8 <__subdf3+0x4ec>
    e230:	00395913          	srli	x18,x18,0x3
    e234:	00000793          	addi	x15,x0,0
    e238:	00060713          	addi	x14,x12,0
    e23c:	c59ff06f          	jal	x0,de94 <__subdf3+0x4b8>
    e240:	00000e13          	addi	x28,x0,0
    e244:	7ff00793          	addi	x15,x0,2047
    e248:	00080737          	lui	x14,0x80
    e24c:	935ff06f          	jal	x0,db80 <__subdf3+0x1a4>
    e250:	01d79713          	slli	x14,x15,0x1d
    e254:	00979793          	slli	x15,x15,0x9
    e258:	01076833          	or	x16,x14,x16
    e25c:	00c7d713          	srli	x14,x15,0xc
    e260:	00000793          	addi	x15,x0,0
    e264:	91dff06f          	jal	x0,db80 <__subdf3+0x1a4>
    e268:	ae0786e3          	beq	x15,x0,dd54 <__subdf3+0x378>
    e26c:	413f0833          	sub	x16,x30,x19
    e270:	00080793          	addi	x15,x16,0
    e274:	c6098ee3          	beq	x19,x0,def0 <__subdf3+0x514>
    e278:	03800793          	addi	x15,x0,56
    e27c:	0107ca63          	blt	x15,x16,e290 <__subdf3+0x8b4>
    e280:	008007b7          	lui	x15,0x800
    e284:	00f76733          	or	x14,x14,x15
    e288:	00068413          	addi	x8,x13,0
    e28c:	c8dff06f          	jal	x0,df18 <__subdf3+0x53c>
    e290:	00068413          	addi	x8,x13,0
    e294:	00100513          	addi	x10,x0,1
    e298:	cb1ff06f          	jal	x0,df48 <__subdf3+0x56c>
    e29c:	01d71813          	slli	x16,x14,0x1d
    e2a0:	00365613          	srli	x12,x12,0x3
    e2a4:	00c86833          	or	x16,x16,x12
    e2a8:	00375713          	srli	x14,x14,0x3
    e2ac:	00000793          	addi	x15,x0,0
    e2b0:	00068413          	addi	x8,x13,0
    e2b4:	ba5ff06f          	jal	x0,de58 <__subdf3+0x47c>
    e2b8:	ba078ae3          	beq	x15,x0,de6c <__subdf3+0x490>
    e2bc:	413f06b3          	sub	x13,x30,x19
    e2c0:	00099663          	bne	x19,x0,e2cc <__subdf3+0x8f0>
    e2c4:	00068793          	addi	x15,x13,0
    e2c8:	a21ff06f          	jal	x0,dce8 <__subdf3+0x30c>
    e2cc:	03800793          	addi	x15,x0,56
    e2d0:	00100913          	addi	x18,x0,1
    e2d4:	a6d7c4e3          	blt	x15,x13,dd3c <__subdf3+0x360>
    e2d8:	008007b7          	lui	x15,0x800
    e2dc:	00f76733          	or	x14,x14,x15
    e2e0:	a2dff06f          	jal	x0,dd0c <__subdf3+0x330>

0000e2e4 <__fixdfsi>:
    e2e4:	0145d793          	srli	x15,x11,0x14
    e2e8:	001006b7          	lui	x13,0x100
    e2ec:	fff68713          	addi	x14,x13,-1 # fffff <__heap_start+0xed21f>
    e2f0:	7ff7f793          	andi	x15,x15,2047
    e2f4:	3fe00613          	addi	x12,x0,1022
    e2f8:	00b77733          	and	x14,x14,x11
    e2fc:	01f5d593          	srli	x11,x11,0x1f
    e300:	00f65e63          	bge	x12,x15,e31c <__fixdfsi+0x38>
    e304:	41d00613          	addi	x12,x0,1053
    e308:	00f65e63          	bge	x12,x15,e324 <__fixdfsi+0x40>
    e30c:	80000537          	lui	x10,0x80000
    e310:	fff50513          	addi	x10,x10,-1 # 7fffffff <__heap_end+0x7fbfffff>
    e314:	00a58533          	add	x10,x11,x10
    e318:	00008067          	jalr	x0,0(x1)
    e31c:	00000513          	addi	x10,x0,0
    e320:	00008067          	jalr	x0,0(x1)
    e324:	43300613          	addi	x12,x0,1075
    e328:	40f60633          	sub	x12,x12,x15
    e32c:	01f00813          	addi	x16,x0,31
    e330:	00d76733          	or	x14,x14,x13
    e334:	02c85063          	bge	x16,x12,e354 <__fixdfsi+0x70>
    e338:	41300693          	addi	x13,x0,1043
    e33c:	40f687b3          	sub	x15,x13,x15
    e340:	00f75733          	srl	x14,x14,x15
    e344:	40e00533          	sub	x10,x0,x14
    e348:	fc059ce3          	bne	x11,x0,e320 <__fixdfsi+0x3c>
    e34c:	00070513          	addi	x10,x14,0 # 80000 <__heap_start+0x6d220>
    e350:	00008067          	jalr	x0,0(x1)
    e354:	bed78793          	addi	x15,x15,-1043 # 7ffbed <__heap_end+0x3ffbed>
    e358:	00f71733          	sll	x14,x14,x15
    e35c:	00c55533          	srl	x10,x10,x12
    e360:	00a76733          	or	x14,x14,x10
    e364:	fe1ff06f          	jal	x0,e344 <__fixdfsi+0x60>

0000e368 <__floatsidf>:
    e368:	ff010113          	addi	x2,x2,-16
    e36c:	00112623          	sw	x1,12(x2)
    e370:	00812423          	sw	x8,8(x2)
    e374:	00912223          	sw	x9,4(x2)
    e378:	04050a63          	beq	x10,x0,e3cc <__floatsidf+0x64>
    e37c:	41f55713          	srai	x14,x10,0x1f
    e380:	00a744b3          	xor	x9,x14,x10
    e384:	40e484b3          	sub	x9,x9,x14
    e388:	00050793          	addi	x15,x10,0
    e38c:	00048513          	addi	x10,x9,0
    e390:	01f7d413          	srli	x8,x15,0x1f
    e394:	2e8030ef          	jal	x1,1167c <__clzsi2>
    e398:	41e00793          	addi	x15,x0,1054
    e39c:	40a787b3          	sub	x15,x15,x10
    e3a0:	00a00713          	addi	x14,x0,10
    e3a4:	7ff7f793          	andi	x15,x15,2047
    e3a8:	06a74063          	blt	x14,x10,e408 <__floatsidf+0xa0>
    e3ac:	00b00713          	addi	x14,x0,11
    e3b0:	40a70733          	sub	x14,x14,x10
    e3b4:	00e4d733          	srl	x14,x9,x14
    e3b8:	01550513          	addi	x10,x10,21
    e3bc:	00c71713          	slli	x14,x14,0xc
    e3c0:	00a494b3          	sll	x9,x9,x10
    e3c4:	00c75713          	srli	x14,x14,0xc
    e3c8:	0140006f          	jal	x0,e3dc <__floatsidf+0x74>
    e3cc:	00000413          	addi	x8,x0,0
    e3d0:	00000793          	addi	x15,x0,0
    e3d4:	00000713          	addi	x14,x0,0
    e3d8:	00000493          	addi	x9,x0,0
    e3dc:	01479793          	slli	x15,x15,0x14
    e3e0:	01f41413          	slli	x8,x8,0x1f
    e3e4:	00e7e7b3          	or	x15,x15,x14
    e3e8:	00c12083          	lw	x1,12(x2)
    e3ec:	0087e7b3          	or	x15,x15,x8
    e3f0:	00812403          	lw	x8,8(x2)
    e3f4:	00048513          	addi	x10,x9,0
    e3f8:	00078593          	addi	x11,x15,0
    e3fc:	00412483          	lw	x9,4(x2)
    e400:	01010113          	addi	x2,x2,16
    e404:	00008067          	jalr	x0,0(x1)
    e408:	ff550513          	addi	x10,x10,-11
    e40c:	00a49733          	sll	x14,x9,x10
    e410:	00c71713          	slli	x14,x14,0xc
    e414:	00c75713          	srli	x14,x14,0xc
    e418:	00000493          	addi	x9,x0,0
    e41c:	fc1ff06f          	jal	x0,e3dc <__floatsidf+0x74>

0000e420 <__eqtf2>:
    e420:	00c52703          	lw	x14,12(x10)
    e424:	00c5a683          	lw	x13,12(x11)
    e428:	000087b7          	lui	x15,0x8
    e42c:	fff78793          	addi	x15,x15,-1 # 7fff <__gdtoa+0xa73>
    e430:	01075613          	srli	x12,x14,0x10
    e434:	0106d813          	srli	x16,x13,0x10
    e438:	01071293          	slli	x5,x14,0x10
    e43c:	01069393          	slli	x7,x13,0x10
    e440:	00f67633          	and	x12,x12,x15
    e444:	00052883          	lw	x17,0(x10)
    e448:	00452e03          	lw	x28,4(x10)
    e44c:	00852f03          	lw	x30,8(x10)
    e450:	0005a303          	lw	x6,0(x11)
    e454:	0045ae83          	lw	x29,4(x11)
    e458:	0085af83          	lw	x31,8(x11)
    e45c:	ff010113          	addi	x2,x2,-16
    e460:	0102d293          	srli	x5,x5,0x10
    e464:	01f75713          	srli	x14,x14,0x1f
    e468:	0103d393          	srli	x7,x7,0x10
    e46c:	00f875b3          	and	x11,x16,x15
    e470:	01f6d693          	srli	x13,x13,0x1f
    e474:	00100513          	addi	x10,x0,1
    e478:	00f60c63          	beq	x12,x15,e490 <__eqtf2+0x70>
    e47c:	00f58663          	beq	x11,x15,e488 <__eqtf2+0x68>
    e480:	00c59463          	bne	x11,x12,e488 <__eqtf2+0x68>
    e484:	02688e63          	beq	x17,x6,e4c0 <__eqtf2+0xa0>
    e488:	01010113          	addi	x2,x2,16
    e48c:	00008067          	jalr	x0,0(x1)
    e490:	fec59ce3          	bne	x11,x12,e488 <__eqtf2+0x68>
    e494:	01c8e7b3          	or	x15,x17,x28
    e498:	01e7e7b3          	or	x15,x15,x30
    e49c:	0057e7b3          	or	x15,x15,x5
    e4a0:	0067e7b3          	or	x15,x15,x6
    e4a4:	01d7e7b3          	or	x15,x15,x29
    e4a8:	01f7e7b3          	or	x15,x15,x31
    e4ac:	0077e7b3          	or	x15,x15,x7
    e4b0:	fc079ce3          	bne	x15,x0,e488 <__eqtf2+0x68>
    e4b4:	40d70733          	sub	x14,x14,x13
    e4b8:	00e03533          	sltu	x10,x0,x14
    e4bc:	fcdff06f          	jal	x0,e488 <__eqtf2+0x68>
    e4c0:	fdde14e3          	bne	x28,x29,e488 <__eqtf2+0x68>
    e4c4:	fdff12e3          	bne	x30,x31,e488 <__eqtf2+0x68>
    e4c8:	fc7290e3          	bne	x5,x7,e488 <__eqtf2+0x68>
    e4cc:	00d70e63          	beq	x14,x13,e4e8 <__eqtf2+0xc8>
    e4d0:	fa059ce3          	bne	x11,x0,e488 <__eqtf2+0x68>
    e4d4:	01c8e7b3          	or	x15,x17,x28
    e4d8:	01e7e7b3          	or	x15,x15,x30
    e4dc:	0057e7b3          	or	x15,x15,x5
    e4e0:	00f03533          	sltu	x10,x0,x15
    e4e4:	fa5ff06f          	jal	x0,e488 <__eqtf2+0x68>
    e4e8:	00000513          	addi	x10,x0,0
    e4ec:	f9dff06f          	jal	x0,e488 <__eqtf2+0x68>

0000e4f0 <__getf2>:
    e4f0:	00c52303          	lw	x6,12(x10)
    e4f4:	00c5a883          	lw	x17,12(x11)
    e4f8:	000087b7          	lui	x15,0x8
    e4fc:	fff78793          	addi	x15,x15,-1 # 7fff <__gdtoa+0xa73>
    e500:	01035613          	srli	x12,x6,0x10
    e504:	0108d713          	srli	x14,x17,0x10
    e508:	01031f13          	slli	x30,x6,0x10
    e50c:	0005a683          	lw	x13,0(x11)
    e510:	0045ae83          	lw	x29,4(x11)
    e514:	0085ae03          	lw	x28,8(x11)
    e518:	00f67633          	and	x12,x12,x15
    e51c:	01089593          	slli	x11,x17,0x10
    e520:	00052283          	lw	x5,0(x10)
    e524:	00452803          	lw	x16,4(x10)
    e528:	00852f83          	lw	x31,8(x10)
    e52c:	ff010113          	addi	x2,x2,-16
    e530:	010f5f13          	srli	x30,x30,0x10
    e534:	01f35313          	srli	x6,x6,0x1f
    e538:	0105d593          	srli	x11,x11,0x10
    e53c:	00f77533          	and	x10,x14,x15
    e540:	01f8d893          	srli	x17,x17,0x1f
    e544:	06f60a63          	beq	x12,x15,e5b8 <__getf2+0xc8>
    e548:	02f50e63          	beq	x10,x15,e584 <__getf2+0x94>
    e54c:	0c061c63          	bne	x12,x0,e624 <__getf2+0x134>
    e550:	005867b3          	or	x15,x16,x5
    e554:	01f7e7b3          	or	x15,x15,x31
    e558:	01e7e7b3          	or	x15,x15,x30
    e55c:	0e051263          	bne	x10,x0,e640 <__getf2+0x150>
    e560:	01d6e733          	or	x14,x13,x29
    e564:	01c76733          	or	x14,x14,x28
    e568:	00b76733          	or	x14,x14,x11
    e56c:	06071e63          	bne	x14,x0,e5e8 <__getf2+0xf8>
    e570:	00078663          	beq	x15,x0,e57c <__getf2+0x8c>
    e574:	02031e63          	bne	x6,x0,e5b0 <__getf2+0xc0>
    e578:	00100513          	addi	x10,x0,1
    e57c:	01010113          	addi	x2,x2,16
    e580:	00008067          	jalr	x0,0(x1)
    e584:	01d6e6b3          	or	x13,x13,x29
    e588:	01c6e6b3          	or	x13,x13,x28
    e58c:	00b6e6b3          	or	x13,x13,x11
    e590:	0a069463          	bne	x13,x0,e638 <__getf2+0x148>
    e594:	08061463          	bne	x12,x0,e61c <__getf2+0x12c>
    e598:	00586833          	or	x16,x16,x5
    e59c:	01f86833          	or	x16,x16,x31
    e5a0:	01e86833          	or	x16,x16,x30
    e5a4:	06081c63          	bne	x16,x0,e61c <__getf2+0x12c>
    e5a8:	00100513          	addi	x10,x0,1
    e5ac:	fc0898e3          	bne	x17,x0,e57c <__getf2+0x8c>
    e5b0:	fff00513          	addi	x10,x0,-1
    e5b4:	fc9ff06f          	jal	x0,e57c <__getf2+0x8c>
    e5b8:	00586833          	or	x16,x16,x5
    e5bc:	01f86833          	or	x16,x16,x31
    e5c0:	01e86833          	or	x16,x16,x30
    e5c4:	06081a63          	bne	x16,x0,e638 <__getf2+0x148>
    e5c8:	fac516e3          	bne	x10,x12,e574 <__getf2+0x84>
    e5cc:	01d6e6b3          	or	x13,x13,x29
    e5d0:	01c6e6b3          	or	x13,x13,x28
    e5d4:	00b6e6b3          	or	x13,x13,x11
    e5d8:	06069063          	bne	x13,x0,e638 <__getf2+0x148>
    e5dc:	f8689ce3          	bne	x17,x6,e574 <__getf2+0x84>
    e5e0:	00000513          	addi	x10,x0,0
    e5e4:	f99ff06f          	jal	x0,e57c <__getf2+0x8c>
    e5e8:	fc0780e3          	beq	x15,x0,e5a8 <__getf2+0xb8>
    e5ec:	f86894e3          	bne	x17,x6,e574 <__getf2+0x84>
    e5f0:	f9e5e2e3          	bltu	x11,x30,e574 <__getf2+0x84>
    e5f4:	00bf1e63          	bne	x30,x11,e610 <__getf2+0x120>
    e5f8:	f7fe6ee3          	bltu	x28,x31,e574 <__getf2+0x84>
    e5fc:	01cf9a63          	bne	x31,x28,e610 <__getf2+0x120>
    e600:	f70eeae3          	bltu	x29,x16,e574 <__getf2+0x84>
    e604:	01d81663          	bne	x16,x29,e610 <__getf2+0x120>
    e608:	f656e6e3          	bltu	x13,x5,e574 <__getf2+0x84>
    e60c:	fcd2fae3          	bgeu	x5,x13,e5e0 <__getf2+0xf0>
    e610:	00100513          	addi	x10,x0,1
    e614:	f60314e3          	bne	x6,x0,e57c <__getf2+0x8c>
    e618:	f99ff06f          	jal	x0,e5b0 <__getf2+0xc0>
    e61c:	f4689ce3          	bne	x17,x6,e574 <__getf2+0x84>
    e620:	ff1ff06f          	jal	x0,e610 <__getf2+0x120>
    e624:	f40508e3          	beq	x10,x0,e574 <__getf2+0x84>
    e628:	f46896e3          	bne	x17,x6,e574 <__getf2+0x84>
    e62c:	f4c544e3          	blt	x10,x12,e574 <__getf2+0x84>
    e630:	fca650e3          	bge	x12,x10,e5f0 <__getf2+0x100>
    e634:	fddff06f          	jal	x0,e610 <__getf2+0x120>
    e638:	ffe00513          	addi	x10,x0,-2
    e63c:	f41ff06f          	jal	x0,e57c <__getf2+0x8c>
    e640:	f60784e3          	beq	x15,x0,e5a8 <__getf2+0xb8>
    e644:	f26898e3          	bne	x17,x6,e574 <__getf2+0x84>
    e648:	faa654e3          	bge	x12,x10,e5f0 <__getf2+0x100>
    e64c:	fc5ff06f          	jal	x0,e610 <__getf2+0x120>

0000e650 <__letf2>:
    e650:	00c52303          	lw	x6,12(x10)
    e654:	00c5a883          	lw	x17,12(x11)
    e658:	000087b7          	lui	x15,0x8
    e65c:	fff78793          	addi	x15,x15,-1 # 7fff <__gdtoa+0xa73>
    e660:	01035693          	srli	x13,x6,0x10
    e664:	0108d713          	srli	x14,x17,0x10
    e668:	01031f13          	slli	x30,x6,0x10
    e66c:	0005a603          	lw	x12,0(x11)
    e670:	0045ae83          	lw	x29,4(x11)
    e674:	0085ae03          	lw	x28,8(x11)
    e678:	00f6f6b3          	and	x13,x13,x15
    e67c:	01089593          	slli	x11,x17,0x10
    e680:	00052283          	lw	x5,0(x10)
    e684:	00452803          	lw	x16,4(x10)
    e688:	00852f83          	lw	x31,8(x10)
    e68c:	ff010113          	addi	x2,x2,-16
    e690:	010f5f13          	srli	x30,x30,0x10
    e694:	01f35313          	srli	x6,x6,0x1f
    e698:	0105d593          	srli	x11,x11,0x10
    e69c:	00f77533          	and	x10,x14,x15
    e6a0:	01f8d893          	srli	x17,x17,0x1f
    e6a4:	08f68463          	beq	x13,x15,e72c <__letf2+0xdc>
    e6a8:	02f50a63          	beq	x10,x15,e6dc <__letf2+0x8c>
    e6ac:	0a069a63          	bne	x13,x0,e760 <__letf2+0x110>
    e6b0:	005867b3          	or	x15,x16,x5
    e6b4:	01f7e7b3          	or	x15,x15,x31
    e6b8:	01e7e7b3          	or	x15,x15,x30
    e6bc:	04051e63          	bne	x10,x0,e718 <__letf2+0xc8>
    e6c0:	01d66733          	or	x14,x12,x29
    e6c4:	01c76733          	or	x14,x14,x28
    e6c8:	00b76733          	or	x14,x14,x11
    e6cc:	04071663          	bne	x14,x0,e718 <__letf2+0xc8>
    e6d0:	02079c63          	bne	x15,x0,e708 <__letf2+0xb8>
    e6d4:	01010113          	addi	x2,x2,16
    e6d8:	00008067          	jalr	x0,0(x1)
    e6dc:	01d66633          	or	x12,x12,x29
    e6e0:	01c66633          	or	x12,x12,x28
    e6e4:	00b66633          	or	x12,x12,x11
    e6e8:	00200513          	addi	x10,x0,2
    e6ec:	fe0614e3          	bne	x12,x0,e6d4 <__letf2+0x84>
    e6f0:	00069a63          	bne	x13,x0,e704 <__letf2+0xb4>
    e6f4:	00586833          	or	x16,x16,x5
    e6f8:	01f86833          	or	x16,x16,x31
    e6fc:	01e86833          	or	x16,x16,x30
    e700:	00080e63          	beq	x16,x0,e71c <__letf2+0xcc>
    e704:	08688663          	beq	x17,x6,e790 <__letf2+0x140>
    e708:	00031e63          	bne	x6,x0,e724 <__letf2+0xd4>
    e70c:	00100513          	addi	x10,x0,1
    e710:	01010113          	addi	x2,x2,16
    e714:	00008067          	jalr	x0,0(x1)
    e718:	08079863          	bne	x15,x0,e7a8 <__letf2+0x158>
    e71c:	00100513          	addi	x10,x0,1
    e720:	fa089ae3          	bne	x17,x0,e6d4 <__letf2+0x84>
    e724:	fff00513          	addi	x10,x0,-1
    e728:	fadff06f          	jal	x0,e6d4 <__letf2+0x84>
    e72c:	00586833          	or	x16,x16,x5
    e730:	01f86833          	or	x16,x16,x31
    e734:	01e86833          	or	x16,x16,x30
    e738:	06081263          	bne	x16,x0,e79c <__letf2+0x14c>
    e73c:	fcd516e3          	bne	x10,x13,e708 <__letf2+0xb8>
    e740:	01d66633          	or	x12,x12,x29
    e744:	01c66633          	or	x12,x12,x28
    e748:	00b66633          	or	x12,x12,x11
    e74c:	00200513          	addi	x10,x0,2
    e750:	f80612e3          	bne	x12,x0,e6d4 <__letf2+0x84>
    e754:	fa689ae3          	bne	x17,x6,e708 <__letf2+0xb8>
    e758:	00000513          	addi	x10,x0,0
    e75c:	f79ff06f          	jal	x0,e6d4 <__letf2+0x84>
    e760:	fa0504e3          	beq	x10,x0,e708 <__letf2+0xb8>
    e764:	fa6892e3          	bne	x17,x6,e708 <__letf2+0xb8>
    e768:	fad540e3          	blt	x10,x13,e708 <__letf2+0xb8>
    e76c:	02a6c263          	blt	x13,x10,e790 <__letf2+0x140>
    e770:	f9e5ece3          	bltu	x11,x30,e708 <__letf2+0xb8>
    e774:	00bf1e63          	bne	x30,x11,e790 <__letf2+0x140>
    e778:	f9fe68e3          	bltu	x28,x31,e708 <__letf2+0xb8>
    e77c:	01cf9a63          	bne	x31,x28,e790 <__letf2+0x140>
    e780:	f90ee4e3          	bltu	x29,x16,e708 <__letf2+0xb8>
    e784:	01d81663          	bne	x16,x29,e790 <__letf2+0x140>
    e788:	f85660e3          	bltu	x12,x5,e708 <__letf2+0xb8>
    e78c:	fcc2f6e3          	bgeu	x5,x12,e758 <__letf2+0x108>
    e790:	00100513          	addi	x10,x0,1
    e794:	f40310e3          	bne	x6,x0,e6d4 <__letf2+0x84>
    e798:	f8dff06f          	jal	x0,e724 <__letf2+0xd4>
    e79c:	00200513          	addi	x10,x0,2
    e7a0:	01010113          	addi	x2,x2,16
    e7a4:	00008067          	jalr	x0,0(x1)
    e7a8:	f66890e3          	bne	x17,x6,e708 <__letf2+0xb8>
    e7ac:	fc1ff06f          	jal	x0,e76c <__letf2+0x11c>

0000e7b0 <__multf3>:
    e7b0:	00c5a803          	lw	x16,12(x11)
    e7b4:	f4010113          	addi	x2,x2,-192
    e7b8:	0045a703          	lw	x14,4(x11)
    e7bc:	0085a883          	lw	x17,8(x11)
    e7c0:	0a912a23          	sw	x9,180(x2)
    e7c4:	0005a483          	lw	x9,0(x11)
    e7c8:	01081793          	slli	x15,x16,0x10
    e7cc:	000085b7          	lui	x11,0x8
    e7d0:	0107d793          	srli	x15,x15,0x10
    e7d4:	01085693          	srli	x13,x16,0x10
    e7d8:	fff58593          	addi	x11,x11,-1 # 7fff <__gdtoa+0xa73>
    e7dc:	0a812c23          	sw	x8,184(x2)
    e7e0:	0b212823          	sw	x18,176(x2)
    e7e4:	0b312623          	sw	x19,172(x2)
    e7e8:	0b412423          	sw	x20,168(x2)
    e7ec:	0b512223          	sw	x21,164(x2)
    e7f0:	09712e23          	sw	x23,156(x2)
    e7f4:	0a112e23          	sw	x1,188(x2)
    e7f8:	0b612023          	sw	x22,160(x2)
    e7fc:	09812c23          	sw	x24,152(x2)
    e800:	09b12623          	sw	x27,140(x2)
    e804:	06912023          	sw	x9,96(x2)
    e808:	06e12223          	sw	x14,100(x2)
    e80c:	07112423          	sw	x17,104(x2)
    e810:	07012623          	sw	x16,108(x2)
    e814:	02912823          	sw	x9,48(x2)
    e818:	02e12a23          	sw	x14,52(x2)
    e81c:	03112c23          	sw	x17,56(x2)
    e820:	02f12e23          	sw	x15,60(x2)
    e824:	00b6f6b3          	and	x13,x13,x11
    e828:	00062a83          	lw	x21,0(x12)
    e82c:	00462983          	lw	x19,4(x12)
    e830:	00862b83          	lw	x23,8(x12)
    e834:	00c62903          	lw	x18,12(x12)
    e838:	00050413          	addi	x8,x10,0
    e83c:	01f85a13          	srli	x20,x16,0x1f
    e840:	34068063          	beq	x13,x0,eb80 <__multf3+0x3d0>
    e844:	18b68c63          	beq	x13,x11,e9dc <__multf3+0x22c>
    e848:	00010737          	lui	x14,0x10
    e84c:	00e7e7b3          	or	x15,x15,x14
    e850:	02f12e23          	sw	x15,60(x2)
    e854:	03010513          	addi	x10,x2,48
    e858:	03c10713          	addi	x14,x2,60
    e85c:	00379593          	slli	x11,x15,0x3
    e860:	ffc72783          	lw	x15,-4(x14) # fffc <__subtf3+0x698>
    e864:	ffc70713          	addi	x14,x14,-4
    e868:	01d7d613          	srli	x12,x15,0x1d
    e86c:	00b66633          	or	x12,x12,x11
    e870:	00c72223          	sw	x12,4(x14)
    e874:	fee514e3          	bne	x10,x14,e85c <__multf3+0xac>
    e878:	ffffc7b7          	lui	x15,0xffffc
    e87c:	00349493          	slli	x9,x9,0x3
    e880:	00178793          	addi	x15,x15,1 # ffffc001 <__heap_end+0xffbfc001>
    e884:	02912823          	sw	x9,48(x2)
    e888:	00f68db3          	add	x27,x13,x15
    e88c:	00000b13          	addi	x22,x0,0
    e890:	00000c13          	addi	x24,x0,0
    e894:	01091513          	slli	x10,x18,0x10
    e898:	000086b7          	lui	x13,0x8
    e89c:	01095793          	srli	x15,x18,0x10
    e8a0:	01055513          	srli	x10,x10,0x10
    e8a4:	fff68713          	addi	x14,x13,-1 # 7fff <__gdtoa+0xa73>
    e8a8:	07212623          	sw	x18,108(x2)
    e8ac:	07512023          	sw	x21,96(x2)
    e8b0:	07312223          	sw	x19,100(x2)
    e8b4:	07712423          	sw	x23,104(x2)
    e8b8:	05512023          	sw	x21,64(x2)
    e8bc:	05312223          	sw	x19,68(x2)
    e8c0:	05712423          	sw	x23,72(x2)
    e8c4:	04a12623          	sw	x10,76(x2)
    e8c8:	00e7f7b3          	and	x15,x15,x14
    e8cc:	01f95913          	srli	x18,x18,0x1f
    e8d0:	1c078463          	beq	x15,x0,ea98 <__multf3+0x2e8>
    e8d4:	12e78463          	beq	x15,x14,e9fc <__multf3+0x24c>
    e8d8:	00010737          	lui	x14,0x10
    e8dc:	00e56533          	or	x10,x10,x14
    e8e0:	04a12623          	sw	x10,76(x2)
    e8e4:	04010593          	addi	x11,x2,64
    e8e8:	04c10713          	addi	x14,x2,76
    e8ec:	00351613          	slli	x12,x10,0x3
    e8f0:	ffc72503          	lw	x10,-4(x14) # fffc <__subtf3+0x698>
    e8f4:	ffc70713          	addi	x14,x14,-4
    e8f8:	01d55693          	srli	x13,x10,0x1d
    e8fc:	00c6e6b3          	or	x13,x13,x12
    e900:	00d72223          	sw	x13,4(x14)
    e904:	fee594e3          	bne	x11,x14,e8ec <__multf3+0x13c>
    e908:	ffffc737          	lui	x14,0xffffc
    e90c:	00170713          	addi	x14,x14,1 # ffffc001 <__heap_end+0xffbfc001>
    e910:	003a9a93          	slli	x21,x21,0x3
    e914:	00e787b3          	add	x15,x15,x14
    e918:	05512023          	sw	x21,64(x2)
    e91c:	01b787b3          	add	x15,x15,x27
    e920:	00000613          	addi	x12,x0,0
    e924:	00178693          	addi	x13,x15,1
    e928:	00a00713          	addi	x14,x0,10
    e92c:	00d12623          	sw	x13,12(x2)
    e930:	25674463          	blt	x14,x22,eb78 <__multf3+0x3c8>
    e934:	012a4733          	xor	x14,x20,x18
    e938:	00200693          	addi	x13,x0,2
    e93c:	00070813          	addi	x16,x14,0
    e940:	3366dc63          	bge	x13,x22,ec78 <__multf3+0x4c8>
    e944:	00100693          	addi	x13,x0,1
    e948:	016696b3          	sll	x13,x13,x22
    e94c:	5306f593          	andi	x11,x13,1328
    e950:	0e059863          	bne	x11,x0,ea40 <__multf3+0x290>
    e954:	0886f593          	andi	x11,x13,136
    e958:	420592e3          	bne	x11,x0,f57c <__multf3+0xdcc>
    e95c:	2406f693          	andi	x13,x13,576
    e960:	38068063          	beq	x13,x0,ece0 <__multf3+0x530>
    e964:	000087b7          	lui	x15,0x8
    e968:	00000713          	addi	x14,x0,0
    e96c:	fff78793          	addi	x15,x15,-1 # 7fff <__gdtoa+0xa73>
    e970:	000086b7          	lui	x13,0x8
    e974:	00000613          	addi	x12,x0,0
    e978:	00000593          	addi	x11,x0,0
    e97c:	00000513          	addi	x10,x0,0
    e980:	00f71713          	slli	x14,x14,0xf
    e984:	00e7e7b3          	or	x15,x15,x14
    e988:	06d11623          	sh	x13,108(x2)
    e98c:	06f11723          	sh	x15,110(x2)
    e990:	06c12783          	lw	x15,108(x2)
    e994:	00a42023          	sw	x10,0(x8)
    e998:	0bc12083          	lw	x1,188(x2)
    e99c:	00b42223          	sw	x11,4(x8)
    e9a0:	00c42423          	sw	x12,8(x8)
    e9a4:	00f42623          	sw	x15,12(x8)
    e9a8:	00040513          	addi	x10,x8,0
    e9ac:	0b812403          	lw	x8,184(x2)
    e9b0:	0b412483          	lw	x9,180(x2)
    e9b4:	0b012903          	lw	x18,176(x2)
    e9b8:	0ac12983          	lw	x19,172(x2)
    e9bc:	0a812a03          	lw	x20,168(x2)
    e9c0:	0a412a83          	lw	x21,164(x2)
    e9c4:	0a012b03          	lw	x22,160(x2)
    e9c8:	09c12b83          	lw	x23,156(x2)
    e9cc:	09812c03          	lw	x24,152(x2)
    e9d0:	08c12d83          	lw	x27,140(x2)
    e9d4:	0c010113          	addi	x2,x2,192
    e9d8:	00008067          	jalr	x0,0(x1)
    e9dc:	00e4e733          	or	x14,x9,x14
    e9e0:	01176733          	or	x14,x14,x17
    e9e4:	00f76733          	or	x14,x14,x15
    e9e8:	2c071e63          	bne	x14,x0,ecc4 <__multf3+0x514>
    e9ec:	00800b13          	addi	x22,x0,8
    e9f0:	00068d93          	addi	x27,x13,0 # 8000 <__gdtoa+0xa74>
    e9f4:	00200c13          	addi	x24,x0,2
    e9f8:	e9dff06f          	jal	x0,e894 <__multf3+0xe4>
    e9fc:	013ae9b3          	or	x19,x21,x19
    ea00:	0179e9b3          	or	x19,x19,x23
    ea04:	00a9e9b3          	or	x19,x19,x10
    ea08:	00fd87b3          	add	x15,x27,x15
    ea0c:	2c098463          	beq	x19,x0,ecd4 <__multf3+0x524>
    ea10:	00dd86b3          	add	x13,x27,x13
    ea14:	012a4733          	xor	x14,x20,x18
    ea18:	003b6b13          	ori	x22,x22,3
    ea1c:	00a00613          	addi	x12,x0,10
    ea20:	00d12623          	sw	x13,12(x2)
    ea24:	00070813          	addi	x16,x14,0
    ea28:	356644e3          	blt	x12,x22,f570 <__multf3+0xdc0>
    ea2c:	00100693          	addi	x13,x0,1
    ea30:	016696b3          	sll	x13,x13,x22
    ea34:	5306f593          	andi	x11,x13,1328
    ea38:	00300613          	addi	x12,x0,3
    ea3c:	f0058ce3          	beq	x11,x0,e954 <__multf3+0x1a4>
    ea40:	03412703          	lw	x14,52(x2)
    ea44:	03c12783          	lw	x15,60(x2)
    ea48:	000c0613          	addi	x12,x24,0
    ea4c:	04e12a23          	sw	x14,84(x2)
    ea50:	03012703          	lw	x14,48(x2)
    ea54:	04e12823          	sw	x14,80(x2)
    ea58:	03812703          	lw	x14,56(x2)
    ea5c:	04e12c23          	sw	x14,88(x2)
    ea60:	04f12e23          	sw	x15,92(x2)
    ea64:	00200793          	addi	x15,x0,2
    ea68:	1ef60863          	beq	x12,x15,ec58 <__multf3+0x4a8>
    ea6c:	00300793          	addi	x15,x0,3
    ea70:	eef60ae3          	beq	x12,x15,e964 <__multf3+0x1b4>
    ea74:	00100793          	addi	x15,x0,1
    ea78:	00080713          	addi	x14,x16,0
    ea7c:	20f616e3          	bne	x12,x15,f488 <__multf3+0xcd8>
    ea80:	00000793          	addi	x15,x0,0
    ea84:	00000693          	addi	x13,x0,0
    ea88:	00000613          	addi	x12,x0,0
    ea8c:	00000593          	addi	x11,x0,0
    ea90:	00000513          	addi	x10,x0,0
    ea94:	eedff06f          	jal	x0,e980 <__multf3+0x1d0>
    ea98:	013ae7b3          	or	x15,x21,x19
    ea9c:	0177e7b3          	or	x15,x15,x23
    eaa0:	00a7e7b3          	or	x15,x15,x10
    eaa4:	20078863          	beq	x15,x0,ecb4 <__multf3+0x504>
    eaa8:	4a0508e3          	beq	x10,x0,f758 <__multf3+0xfa8>
    eaac:	3d1020ef          	jal	x1,1167c <__clzsi2>
    eab0:	ff450813          	addi	x16,x10,-12
    eab4:	02000313          	addi	x6,x0,32
    eab8:	41030333          	sub	x6,x6,x16
    eabc:	00000613          	addi	x12,x0,0
    eac0:	010a9ab3          	sll	x21,x21,x16
    eac4:	40c008b3          	sub	x17,x0,x12
    eac8:	00289893          	slli	x17,x17,0x2
    eacc:	04010693          	addi	x13,x2,64
    ead0:	01168733          	add	x14,x13,x17
    ead4:	00300593          	addi	x11,x0,3
    ead8:	411008b3          	sub	x17,x0,x17
    eadc:	00c72783          	lw	x15,12(x14)
    eae0:	00872e03          	lw	x28,8(x14)
    eae4:	01170eb3          	add	x29,x14,x17
    eae8:	010797b3          	sll	x15,x15,x16
    eaec:	006e5e33          	srl	x28,x28,x6
    eaf0:	01c7e7b3          	or	x15,x15,x28
    eaf4:	00fea623          	sw	x15,12(x29)
    eaf8:	fff58593          	addi	x11,x11,-1
    eafc:	ffc70713          	addi	x14,x14,-4
    eb00:	fcb64ee3          	blt	x12,x11,eadc <__multf3+0x32c>
    eb04:	00261713          	slli	x14,x12,0x2
    eb08:	05070793          	addi	x15,x14,80
    eb0c:	03010713          	addi	x14,x2,48
    eb10:	00e78733          	add	x14,x15,x14
    eb14:	fd572023          	sw	x21,-64(x14)
    eb18:	fff60793          	addi	x15,x12,-1
    eb1c:	fff00713          	addi	x14,x0,-1
    eb20:	02e78a63          	beq	x15,x14,eb54 <__multf3+0x3a4>
    eb24:	00178793          	addi	x15,x15,1
    eb28:	00279793          	slli	x15,x15,0x2
    eb2c:	00800613          	addi	x12,x0,8
    eb30:	00068713          	addi	x14,x13,0
    eb34:	00c7ea63          	bltu	x15,x12,eb48 <__multf3+0x398>
    eb38:	04012023          	sw	x0,64(x2)
    eb3c:	0006a223          	sw	x0,4(x13)
    eb40:	ff878793          	addi	x15,x15,-8
    eb44:	04810713          	addi	x14,x2,72
    eb48:	00400693          	addi	x13,x0,4
    eb4c:	00d7e463          	bltu	x15,x13,eb54 <__multf3+0x3a4>
    eb50:	00072023          	sw	x0,0(x14)
    eb54:	ffffc7b7          	lui	x15,0xffffc
    eb58:	01178793          	addi	x15,x15,17 # ffffc011 <__heap_end+0xffbfc011>
    eb5c:	40a787b3          	sub	x15,x15,x10
    eb60:	01b787b3          	add	x15,x15,x27
    eb64:	00178693          	addi	x13,x15,1
    eb68:	00a00713          	addi	x14,x0,10
    eb6c:	00d12623          	sw	x13,12(x2)
    eb70:	00000613          	addi	x12,x0,0
    eb74:	dd6750e3          	bge	x14,x22,e934 <__multf3+0x184>
    eb78:	000a0813          	addi	x16,x20,0
    eb7c:	ec5ff06f          	jal	x0,ea40 <__multf3+0x290>
    eb80:	00e4e6b3          	or	x13,x9,x14
    eb84:	0116e6b3          	or	x13,x13,x17
    eb88:	00f6e6b3          	or	x13,x13,x15
    eb8c:	10068c63          	beq	x13,x0,eca4 <__multf3+0x4f4>
    eb90:	360786e3          	beq	x15,x0,f6fc <__multf3+0xf4c>
    eb94:	00078513          	addi	x10,x15,0
    eb98:	2e5020ef          	jal	x1,1167c <__clzsi2>
    eb9c:	ff450813          	addi	x16,x10,-12
    eba0:	02000313          	addi	x6,x0,32
    eba4:	41030333          	sub	x6,x6,x16
    eba8:	00000613          	addi	x12,x0,0
    ebac:	010494b3          	sll	x9,x9,x16
    ebb0:	40c008b3          	sub	x17,x0,x12
    ebb4:	00289893          	slli	x17,x17,0x2
    ebb8:	03010693          	addi	x13,x2,48
    ebbc:	01168733          	add	x14,x13,x17
    ebc0:	00300593          	addi	x11,x0,3
    ebc4:	411008b3          	sub	x17,x0,x17
    ebc8:	00c72783          	lw	x15,12(x14)
    ebcc:	00872e03          	lw	x28,8(x14)
    ebd0:	01170eb3          	add	x29,x14,x17
    ebd4:	010797b3          	sll	x15,x15,x16
    ebd8:	006e5e33          	srl	x28,x28,x6
    ebdc:	01c7e7b3          	or	x15,x15,x28
    ebe0:	00fea623          	sw	x15,12(x29)
    ebe4:	fff58593          	addi	x11,x11,-1
    ebe8:	ffc70713          	addi	x14,x14,-4
    ebec:	fcb64ee3          	blt	x12,x11,ebc8 <__multf3+0x418>
    ebf0:	00261713          	slli	x14,x12,0x2
    ebf4:	05070793          	addi	x15,x14,80
    ebf8:	03010713          	addi	x14,x2,48
    ebfc:	00e78733          	add	x14,x15,x14
    ec00:	fa972823          	sw	x9,-80(x14)
    ec04:	fff60793          	addi	x15,x12,-1
    ec08:	fff00713          	addi	x14,x0,-1
    ec0c:	02e78a63          	beq	x15,x14,ec40 <__multf3+0x490>
    ec10:	00178793          	addi	x15,x15,1
    ec14:	00279793          	slli	x15,x15,0x2
    ec18:	00800613          	addi	x12,x0,8
    ec1c:	00068713          	addi	x14,x13,0
    ec20:	00c7ea63          	bltu	x15,x12,ec34 <__multf3+0x484>
    ec24:	02012823          	sw	x0,48(x2)
    ec28:	0006a223          	sw	x0,4(x13)
    ec2c:	ff878793          	addi	x15,x15,-8
    ec30:	03810713          	addi	x14,x2,56
    ec34:	00400693          	addi	x13,x0,4
    ec38:	00d7e463          	bltu	x15,x13,ec40 <__multf3+0x490>
    ec3c:	00072023          	sw	x0,0(x14)
    ec40:	ffffc6b7          	lui	x13,0xffffc
    ec44:	01168693          	addi	x13,x13,17 # ffffc011 <__heap_end+0xffbfc011>
    ec48:	40a68db3          	sub	x27,x13,x10
    ec4c:	00000b13          	addi	x22,x0,0
    ec50:	00000c13          	addi	x24,x0,0
    ec54:	c41ff06f          	jal	x0,e894 <__multf3+0xe4>
    ec58:	000087b7          	lui	x15,0x8
    ec5c:	00080713          	addi	x14,x16,0
    ec60:	fff78793          	addi	x15,x15,-1 # 7fff <__gdtoa+0xa73>
    ec64:	00000693          	addi	x13,x0,0
    ec68:	00000613          	addi	x12,x0,0
    ec6c:	00000593          	addi	x11,x0,0
    ec70:	00000513          	addi	x10,x0,0
    ec74:	d0dff06f          	jal	x0,e980 <__multf3+0x1d0>
    ec78:	fffb0b13          	addi	x22,x22,-1
    ec7c:	00100693          	addi	x13,x0,1
    ec80:	0766e063          	bltu	x13,x22,ece0 <__multf3+0x530>
    ec84:	04412703          	lw	x14,68(x2)
    ec88:	04c12783          	lw	x15,76(x2)
    ec8c:	04e12a23          	sw	x14,84(x2)
    ec90:	04012703          	lw	x14,64(x2)
    ec94:	04e12823          	sw	x14,80(x2)
    ec98:	04812703          	lw	x14,72(x2)
    ec9c:	04e12c23          	sw	x14,88(x2)
    eca0:	dc1ff06f          	jal	x0,ea60 <__multf3+0x2b0>
    eca4:	00400b13          	addi	x22,x0,4
    eca8:	00000d93          	addi	x27,x0,0
    ecac:	00100c13          	addi	x24,x0,1
    ecb0:	be5ff06f          	jal	x0,e894 <__multf3+0xe4>
    ecb4:	001b6b13          	ori	x22,x22,1
    ecb8:	000d8793          	addi	x15,x27,0
    ecbc:	00100613          	addi	x12,x0,1
    ecc0:	c65ff06f          	jal	x0,e924 <__multf3+0x174>
    ecc4:	00c00b13          	addi	x22,x0,12
    ecc8:	00068d93          	addi	x27,x13,0
    eccc:	00300c13          	addi	x24,x0,3
    ecd0:	bc5ff06f          	jal	x0,e894 <__multf3+0xe4>
    ecd4:	002b6b13          	ori	x22,x22,2
    ecd8:	00200613          	addi	x12,x0,2
    ecdc:	c49ff06f          	jal	x0,e924 <__multf3+0x174>
    ece0:	03012303          	lw	x6,48(x2)
    ece4:	04012f83          	lw	x31,64(x2)
    ece8:	00010837          	lui	x16,0x10
    ecec:	fff80693          	addi	x13,x16,-1 # ffff <__subtf3+0x69b>
    ecf0:	01035913          	srli	x18,x6,0x10
    ecf4:	010fd493          	srli	x9,x31,0x10
    ecf8:	00d37333          	and	x6,x6,x13
    ecfc:	00dfffb3          	and	x31,x31,x13
    ed00:	026f86b3          	mul	x13,x31,x6
    ed04:	09912a23          	sw	x25,148(x2)
    ed08:	09a12823          	sw	x26,144(x2)
    ed0c:	03f90533          	mul	x10,x18,x31
    ed10:	0106de93          	srli	x29,x13,0x10
    ed14:	02648633          	mul	x12,x9,x6
    ed18:	00a60633          	add	x12,x12,x10
    ed1c:	00ce8eb3          	add	x29,x29,x12
    ed20:	029905b3          	mul	x11,x18,x9
    ed24:	00aef463          	bgeu	x29,x10,ed2c <__multf3+0x57c>
    ed28:	010585b3          	add	x11,x11,x16
    ed2c:	000108b7          	lui	x17,0x10
    ed30:	fff88813          	addi	x16,x17,-1 # ffff <__subtf3+0x69b>
    ed34:	04412f03          	lw	x30,68(x2)
    ed38:	010ef533          	and	x10,x29,x16
    ed3c:	01051513          	slli	x10,x10,0x10
    ed40:	0106f6b3          	and	x13,x13,x16
    ed44:	010f5e13          	srli	x28,x30,0x10
    ed48:	00d506b3          	add	x13,x10,x13
    ed4c:	010f7f33          	and	x30,x30,x16
    ed50:	026f0633          	mul	x12,x30,x6
    ed54:	00d12e23          	sw	x13,28(x2)
    ed58:	06d12023          	sw	x13,96(x2)
    ed5c:	01c12823          	sw	x28,16(x2)
    ed60:	010ede93          	srli	x29,x29,0x10
    ed64:	03e90533          	mul	x10,x18,x30
    ed68:	01065293          	srli	x5,x12,0x10
    ed6c:	026e06b3          	mul	x13,x28,x6
    ed70:	00a686b3          	add	x13,x13,x10
    ed74:	00d282b3          	add	x5,x5,x13
    ed78:	03c90b33          	mul	x22,x18,x28
    ed7c:	00a2f463          	bgeu	x5,x10,ed84 <__multf3+0x5d4>
    ed80:	011b0b33          	add	x22,x22,x17
    ed84:	03412883          	lw	x17,52(x2)
    ed88:	00010837          	lui	x16,0x10
    ed8c:	fff80513          	addi	x10,x16,-1 # ffff <__subtf3+0x69b>
    ed90:	0108d393          	srli	x7,x17,0x10
    ed94:	00a8f8b3          	and	x17,x17,x10
    ed98:	00a2f9b3          	and	x19,x5,x10
    ed9c:	00a67633          	and	x12,x12,x10
    eda0:	03f886b3          	mul	x13,x17,x31
    eda4:	01099993          	slli	x19,x19,0x10
    eda8:	00c989b3          	add	x19,x19,x12
    edac:	0102d293          	srli	x5,x5,0x10
    edb0:	013e8eb3          	add	x29,x29,x19
    edb4:	03f38e33          	mul	x28,x7,x31
    edb8:	0106d613          	srli	x12,x13,0x10
    edbc:	03148533          	mul	x10,x9,x17
    edc0:	01c50533          	add	x10,x10,x28
    edc4:	00a60633          	add	x12,x12,x10
    edc8:	02748533          	mul	x10,x9,x7
    edcc:	01c67463          	bgeu	x12,x28,edd4 <__multf3+0x624>
    edd0:	01050533          	add	x10,x10,x16
    edd4:	01012b83          	lw	x23,16(x2)
    edd8:	00010e37          	lui	x28,0x10
    eddc:	fffe0813          	addi	x16,x28,-1 # ffff <__subtf3+0x69b>
    ede0:	01067a33          	and	x20,x12,x16
    ede4:	01065613          	srli	x12,x12,0x10
    ede8:	0106f6b3          	and	x13,x13,x16
    edec:	00a60633          	add	x12,x12,x10
    edf0:	031b8ab3          	mul	x21,x23,x17
    edf4:	010a1a13          	slli	x20,x20,0x10
    edf8:	00da0a33          	add	x20,x20,x13
    edfc:	031f0533          	mul	x10,x30,x17
    ee00:	03e38833          	mul	x16,x7,x30
    ee04:	01055693          	srli	x13,x10,0x10
    ee08:	010a8ab3          	add	x21,x21,x16
    ee0c:	015686b3          	add	x13,x13,x21
    ee10:	027b8bb3          	mul	x23,x23,x7
    ee14:	0106f463          	bgeu	x13,x16,ee1c <__multf3+0x66c>
    ee18:	01cb8bb3          	add	x23,x23,x28
    ee1c:	00010837          	lui	x16,0x10
    ee20:	04812e03          	lw	x28,72(x2)
    ee24:	fff80c13          	addi	x24,x16,-1 # ffff <__subtf3+0x69b>
    ee28:	0186fab3          	and	x21,x13,x24
    ee2c:	0106d693          	srli	x13,x13,0x10
    ee30:	017686b3          	add	x13,x13,x23
    ee34:	010a9a93          	slli	x21,x21,0x10
    ee38:	01857533          	and	x10,x10,x24
    ee3c:	010e5d13          	srli	x26,x28,0x10
    ee40:	018e7cb3          	and	x25,x28,x24
    ee44:	02d12023          	sw	x13,32(x2)
    ee48:	00aa86b3          	add	x13,x21,x10
    ee4c:	026c8e33          	mul	x28,x25,x6
    ee50:	02d12223          	sw	x13,36(x2)
    ee54:	026d0ab3          	mul	x21,x26,x6
    ee58:	010e5513          	srli	x10,x28,0x10
    ee5c:	039906b3          	mul	x13,x18,x25
    ee60:	00da8ab3          	add	x21,x21,x13
    ee64:	01550533          	add	x10,x10,x21
    ee68:	03a90bb3          	mul	x23,x18,x26
    ee6c:	00d57463          	bgeu	x10,x13,ee74 <__multf3+0x6c4>
    ee70:	010b8bb3          	add	x23,x23,x16
    ee74:	03812803          	lw	x16,56(x2)
    ee78:	000106b7          	lui	x13,0x10
    ee7c:	fff68c13          	addi	x24,x13,-1 # ffff <__subtf3+0x69b>
    ee80:	01085d93          	srli	x27,x16,0x10
    ee84:	01887833          	and	x16,x16,x24
    ee88:	018576b3          	and	x13,x10,x24
    ee8c:	01055513          	srli	x10,x10,0x10
    ee90:	03f80ab3          	mul	x21,x16,x31
    ee94:	01750bb3          	add	x23,x10,x23
    ee98:	018e7e33          	and	x28,x28,x24
    ee9c:	01069693          	slli	x13,x13,0x10
    eea0:	03712423          	sw	x23,40(x2)
    eea4:	01c686b3          	add	x13,x13,x28
    eea8:	03fd8bb3          	mul	x23,x27,x31
    eeac:	010ade13          	srli	x28,x21,0x10
    eeb0:	03512623          	sw	x21,44(x2)
    eeb4:	03048c33          	mul	x24,x9,x16
    eeb8:	03b48ab3          	mul	x21,x9,x27
    eebc:	017c0c33          	add	x24,x24,x23
    eec0:	018e0e33          	add	x28,x28,x24
    eec4:	01512a23          	sw	x21,20(x2)
    eec8:	017e7863          	bgeu	x28,x23,eed8 <__multf3+0x728>
    eecc:	00010537          	lui	x10,0x10
    eed0:	00aa8533          	add	x10,x21,x10
    eed4:	00a12a23          	sw	x10,20(x2)
    eed8:	01d585b3          	add	x11,x11,x29
    eedc:	0135b9b3          	sltu	x19,x11,x19
    eee0:	013282b3          	add	x5,x5,x19
    eee4:	016282b3          	add	x5,x5,x22
    eee8:	01458b33          	add	x22,x11,x20
    eeec:	00c28633          	add	x12,x5,x12
    eef0:	00bb35b3          	sltu	x11,x22,x11
    eef4:	00b605b3          	add	x11,x12,x11
    eef8:	04c12e83          	lw	x29,76(x2)
    eefc:	00563bb3          	sltu	x23,x12,x5
    ef00:	00010ab7          	lui	x21,0x10
    ef04:	00c5b633          	sltu	x12,x11,x12
    ef08:	fffa8a93          	addi	x21,x21,-1 # ffff <__subtf3+0x69b>
    ef0c:	0132b9b3          	sltu	x19,x5,x19
    ef10:	02c12503          	lw	x10,44(x2)
    ef14:	00cbe633          	or	x12,x23,x12
    ef18:	02412283          	lw	x5,36(x2)
    ef1c:	010eda13          	srli	x20,x29,0x10
    ef20:	01360633          	add	x12,x12,x19
    ef24:	015efeb3          	and	x29,x29,x21
    ef28:	02012983          	lw	x19,32(x2)
    ef2c:	015e7bb3          	and	x23,x28,x21
    ef30:	03d90c33          	mul	x24,x18,x29
    ef34:	01612c23          	sw	x22,24(x2)
    ef38:	005582b3          	add	x5,x11,x5
    ef3c:	010b9b93          	slli	x23,x23,0x10
    ef40:	01557ab3          	and	x21,x10,x21
    ef44:	02812503          	lw	x10,40(x2)
    ef48:	013609b3          	add	x19,x12,x19
    ef4c:	00b2b5b3          	sltu	x11,x5,x11
    ef50:	015b8ab3          	add	x21,x23,x21
    ef54:	01412b83          	lw	x23,20(x2)
    ef58:	026e8b33          	mul	x22,x29,x6
    ef5c:	00b985b3          	add	x11,x19,x11
    ef60:	00d286b3          	add	x13,x5,x13
    ef64:	00a58533          	add	x10,x11,x10
    ef68:	0056b2b3          	sltu	x5,x13,x5
    ef6c:	010e5e13          	srli	x28,x28,0x10
    ef70:	005502b3          	add	x5,x10,x5
    ef74:	01568ab3          	add	x21,x13,x21
    ef78:	017e0e33          	add	x28,x28,x23
    ef7c:	01c28e33          	add	x28,x5,x28
    ef80:	026a0333          	mul	x6,x20,x6
    ef84:	00c9b633          	sltu	x12,x19,x12
    ef88:	00dab6b3          	sltu	x13,x21,x13
    ef8c:	0135b9b3          	sltu	x19,x11,x19
    ef90:	00b535b3          	sltu	x11,x10,x11
    ef94:	00a2b533          	sltu	x10,x5,x10
    ef98:	00a5e533          	or	x10,x11,x10
    ef9c:	00de06b3          	add	x13,x28,x13
    efa0:	01812583          	lw	x11,24(x2)
    efa4:	013669b3          	or	x19,x12,x19
    efa8:	005e32b3          	sltu	x5,x28,x5
    efac:	01c6be33          	sltu	x28,x13,x28
    efb0:	00a989b3          	add	x19,x19,x10
    efb4:	01c2e2b3          	or	x5,x5,x28
    efb8:	01830333          	add	x6,x6,x24
    efbc:	010b5613          	srli	x12,x22,0x10
    efc0:	06b12223          	sw	x11,100(x2)
    efc4:	013285b3          	add	x11,x5,x19
    efc8:	03512023          	sw	x21,32(x2)
    efcc:	07512423          	sw	x21,104(x2)
    efd0:	00660633          	add	x12,x12,x6
    efd4:	00b12a23          	sw	x11,20(x2)
    efd8:	03490933          	mul	x18,x18,x20
    efdc:	01867663          	bgeu	x12,x24,efe8 <__multf3+0x838>
    efe0:	00010ab7          	lui	x21,0x10
    efe4:	01590933          	add	x18,x18,x21
    efe8:	03c12283          	lw	x5,60(x2)
    efec:	00010537          	lui	x10,0x10
    eff0:	fff50313          	addi	x6,x10,-1 # ffff <__subtf3+0x69b>
    eff4:	0102d993          	srli	x19,x5,0x10
    eff8:	00667ab3          	and	x21,x12,x6
    effc:	0062f2b3          	and	x5,x5,x6
    f000:	01065613          	srli	x12,x12,0x10
    f004:	03f285b3          	mul	x11,x5,x31
    f008:	01260933          	add	x18,x12,x18
    f00c:	006b7b33          	and	x22,x22,x6
    f010:	010a9a93          	slli	x21,x21,0x10
    f014:	016a8ab3          	add	x21,x21,x22
    f018:	02548633          	mul	x12,x9,x5
    f01c:	0105d313          	srli	x6,x11,0x10
    f020:	03f98fb3          	mul	x31,x19,x31
    f024:	01f60633          	add	x12,x12,x31
    f028:	00c30333          	add	x6,x6,x12
    f02c:	033484b3          	mul	x9,x9,x19
    f030:	01f37463          	bgeu	x6,x31,f038 <__multf3+0x888>
    f034:	00a484b3          	add	x9,x9,x10
    f038:	00010637          	lui	x12,0x10
    f03c:	fff60513          	addi	x10,x12,-1 # ffff <__subtf3+0x69b>
    f040:	00a37e33          	and	x28,x6,x10
    f044:	01035313          	srli	x6,x6,0x10
    f048:	00a5f533          	and	x10,x11,x10
    f04c:	00930333          	add	x6,x6,x9
    f050:	010e1e13          	slli	x28,x28,0x10
    f054:	039885b3          	mul	x11,x17,x25
    f058:	00ae0e33          	add	x28,x28,x10
    f05c:	03938fb3          	mul	x31,x7,x25
    f060:	0105d513          	srli	x10,x11,0x10
    f064:	031d04b3          	mul	x9,x26,x17
    f068:	01f484b3          	add	x9,x9,x31
    f06c:	00950533          	add	x10,x10,x9
    f070:	03a38b33          	mul	x22,x7,x26
    f074:	01f57463          	bgeu	x10,x31,f07c <__multf3+0x8cc>
    f078:	00cb0b33          	add	x22,x22,x12
    f07c:	01012c03          	lw	x24,16(x2)
    f080:	000104b7          	lui	x9,0x10
    f084:	fff48f93          	addi	x31,x9,-1 # ffff <__subtf3+0x69b>
    f088:	01f57633          	and	x12,x10,x31
    f08c:	01055513          	srli	x10,x10,0x10
    f090:	01f5f5b3          	and	x11,x11,x31
    f094:	01650533          	add	x10,x10,x22
    f098:	03ed8fb3          	mul	x31,x27,x30
    f09c:	01061613          	slli	x12,x12,0x10
    f0a0:	00b60633          	add	x12,x12,x11
    f0a4:	030f0b33          	mul	x22,x30,x16
    f0a8:	030c0bb3          	mul	x23,x24,x16
    f0ac:	010b5593          	srli	x11,x22,0x10
    f0b0:	01fb8bb3          	add	x23,x23,x31
    f0b4:	017585b3          	add	x11,x11,x23
    f0b8:	03bc0bb3          	mul	x23,x24,x27
    f0bc:	01f5f463          	bgeu	x11,x31,f0c4 <__multf3+0x914>
    f0c0:	009b8bb3          	add	x23,x23,x9
    f0c4:	01412483          	lw	x9,20(x2)
    f0c8:	01568fb3          	add	x31,x13,x21
    f0cc:	00dfb6b3          	sltu	x13,x31,x13
    f0d0:	012484b3          	add	x9,x9,x18
    f0d4:	00d48933          	add	x18,x9,x13
    f0d8:	000106b7          	lui	x13,0x10
    f0dc:	fff68693          	addi	x13,x13,-1 # ffff <__subtf3+0x69b>
    f0e0:	00d5fab3          	and	x21,x11,x13
    f0e4:	010a9a93          	slli	x21,x21,0x10
    f0e8:	00db76b3          	and	x13,x22,x13
    f0ec:	00da86b3          	add	x13,x21,x13
    f0f0:	01412a83          	lw	x21,20(x2)
    f0f4:	0105d593          	srli	x11,x11,0x10
    f0f8:	017585b3          	add	x11,x11,x23
    f0fc:	030c8c33          	mul	x24,x25,x16
    f100:	0154bbb3          	sltu	x23,x9,x21
    f104:	01cf8e33          	add	x28,x31,x28
    f108:	00690333          	add	x6,x18,x6
    f10c:	01fe3fb3          	sltu	x31,x28,x31
    f110:	01f30fb3          	add	x31,x6,x31
    f114:	00ce0633          	add	x12,x28,x12
    f118:	00af8533          	add	x10,x31,x10
    f11c:	01c63e33          	sltu	x28,x12,x28
    f120:	01c50e33          	add	x28,x10,x28
    f124:	039d8b33          	mul	x22,x27,x25
    f128:	00d606b3          	add	x13,x12,x13
    f12c:	00be05b3          	add	x11,x28,x11
    f130:	009934b3          	sltu	x9,x18,x9
    f134:	00c6b633          	sltu	x12,x13,x12
    f138:	01233933          	sltu	x18,x6,x18
    f13c:	006fb333          	sltu	x6,x31,x6
    f140:	009bebb3          	or	x23,x23,x9
    f144:	01f53fb3          	sltu	x31,x10,x31
    f148:	00696333          	or	x6,x18,x6
    f14c:	030d0ab3          	mul	x21,x26,x16
    f150:	00ae3533          	sltu	x10,x28,x10
    f154:	00c58633          	add	x12,x11,x12
    f158:	01c5be33          	sltu	x28,x11,x28
    f15c:	006b8333          	add	x6,x23,x6
    f160:	00afe533          	or	x10,x31,x10
    f164:	00b635b3          	sltu	x11,x12,x11
    f168:	010c5f93          	srli	x31,x24,0x10
    f16c:	00650533          	add	x10,x10,x6
    f170:	00be65b3          	or	x11,x28,x11
    f174:	016a8ab3          	add	x21,x21,x22
    f178:	06d12623          	sw	x13,108(x2)
    f17c:	015f8ab3          	add	x21,x31,x21
    f180:	03bd0e33          	mul	x28,x26,x27
    f184:	00068313          	addi	x6,x13,0
    f188:	00a585b3          	add	x11,x11,x10
    f18c:	016af663          	bgeu	x21,x22,f198 <__multf3+0x9e8>
    f190:	00010537          	lui	x10,0x10
    f194:	00ae0e33          	add	x28,x28,x10
    f198:	000104b7          	lui	x9,0x10
    f19c:	fff48513          	addi	x10,x9,-1 # ffff <__subtf3+0x69b>
    f1a0:	00aaffb3          	and	x31,x21,x10
    f1a4:	010f9f93          	slli	x31,x31,0x10
    f1a8:	00ac7533          	and	x10,x24,x10
    f1ac:	031e8933          	mul	x18,x29,x17
    f1b0:	00af8533          	add	x10,x31,x10
    f1b4:	010ada93          	srli	x21,x21,0x10
    f1b8:	01ca8ab3          	add	x21,x21,x28
    f1bc:	03d38fb3          	mul	x31,x7,x29
    f1c0:	01095e13          	srli	x28,x18,0x10
    f1c4:	031a08b3          	mul	x17,x20,x17
    f1c8:	01f888b3          	add	x17,x17,x31
    f1cc:	011e0e33          	add	x28,x28,x17
    f1d0:	034383b3          	mul	x7,x7,x20
    f1d4:	01fe7463          	bgeu	x28,x31,f1dc <__multf3+0xa2c>
    f1d8:	009383b3          	add	x7,x7,x9
    f1dc:	01012b03          	lw	x22,16(x2)
    f1e0:	00010fb7          	lui	x31,0x10
    f1e4:	ffff8893          	addi	x17,x31,-1 # ffff <__subtf3+0x69b>
    f1e8:	011e74b3          	and	x9,x28,x17
    f1ec:	010e5e13          	srli	x28,x28,0x10
    f1f0:	011978b3          	and	x17,x18,x17
    f1f4:	007e0e33          	add	x28,x28,x7
    f1f8:	025b0933          	mul	x18,x22,x5
    f1fc:	01049493          	slli	x9,x9,0x10
    f200:	011484b3          	add	x9,x9,x17
    f204:	03e283b3          	mul	x7,x5,x30
    f208:	03e98f33          	mul	x30,x19,x30
    f20c:	0103d893          	srli	x17,x7,0x10
    f210:	01e90933          	add	x18,x18,x30
    f214:	012888b3          	add	x17,x17,x18
    f218:	033b0933          	mul	x18,x22,x19
    f21c:	01e8f463          	bgeu	x17,x30,f224 <__multf3+0xa74>
    f220:	01f90933          	add	x18,x18,x31
    f224:	00010b37          	lui	x22,0x10
    f228:	fffb0f13          	addi	x30,x22,-1 # ffff <__subtf3+0x69b>
    f22c:	01e8ffb3          	and	x31,x17,x30
    f230:	0108d893          	srli	x17,x17,0x10
    f234:	01e3ff33          	and	x30,x7,x30
    f238:	012888b3          	add	x17,x17,x18
    f23c:	010f9f93          	slli	x31,x31,0x10
    f240:	030e83b3          	mul	x7,x29,x16
    f244:	01ef8f33          	add	x30,x31,x30
    f248:	03dd8933          	mul	x18,x27,x29
    f24c:	0103df93          	srli	x31,x7,0x10
    f250:	030a0833          	mul	x16,x20,x16
    f254:	01280833          	add	x16,x16,x18
    f258:	010f8fb3          	add	x31,x31,x16
    f25c:	034d8bb3          	mul	x23,x27,x20
    f260:	012ff463          	bgeu	x31,x18,f268 <__multf3+0xab8>
    f264:	016b8bb3          	add	x23,x23,x22
    f268:	00010b37          	lui	x22,0x10
    f26c:	fffb0813          	addi	x16,x22,-1 # ffff <__subtf3+0x69b>
    f270:	010ff933          	and	x18,x31,x16
    f274:	010fdf93          	srli	x31,x31,0x10
    f278:	0103f833          	and	x16,x7,x16
    f27c:	017f8fb3          	add	x31,x31,x23
    f280:	01091913          	slli	x18,x18,0x10
    f284:	039283b3          	mul	x7,x5,x25
    f288:	01090833          	add	x16,x18,x16
    f28c:	03998c33          	mul	x24,x19,x25
    f290:	0103d913          	srli	x18,x7,0x10
    f294:	025d0bb3          	mul	x23,x26,x5
    f298:	018b8bb3          	add	x23,x23,x24
    f29c:	01790933          	add	x18,x18,x23
    f2a0:	033d0bb3          	mul	x23,x26,x19
    f2a4:	01897463          	bgeu	x18,x24,f2ac <__multf3+0xafc>
    f2a8:	016b8bb3          	add	x23,x23,x22
    f2ac:	00a60533          	add	x10,x12,x10
    f2b0:	01558ab3          	add	x21,x11,x21
    f2b4:	00c53633          	sltu	x12,x10,x12
    f2b8:	00ca8633          	add	x12,x21,x12
    f2bc:	009504b3          	add	x9,x10,x9
    f2c0:	01c60e33          	add	x28,x12,x28
    f2c4:	00a4b533          	sltu	x10,x9,x10
    f2c8:	025e8c33          	mul	x24,x29,x5
    f2cc:	00ae0b33          	add	x22,x28,x10
    f2d0:	01e48f33          	add	x30,x9,x30
    f2d4:	011b08b3          	add	x17,x22,x17
    f2d8:	009f34b3          	sltu	x9,x30,x9
    f2dc:	00988533          	add	x10,x17,x9
    f2e0:	00bab5b3          	sltu	x11,x21,x11
    f2e4:	000104b7          	lui	x9,0x10
    f2e8:	01563ab3          	sltu	x21,x12,x21
    f2ec:	00ce3633          	sltu	x12,x28,x12
    f2f0:	03d98eb3          	mul	x29,x19,x29
    f2f4:	01cb3e33          	sltu	x28,x22,x28
    f2f8:	fff48c93          	addi	x25,x9,-1 # ffff <__subtf3+0x69b>
    f2fc:	0155eab3          	or	x21,x11,x21
    f300:	01c66e33          	or	x28,x12,x28
    f304:	0168bb33          	sltu	x22,x17,x22
    f308:	011538b3          	sltu	x17,x10,x17
    f30c:	01997633          	and	x12,x18,x25
    f310:	01ca8e33          	add	x28,x21,x28
    f314:	011b68b3          	or	x17,x22,x17
    f318:	025a02b3          	mul	x5,x20,x5
    f31c:	01050833          	add	x16,x10,x16
    f320:	01c888b3          	add	x17,x17,x28
    f324:	01061613          	slli	x12,x12,0x10
    f328:	0193f3b3          	and	x7,x7,x25
    f32c:	01f88fb3          	add	x31,x17,x31
    f330:	00a835b3          	sltu	x11,x16,x10
    f334:	00760633          	add	x12,x12,x7
    f338:	01095913          	srli	x18,x18,0x10
    f33c:	00bf85b3          	add	x11,x31,x11
    f340:	00c80533          	add	x10,x16,x12
    f344:	01790933          	add	x18,x18,x23
    f348:	01258933          	add	x18,x11,x18
    f34c:	01053633          	sltu	x12,x10,x16
    f350:	00c90633          	add	x12,x18,x12
    f354:	01d282b3          	add	x5,x5,x29
    f358:	010c5813          	srli	x16,x24,0x10
    f35c:	011fb8b3          	sltu	x17,x31,x17
    f360:	07e12823          	sw	x30,112(x2)
    f364:	01f5bfb3          	sltu	x31,x11,x31
    f368:	06a12a23          	sw	x10,116(x2)
    f36c:	00b935b3          	sltu	x11,x18,x11
    f370:	00580833          	add	x16,x16,x5
    f374:	01263933          	sltu	x18,x12,x18
    f378:	033a09b3          	mul	x19,x20,x19
    f37c:	01f8ef33          	or	x30,x17,x31
    f380:	0125e5b3          	or	x11,x11,x18
    f384:	01d87463          	bgeu	x16,x29,f38c <__multf3+0xbdc>
    f388:	009989b3          	add	x19,x19,x9
    f38c:	00010e37          	lui	x28,0x10
    f390:	fffe0e13          	addi	x28,x28,-1 # ffff <__subtf3+0x69b>
    f394:	01c87533          	and	x10,x16,x28
    f398:	01051513          	slli	x10,x10,0x10
    f39c:	01cc7c33          	and	x24,x24,x28
    f3a0:	01085893          	srli	x17,x16,0x10
    f3a4:	01850533          	add	x10,x10,x24
    f3a8:	00a60533          	add	x10,x12,x10
    f3ac:	01e888b3          	add	x17,x17,x30
    f3b0:	011585b3          	add	x11,x11,x17
    f3b4:	00c53633          	sltu	x12,x10,x12
    f3b8:	01812803          	lw	x16,24(x2)
    f3bc:	00b60633          	add	x12,x12,x11
    f3c0:	01c12583          	lw	x11,28(x2)
    f3c4:	01360633          	add	x12,x12,x19
    f3c8:	00d69693          	slli	x13,x13,0xd
    f3cc:	0105e5b3          	or	x11,x11,x16
    f3d0:	02012803          	lw	x16,32(x2)
    f3d4:	06c12e23          	sw	x12,124(x2)
    f3d8:	06a12c23          	sw	x10,120(x2)
    f3dc:	0105e5b3          	or	x11,x11,x16
    f3e0:	00b6e6b3          	or	x13,x13,x11
    f3e4:	06010613          	addi	x12,x2,96
    f3e8:	07010813          	addi	x16,x2,112
    f3ec:	01335513          	srli	x10,x6,0x13
    f3f0:	01062303          	lw	x6,16(x12)
    f3f4:	00460613          	addi	x12,x12,4
    f3f8:	00d31593          	slli	x11,x6,0xd
    f3fc:	00a5e5b3          	or	x11,x11,x10
    f400:	feb62e23          	sw	x11,-4(x12)
    f404:	fec814e3          	bne	x16,x12,f3ec <__multf3+0xc3c>
    f408:	06012603          	lw	x12,96(x2)
    f40c:	00d036b3          	sltu	x13,x0,x13
    f410:	06c12583          	lw	x11,108(x2)
    f414:	00c6e6b3          	or	x13,x13,x12
    f418:	06812603          	lw	x12,104(x2)
    f41c:	04b12e23          	sw	x11,92(x2)
    f420:	04d12823          	sw	x13,80(x2)
    f424:	04c12c23          	sw	x12,88(x2)
    f428:	06412603          	lw	x12,100(x2)
    f42c:	04c12a23          	sw	x12,84(x2)
    f430:	00b59613          	slli	x12,x11,0xb
    f434:	38065063          	bge	x12,x0,f7b4 <__multf3+0x1004>
    f438:	01f69513          	slli	x10,x13,0x1f
    f43c:	05010793          	addi	x15,x2,80
    f440:	05c10813          	addi	x16,x2,92
    f444:	0016d893          	srli	x17,x13,0x1
    f448:	0047a683          	lw	x13,4(x15)
    f44c:	00478793          	addi	x15,x15,4
    f450:	01f69613          	slli	x12,x13,0x1f
    f454:	01166633          	or	x12,x12,x17
    f458:	fec7ae23          	sw	x12,-4(x15)
    f45c:	ff0794e3          	bne	x15,x16,f444 <__multf3+0xc94>
    f460:	05012783          	lw	x15,80(x2)
    f464:	00a036b3          	sltu	x13,x0,x10
    f468:	0015d593          	srli	x11,x11,0x1
    f46c:	00d7e7b3          	or	x15,x15,x13
    f470:	04f12823          	sw	x15,80(x2)
    f474:	09412c83          	lw	x25,148(x2)
    f478:	00c12783          	lw	x15,12(x2)
    f47c:	09012d03          	lw	x26,144(x2)
    f480:	04b12e23          	sw	x11,92(x2)
    f484:	0080006f          	jal	x0,f48c <__multf3+0xcdc>
    f488:	00c12783          	lw	x15,12(x2)
    f48c:	00004637          	lui	x12,0x4
    f490:	fff60613          	addi	x12,x12,-1 # 3fff <_vfprintf_r+0x13bb>
    f494:	00c78633          	add	x12,x15,x12
    f498:	10c05463          	bge	x0,x12,f5a0 <__multf3+0xdf0>
    f49c:	05012583          	lw	x11,80(x2)
    f4a0:	05c12683          	lw	x13,92(x2)
    f4a4:	0075f513          	andi	x10,x11,7
    f4a8:	04050263          	beq	x10,x0,f4ec <__multf3+0xd3c>
    f4ac:	00f5f513          	andi	x10,x11,15
    f4b0:	00400813          	addi	x16,x0,4
    f4b4:	03050c63          	beq	x10,x16,f4ec <__multf3+0xd3c>
    f4b8:	05412803          	lw	x16,84(x2)
    f4bc:	00458593          	addi	x11,x11,4
    f4c0:	05812883          	lw	x17,88(x2)
    f4c4:	0045b513          	sltiu	x10,x11,4
    f4c8:	01050833          	add	x16,x10,x16
    f4cc:	00a83533          	sltu	x10,x16,x10
    f4d0:	00a88533          	add	x10,x17,x10
    f4d4:	011538b3          	sltu	x17,x10,x17
    f4d8:	011686b3          	add	x13,x13,x17
    f4dc:	04b12823          	sw	x11,80(x2)
    f4e0:	05012a23          	sw	x16,84(x2)
    f4e4:	04a12c23          	sw	x10,88(x2)
    f4e8:	04d12e23          	sw	x13,92(x2)
    f4ec:	00b69593          	slli	x11,x13,0xb
    f4f0:	0005de63          	bge	x11,x0,f50c <__multf3+0xd5c>
    f4f4:	fff00637          	lui	x12,0xfff00
    f4f8:	fff60613          	addi	x12,x12,-1 # ffefffff <__heap_end+0xffafffff>
    f4fc:	00c6f6b3          	and	x13,x13,x12
    f500:	00004637          	lui	x12,0x4
    f504:	04d12e23          	sw	x13,92(x2)
    f508:	00c78633          	add	x12,x15,x12
    f50c:	05012503          	lw	x10,80(x2)
    f510:	05010793          	addi	x15,x2,80
    f514:	05c10893          	addi	x17,x2,92
    f518:	00355813          	srli	x16,x10,0x3
    f51c:	0047a503          	lw	x10,4(x15)
    f520:	00478793          	addi	x15,x15,4
    f524:	01d51593          	slli	x11,x10,0x1d
    f528:	0105e5b3          	or	x11,x11,x16
    f52c:	feb7ae23          	sw	x11,-4(x15)
    f530:	ff1794e3          	bne	x15,x17,f518 <__multf3+0xd68>
    f534:	000085b7          	lui	x11,0x8
    f538:	000087b7          	lui	x15,0x8
    f53c:	ffe58593          	addi	x11,x11,-2 # 7ffe <__gdtoa+0xa72>
    f540:	fff78793          	addi	x15,x15,-1 # 7fff <__gdtoa+0xa73>
    f544:	d4c5c063          	blt	x11,x12,ea84 <__multf3+0x2d4>
    f548:	00f677b3          	and	x15,x12,x15
    f54c:	0036d693          	srli	x13,x13,0x3
    f550:	01069693          	slli	x13,x13,0x10
    f554:	01079793          	slli	x15,x15,0x10
    f558:	05012503          	lw	x10,80(x2)
    f55c:	05412583          	lw	x11,84(x2)
    f560:	05812603          	lw	x12,88(x2)
    f564:	0106d693          	srli	x13,x13,0x10
    f568:	0107d793          	srli	x15,x15,0x10
    f56c:	c14ff06f          	jal	x0,e980 <__multf3+0x1d0>
    f570:	00f00793          	addi	x15,x0,15
    f574:	00300613          	addi	x12,x0,3
    f578:	befb0663          	beq	x22,x15,e964 <__multf3+0x1b4>
    f57c:	04412703          	lw	x14,68(x2)
    f580:	04c12783          	lw	x15,76(x2)
    f584:	00090813          	addi	x16,x18,0
    f588:	04e12a23          	sw	x14,84(x2)
    f58c:	04012703          	lw	x14,64(x2)
    f590:	04e12823          	sw	x14,80(x2)
    f594:	04812703          	lw	x14,72(x2)
    f598:	04e12c23          	sw	x14,88(x2)
    f59c:	cc4ff06f          	jal	x0,ea60 <__multf3+0x2b0>
    f5a0:	22061063          	bne	x12,x0,f7c0 <__multf3+0x1010>
    f5a4:	05012783          	lw	x15,80(x2)
    f5a8:	05c12303          	lw	x6,92(x2)
    f5ac:	00300693          	addi	x13,x0,3
    f5b0:	01f79793          	slli	x15,x15,0x1f
    f5b4:	00135313          	srli	x6,x6,0x1
    f5b8:	00100513          	addi	x10,x0,1
    f5bc:	01f00e13          	addi	x28,x0,31
    f5c0:	05010593          	addi	x11,x2,80
    f5c4:	00261613          	slli	x12,x12,0x2
    f5c8:	00269f13          	slli	x30,x13,0x2
    f5cc:	00c58833          	add	x16,x11,x12
    f5d0:	00058893          	addi	x17,x11,0
    f5d4:	01e58eb3          	add	x29,x11,x30
    f5d8:	00082603          	lw	x12,0(x16)
    f5dc:	00482f83          	lw	x31,4(x16)
    f5e0:	00488893          	addi	x17,x17,4
    f5e4:	00a65633          	srl	x12,x12,x10
    f5e8:	01cf9fb3          	sll	x31,x31,x28
    f5ec:	01f66633          	or	x12,x12,x31
    f5f0:	fec8ae23          	sw	x12,-4(x17)
    f5f4:	00480813          	addi	x16,x16,4
    f5f8:	ffd890e3          	bne	x17,x29,f5d8 <__multf3+0xe28>
    f5fc:	050f0613          	addi	x12,x30,80
    f600:	03010513          	addi	x10,x2,48
    f604:	00a60f33          	add	x30,x12,x10
    f608:	00168693          	addi	x13,x13,1
    f60c:	fc6f2823          	sw	x6,-48(x30)
    f610:	00400613          	addi	x12,x0,4
    f614:	05012303          	lw	x6,80(x2)
    f618:	02c68e63          	beq	x13,x12,f654 <__multf3+0xea4>
    f61c:	00400613          	addi	x12,x0,4
    f620:	40d60633          	sub	x12,x12,x13
    f624:	00261613          	slli	x12,x12,0x2
    f628:	00269693          	slli	x13,x13,0x2
    f62c:	00800513          	addi	x10,x0,8
    f630:	00d586b3          	add	x13,x11,x13
    f634:	00a66a63          	bltu	x12,x10,f648 <__multf3+0xe98>
    f638:	0006a023          	sw	x0,0(x13)
    f63c:	0006a223          	sw	x0,4(x13)
    f640:	ff860613          	addi	x12,x12,-8 # 3ff8 <_vfprintf_r+0x13b4>
    f644:	00868693          	addi	x13,x13,8
    f648:	00400513          	addi	x10,x0,4
    f64c:	00a66463          	bltu	x12,x10,f654 <__multf3+0xea4>
    f650:	0006a023          	sw	x0,0(x13)
    f654:	00f037b3          	sltu	x15,x0,x15
    f658:	0067e7b3          	or	x15,x15,x6
    f65c:	04f12823          	sw	x15,80(x2)
    f660:	0077f613          	andi	x12,x15,7
    f664:	05c12683          	lw	x13,92(x2)
    f668:	04060263          	beq	x12,x0,f6ac <__multf3+0xefc>
    f66c:	00f7f613          	andi	x12,x15,15
    f670:	00400513          	addi	x10,x0,4
    f674:	02a60c63          	beq	x12,x10,f6ac <__multf3+0xefc>
    f678:	05412603          	lw	x12,84(x2)
    f67c:	00478793          	addi	x15,x15,4
    f680:	05812803          	lw	x16,88(x2)
    f684:	0047b513          	sltiu	x10,x15,4
    f688:	00a60533          	add	x10,x12,x10
    f68c:	00c53633          	sltu	x12,x10,x12
    f690:	00c80633          	add	x12,x16,x12
    f694:	01063833          	sltu	x16,x12,x16
    f698:	010686b3          	add	x13,x13,x16
    f69c:	04f12823          	sw	x15,80(x2)
    f6a0:	04a12a23          	sw	x10,84(x2)
    f6a4:	04c12c23          	sw	x12,88(x2)
    f6a8:	04d12e23          	sw	x13,92(x2)
    f6ac:	00c69793          	slli	x15,x13,0xc
    f6b0:	1a07ca63          	blt	x15,x0,f864 <__multf3+0x10b4>
    f6b4:	05012503          	lw	x10,80(x2)
    f6b8:	00058793          	addi	x15,x11,0
    f6bc:	05c10813          	addi	x16,x2,92
    f6c0:	00355593          	srli	x11,x10,0x3
    f6c4:	0047a503          	lw	x10,4(x15)
    f6c8:	00478793          	addi	x15,x15,4
    f6cc:	01d51613          	slli	x12,x10,0x1d
    f6d0:	00b66633          	or	x12,x12,x11
    f6d4:	fec7ae23          	sw	x12,-4(x15)
    f6d8:	ff0794e3          	bne	x15,x16,f6c0 <__multf3+0xf10>
    f6dc:	0036d693          	srli	x13,x13,0x3
    f6e0:	01069693          	slli	x13,x13,0x10
    f6e4:	05012503          	lw	x10,80(x2)
    f6e8:	05412583          	lw	x11,84(x2)
    f6ec:	05812603          	lw	x12,88(x2)
    f6f0:	0106d693          	srli	x13,x13,0x10
    f6f4:	00000793          	addi	x15,x0,0
    f6f8:	a88ff06f          	jal	x0,e980 <__multf3+0x1d0>
    f6fc:	14089c63          	bne	x17,x0,f854 <__multf3+0x10a4>
    f700:	1a070863          	beq	x14,x0,f8b0 <__multf3+0x1100>
    f704:	00070513          	addi	x10,x14,0
    f708:	775010ef          	jal	x1,1167c <__clzsi2>
    f70c:	04050513          	addi	x10,x10,64 # 10040 <__subtf3+0x6dc>
    f710:	ff450793          	addi	x15,x10,-12
    f714:	01f7f813          	andi	x16,x15,31
    f718:	4057d613          	srai	x12,x15,0x5
    f71c:	20081c63          	bne	x16,x0,f934 <__multf3+0x1184>
    f720:	40c00733          	sub	x14,x0,x12
    f724:	00271713          	slli	x14,x14,0x2
    f728:	00c70793          	addi	x15,x14,12
    f72c:	03010693          	addi	x13,x2,48
    f730:	00f687b3          	add	x15,x13,x15
    f734:	40e00733          	sub	x14,x0,x14
    f738:	0007a883          	lw	x17,0(x15)
    f73c:	00e78833          	add	x16,x15,x14
    f740:	00078593          	addi	x11,x15,0
    f744:	01182023          	sw	x17,0(x16)
    f748:	ffc78793          	addi	x15,x15,-4
    f74c:	feb696e3          	bne	x13,x11,f738 <__multf3+0xf88>
    f750:	fff60793          	addi	x15,x12,-1
    f754:	cb4ff06f          	jal	x0,ec08 <__multf3+0x458>
    f758:	0e0b9663          	bne	x23,x0,f844 <__multf3+0x1094>
    f75c:	12098063          	beq	x19,x0,f87c <__multf3+0x10cc>
    f760:	00098513          	addi	x10,x19,0
    f764:	719010ef          	jal	x1,1167c <__clzsi2>
    f768:	04050513          	addi	x10,x10,64
    f76c:	ff450793          	addi	x15,x10,-12
    f770:	01f7f813          	andi	x16,x15,31
    f774:	4057d613          	srai	x12,x15,0x5
    f778:	1c081e63          	bne	x16,x0,f954 <__multf3+0x11a4>
    f77c:	40c00733          	sub	x14,x0,x12
    f780:	00271713          	slli	x14,x14,0x2
    f784:	00c70793          	addi	x15,x14,12
    f788:	04010693          	addi	x13,x2,64
    f78c:	00f687b3          	add	x15,x13,x15
    f790:	40e00733          	sub	x14,x0,x14
    f794:	0007a883          	lw	x17,0(x15)
    f798:	00e78833          	add	x16,x15,x14
    f79c:	00078593          	addi	x11,x15,0
    f7a0:	01182023          	sw	x17,0(x16)
    f7a4:	ffc78793          	addi	x15,x15,-4
    f7a8:	feb696e3          	bne	x13,x11,f794 <__multf3+0xfe4>
    f7ac:	fff60793          	addi	x15,x12,-1
    f7b0:	b6cff06f          	jal	x0,eb1c <__multf3+0x36c>
    f7b4:	09412c83          	lw	x25,148(x2)
    f7b8:	09012d03          	lw	x26,144(x2)
    f7bc:	cd1ff06f          	jal	x0,f48c <__multf3+0xcdc>
    f7c0:	00100793          	addi	x15,x0,1
    f7c4:	40c787b3          	sub	x15,x15,x12
    f7c8:	07400693          	addi	x13,x0,116
    f7cc:	aaf6ca63          	blt	x13,x15,ea80 <__multf3+0x2d0>
    f7d0:	01f7f513          	andi	x10,x15,31
    f7d4:	02000e13          	addi	x28,x0,32
    f7d8:	4057d613          	srai	x12,x15,0x5
    f7dc:	40ae0e33          	sub	x28,x28,x10
    f7e0:	16060263          	beq	x12,x0,f944 <__multf3+0x1194>
    f7e4:	05010593          	addi	x11,x2,80
    f7e8:	00261893          	slli	x17,x12,0x2
    f7ec:	00058693          	addi	x13,x11,0
    f7f0:	00b888b3          	add	x17,x17,x11
    f7f4:	00000793          	addi	x15,x0,0
    f7f8:	0006a803          	lw	x16,0(x13)
    f7fc:	00468693          	addi	x13,x13,4
    f800:	0107e7b3          	or	x15,x15,x16
    f804:	ff169ae3          	bne	x13,x17,f7f8 <__multf3+0x1048>
    f808:	00060893          	addi	x17,x12,0
    f80c:	00300693          	addi	x13,x0,3
    f810:	40c686b3          	sub	x13,x13,x12
    f814:	00058813          	addi	x16,x11,0
    f818:	00261313          	slli	x6,x12,0x2
    f81c:	0e051463          	bne	x10,x0,f904 <__multf3+0x1154>
    f820:	006808b3          	add	x17,x16,x6
    f824:	0008a883          	lw	x17,0(x17)
    f828:	00150513          	addi	x10,x10,1
    f82c:	00480813          	addi	x16,x16,4
    f830:	ff182e23          	sw	x17,-4(x16)
    f834:	fea6d6e3          	bge	x13,x10,f820 <__multf3+0x1070>
    f838:	00400693          	addi	x13,x0,4
    f83c:	40c686b3          	sub	x13,x13,x12
    f840:	dd1ff06f          	jal	x0,f610 <__multf3+0xe60>
    f844:	000b8513          	addi	x10,x23,0
    f848:	635010ef          	jal	x1,1167c <__clzsi2>
    f84c:	02050513          	addi	x10,x10,32
    f850:	f1dff06f          	jal	x0,f76c <__multf3+0xfbc>
    f854:	00088513          	addi	x10,x17,0
    f858:	625010ef          	jal	x1,1167c <__clzsi2>
    f85c:	02050513          	addi	x10,x10,32
    f860:	eb1ff06f          	jal	x0,f710 <__multf3+0xf60>
    f864:	00100793          	addi	x15,x0,1
    f868:	00000693          	addi	x13,x0,0
    f86c:	00000613          	addi	x12,x0,0
    f870:	00000593          	addi	x11,x0,0
    f874:	00000513          	addi	x10,x0,0
    f878:	908ff06f          	jal	x0,e980 <__multf3+0x1d0>
    f87c:	000a8513          	addi	x10,x21,0 # 10000 <__subtf3+0x69c>
    f880:	5fd010ef          	jal	x1,1167c <__clzsi2>
    f884:	05450793          	addi	x15,x10,84
    f888:	01f7f813          	andi	x16,x15,31
    f88c:	06050513          	addi	x10,x10,96
    f890:	4057d613          	srai	x12,x15,0x5
    f894:	ee0804e3          	beq	x16,x0,f77c <__multf3+0xfcc>
    f898:	00200793          	addi	x15,x0,2
    f89c:	010a9ab3          	sll	x21,x21,x16
    f8a0:	04f61263          	bne	x12,x15,f8e4 <__multf3+0x1134>
    f8a4:	02000313          	addi	x6,x0,32
    f8a8:	41030333          	sub	x6,x6,x16
    f8ac:	a18ff06f          	jal	x0,eac4 <__multf3+0x314>
    f8b0:	00048513          	addi	x10,x9,0
    f8b4:	5c9010ef          	jal	x1,1167c <__clzsi2>
    f8b8:	05450793          	addi	x15,x10,84
    f8bc:	01f7f813          	andi	x16,x15,31
    f8c0:	06050513          	addi	x10,x10,96
    f8c4:	4057d613          	srai	x12,x15,0x5
    f8c8:	e4080ce3          	beq	x16,x0,f720 <__multf3+0xf70>
    f8cc:	00200793          	addi	x15,x0,2
    f8d0:	010494b3          	sll	x9,x9,x16
    f8d4:	02f61063          	bne	x12,x15,f8f4 <__multf3+0x1144>
    f8d8:	02000313          	addi	x6,x0,32
    f8dc:	41030333          	sub	x6,x6,x16
    f8e0:	ad0ff06f          	jal	x0,ebb0 <__multf3+0x400>
    f8e4:	05512623          	sw	x21,76(x2)
    f8e8:	00200793          	addi	x15,x0,2
    f8ec:	04010693          	addi	x13,x2,64
    f8f0:	a34ff06f          	jal	x0,eb24 <__multf3+0x374>
    f8f4:	02912e23          	sw	x9,60(x2)
    f8f8:	00200793          	addi	x15,x0,2
    f8fc:	03010693          	addi	x13,x2,48
    f900:	b10ff06f          	jal	x0,ec10 <__multf3+0x460>
    f904:	00289813          	slli	x16,x17,0x2
    f908:	05080813          	addi	x16,x16,80
    f90c:	03010893          	addi	x17,x2,48
    f910:	01180833          	add	x16,x16,x17
    f914:	fd082803          	lw	x16,-48(x16)
    f918:	05c12303          	lw	x6,92(x2)
    f91c:	01c81833          	sll	x16,x16,x28
    f920:	0107e7b3          	or	x15,x15,x16
    f924:	00a35333          	srl	x6,x6,x10
    f928:	c8069ee3          	bne	x13,x0,f5c4 <__multf3+0xe14>
    f92c:	00100693          	addi	x13,x0,1
    f930:	cedff06f          	jal	x0,f61c <__multf3+0xe6c>
    f934:	02000313          	addi	x6,x0,32
    f938:	41030333          	sub	x6,x6,x16
    f93c:	010494b3          	sll	x9,x9,x16
    f940:	a70ff06f          	jal	x0,ebb0 <__multf3+0x400>
    f944:	00000893          	addi	x17,x0,0
    f948:	00000793          	addi	x15,x0,0
    f94c:	05010593          	addi	x11,x2,80
    f950:	ebdff06f          	jal	x0,f80c <__multf3+0x105c>
    f954:	02000313          	addi	x6,x0,32
    f958:	41030333          	sub	x6,x6,x16
    f95c:	010a9ab3          	sll	x21,x21,x16
    f960:	964ff06f          	jal	x0,eac4 <__multf3+0x314>

0000f964 <__subtf3>:
    f964:	fa010113          	addi	x2,x2,-96
    f968:	04912a23          	sw	x9,84(x2)
    f96c:	00c5a483          	lw	x9,12(x11)
    f970:	0045a703          	lw	x14,4(x11)
    f974:	0005a803          	lw	x16,0(x11)
    f978:	0085a783          	lw	x15,8(x11)
    f97c:	01049693          	slli	x13,x9,0x10
    f980:	00062303          	lw	x6,0(x12)
    f984:	00462f83          	lw	x31,4(x12)
    f988:	00862e03          	lw	x28,8(x12)
    f98c:	00c62583          	lw	x11,12(x12)
    f990:	04812c23          	sw	x8,88(x2)
    f994:	0106d693          	srli	x13,x13,0x10
    f998:	00149413          	slli	x8,x9,0x1
    f99c:	05212823          	sw	x18,80(x2)
    f9a0:	02e12a23          	sw	x14,52(x2)
    f9a4:	02912e23          	sw	x9,60(x2)
    f9a8:	00e12a23          	sw	x14,20(x2)
    f9ac:	04112e23          	sw	x1,92(x2)
    f9b0:	00050913          	addi	x18,x10,0
    f9b4:	03012823          	sw	x16,48(x2)
    f9b8:	02f12c23          	sw	x15,56(x2)
    f9bc:	01012823          	sw	x16,16(x2)
    f9c0:	00f12c23          	sw	x15,24(x2)
    f9c4:	00d12e23          	sw	x13,28(x2)
    f9c8:	01145413          	srli	x8,x8,0x11
    f9cc:	01f4d493          	srli	x9,x9,0x1f
    f9d0:	01010e93          	addi	x29,x2,16
    f9d4:	01c10713          	addi	x14,x2,28
    f9d8:	00369613          	slli	x12,x13,0x3
    f9dc:	ffc72683          	lw	x13,-4(x14)
    f9e0:	00070f13          	addi	x30,x14,0
    f9e4:	ffc70713          	addi	x14,x14,-4
    f9e8:	01d6d793          	srli	x15,x13,0x1d
    f9ec:	00c7e7b3          	or	x15,x15,x12
    f9f0:	00f72223          	sw	x15,4(x14)
    f9f4:	feee92e3          	bne	x29,x14,f9d8 <__subtf3+0x74>
    f9f8:	01059613          	slli	x12,x11,0x10
    f9fc:	00381893          	slli	x17,x16,0x3
    fa00:	01065613          	srli	x12,x12,0x10
    fa04:	00159813          	slli	x16,x11,0x1
    fa08:	03f12a23          	sw	x31,52(x2)
    fa0c:	02b12e23          	sw	x11,60(x2)
    fa10:	03f12223          	sw	x31,36(x2)
    fa14:	01112823          	sw	x17,16(x2)
    fa18:	02612823          	sw	x6,48(x2)
    fa1c:	03c12c23          	sw	x28,56(x2)
    fa20:	02612023          	sw	x6,32(x2)
    fa24:	03c12423          	sw	x28,40(x2)
    fa28:	02c12623          	sw	x12,44(x2)
    fa2c:	01185813          	srli	x16,x16,0x11
    fa30:	01f5d593          	srli	x11,x11,0x1f
    fa34:	02010f93          	addi	x31,x2,32
    fa38:	02c10793          	addi	x15,x2,44
    fa3c:	00361513          	slli	x10,x12,0x3
    fa40:	ffc7a603          	lw	x12,-4(x15)
    fa44:	ffc78793          	addi	x15,x15,-4
    fa48:	01d65693          	srli	x13,x12,0x1d
    fa4c:	00a6e6b3          	or	x13,x13,x10
    fa50:	00d7a223          	sw	x13,4(x15)
    fa54:	feff94e3          	bne	x31,x15,fa3c <__subtf3+0xd8>
    fa58:	00331313          	slli	x6,x6,0x3
    fa5c:	00008637          	lui	x12,0x8
    fa60:	02612023          	sw	x6,32(x2)
    fa64:	fff60613          	addi	x12,x12,-1 # 7fff <__gdtoa+0xa73>
    fa68:	1cc80e63          	beq	x16,x12,fc44 <__subtf3+0x2e0>
    fa6c:	0015c593          	xori	x11,x11,1
    fa70:	410406b3          	sub	x13,x8,x16
    fa74:	0cb48a63          	beq	x9,x11,fb48 <__subtf3+0x1e4>
    fa78:	00d04463          	blt	x0,x13,fa80 <__subtf3+0x11c>
    fa7c:	6580106f          	jal	x0,110d4 <__subtf3+0x1770>
    fa80:	01412503          	lw	x10,20(x2)
    fa84:	01812e83          	lw	x29,24(x2)
    fa88:	01c12e03          	lw	x28,28(x2)
    fa8c:	30080663          	beq	x16,x0,fd98 <__subtf3+0x434>
    fa90:	00c41463          	bne	x8,x12,fa98 <__subtf3+0x134>
    fa94:	0000106f          	jal	x0,10a94 <__subtf3+0x1130>
    fa98:	02c12583          	lw	x11,44(x2)
    fa9c:	00080637          	lui	x12,0x80
    faa0:	07400713          	addi	x14,x0,116
    faa4:	00c5e5b3          	or	x11,x11,x12
    faa8:	02b12623          	sw	x11,44(x2)
    faac:	32d75063          	bge	x14,x13,fdcc <__subtf3+0x468>
    fab0:	00000613          	addi	x12,x0,0
    fab4:	00000693          	addi	x13,x0,0
    fab8:	00000813          	addi	x16,x0,0
    fabc:	00100713          	addi	x14,x0,1
    fac0:	410507b3          	sub	x15,x10,x16
    fac4:	40e88733          	sub	x14,x17,x14
    fac8:	00f53333          	sltu	x6,x10,x15
    facc:	00e8b5b3          	sltu	x11,x17,x14
    fad0:	00030f13          	addi	x30,x6,0
    fad4:	40b787b3          	sub	x15,x15,x11
    fad8:	00e8f463          	bgeu	x17,x14,fae0 <__subtf3+0x17c>
    fadc:	00a808e3          	beq	x16,x10,102ec <__subtf3+0x988>
    fae0:	40de8533          	sub	x10,x29,x13
    fae4:	00aeb5b3          	sltu	x11,x29,x10
    fae8:	41e50533          	sub	x10,x10,x30
    faec:	000316e3          	bne	x6,x0,102f8 <__subtf3+0x994>
    faf0:	00b606b3          	add	x13,x12,x11
    faf4:	40de0e33          	sub	x28,x28,x13
    faf8:	02f12a23          	sw	x15,52(x2)
    fafc:	03c12e23          	sw	x28,60(x2)
    fb00:	02a12c23          	sw	x10,56(x2)
    fb04:	02e12823          	sw	x14,48(x2)
    fb08:	00ce1793          	slli	x15,x28,0xc
    fb0c:	5007d663          	bge	x15,x0,10018 <__subtf3+0x6b4>
    fb10:	00080537          	lui	x10,0x80
    fb14:	fff50513          	addi	x10,x10,-1 # 7ffff <__heap_start+0x6d21f>
    fb18:	00ae7533          	and	x10,x28,x10
    fb1c:	02a12e23          	sw	x10,60(x2)
    fb20:	1c0512e3          	bne	x10,x0,104e4 <__subtf3+0xb80>
    fb24:	03812503          	lw	x10,56(x2)
    fb28:	14050ce3          	beq	x10,x0,10480 <__subtf3+0xb1c>
    fb2c:	351010ef          	jal	x1,1167c <__clzsi2>
    fb30:	01450613          	addi	x12,x10,20
    fb34:	01f67893          	andi	x17,x12,31
    fb38:	48089ee3          	bne	x17,x0,107d4 <__subtf3+0xe70>
    fb3c:	00100593          	addi	x11,x0,1
    fb40:	02000613          	addi	x12,x0,32
    fb44:	1690006f          	jal	x0,104ac <__subtf3+0xb48>
    fb48:	00d04463          	blt	x0,x13,fb50 <__subtf3+0x1ec>
    fb4c:	5980106f          	jal	x0,110e4 <__subtf3+0x1780>
    fb50:	01412e83          	lw	x29,20(x2)
    fb54:	01812503          	lw	x10,24(x2)
    fb58:	01c12e03          	lw	x28,28(x2)
    fb5c:	44081063          	bne	x16,x0,ff9c <__subtf3+0x638>
    fb60:	02412703          	lw	x14,36(x2)
    fb64:	02812f03          	lw	x30,40(x2)
    fb68:	02c12583          	lw	x11,44(x2)
    fb6c:	01e76833          	or	x16,x14,x30
    fb70:	00b86833          	or	x16,x16,x11
    fb74:	00686833          	or	x16,x16,x6
    fb78:	6a080ce3          	beq	x16,x0,10a30 <__subtf3+0x10cc>
    fb7c:	fff68813          	addi	x16,x13,-1
    fb80:	640804e3          	beq	x16,x0,109c8 <__subtf3+0x1064>
    fb84:	6ac686e3          	beq	x13,x12,10a30 <__subtf3+0x10cc>
    fb88:	07400713          	addi	x14,x0,116
    fb8c:	43074663          	blt	x14,x16,ffb8 <__subtf3+0x654>
    fb90:	00080693          	addi	x13,x16,0
    fb94:	4056df13          	srai	x30,x13,0x5
    fb98:	01f6f693          	andi	x13,x13,31
    fb9c:	660f08e3          	beq	x30,x0,10a0c <__subtf3+0x10a8>
    fba0:	002f1313          	slli	x6,x30,0x2
    fba4:	00f302b3          	add	x5,x6,x15
    fba8:	00078713          	addi	x14,x15,0
    fbac:	00000613          	addi	x12,x0,0
    fbb0:	00072803          	lw	x16,0(x14)
    fbb4:	00470713          	addi	x14,x14,4
    fbb8:	01066633          	or	x12,x12,x16
    fbbc:	fee29ae3          	bne	x5,x14,fbb0 <__subtf3+0x24c>
    fbc0:	00300713          	addi	x14,x0,3
    fbc4:	41e70733          	sub	x14,x14,x30
    fbc8:	320686e3          	beq	x13,x0,106f4 <__subtf3+0xd90>
    fbcc:	04030813          	addi	x16,x6,64
    fbd0:	00280833          	add	x16,x16,x2
    fbd4:	fe082803          	lw	x16,-32(x16)
    fbd8:	02000393          	addi	x7,x0,32
    fbdc:	40d383b3          	sub	x7,x7,x13
    fbe0:	00781833          	sll	x16,x16,x7
    fbe4:	01066633          	or	x12,x12,x16
    fbe8:	00d5d5b3          	srl	x11,x11,x13
    fbec:	00071463          	bne	x14,x0,fbf4 <__subtf3+0x290>
    fbf0:	3e00106f          	jal	x0,10fd0 <__subtf3+0x166c>
    fbf4:	05312623          	sw	x19,76(x2)
    fbf8:	00271813          	slli	x16,x14,0x2
    fbfc:	006f8333          	add	x6,x31,x6
    fc00:	00f809b3          	add	x19,x16,x15
    fc04:	00032703          	lw	x14,0(x6)
    fc08:	00432283          	lw	x5,4(x6)
    fc0c:	00478793          	addi	x15,x15,4
    fc10:	00d75733          	srl	x14,x14,x13
    fc14:	007292b3          	sll	x5,x5,x7
    fc18:	00576733          	or	x14,x14,x5
    fc1c:	fee7ae23          	sw	x14,-4(x15)
    fc20:	00430313          	addi	x6,x6,4
    fc24:	ff3790e3          	bne	x15,x19,fc04 <__subtf3+0x2a0>
    fc28:	04080793          	addi	x15,x16,64
    fc2c:	00278733          	add	x14,x15,x2
    fc30:	00400793          	addi	x15,x0,4
    fc34:	04c12983          	lw	x19,76(x2)
    fc38:	41e787b3          	sub	x15,x15,x30
    fc3c:	feb72023          	sw	x11,-32(x14)
    fc40:	2d50006f          	jal	x0,10714 <__subtf3+0xdb0>
    fc44:	02412783          	lw	x15,36(x2)
    fc48:	02812f83          	lw	x31,40(x2)
    fc4c:	02c12e03          	lw	x28,44(x2)
    fc50:	410406b3          	sub	x13,x8,x16
    fc54:	01f7e633          	or	x12,x15,x31
    fc58:	01c66633          	or	x12,x12,x28
    fc5c:	00666633          	or	x12,x12,x6
    fc60:	20061c63          	bne	x12,x0,fe78 <__subtf3+0x514>
    fc64:	0015c593          	xori	x11,x11,1
    fc68:	00000e13          	addi	x28,x0,0
    fc6c:	00000f93          	addi	x31,x0,0
    fc70:	20b48863          	beq	x9,x11,fe80 <__subtf3+0x51c>
    fc74:	58068663          	beq	x13,x0,10200 <__subtf3+0x89c>
    fc78:	408803b3          	sub	x7,x16,x8
    fc7c:	70041463          	bne	x8,x0,10384 <__subtf3+0xa20>
    fc80:	01812483          	lw	x9,24(x2)
    fc84:	05312623          	sw	x19,76(x2)
    fc88:	01412983          	lw	x19,20(x2)
    fc8c:	01c12683          	lw	x13,28(x2)
    fc90:	0099e7b3          	or	x15,x19,x9
    fc94:	00d7e7b3          	or	x15,x15,x13
    fc98:	0117e7b3          	or	x15,x15,x17
    fc9c:	48078ee3          	beq	x15,x0,10938 <__subtf3+0xfd4>
    fca0:	fff38293          	addi	x5,x7,-1
    fca4:	740280e3          	beq	x5,x0,10be4 <__subtf3+0x1280>
    fca8:	000087b7          	lui	x15,0x8
    fcac:	fff78793          	addi	x15,x15,-1 # 7fff <__gdtoa+0xa73>
    fcb0:	00f39463          	bne	x7,x15,fcb8 <__subtf3+0x354>
    fcb4:	1940106f          	jal	x0,10e48 <__subtf3+0x14e4>
    fcb8:	07400793          	addi	x15,x0,116
    fcbc:	0057d463          	bge	x15,x5,fcc4 <__subtf3+0x360>
    fcc0:	1b00106f          	jal	x0,10e70 <__subtf3+0x150c>
    fcc4:	01f00793          	addi	x15,x0,31
    fcc8:	6257d4e3          	bge	x15,x5,10af0 <__subtf3+0x118c>
    fccc:	04c12983          	lw	x19,76(x2)
    fcd0:	4052d513          	srai	x10,x5,0x5
    fcd4:	00028393          	addi	x7,x5,0
    fcd8:	00070293          	addi	x5,x14,0
    fcdc:	00000793          	addi	x15,x0,0
    fce0:	00000893          	addi	x17,x0,0
    fce4:	0002a403          	lw	x8,0(x5)
    fce8:	00188893          	addi	x17,x17,1
    fcec:	00428293          	addi	x5,x5,4
    fcf0:	0087e7b3          	or	x15,x15,x8
    fcf4:	fea8c8e3          	blt	x17,x10,fce4 <__subtf3+0x380>
    fcf8:	00050413          	addi	x8,x10,0
    fcfc:	00300893          	addi	x17,x0,3
    fd00:	01f3f293          	andi	x5,x7,31
    fd04:	408888b3          	sub	x17,x17,x8
    fd08:	5e029ee3          	bne	x5,x0,10b04 <__subtf3+0x11a0>
    fd0c:	00241513          	slli	x10,x8,0x2
    fd10:	00a706b3          	add	x13,x14,x10
    fd14:	0006a683          	lw	x13,0(x13)
    fd18:	00128293          	addi	x5,x5,1
    fd1c:	00470713          	addi	x14,x14,4
    fd20:	fed72e23          	sw	x13,-4(x14)
    fd24:	fe58d6e3          	bge	x17,x5,fd10 <__subtf3+0x3ac>
    fd28:	00400713          	addi	x14,x0,4
    fd2c:	40870733          	sub	x14,x14,x8
    fd30:	00300693          	addi	x13,x0,3
    fd34:	01012283          	lw	x5,16(x2)
    fd38:	02e6ce63          	blt	x13,x14,fd74 <__subtf3+0x410>
    fd3c:	00400693          	addi	x13,x0,4
    fd40:	40e686b3          	sub	x13,x13,x14
    fd44:	00269693          	slli	x13,x13,0x2
    fd48:	00271713          	slli	x14,x14,0x2
    fd4c:	00800513          	addi	x10,x0,8
    fd50:	00ee8733          	add	x14,x29,x14
    fd54:	00a6ea63          	bltu	x13,x10,fd68 <__subtf3+0x404>
    fd58:	00072023          	sw	x0,0(x14)
    fd5c:	00072223          	sw	x0,4(x14)
    fd60:	ff868693          	addi	x13,x13,-8
    fd64:	00870713          	addi	x14,x14,8
    fd68:	00400513          	addi	x10,x0,4
    fd6c:	00a6e463          	bltu	x13,x10,fd74 <__subtf3+0x410>
    fd70:	00072023          	sw	x0,0(x14)
    fd74:	00f03733          	sltu	x14,x0,x15
    fd78:	01412883          	lw	x17,20(x2)
    fd7c:	01812683          	lw	x13,24(x2)
    fd80:	01c12783          	lw	x15,28(x2)
    fd84:	00576733          	or	x14,x14,x5
    fd88:	41160eb3          	sub	x29,x12,x17
    fd8c:	40df8533          	sub	x10,x31,x13
    fd90:	40fe0e33          	sub	x28,x28,x15
    fd94:	6280006f          	jal	x0,103bc <__subtf3+0xa58>
    fd98:	02412f03          	lw	x30,36(x2)
    fd9c:	02812803          	lw	x16,40(x2)
    fda0:	02c12583          	lw	x11,44(x2)
    fda4:	010f6733          	or	x14,x30,x16
    fda8:	00b76733          	or	x14,x14,x11
    fdac:	00676733          	or	x14,x14,x6
    fdb0:	54070c63          	beq	x14,x0,10308 <__subtf3+0x9a4>
    fdb4:	fff68713          	addi	x14,x13,-1
    fdb8:	48070ae3          	beq	x14,x0,10a4c <__subtf3+0x10e8>
    fdbc:	54c68663          	beq	x13,x12,10308 <__subtf3+0x9a4>
    fdc0:	07400693          	addi	x13,x0,116
    fdc4:	cee6c6e3          	blt	x13,x14,fab0 <__subtf3+0x14c>
    fdc8:	00070693          	addi	x13,x14,0
    fdcc:	4056d293          	srai	x5,x13,0x5
    fdd0:	01f6f693          	andi	x13,x13,31
    fdd4:	76028ee3          	beq	x5,x0,10d50 <__subtf3+0x13ec>
    fdd8:	00229313          	slli	x6,x5,0x2
    fddc:	00f30f33          	add	x30,x6,x15
    fde0:	00078713          	addi	x14,x15,0
    fde4:	00000613          	addi	x12,x0,0
    fde8:	00072803          	lw	x16,0(x14)
    fdec:	00470713          	addi	x14,x14,4
    fdf0:	01066633          	or	x12,x12,x16
    fdf4:	feef1ae3          	bne	x30,x14,fde8 <__subtf3+0x484>
    fdf8:	00300713          	addi	x14,x0,3
    fdfc:	40570733          	sub	x14,x14,x5
    fe00:	46068863          	beq	x13,x0,10270 <__subtf3+0x90c>
    fe04:	04030813          	addi	x16,x6,64
    fe08:	00280833          	add	x16,x16,x2
    fe0c:	fe082803          	lw	x16,-32(x16)
    fe10:	02000393          	addi	x7,x0,32
    fe14:	40d383b3          	sub	x7,x7,x13
    fe18:	00781833          	sll	x16,x16,x7
    fe1c:	01066633          	or	x12,x12,x16
    fe20:	00d5d5b3          	srl	x11,x11,x13
    fe24:	720702e3          	beq	x14,x0,10d48 <__subtf3+0x13e4>
    fe28:	05312623          	sw	x19,76(x2)
    fe2c:	00271813          	slli	x16,x14,0x2
    fe30:	006f8333          	add	x6,x31,x6
    fe34:	00f809b3          	add	x19,x16,x15
    fe38:	00032703          	lw	x14,0(x6)
    fe3c:	00432f03          	lw	x30,4(x6)
    fe40:	00478793          	addi	x15,x15,4
    fe44:	00d75733          	srl	x14,x14,x13
    fe48:	007f1f33          	sll	x30,x30,x7
    fe4c:	01e76733          	or	x14,x14,x30
    fe50:	fee7ae23          	sw	x14,-4(x15)
    fe54:	00430313          	addi	x6,x6,4
    fe58:	fef990e3          	bne	x19,x15,fe38 <__subtf3+0x4d4>
    fe5c:	04080793          	addi	x15,x16,64
    fe60:	00278733          	add	x14,x15,x2
    fe64:	00400793          	addi	x15,x0,4
    fe68:	04c12983          	lw	x19,76(x2)
    fe6c:	405787b3          	sub	x15,x15,x5
    fe70:	feb72023          	sw	x11,-32(x14)
    fe74:	41c0006f          	jal	x0,10290 <__subtf3+0x92c>
    fe78:	00078613          	addi	x12,x15,0
    fe7c:	deb49ce3          	bne	x9,x11,fc74 <__subtf3+0x310>
    fe80:	4a068263          	beq	x13,x0,10324 <__subtf3+0x9c0>
    fe84:	40880533          	sub	x10,x16,x8
    fe88:	0e0414e3          	bne	x8,x0,10770 <__subtf3+0xe0c>
    fe8c:	01412783          	lw	x15,20(x2)
    fe90:	01812283          	lw	x5,24(x2)
    fe94:	01c12683          	lw	x13,28(x2)
    fe98:	0057e5b3          	or	x11,x15,x5
    fe9c:	00d5e5b3          	or	x11,x11,x13
    fea0:	0115e5b3          	or	x11,x11,x17
    fea4:	6c0588e3          	beq	x11,x0,10d74 <__subtf3+0x1410>
    fea8:	fff50593          	addi	x11,x10,-1
    feac:	00059463          	bne	x11,x0,feb4 <__subtf3+0x550>
    feb0:	09c0106f          	jal	x0,10f4c <__subtf3+0x15e8>
    feb4:	000087b7          	lui	x15,0x8
    feb8:	fff78793          	addi	x15,x15,-1 # 7fff <__gdtoa+0xa73>
    febc:	00f51463          	bne	x10,x15,fec4 <__subtf3+0x560>
    fec0:	1740106f          	jal	x0,11034 <__subtf3+0x16d0>
    fec4:	07400793          	addi	x15,x0,116
    fec8:	0cb7c6e3          	blt	x15,x11,10794 <__subtf3+0xe30>
    fecc:	01f00793          	addi	x15,x0,31
    fed0:	7ab7d4e3          	bge	x15,x11,10e78 <__subtf3+0x1514>
    fed4:	4055d413          	srai	x8,x11,0x5
    fed8:	00058513          	addi	x10,x11,0
    fedc:	00070893          	addi	x17,x14,0
    fee0:	00000793          	addi	x15,x0,0
    fee4:	00000593          	addi	x11,x0,0
    fee8:	0008a283          	lw	x5,0(x17)
    feec:	00158593          	addi	x11,x11,1
    fef0:	00488893          	addi	x17,x17,4
    fef4:	0057e7b3          	or	x15,x15,x5
    fef8:	fe85c8e3          	blt	x11,x8,fee8 <__subtf3+0x584>
    fefc:	00040893          	addi	x17,x8,0
    ff00:	00300393          	addi	x7,x0,3
    ff04:	01f57593          	andi	x11,x10,31
    ff08:	411383b3          	sub	x7,x7,x17
    ff0c:	76059ee3          	bne	x11,x0,10e88 <__subtf3+0x1524>
    ff10:	00289513          	slli	x10,x17,0x2
    ff14:	00a706b3          	add	x13,x14,x10
    ff18:	0006a683          	lw	x13,0(x13)
    ff1c:	00158593          	addi	x11,x11,1
    ff20:	00470713          	addi	x14,x14,4
    ff24:	fed72e23          	sw	x13,-4(x14)
    ff28:	feb3d6e3          	bge	x7,x11,ff14 <__subtf3+0x5b0>
    ff2c:	00400713          	addi	x14,x0,4
    ff30:	411708b3          	sub	x17,x14,x17
    ff34:	00300713          	addi	x14,x0,3
    ff38:	01012583          	lw	x11,16(x2)
    ff3c:	03174e63          	blt	x14,x17,ff78 <__subtf3+0x614>
    ff40:	00400693          	addi	x13,x0,4
    ff44:	411686b3          	sub	x13,x13,x17
    ff48:	00269693          	slli	x13,x13,0x2
    ff4c:	00289893          	slli	x17,x17,0x2
    ff50:	00800513          	addi	x10,x0,8
    ff54:	011e8733          	add	x14,x29,x17
    ff58:	00a6ea63          	bltu	x13,x10,ff6c <__subtf3+0x608>
    ff5c:	00072023          	sw	x0,0(x14)
    ff60:	00072223          	sw	x0,4(x14)
    ff64:	ff868693          	addi	x13,x13,-8
    ff68:	00870713          	addi	x14,x14,8
    ff6c:	00400513          	addi	x10,x0,4
    ff70:	00a6e463          	bltu	x13,x10,ff78 <__subtf3+0x614>
    ff74:	00072023          	sw	x0,0(x14)
    ff78:	00f03733          	sltu	x14,x0,x15
    ff7c:	01c12683          	lw	x13,28(x2)
    ff80:	01412783          	lw	x15,20(x2)
    ff84:	00b76733          	or	x14,x14,x11
    ff88:	01812583          	lw	x11,24(x2)
    ff8c:	00f607b3          	add	x15,x12,x15
    ff90:	00de0e33          	add	x28,x28,x13
    ff94:	00bf85b3          	add	x11,x31,x11
    ff98:	0090006f          	jal	x0,107a0 <__subtf3+0xe3c>
    ff9c:	32c40ee3          	beq	x8,x12,10ad8 <__subtf3+0x1174>
    ffa0:	02c12583          	lw	x11,44(x2)
    ffa4:	00080637          	lui	x12,0x80
    ffa8:	07400713          	addi	x14,x0,116
    ffac:	00c5e5b3          	or	x11,x11,x12
    ffb0:	02b12623          	sw	x11,44(x2)
    ffb4:	bed750e3          	bge	x14,x13,fb94 <__subtf3+0x230>
    ffb8:	00000813          	addi	x16,x0,0
    ffbc:	00000693          	addi	x13,x0,0
    ffc0:	00000793          	addi	x15,x0,0
    ffc4:	00100713          	addi	x14,x0,1
    ffc8:	00e88733          	add	x14,x17,x14
    ffcc:	01d785b3          	add	x11,x15,x29
    ffd0:	011738b3          	sltu	x17,x14,x17
    ffd4:	011588b3          	add	x17,x11,x17
    ffd8:	00f5b7b3          	sltu	x15,x11,x15
    ffdc:	00b8b5b3          	sltu	x11,x17,x11
    ffe0:	00a68633          	add	x12,x13,x10
    ffe4:	00b7e7b3          	or	x15,x15,x11
    ffe8:	00f607b3          	add	x15,x12,x15
    ffec:	00d636b3          	sltu	x13,x12,x13
    fff0:	00c7b633          	sltu	x12,x15,x12
    fff4:	00c6e6b3          	or	x13,x13,x12
    fff8:	01c80633          	add	x12,x16,x28
    fffc:	00c68e33          	add	x28,x13,x12
   10000:	02f12c23          	sw	x15,56(x2)
   10004:	02e12823          	sw	x14,48(x2)
   10008:	03112a23          	sw	x17,52(x2)
   1000c:	00ce1793          	slli	x15,x28,0xc
   10010:	1007ca63          	blt	x15,x0,10124 <__subtf3+0x7c0>
   10014:	03c12e23          	sw	x28,60(x2)
   10018:	00777693          	andi	x13,x14,7
   1001c:	03010793          	addi	x15,x2,48
   10020:	24068263          	beq	x13,x0,10264 <__subtf3+0x900>
   10024:	00f77693          	andi	x13,x14,15
   10028:	00400613          	addi	x12,x0,4
   1002c:	02c68c63          	beq	x13,x12,10064 <__subtf3+0x700>
   10030:	03412683          	lw	x13,52(x2)
   10034:	00470713          	addi	x14,x14,4
   10038:	03812583          	lw	x11,56(x2)
   1003c:	00473613          	sltiu	x12,x14,4
   10040:	00c68633          	add	x12,x13,x12
   10044:	00d636b3          	sltu	x13,x12,x13
   10048:	00d586b3          	add	x13,x11,x13
   1004c:	00b6b5b3          	sltu	x11,x13,x11
   10050:	00be0e33          	add	x28,x28,x11
   10054:	02e12823          	sw	x14,48(x2)
   10058:	02c12a23          	sw	x12,52(x2)
   1005c:	02d12c23          	sw	x13,56(x2)
   10060:	03c12e23          	sw	x28,60(x2)
   10064:	00080737          	lui	x14,0x80
   10068:	00ee7733          	and	x14,x28,x14
   1006c:	12070c63          	beq	x14,x0,101a4 <__subtf3+0x840>
   10070:	00008737          	lui	x14,0x8
   10074:	00140413          	addi	x8,x8,1
   10078:	fff70713          	addi	x14,x14,-1 # 7fff <__gdtoa+0xa73>
   1007c:	14e40a63          	beq	x8,x14,101d0 <__subtf3+0x86c>
   10080:	fff80637          	lui	x12,0xfff80
   10084:	fff60613          	addi	x12,x12,-1 # fff7ffff <__heap_end+0xffb7ffff>
   10088:	00ce7633          	and	x12,x28,x12
   1008c:	02c12e23          	sw	x12,60(x2)
   10090:	00365613          	srli	x12,x12,0x3
   10094:	03012683          	lw	x13,48(x2)
   10098:	03c10513          	addi	x10,x2,60
   1009c:	0036d593          	srli	x11,x13,0x3
   100a0:	0047a683          	lw	x13,4(x15)
   100a4:	00478793          	addi	x15,x15,4
   100a8:	01d69713          	slli	x14,x13,0x1d
   100ac:	00b76733          	or	x14,x14,x11
   100b0:	fee7ae23          	sw	x14,-4(x15)
   100b4:	fea794e3          	bne	x15,x10,1009c <__subtf3+0x738>
   100b8:	000087b7          	lui	x15,0x8
   100bc:	fff78793          	addi	x15,x15,-1 # 7fff <__gdtoa+0xa73>
   100c0:	03012703          	lw	x14,48(x2)
   100c4:	03412583          	lw	x11,52(x2)
   100c8:	03812683          	lw	x13,56(x2)
   100cc:	0ef40063          	beq	x8,x15,101ac <__subtf3+0x848>
   100d0:	01061793          	slli	x15,x12,0x10
   100d4:	0107d793          	srli	x15,x15,0x10
   100d8:	0014f493          	andi	x9,x9,1
   100dc:	01141413          	slli	x8,x8,0x11
   100e0:	01145413          	srli	x8,x8,0x11
   100e4:	00f49493          	slli	x9,x9,0xf
   100e8:	0084e4b3          	or	x9,x9,x8
   100ec:	00911723          	sh	x9,14(x2)
   100f0:	00f11623          	sh	x15,12(x2)
   100f4:	00c12783          	lw	x15,12(x2)
   100f8:	05c12083          	lw	x1,92(x2)
   100fc:	05812403          	lw	x8,88(x2)
   10100:	00e92023          	sw	x14,0(x18)
   10104:	00b92223          	sw	x11,4(x18)
   10108:	00d92423          	sw	x13,8(x18)
   1010c:	00f92623          	sw	x15,12(x18)
   10110:	05412483          	lw	x9,84(x2)
   10114:	00090513          	addi	x10,x18,0
   10118:	05012903          	lw	x18,80(x2)
   1011c:	06010113          	addi	x2,x2,96
   10120:	00008067          	jalr	x0,0(x1)
   10124:	fff807b7          	lui	x15,0xfff80
   10128:	fff78793          	addi	x15,x15,-1 # fff7ffff <__heap_end+0xffb7ffff>
   1012c:	00fe75b3          	and	x11,x28,x15
   10130:	03010793          	addi	x15,x2,48
   10134:	02b12e23          	sw	x11,60(x2)
   10138:	00140413          	addi	x8,x8,1
   1013c:	01f71813          	slli	x16,x14,0x1f
   10140:	00078693          	addi	x13,x15,0
   10144:	03c10893          	addi	x17,x2,60
   10148:	00175513          	srli	x10,x14,0x1
   1014c:	0046a703          	lw	x14,4(x13)
   10150:	00468693          	addi	x13,x13,4
   10154:	01f71613          	slli	x12,x14,0x1f
   10158:	00a66633          	or	x12,x12,x10
   1015c:	fec6ae23          	sw	x12,-4(x13)
   10160:	ff1694e3          	bne	x13,x17,10148 <__subtf3+0x7e4>
   10164:	03012703          	lw	x14,48(x2)
   10168:	010036b3          	sltu	x13,x0,x16
   1016c:	0015de13          	srli	x28,x11,0x1
   10170:	00e6e733          	or	x14,x13,x14
   10174:	000086b7          	lui	x13,0x8
   10178:	03c12e23          	sw	x28,60(x2)
   1017c:	02e12823          	sw	x14,48(x2)
   10180:	fff68693          	addi	x13,x13,-1 # 7fff <__gdtoa+0xa73>
   10184:	56d41263          	bne	x8,x13,106e8 <__subtf3+0xd84>
   10188:	00008437          	lui	x8,0x8
   1018c:	02012e23          	sw	x0,60(x2)
   10190:	02012c23          	sw	x0,56(x2)
   10194:	02012a23          	sw	x0,52(x2)
   10198:	02012823          	sw	x0,48(x2)
   1019c:	fff40413          	addi	x8,x8,-1 # 7fff <__gdtoa+0xa73>
   101a0:	00000e13          	addi	x28,x0,0
   101a4:	003e5613          	srli	x12,x28,0x3
   101a8:	eedff06f          	jal	x0,10094 <__subtf3+0x730>
   101ac:	00b76733          	or	x14,x14,x11
   101b0:	00d76733          	or	x14,x14,x13
   101b4:	00c76733          	or	x14,x14,x12
   101b8:	02071863          	bne	x14,x0,101e8 <__subtf3+0x884>
   101bc:	0014f493          	andi	x9,x9,1
   101c0:	00000693          	addi	x13,x0,0
   101c4:	00000593          	addi	x11,x0,0
   101c8:	00000793          	addi	x15,x0,0
   101cc:	f11ff06f          	jal	x0,100dc <__subtf3+0x778>
   101d0:	02012e23          	sw	x0,60(x2)
   101d4:	02012c23          	sw	x0,56(x2)
   101d8:	02012a23          	sw	x0,52(x2)
   101dc:	02012823          	sw	x0,48(x2)
   101e0:	00000613          	addi	x12,x0,0
   101e4:	eb1ff06f          	jal	x0,10094 <__subtf3+0x730>
   101e8:	00000493          	addi	x9,x0,0
   101ec:	000087b7          	lui	x15,0x8
   101f0:	00000693          	addi	x13,x0,0
   101f4:	00000593          	addi	x11,x0,0
   101f8:	00000713          	addi	x14,x0,0
   101fc:	ee1ff06f          	jal	x0,100dc <__subtf3+0x778>
   10200:	00140793          	addi	x15,x8,1
   10204:	01179713          	slli	x14,x15,0x11
   10208:	01275713          	srli	x14,x14,0x12
   1020c:	01412e83          	lw	x29,20(x2)
   10210:	01812f03          	lw	x30,24(x2)
   10214:	01c12683          	lw	x13,28(x2)
   10218:	00008537          	lui	x10,0x8
   1021c:	1c071a63          	bne	x14,x0,103f0 <__subtf3+0xa8c>
   10220:	01f66733          	or	x14,x12,x31
   10224:	01eee7b3          	or	x15,x29,x30
   10228:	00676733          	or	x14,x14,x6
   1022c:	00d7e7b3          	or	x15,x15,x13
   10230:	01c76733          	or	x14,x14,x28
   10234:	0117e7b3          	or	x15,x15,x17
   10238:	68041e63          	bne	x8,x0,108d4 <__subtf3+0xf70>
   1023c:	16078ee3          	beq	x15,x0,10bb8 <__subtf3+0x1254>
   10240:	1e0718e3          	bne	x14,x0,10c30 <__subtf3+0x12cc>
   10244:	03112823          	sw	x17,48(x2)
   10248:	03d12a23          	sw	x29,52(x2)
   1024c:	03e12c23          	sw	x30,56(x2)
   10250:	02d12e23          	sw	x13,60(x2)
   10254:	00068e13          	addi	x28,x13,0
   10258:	03010793          	addi	x15,x2,48
   1025c:	e09ff06f          	jal	x0,10064 <__subtf3+0x700>
   10260:	03c12e23          	sw	x28,60(x2)
   10264:	003e5613          	srli	x12,x28,0x3
   10268:	03010793          	addi	x15,x2,48
   1026c:	e29ff06f          	jal	x0,10094 <__subtf3+0x730>
   10270:	006785b3          	add	x11,x15,x6
   10274:	0005a583          	lw	x11,0(x11)
   10278:	00168693          	addi	x13,x13,1
   1027c:	00478793          	addi	x15,x15,4 # 8004 <__gdtoa+0xa78>
   10280:	feb7ae23          	sw	x11,-4(x15)
   10284:	fed756e3          	bge	x14,x13,10270 <__subtf3+0x90c>
   10288:	00400793          	addi	x15,x0,4
   1028c:	405787b3          	sub	x15,x15,x5
   10290:	00400713          	addi	x14,x0,4
   10294:	02012583          	lw	x11,32(x2)
   10298:	02e78e63          	beq	x15,x14,102d4 <__subtf3+0x970>
   1029c:	00400713          	addi	x14,x0,4
   102a0:	40f70733          	sub	x14,x14,x15
   102a4:	00271713          	slli	x14,x14,0x2
   102a8:	00279793          	slli	x15,x15,0x2
   102ac:	00800693          	addi	x13,x0,8
   102b0:	00ff87b3          	add	x15,x31,x15
   102b4:	00d76a63          	bltu	x14,x13,102c8 <__subtf3+0x964>
   102b8:	0007a023          	sw	x0,0(x15)
   102bc:	0007a223          	sw	x0,4(x15)
   102c0:	ff870713          	addi	x14,x14,-8
   102c4:	00878793          	addi	x15,x15,8
   102c8:	00400693          	addi	x13,x0,4
   102cc:	00d76463          	bltu	x14,x13,102d4 <__subtf3+0x970>
   102d0:	0007a023          	sw	x0,0(x15)
   102d4:	00c03733          	sltu	x14,x0,x12
   102d8:	02412803          	lw	x16,36(x2)
   102dc:	02812683          	lw	x13,40(x2)
   102e0:	02c12603          	lw	x12,44(x2)
   102e4:	00b76733          	or	x14,x14,x11
   102e8:	fd8ff06f          	jal	x0,fac0 <__subtf3+0x15c>
   102ec:	fffe8513          	addi	x10,x29,-1
   102f0:	00deb5b3          	sltu	x11,x29,x13
   102f4:	40d50533          	sub	x10,x10,x13
   102f8:	41d686b3          	sub	x13,x13,x29
   102fc:	0016b693          	sltiu	x13,x13,1
   10300:	00d5e5b3          	or	x11,x11,x13
   10304:	fecff06f          	jal	x0,faf0 <__subtf3+0x18c>
   10308:	03112823          	sw	x17,48(x2)
   1030c:	02a12a23          	sw	x10,52(x2)
   10310:	03d12c23          	sw	x29,56(x2)
   10314:	03c12e23          	sw	x28,60(x2)
   10318:	00068413          	addi	x8,x13,0
   1031c:	03010793          	addi	x15,x2,48
   10320:	d45ff06f          	jal	x0,10064 <__subtf3+0x700>
   10324:	00140513          	addi	x10,x8,1
   10328:	01151693          	slli	x13,x10,0x11
   1032c:	0126d693          	srli	x13,x13,0x12
   10330:	01412783          	lw	x15,20(x2)
   10334:	01812703          	lw	x14,24(x2)
   10338:	01c12583          	lw	x11,28(x2)
   1033c:	00008837          	lui	x16,0x8
   10340:	50069263          	bne	x13,x0,10844 <__subtf3+0xee0>
   10344:	00e7e6b3          	or	x13,x15,x14
   10348:	00b6e6b3          	or	x13,x13,x11
   1034c:	0116e6b3          	or	x13,x13,x17
   10350:	040414e3          	bne	x8,x0,10b98 <__subtf3+0x1234>
   10354:	260688e3          	beq	x13,x0,10dc4 <__subtf3+0x1460>
   10358:	01f666b3          	or	x13,x12,x31
   1035c:	0066e6b3          	or	x13,x13,x6
   10360:	01c6e6b3          	or	x13,x13,x28
   10364:	26069ce3          	bne	x13,x0,10ddc <__subtf3+0x1478>
   10368:	02f12a23          	sw	x15,52(x2)
   1036c:	03112823          	sw	x17,48(x2)
   10370:	02e12c23          	sw	x14,56(x2)
   10374:	02b12e23          	sw	x11,60(x2)
   10378:	00058e13          	addi	x28,x11,0
   1037c:	03010793          	addi	x15,x2,48
   10380:	ce5ff06f          	jal	x0,10064 <__subtf3+0x700>
   10384:	000087b7          	lui	x15,0x8
   10388:	fff78793          	addi	x15,x15,-1 # 7fff <__gdtoa+0xa73>
   1038c:	2cf800e3          	beq	x16,x15,10e4c <__subtf3+0x14e8>
   10390:	01c12683          	lw	x13,28(x2)
   10394:	00080537          	lui	x10,0x80
   10398:	07400793          	addi	x15,x0,116
   1039c:	00a6e6b3          	or	x13,x13,x10
   103a0:	00d12e23          	sw	x13,28(x2)
   103a4:	4677dc63          	bge	x15,x7,1081c <__subtf3+0xeb8>
   103a8:	000f8513          	addi	x10,x31,0
   103ac:	00060e93          	addi	x29,x12,0
   103b0:	00000693          	addi	x13,x0,0
   103b4:	00000893          	addi	x17,x0,0
   103b8:	00100713          	addi	x14,x0,1
   103bc:	40e30733          	sub	x14,x6,x14
   103c0:	00e337b3          	sltu	x15,x6,x14
   103c4:	01d63f33          	sltu	x30,x12,x29
   103c8:	40fe87b3          	sub	x15,x29,x15
   103cc:	00e37463          	bgeu	x6,x14,103d4 <__subtf3+0xa70>
   103d0:	6d160e63          	beq	x12,x17,10aac <__subtf3+0x1148>
   103d4:	00afb8b3          	sltu	x17,x31,x10
   103d8:	41e50533          	sub	x10,x10,x30
   103dc:	6dd66c63          	bltu	x12,x29,10ab4 <__subtf3+0x1150>
   103e0:	411e0e33          	sub	x28,x28,x17
   103e4:	00080413          	addi	x8,x16,0 # 8000 <__gdtoa+0xa74>
   103e8:	00058493          	addi	x9,x11,0
   103ec:	f0cff06f          	jal	x0,faf8 <__subtf3+0x194>
   103f0:	40ce8733          	sub	x14,x29,x12
   103f4:	406887b3          	sub	x15,x17,x6
   103f8:	00eeb3b3          	sltu	x7,x29,x14
   103fc:	05312623          	sw	x19,76(x2)
   10400:	00f8b533          	sltu	x10,x17,x15
   10404:	00038993          	addi	x19,x7,0
   10408:	40a70733          	sub	x14,x14,x10
   1040c:	41ff0833          	sub	x16,x30,x31
   10410:	01ff32b3          	sltu	x5,x30,x31
   10414:	06f8f063          	bgeu	x17,x15,10474 <__subtf3+0xb10>
   10418:	05d61e63          	bne	x12,x29,10474 <__subtf3+0xb10>
   1041c:	fff80813          	addi	x16,x16,-1
   10420:	41ef8533          	sub	x10,x31,x30
   10424:	00153513          	sltiu	x10,x10,1
   10428:	00a2e2b3          	or	x5,x5,x10
   1042c:	41c68533          	sub	x10,x13,x28
   10430:	40550533          	sub	x10,x10,x5
   10434:	02a12e23          	sw	x10,60(x2)
   10438:	03012c23          	sw	x16,56(x2)
   1043c:	02e12a23          	sw	x14,52(x2)
   10440:	02f12823          	sw	x15,48(x2)
   10444:	00c51293          	slli	x5,x10,0xc
   10448:	5002ca63          	blt	x5,x0,1095c <__subtf3+0xff8>
   1044c:	00e7e7b3          	or	x15,x15,x14
   10450:	0107e7b3          	or	x15,x15,x16
   10454:	00a7e7b3          	or	x15,x15,x10
   10458:	54079863          	bne	x15,x0,109a8 <__subtf3+0x1044>
   1045c:	04c12983          	lw	x19,76(x2)
   10460:	00000413          	addi	x8,x0,0
   10464:	00000493          	addi	x9,x0,0
   10468:	03010793          	addi	x15,x2,48
   1046c:	00000e13          	addi	x28,x0,0
   10470:	d35ff06f          	jal	x0,101a4 <__subtf3+0x840>
   10474:	41380833          	sub	x16,x16,x19
   10478:	fa038ae3          	beq	x7,x0,1042c <__subtf3+0xac8>
   1047c:	fa5ff06f          	jal	x0,10420 <__subtf3+0xabc>
   10480:	03412503          	lw	x10,52(x2)
   10484:	36051663          	bne	x10,x0,107f0 <__subtf3+0xe8c>
   10488:	05312623          	sw	x19,76(x2)
   1048c:	03012983          	lw	x19,48(x2)
   10490:	00098513          	addi	x10,x19,0
   10494:	1e8010ef          	jal	x1,1167c <__clzsi2>
   10498:	05450613          	addi	x12,x10,84 # 80054 <__heap_start+0x6d274>
   1049c:	01f67893          	andi	x17,x12,31
   104a0:	060890e3          	bne	x17,x0,10d00 <__subtf3+0x139c>
   104a4:	04c12983          	lw	x19,76(x2)
   104a8:	40565593          	srai	x11,x12,0x5
   104ac:	40b006b3          	sub	x13,x0,x11
   104b0:	00269693          	slli	x13,x13,0x2
   104b4:	00c68713          	addi	x14,x13,12
   104b8:	03010793          	addi	x15,x2,48
   104bc:	00e78733          	add	x14,x15,x14
   104c0:	40d006b3          	sub	x13,x0,x13
   104c4:	00072883          	lw	x17,0(x14)
   104c8:	00d70833          	add	x16,x14,x13
   104cc:	00070513          	addi	x10,x14,0
   104d0:	01182023          	sw	x17,0(x16)
   104d4:	ffc70713          	addi	x14,x14,-4
   104d8:	fef516e3          	bne	x10,x15,104c4 <__subtf3+0xb60>
   104dc:	fff58713          	addi	x14,x11,-1
   104e0:	07c0006f          	jal	x0,1055c <__subtf3+0xbf8>
   104e4:	05312623          	sw	x19,76(x2)
   104e8:	194010ef          	jal	x1,1167c <__clzsi2>
   104ec:	ff450613          	addi	x12,x10,-12
   104f0:	00060893          	addi	x17,x12,0
   104f4:	03012983          	lw	x19,48(x2)
   104f8:	02000e13          	addi	x28,x0,32
   104fc:	40ce0e33          	sub	x28,x28,x12
   10500:	00000593          	addi	x11,x0,0
   10504:	011999b3          	sll	x19,x19,x17
   10508:	40b00833          	sub	x16,x0,x11
   1050c:	00281813          	slli	x16,x16,0x2
   10510:	00c80713          	addi	x14,x16,12
   10514:	03010793          	addi	x15,x2,48
   10518:	00e78733          	add	x14,x15,x14
   1051c:	41000833          	sub	x16,x0,x16
   10520:	00072683          	lw	x13,0(x14)
   10524:	ffc72503          	lw	x10,-4(x14)
   10528:	01070333          	add	x6,x14,x16
   1052c:	011696b3          	sll	x13,x13,x17
   10530:	01c55533          	srl	x10,x10,x28
   10534:	00a6e6b3          	or	x13,x13,x10
   10538:	00d32023          	sw	x13,0(x6)
   1053c:	ffc70713          	addi	x14,x14,-4
   10540:	fee790e3          	bne	x15,x14,10520 <__subtf3+0xbbc>
   10544:	00259693          	slli	x13,x11,0x2
   10548:	04068713          	addi	x14,x13,64
   1054c:	002706b3          	add	x13,x14,x2
   10550:	ff36a823          	sw	x19,-16(x13)
   10554:	04c12983          	lw	x19,76(x2)
   10558:	fff58713          	addi	x14,x11,-1
   1055c:	fff00693          	addi	x13,x0,-1
   10560:	02d70a63          	beq	x14,x13,10594 <__subtf3+0xc30>
   10564:	00170713          	addi	x14,x14,1
   10568:	00271713          	slli	x14,x14,0x2
   1056c:	00800593          	addi	x11,x0,8
   10570:	00078693          	addi	x13,x15,0
   10574:	00b76a63          	bltu	x14,x11,10588 <__subtf3+0xc24>
   10578:	02012823          	sw	x0,48(x2)
   1057c:	0007a223          	sw	x0,4(x15)
   10580:	03810693          	addi	x13,x2,56
   10584:	ff870713          	addi	x14,x14,-8
   10588:	00400593          	addi	x11,x0,4
   1058c:	00b76463          	bltu	x14,x11,10594 <__subtf3+0xc30>
   10590:	0006a023          	sw	x0,0(x13)
   10594:	12864c63          	blt	x12,x8,106cc <__subtf3+0xd68>
   10598:	408606b3          	sub	x13,x12,x8
   1059c:	00168693          	addi	x13,x13,1
   105a0:	4056d313          	srai	x6,x13,0x5
   105a4:	01f6f693          	andi	x13,x13,31
   105a8:	72030a63          	beq	x6,x0,10cdc <__subtf3+0x1378>
   105ac:	00231593          	slli	x11,x6,0x2
   105b0:	00078613          	addi	x12,x15,0
   105b4:	00f58833          	add	x16,x11,x15
   105b8:	00000713          	addi	x14,x0,0
   105bc:	00062503          	lw	x10,0(x12)
   105c0:	00460613          	addi	x12,x12,4
   105c4:	00a76733          	or	x14,x14,x10
   105c8:	fec81ae3          	bne	x16,x12,105bc <__subtf3+0xc58>
   105cc:	00300513          	addi	x10,x0,3
   105d0:	40650533          	sub	x10,x10,x6
   105d4:	06068c63          	beq	x13,x0,1064c <__subtf3+0xce8>
   105d8:	04058613          	addi	x12,x11,64
   105dc:	00260633          	add	x12,x12,x2
   105e0:	ff062603          	lw	x12,-16(x12)
   105e4:	03c12e83          	lw	x29,60(x2)
   105e8:	02000e13          	addi	x28,x0,32
   105ec:	40de0e33          	sub	x28,x28,x13
   105f0:	01c61633          	sll	x12,x12,x28
   105f4:	00c76733          	or	x14,x14,x12
   105f8:	00dedeb3          	srl	x29,x29,x13
   105fc:	6c050c63          	beq	x10,x0,10cd4 <__subtf3+0x1370>
   10600:	00251513          	slli	x10,x10,0x2
   10604:	00b78633          	add	x12,x15,x11
   10608:	00078813          	addi	x16,x15,0
   1060c:	00a78f33          	add	x30,x15,x10
   10610:	00062583          	lw	x11,0(x12)
   10614:	00462883          	lw	x17,4(x12)
   10618:	00480813          	addi	x16,x16,4
   1061c:	00d5d5b3          	srl	x11,x11,x13
   10620:	01c898b3          	sll	x17,x17,x28
   10624:	0115e5b3          	or	x11,x11,x17
   10628:	feb82e23          	sw	x11,-4(x16)
   1062c:	00460613          	addi	x12,x12,4
   10630:	ff0f10e3          	bne	x30,x16,10610 <__subtf3+0xcac>
   10634:	04050693          	addi	x13,x10,64
   10638:	00268533          	add	x10,x13,x2
   1063c:	00400693          	addi	x13,x0,4
   10640:	406686b3          	sub	x13,x13,x6
   10644:	ffd52823          	sw	x29,-16(x10)
   10648:	0280006f          	jal	x0,10670 <__subtf3+0xd0c>
   1064c:	00078613          	addi	x12,x15,0
   10650:	00b60833          	add	x16,x12,x11
   10654:	00082803          	lw	x16,0(x16)
   10658:	00168693          	addi	x13,x13,1
   1065c:	00460613          	addi	x12,x12,4
   10660:	ff062e23          	sw	x16,-4(x12)
   10664:	fed556e3          	bge	x10,x13,10650 <__subtf3+0xcec>
   10668:	00400693          	addi	x13,x0,4
   1066c:	406686b3          	sub	x13,x13,x6
   10670:	00400613          	addi	x12,x0,4
   10674:	03012e83          	lw	x29,48(x2)
   10678:	02c68e63          	beq	x13,x12,106b4 <__subtf3+0xd50>
   1067c:	00400613          	addi	x12,x0,4
   10680:	40d60633          	sub	x12,x12,x13
   10684:	00261613          	slli	x12,x12,0x2
   10688:	00269693          	slli	x13,x13,0x2
   1068c:	00800593          	addi	x11,x0,8
   10690:	00d786b3          	add	x13,x15,x13
   10694:	00b66a63          	bltu	x12,x11,106a8 <__subtf3+0xd44>
   10698:	0006a023          	sw	x0,0(x13)
   1069c:	0006a223          	sw	x0,4(x13)
   106a0:	ff860613          	addi	x12,x12,-8
   106a4:	00868693          	addi	x13,x13,8
   106a8:	00400593          	addi	x11,x0,4
   106ac:	00b66463          	bltu	x12,x11,106b4 <__subtf3+0xd50>
   106b0:	0006a023          	sw	x0,0(x13)
   106b4:	00e03733          	sltu	x14,x0,x14
   106b8:	01d76733          	or	x14,x14,x29
   106bc:	03c12e03          	lw	x28,60(x2)
   106c0:	02e12823          	sw	x14,48(x2)
   106c4:	00000413          	addi	x8,x0,0
   106c8:	0200006f          	jal	x0,106e8 <__subtf3+0xd84>
   106cc:	03c12e03          	lw	x28,60(x2)
   106d0:	fff806b7          	lui	x13,0xfff80
   106d4:	fff68693          	addi	x13,x13,-1 # fff7ffff <__heap_end+0xffb7ffff>
   106d8:	03012703          	lw	x14,48(x2)
   106dc:	00de7e33          	and	x28,x28,x13
   106e0:	40c40433          	sub	x8,x8,x12
   106e4:	03c12e23          	sw	x28,60(x2)
   106e8:	00777693          	andi	x13,x14,7
   106ec:	92069ce3          	bne	x13,x0,10024 <__subtf3+0x6c0>
   106f0:	975ff06f          	jal	x0,10064 <__subtf3+0x700>
   106f4:	006785b3          	add	x11,x15,x6
   106f8:	0005a583          	lw	x11,0(x11)
   106fc:	00168693          	addi	x13,x13,1
   10700:	00478793          	addi	x15,x15,4
   10704:	feb7ae23          	sw	x11,-4(x15)
   10708:	fed756e3          	bge	x14,x13,106f4 <__subtf3+0xd90>
   1070c:	00400793          	addi	x15,x0,4
   10710:	41e787b3          	sub	x15,x15,x30
   10714:	00400713          	addi	x14,x0,4
   10718:	02012583          	lw	x11,32(x2)
   1071c:	02e78e63          	beq	x15,x14,10758 <__subtf3+0xdf4>
   10720:	00400713          	addi	x14,x0,4
   10724:	40f70733          	sub	x14,x14,x15
   10728:	00271713          	slli	x14,x14,0x2
   1072c:	00279793          	slli	x15,x15,0x2
   10730:	00800693          	addi	x13,x0,8
   10734:	00ff87b3          	add	x15,x31,x15
   10738:	00d76a63          	bltu	x14,x13,1074c <__subtf3+0xde8>
   1073c:	0007a023          	sw	x0,0(x15)
   10740:	0007a223          	sw	x0,4(x15)
   10744:	ff870713          	addi	x14,x14,-8
   10748:	00878793          	addi	x15,x15,8
   1074c:	00400693          	addi	x13,x0,4
   10750:	00d76463          	bltu	x14,x13,10758 <__subtf3+0xdf4>
   10754:	0007a023          	sw	x0,0(x15)
   10758:	00c03733          	sltu	x14,x0,x12
   1075c:	02412783          	lw	x15,36(x2)
   10760:	02812683          	lw	x13,40(x2)
   10764:	02c12803          	lw	x16,44(x2)
   10768:	00b76733          	or	x14,x14,x11
   1076c:	85dff06f          	jal	x0,ffc8 <__subtf3+0x664>
   10770:	000087b7          	lui	x15,0x8
   10774:	fff78793          	addi	x15,x15,-1 # 7fff <__gdtoa+0xa73>
   10778:	0af80ee3          	beq	x16,x15,11034 <__subtf3+0x16d0>
   1077c:	01c12683          	lw	x13,28(x2)
   10780:	000805b7          	lui	x11,0x80
   10784:	07400793          	addi	x15,x0,116
   10788:	00b6e6b3          	or	x13,x13,x11
   1078c:	00d12e23          	sw	x13,28(x2)
   10790:	58a7d863          	bge	x15,x10,10d20 <__subtf3+0x13bc>
   10794:	000f8593          	addi	x11,x31,0
   10798:	00060793          	addi	x15,x12,0
   1079c:	00100713          	addi	x14,x0,1
   107a0:	00e30733          	add	x14,x6,x14
   107a4:	00673333          	sltu	x6,x14,x6
   107a8:	00f308b3          	add	x17,x6,x15
   107ac:	0068b333          	sltu	x6,x17,x6
   107b0:	00c7b7b3          	sltu	x15,x15,x12
   107b4:	0067e6b3          	or	x13,x15,x6
   107b8:	00b687b3          	add	x15,x13,x11
   107bc:	00d7b6b3          	sltu	x13,x15,x13
   107c0:	01f5b5b3          	sltu	x11,x11,x31
   107c4:	00d5e6b3          	or	x13,x11,x13
   107c8:	00de0e33          	add	x28,x28,x13
   107cc:	00080413          	addi	x8,x16,0
   107d0:	831ff06f          	jal	x0,10000 <__subtf3+0x69c>
   107d4:	05312623          	sw	x19,76(x2)
   107d8:	03012983          	lw	x19,48(x2)
   107dc:	02000e13          	addi	x28,x0,32
   107e0:	40565593          	srai	x11,x12,0x5
   107e4:	411e0e33          	sub	x28,x28,x17
   107e8:	011999b3          	sll	x19,x19,x17
   107ec:	d1dff06f          	jal	x0,10508 <__subtf3+0xba4>
   107f0:	68d000ef          	jal	x1,1167c <__clzsi2>
   107f4:	03450613          	addi	x12,x10,52
   107f8:	01f67893          	andi	x17,x12,31
   107fc:	40565593          	srai	x11,x12,0x5
   10800:	ca0886e3          	beq	x17,x0,104ac <__subtf3+0xb48>
   10804:	05312623          	sw	x19,76(x2)
   10808:	03012983          	lw	x19,48(x2)
   1080c:	02000e13          	addi	x28,x0,32
   10810:	411e0e33          	sub	x28,x28,x17
   10814:	011999b3          	sll	x19,x19,x17
   10818:	cf1ff06f          	jal	x0,10508 <__subtf3+0xba4>
   1081c:	41f3d513          	srai	x10,x7,0x1f
   10820:	01f57513          	andi	x10,x10,31
   10824:	00750533          	add	x10,x10,x7
   10828:	01f00793          	addi	x15,x0,31
   1082c:	40555513          	srai	x10,x10,0x5
   10830:	ca77c463          	blt	x15,x7,fcd8 <__subtf3+0x374>
   10834:	00050413          	addi	x8,x10,0
   10838:	00000793          	addi	x15,x0,0
   1083c:	00000513          	addi	x10,x0,0
   10840:	cbcff06f          	jal	x0,fcfc <__subtf3+0x398>
   10844:	00688333          	add	x6,x17,x6
   10848:	00f607b3          	add	x15,x12,x15
   1084c:	01133833          	sltu	x16,x6,x17
   10850:	01078833          	add	x16,x15,x16
   10854:	00c7b6b3          	sltu	x13,x15,x12
   10858:	00f837b3          	sltu	x15,x16,x15
   1085c:	00ef8733          	add	x14,x31,x14
   10860:	00f6e6b3          	or	x13,x13,x15
   10864:	00d706b3          	add	x13,x14,x13
   10868:	01f73633          	sltu	x12,x14,x31
   1086c:	00e6b733          	sltu	x14,x13,x14
   10870:	00e66633          	or	x12,x12,x14
   10874:	00be05b3          	add	x11,x28,x11
   10878:	00b60633          	add	x12,x12,x11
   1087c:	03010793          	addi	x15,x2,48
   10880:	03012a23          	sw	x16,52(x2)
   10884:	02612823          	sw	x6,48(x2)
   10888:	02d12c23          	sw	x13,56(x2)
   1088c:	02c12e23          	sw	x12,60(x2)
   10890:	00078713          	addi	x14,x15,0
   10894:	03c10813          	addi	x16,x2,60
   10898:	00135593          	srli	x11,x6,0x1
   1089c:	00472303          	lw	x6,4(x14)
   108a0:	00470713          	addi	x14,x14,4
   108a4:	01f31693          	slli	x13,x6,0x1f
   108a8:	00b6e6b3          	or	x13,x13,x11
   108ac:	fed72e23          	sw	x13,-4(x14)
   108b0:	fee814e3          	bne	x16,x14,10898 <__subtf3+0xf34>
   108b4:	00165e13          	srli	x28,x12,0x1
   108b8:	00008737          	lui	x14,0x8
   108bc:	03c12e23          	sw	x28,60(x2)
   108c0:	fff70713          	addi	x14,x14,-1 # 7fff <__gdtoa+0xa73>
   108c4:	8ce502e3          	beq	x10,x14,10188 <__subtf3+0x824>
   108c8:	03012703          	lw	x14,48(x2)
   108cc:	00050413          	addi	x8,x10,0
   108d0:	e19ff06f          	jal	x0,106e8 <__subtf3+0xd84>
   108d4:	4a079e63          	bne	x15,x0,10d90 <__subtf3+0x142c>
   108d8:	72071e63          	bne	x14,x0,11014 <__subtf3+0x16b0>
   108dc:	02a12e23          	sw	x10,60(x2)
   108e0:	02012c23          	sw	x0,56(x2)
   108e4:	02012a23          	sw	x0,52(x2)
   108e8:	02012823          	sw	x0,48(x2)
   108ec:	03010793          	addi	x15,x2,48
   108f0:	03c10713          	addi	x14,x2,60
   108f4:	00008637          	lui	x12,0x8
   108f8:	00361593          	slli	x11,x12,0x3
   108fc:	ffc72603          	lw	x12,-4(x14)
   10900:	ffc70713          	addi	x14,x14,-4
   10904:	01d65693          	srli	x13,x12,0x1d
   10908:	00b6e6b3          	or	x13,x13,x11
   1090c:	00d72223          	sw	x13,4(x14)
   10910:	fee794e3          	bne	x15,x14,108f8 <__subtf3+0xf94>
   10914:	03c12e03          	lw	x28,60(x2)
   10918:	00080737          	lui	x14,0x80
   1091c:	00000493          	addi	x9,x0,0
   10920:	00ee7733          	and	x14,x28,x14
   10924:	00008437          	lui	x8,0x8
   10928:	f4071c63          	bne	x14,x0,10080 <__subtf3+0x71c>
   1092c:	fff40413          	addi	x8,x8,-1 # 7fff <__gdtoa+0xa73>
   10930:	003e5613          	srli	x12,x28,0x3
   10934:	f60ff06f          	jal	x0,10094 <__subtf3+0x730>
   10938:	04c12983          	lw	x19,76(x2)
   1093c:	02612823          	sw	x6,48(x2)
   10940:	02c12a23          	sw	x12,52(x2)
   10944:	03f12c23          	sw	x31,56(x2)
   10948:	03c12e23          	sw	x28,60(x2)
   1094c:	00038413          	addi	x8,x7,0
   10950:	00058493          	addi	x9,x11,0 # 80000 <__heap_start+0x6d220>
   10954:	03010793          	addi	x15,x2,48
   10958:	f0cff06f          	jal	x0,10064 <__subtf3+0x700>
   1095c:	41130833          	sub	x16,x6,x17
   10960:	41d607b3          	sub	x15,x12,x29
   10964:	01033733          	sltu	x14,x6,x16
   10968:	41ef8f33          	sub	x30,x31,x30
   1096c:	00f632b3          	sltu	x5,x12,x15
   10970:	00028893          	addi	x17,x5,0
   10974:	40e78733          	sub	x14,x15,x14
   10978:	01efb533          	sltu	x10,x31,x30
   1097c:	01037463          	bgeu	x6,x16,10984 <__subtf3+0x1020>
   10980:	43d60a63          	beq	x12,x29,10db4 <__subtf3+0x1450>
   10984:	411f0633          	sub	x12,x30,x17
   10988:	42029863          	bne	x5,x0,10db8 <__subtf3+0x1454>
   1098c:	40de07b3          	sub	x15,x28,x13
   10990:	40a78533          	sub	x10,x15,x10
   10994:	02a12e23          	sw	x10,60(x2)
   10998:	02c12c23          	sw	x12,56(x2)
   1099c:	02e12a23          	sw	x14,52(x2)
   109a0:	03012823          	sw	x16,48(x2)
   109a4:	00058493          	addi	x9,x11,0
   109a8:	74050c63          	beq	x10,x0,11100 <__subtf3+0x179c>
   109ac:	4d1000ef          	jal	x1,1167c <__clzsi2>
   109b0:	ff450793          	addi	x15,x10,-12
   109b4:	01f7f613          	andi	x12,x15,31
   109b8:	00000593          	addi	x11,x0,0
   109bc:	72061c63          	bne	x12,x0,110f4 <__subtf3+0x1790>
   109c0:	04c12983          	lw	x19,76(x2)
   109c4:	ae9ff06f          	jal	x0,104ac <__subtf3+0xb48>
   109c8:	00688333          	add	x6,x17,x6
   109cc:	01d70eb3          	add	x29,x14,x29
   109d0:	011338b3          	sltu	x17,x6,x17
   109d4:	011e88b3          	add	x17,x29,x17
   109d8:	00eeb7b3          	sltu	x15,x29,x14
   109dc:	01d8beb3          	sltu	x29,x17,x29
   109e0:	00af0633          	add	x12,x30,x10
   109e4:	01d7e7b3          	or	x15,x15,x29
   109e8:	00f607b3          	add	x15,x12,x15
   109ec:	01e636b3          	sltu	x13,x12,x30
   109f0:	00c7b633          	sltu	x12,x15,x12
   109f4:	00c6e6b3          	or	x13,x13,x12
   109f8:	01c585b3          	add	x11,x11,x28
   109fc:	00030713          	addi	x14,x6,0
   10a00:	00b68e33          	add	x28,x13,x11
   10a04:	00100413          	addi	x8,x0,1
   10a08:	df8ff06f          	jal	x0,10000 <__subtf3+0x69c>
   10a0c:	02012703          	lw	x14,32(x2)
   10a10:	02000393          	addi	x7,x0,32
   10a14:	40d383b3          	sub	x7,x7,x13
   10a18:	00771633          	sll	x12,x14,x7
   10a1c:	05312623          	sw	x19,76(x2)
   10a20:	00d5d5b3          	srl	x11,x11,x13
   10a24:	00300713          	addi	x14,x0,3
   10a28:	00000313          	addi	x6,x0,0
   10a2c:	9ccff06f          	jal	x0,fbf8 <__subtf3+0x294>
   10a30:	03112823          	sw	x17,48(x2)
   10a34:	03d12a23          	sw	x29,52(x2)
   10a38:	02a12c23          	sw	x10,56(x2)
   10a3c:	03c12e23          	sw	x28,60(x2)
   10a40:	00068413          	addi	x8,x13,0
   10a44:	03010793          	addi	x15,x2,48
   10a48:	e1cff06f          	jal	x0,10064 <__subtf3+0x700>
   10a4c:	40688333          	sub	x6,x17,x6
   10a50:	41e507b3          	sub	x15,x10,x30
   10a54:	0068b6b3          	sltu	x13,x17,x6
   10a58:	00030713          	addi	x14,x6,0
   10a5c:	00f53333          	sltu	x6,x10,x15
   10a60:	00030f93          	addi	x31,x6,0
   10a64:	40d787b3          	sub	x15,x15,x13
   10a68:	010eb633          	sltu	x12,x29,x16
   10a6c:	410e86b3          	sub	x13,x29,x16
   10a70:	00e8f463          	bgeu	x17,x14,10a78 <__subtf3+0x1114>
   10a74:	04af0863          	beq	x30,x10,10ac4 <__subtf3+0x1160>
   10a78:	41f68533          	sub	x10,x13,x31
   10a7c:	00060693          	addi	x13,x12,0 # 8000 <__gdtoa+0xa74>
   10a80:	04031463          	bne	x6,x0,10ac8 <__subtf3+0x1164>
   10a84:	40be05b3          	sub	x11,x28,x11
   10a88:	40d58e33          	sub	x28,x11,x13
   10a8c:	00100413          	addi	x8,x0,1
   10a90:	868ff06f          	jal	x0,faf8 <__subtf3+0x194>
   10a94:	03112823          	sw	x17,48(x2)
   10a98:	02a12a23          	sw	x10,52(x2)
   10a9c:	03d12c23          	sw	x29,56(x2)
   10aa0:	03c12e23          	sw	x28,60(x2)
   10aa4:	03010793          	addi	x15,x2,48
   10aa8:	dbcff06f          	jal	x0,10064 <__subtf3+0x700>
   10aac:	00afb8b3          	sltu	x17,x31,x10
   10ab0:	fff50513          	addi	x10,x10,-1
   10ab4:	40df86b3          	sub	x13,x31,x13
   10ab8:	0016b693          	sltiu	x13,x13,1
   10abc:	00d8e8b3          	or	x17,x17,x13
   10ac0:	921ff06f          	jal	x0,103e0 <__subtf3+0xa7c>
   10ac4:	fff68513          	addi	x10,x13,-1
   10ac8:	41d806b3          	sub	x13,x16,x29
   10acc:	0016b693          	sltiu	x13,x13,1
   10ad0:	00d666b3          	or	x13,x12,x13
   10ad4:	fb1ff06f          	jal	x0,10a84 <__subtf3+0x1120>
   10ad8:	03112823          	sw	x17,48(x2)
   10adc:	03d12a23          	sw	x29,52(x2)
   10ae0:	02a12c23          	sw	x10,56(x2)
   10ae4:	03c12e23          	sw	x28,60(x2)
   10ae8:	03010793          	addi	x15,x2,48
   10aec:	d78ff06f          	jal	x0,10064 <__subtf3+0x700>
   10af0:	04c12983          	lw	x19,76(x2)
   10af4:	00028393          	addi	x7,x5,0
   10af8:	00000513          	addi	x10,x0,0
   10afc:	00300893          	addi	x17,x0,3
   10b00:	00000793          	addi	x15,x0,0
   10b04:	41f3d493          	srai	x9,x7,0x1f
   10b08:	00251713          	slli	x14,x10,0x2
   10b0c:	01b4d493          	srli	x9,x9,0x1b
   10b10:	04070713          	addi	x14,x14,64 # 80040 <__heap_start+0x6d260>
   10b14:	00938533          	add	x10,x7,x9
   10b18:	00270733          	add	x14,x14,x2
   10b1c:	fd072703          	lw	x14,-48(x14)
   10b20:	01f57513          	andi	x10,x10,31
   10b24:	40a483b3          	sub	x7,x9,x10
   10b28:	02038393          	addi	x7,x7,32
   10b2c:	00771733          	sll	x14,x14,x7
   10b30:	00e7e7b3          	or	x15,x15,x14
   10b34:	54088e63          	beq	x17,x0,11090 <__subtf3+0x172c>
   10b38:	05312623          	sw	x19,76(x2)
   10b3c:	00241993          	slli	x19,x8,0x2
   10b40:	013e8733          	add	x14,x29,x19
   10b44:	008f0f13          	addi	x30,x30,8
   10b48:	413009b3          	sub	x19,x0,x19
   10b4c:	00072683          	lw	x13,0(x14)
   10b50:	00472503          	lw	x10,4(x14)
   10b54:	013704b3          	add	x9,x14,x19
   10b58:	0056d6b3          	srl	x13,x13,x5
   10b5c:	00751533          	sll	x10,x10,x7
   10b60:	00a6e6b3          	or	x13,x13,x10
   10b64:	00d4a023          	sw	x13,0(x9)
   10b68:	00470713          	addi	x14,x14,4
   10b6c:	feef10e3          	bne	x30,x14,10b4c <__subtf3+0x11e8>
   10b70:	01c12503          	lw	x10,28(x2)
   10b74:	00289693          	slli	x13,x17,0x2
   10b78:	04068713          	addi	x14,x13,64
   10b7c:	002706b3          	add	x13,x14,x2
   10b80:	00555533          	srl	x10,x10,x5
   10b84:	00400713          	addi	x14,x0,4
   10b88:	04c12983          	lw	x19,76(x2)
   10b8c:	40870733          	sub	x14,x14,x8
   10b90:	fca6a823          	sw	x10,-48(x13)
   10b94:	99cff06f          	jal	x0,fd30 <__subtf3+0x3cc>
   10b98:	38069263          	bne	x13,x0,10f1c <__subtf3+0x15b8>
   10b9c:	02612823          	sw	x6,48(x2)
   10ba0:	02c12a23          	sw	x12,52(x2)
   10ba4:	03f12c23          	sw	x31,56(x2)
   10ba8:	03c12e23          	sw	x28,60(x2)
   10bac:	fff80413          	addi	x8,x16,-1
   10bb0:	03010793          	addi	x15,x2,48
   10bb4:	cb0ff06f          	jal	x0,10064 <__subtf3+0x700>
   10bb8:	02612823          	sw	x6,48(x2)
   10bbc:	02c12a23          	sw	x12,52(x2)
   10bc0:	03f12c23          	sw	x31,56(x2)
   10bc4:	03c12e23          	sw	x28,60(x2)
   10bc8:	88070ce3          	beq	x14,x0,10460 <__subtf3+0xafc>
   10bcc:	00ce1793          	slli	x15,x28,0xc
   10bd0:	00058493          	addi	x9,x11,0
   10bd4:	4c07dc63          	bge	x15,x0,110ac <__subtf3+0x1748>
   10bd8:	00100413          	addi	x8,x0,1
   10bdc:	03010793          	addi	x15,x2,48
   10be0:	ca0ff06f          	jal	x0,10080 <__subtf3+0x71c>
   10be4:	41130733          	sub	x14,x6,x17
   10be8:	413607b3          	sub	x15,x12,x19
   10bec:	00e33833          	sltu	x16,x6,x14
   10bf0:	00f638b3          	sltu	x17,x12,x15
   10bf4:	409f8533          	sub	x10,x31,x9
   10bf8:	410787b3          	sub	x15,x15,x16
   10bfc:	00088e93          	addi	x29,x17,0
   10c00:	00afb833          	sltu	x16,x31,x10
   10c04:	00e37463          	bgeu	x6,x14,10c0c <__subtf3+0x12a8>
   10c08:	38c98463          	beq	x19,x12,10f90 <__subtf3+0x162c>
   10c0c:	41d50533          	sub	x10,x10,x29
   10c10:	00080613          	addi	x12,x16,0
   10c14:	38089063          	bne	x17,x0,10f94 <__subtf3+0x1630>
   10c18:	40de06b3          	sub	x13,x28,x13
   10c1c:	04c12983          	lw	x19,76(x2)
   10c20:	40c68e33          	sub	x28,x13,x12
   10c24:	00058493          	addi	x9,x11,0
   10c28:	00100413          	addi	x8,x0,1
   10c2c:	ecdfe06f          	jal	x0,faf8 <__subtf3+0x194>
   10c30:	40ce87b3          	sub	x15,x29,x12
   10c34:	406882b3          	sub	x5,x17,x6
   10c38:	0058b533          	sltu	x10,x17,x5
   10c3c:	00feb733          	sltu	x14,x29,x15
   10c40:	00070393          	addi	x7,x14,0
   10c44:	40a787b3          	sub	x15,x15,x10
   10c48:	01ff3833          	sltu	x16,x30,x31
   10c4c:	41ff0533          	sub	x10,x30,x31
   10c50:	0058f463          	bgeu	x17,x5,10c58 <__subtf3+0x12f4>
   10c54:	37d60463          	beq	x12,x29,10fbc <__subtf3+0x1658>
   10c58:	40750533          	sub	x10,x10,x7
   10c5c:	36071263          	bne	x14,x0,10fc0 <__subtf3+0x165c>
   10c60:	41c68733          	sub	x14,x13,x28
   10c64:	41070733          	sub	x14,x14,x16
   10c68:	02e12e23          	sw	x14,60(x2)
   10c6c:	02a12c23          	sw	x10,56(x2)
   10c70:	02f12a23          	sw	x15,52(x2)
   10c74:	02512823          	sw	x5,48(x2)
   10c78:	00c71813          	slli	x16,x14,0xc
   10c7c:	32085463          	bge	x16,x0,10fa4 <__subtf3+0x1640>
   10c80:	41130833          	sub	x16,x6,x17
   10c84:	41d607b3          	sub	x15,x12,x29
   10c88:	01033733          	sltu	x14,x6,x16
   10c8c:	00f638b3          	sltu	x17,x12,x15
   10c90:	41ef8f33          	sub	x30,x31,x30
   10c94:	40e787b3          	sub	x15,x15,x14
   10c98:	00088513          	addi	x10,x17,0
   10c9c:	01efb733          	sltu	x14,x31,x30
   10ca0:	01037463          	bgeu	x6,x16,10ca8 <__subtf3+0x1344>
   10ca4:	3fd60c63          	beq	x12,x29,1109c <__subtf3+0x1738>
   10ca8:	40af0633          	sub	x12,x30,x10
   10cac:	3e089a63          	bne	x17,x0,110a0 <__subtf3+0x173c>
   10cb0:	40de06b3          	sub	x13,x28,x13
   10cb4:	40e68e33          	sub	x28,x13,x14
   10cb8:	02f12a23          	sw	x15,52(x2)
   10cbc:	03c12e23          	sw	x28,60(x2)
   10cc0:	02c12c23          	sw	x12,56(x2)
   10cc4:	03012823          	sw	x16,48(x2)
   10cc8:	00058493          	addi	x9,x11,0
   10ccc:	03010793          	addi	x15,x2,48
   10cd0:	b94ff06f          	jal	x0,10064 <__subtf3+0x700>
   10cd4:	00100693          	addi	x13,x0,1
   10cd8:	9a5ff06f          	jal	x0,1067c <__subtf3+0xd18>
   10cdc:	03012703          	lw	x14,48(x2)
   10ce0:	03c12e83          	lw	x29,60(x2)
   10ce4:	02000e13          	addi	x28,x0,32
   10ce8:	40de0e33          	sub	x28,x28,x13
   10cec:	01c71733          	sll	x14,x14,x28
   10cf0:	00dedeb3          	srl	x29,x29,x13
   10cf4:	00300513          	addi	x10,x0,3
   10cf8:	00000593          	addi	x11,x0,0
   10cfc:	905ff06f          	jal	x0,10600 <__subtf3+0xc9c>
   10d00:	05f00793          	addi	x15,x0,95
   10d04:	011999b3          	sll	x19,x19,x17
   10d08:	3ac7d863          	bge	x15,x12,110b8 <__subtf3+0x1754>
   10d0c:	03312e23          	sw	x19,60(x2)
   10d10:	00200713          	addi	x14,x0,2
   10d14:	04c12983          	lw	x19,76(x2)
   10d18:	03010793          	addi	x15,x2,48
   10d1c:	849ff06f          	jal	x0,10564 <__subtf3+0xc00>
   10d20:	41f55413          	srai	x8,x10,0x1f
   10d24:	01f47413          	andi	x8,x8,31
   10d28:	00a40433          	add	x8,x8,x10
   10d2c:	01f00793          	addi	x15,x0,31
   10d30:	40545413          	srai	x8,x8,0x5
   10d34:	9aa7c463          	blt	x15,x10,fedc <__subtf3+0x578>
   10d38:	00040893          	addi	x17,x8,0
   10d3c:	00000793          	addi	x15,x0,0
   10d40:	00000413          	addi	x8,x0,0
   10d44:	9bcff06f          	jal	x0,ff00 <__subtf3+0x59c>
   10d48:	00100793          	addi	x15,x0,1
   10d4c:	d50ff06f          	jal	x0,1029c <__subtf3+0x938>
   10d50:	02012703          	lw	x14,32(x2)
   10d54:	02000393          	addi	x7,x0,32
   10d58:	40d383b3          	sub	x7,x7,x13
   10d5c:	00771633          	sll	x12,x14,x7
   10d60:	05312623          	sw	x19,76(x2)
   10d64:	00d5d5b3          	srl	x11,x11,x13
   10d68:	00300713          	addi	x14,x0,3
   10d6c:	00000313          	addi	x6,x0,0
   10d70:	8bcff06f          	jal	x0,fe2c <__subtf3+0x4c8>
   10d74:	02612823          	sw	x6,48(x2)
   10d78:	02c12a23          	sw	x12,52(x2)
   10d7c:	03f12c23          	sw	x31,56(x2)
   10d80:	03c12e23          	sw	x28,60(x2)
   10d84:	00050413          	addi	x8,x10,0
   10d88:	03010793          	addi	x15,x2,48
   10d8c:	ad8ff06f          	jal	x0,10064 <__subtf3+0x700>
   10d90:	24071463          	bne	x14,x0,10fd8 <__subtf3+0x1674>
   10d94:	03112823          	sw	x17,48(x2)
   10d98:	03d12a23          	sw	x29,52(x2)
   10d9c:	03e12c23          	sw	x30,56(x2)
   10da0:	02d12e23          	sw	x13,60(x2)
   10da4:	00068e13          	addi	x28,x13,0
   10da8:	fff50413          	addi	x8,x10,-1
   10dac:	03010793          	addi	x15,x2,48
   10db0:	ab4ff06f          	jal	x0,10064 <__subtf3+0x700>
   10db4:	ffff0613          	addi	x12,x30,-1
   10db8:	001f3f13          	sltiu	x30,x30,1
   10dbc:	01e56533          	or	x10,x10,x30
   10dc0:	bcdff06f          	jal	x0,1098c <__subtf3+0x1028>
   10dc4:	02612823          	sw	x6,48(x2)
   10dc8:	02c12a23          	sw	x12,52(x2)
   10dcc:	03f12c23          	sw	x31,56(x2)
   10dd0:	03c12e23          	sw	x28,60(x2)
   10dd4:	03010793          	addi	x15,x2,48
   10dd8:	a8cff06f          	jal	x0,10064 <__subtf3+0x700>
   10ddc:	00688333          	add	x6,x17,x6
   10de0:	00f607b3          	add	x15,x12,x15
   10de4:	011336b3          	sltu	x13,x6,x17
   10de8:	00d786b3          	add	x13,x15,x13
   10dec:	00c7b633          	sltu	x12,x15,x12
   10df0:	00f6b7b3          	sltu	x15,x13,x15
   10df4:	00ef8733          	add	x14,x31,x14
   10df8:	00f667b3          	or	x15,x12,x15
   10dfc:	00f707b3          	add	x15,x14,x15
   10e00:	01f73fb3          	sltu	x31,x14,x31
   10e04:	00e7b733          	sltu	x14,x15,x14
   10e08:	00efe733          	or	x14,x31,x14
   10e0c:	00be05b3          	add	x11,x28,x11
   10e10:	00b70e33          	add	x28,x14,x11
   10e14:	02f12c23          	sw	x15,56(x2)
   10e18:	02612823          	sw	x6,48(x2)
   10e1c:	02d12a23          	sw	x13,52(x2)
   10e20:	00ce1793          	slli	x15,x28,0xc
   10e24:	c207de63          	bge	x15,x0,10260 <__subtf3+0x8fc>
   10e28:	fff807b7          	lui	x15,0xfff80
   10e2c:	fff78793          	addi	x15,x15,-1 # fff7ffff <__heap_end+0xffb7ffff>
   10e30:	00fe7e33          	and	x28,x28,x15
   10e34:	03c12e23          	sw	x28,60(x2)
   10e38:	00100413          	addi	x8,x0,1
   10e3c:	03010793          	addi	x15,x2,48
   10e40:	003e5613          	srli	x12,x28,0x3
   10e44:	a50ff06f          	jal	x0,10094 <__subtf3+0x730>
   10e48:	04c12983          	lw	x19,76(x2)
   10e4c:	00008437          	lui	x8,0x8
   10e50:	02612823          	sw	x6,48(x2)
   10e54:	02c12a23          	sw	x12,52(x2)
   10e58:	03f12c23          	sw	x31,56(x2)
   10e5c:	03c12e23          	sw	x28,60(x2)
   10e60:	00058493          	addi	x9,x11,0
   10e64:	fff40413          	addi	x8,x8,-1 # 7fff <__gdtoa+0xa73>
   10e68:	03010793          	addi	x15,x2,48
   10e6c:	9f8ff06f          	jal	x0,10064 <__subtf3+0x700>
   10e70:	04c12983          	lw	x19,76(x2)
   10e74:	d34ff06f          	jal	x0,103a8 <__subtf3+0xa44>
   10e78:	00058513          	addi	x10,x11,0
   10e7c:	00000893          	addi	x17,x0,0
   10e80:	00300393          	addi	x7,x0,3
   10e84:	00000793          	addi	x15,x0,0
   10e88:	41f55713          	srai	x14,x10,0x1f
   10e8c:	00241293          	slli	x5,x8,0x2
   10e90:	01b75713          	srli	x14,x14,0x1b
   10e94:	04028293          	addi	x5,x5,64
   10e98:	00e50533          	add	x10,x10,x14
   10e9c:	002282b3          	add	x5,x5,x2
   10ea0:	fd02a403          	lw	x8,-48(x5)
   10ea4:	01f57513          	andi	x10,x10,31
   10ea8:	40a70733          	sub	x14,x14,x10
   10eac:	02070293          	addi	x5,x14,32
   10eb0:	00541733          	sll	x14,x8,x5
   10eb4:	00e7e7b3          	or	x15,x15,x14
   10eb8:	20038863          	beq	x7,x0,110c8 <__subtf3+0x1764>
   10ebc:	05312623          	sw	x19,76(x2)
   10ec0:	00289993          	slli	x19,x17,0x2
   10ec4:	013e8733          	add	x14,x29,x19
   10ec8:	008f0f13          	addi	x30,x30,8
   10ecc:	413009b3          	sub	x19,x0,x19
   10ed0:	00072683          	lw	x13,0(x14)
   10ed4:	00472503          	lw	x10,4(x14)
   10ed8:	01370433          	add	x8,x14,x19
   10edc:	00b6d6b3          	srl	x13,x13,x11
   10ee0:	00551533          	sll	x10,x10,x5
   10ee4:	00a6e6b3          	or	x13,x13,x10
   10ee8:	00d42023          	sw	x13,0(x8)
   10eec:	00470713          	addi	x14,x14,4
   10ef0:	feef10e3          	bne	x30,x14,10ed0 <__subtf3+0x156c>
   10ef4:	01c12683          	lw	x13,28(x2)
   10ef8:	00239713          	slli	x14,x7,0x2
   10efc:	04070713          	addi	x14,x14,64
   10f00:	00b6d6b3          	srl	x13,x13,x11
   10f04:	00270733          	add	x14,x14,x2
   10f08:	00400593          	addi	x11,x0,4
   10f0c:	04c12983          	lw	x19,76(x2)
   10f10:	411588b3          	sub	x17,x11,x17
   10f14:	fcd72823          	sw	x13,-48(x14)
   10f18:	81cff06f          	jal	x0,ff34 <__subtf3+0x5d0>
   10f1c:	01f666b3          	or	x13,x12,x31
   10f20:	0066e6b3          	or	x13,x13,x6
   10f24:	01c6e6b3          	or	x13,x13,x28
   10f28:	12069663          	bne	x13,x0,11054 <__subtf3+0x16f0>
   10f2c:	02f12a23          	sw	x15,52(x2)
   10f30:	03112823          	sw	x17,48(x2)
   10f34:	02e12c23          	sw	x14,56(x2)
   10f38:	02b12e23          	sw	x11,60(x2)
   10f3c:	00058e13          	addi	x28,x11,0
   10f40:	fff80413          	addi	x8,x16,-1
   10f44:	03010793          	addi	x15,x2,48
   10f48:	91cff06f          	jal	x0,10064 <__subtf3+0x700>
   10f4c:	00688333          	add	x6,x17,x6
   10f50:	00c78633          	add	x12,x15,x12
   10f54:	011338b3          	sltu	x17,x6,x17
   10f58:	011608b3          	add	x17,x12,x17
   10f5c:	00f637b3          	sltu	x15,x12,x15
   10f60:	00c8b633          	sltu	x12,x17,x12
   10f64:	01f28fb3          	add	x31,x5,x31
   10f68:	00c7e7b3          	or	x15,x15,x12
   10f6c:	00ff87b3          	add	x15,x31,x15
   10f70:	005fb633          	sltu	x12,x31,x5
   10f74:	01f7bfb3          	sltu	x31,x15,x31
   10f78:	01f66633          	or	x12,x12,x31
   10f7c:	01c686b3          	add	x13,x13,x28
   10f80:	00030713          	addi	x14,x6,0
   10f84:	00d60e33          	add	x28,x12,x13
   10f88:	00100413          	addi	x8,x0,1
   10f8c:	874ff06f          	jal	x0,10000 <__subtf3+0x69c>
   10f90:	fff50513          	addi	x10,x10,-1
   10f94:	41f48633          	sub	x12,x9,x31
   10f98:	00163613          	sltiu	x12,x12,1
   10f9c:	00c86633          	or	x12,x16,x12
   10fa0:	c79ff06f          	jal	x0,10c18 <__subtf3+0x12b4>
   10fa4:	00f2e7b3          	or	x15,x5,x15
   10fa8:	00a7e7b3          	or	x15,x15,x10
   10fac:	00e7e7b3          	or	x15,x15,x14
   10fb0:	00070e13          	addi	x28,x14,0
   10fb4:	aa079863          	bne	x15,x0,10264 <__subtf3+0x900>
   10fb8:	ca8ff06f          	jal	x0,10460 <__subtf3+0xafc>
   10fbc:	fff50513          	addi	x10,x10,-1
   10fc0:	41ef8733          	sub	x14,x31,x30
   10fc4:	00173713          	sltiu	x14,x14,1
   10fc8:	00e86833          	or	x16,x16,x14
   10fcc:	c95ff06f          	jal	x0,10c60 <__subtf3+0x12fc>
   10fd0:	00100793          	addi	x15,x0,1
   10fd4:	f4cff06f          	jal	x0,10720 <__subtf3+0xdbc>
   10fd8:	02a12e23          	sw	x10,60(x2)
   10fdc:	02012c23          	sw	x0,56(x2)
   10fe0:	02012a23          	sw	x0,52(x2)
   10fe4:	02012823          	sw	x0,48(x2)
   10fe8:	03010793          	addi	x15,x2,48
   10fec:	03c10713          	addi	x14,x2,60
   10ff0:	00008637          	lui	x12,0x8
   10ff4:	00361593          	slli	x11,x12,0x3
   10ff8:	ffc72603          	lw	x12,-4(x14)
   10ffc:	ffc70713          	addi	x14,x14,-4
   11000:	01d65693          	srli	x13,x12,0x1d
   11004:	00b6e6b3          	or	x13,x13,x11
   11008:	00d72223          	sw	x13,4(x14)
   1100c:	fee794e3          	bne	x15,x14,10ff4 <__subtf3+0x1690>
   11010:	905ff06f          	jal	x0,10914 <__subtf3+0xfb0>
   11014:	02612823          	sw	x6,48(x2)
   11018:	02c12a23          	sw	x12,52(x2)
   1101c:	03f12c23          	sw	x31,56(x2)
   11020:	03c12e23          	sw	x28,60(x2)
   11024:	00058493          	addi	x9,x11,0
   11028:	fff50413          	addi	x8,x10,-1
   1102c:	03010793          	addi	x15,x2,48
   11030:	834ff06f          	jal	x0,10064 <__subtf3+0x700>
   11034:	00008437          	lui	x8,0x8
   11038:	02612823          	sw	x6,48(x2)
   1103c:	02c12a23          	sw	x12,52(x2)
   11040:	03f12c23          	sw	x31,56(x2)
   11044:	03c12e23          	sw	x28,60(x2)
   11048:	fff40413          	addi	x8,x8,-1 # 7fff <__gdtoa+0xa73>
   1104c:	03010793          	addi	x15,x2,48
   11050:	814ff06f          	jal	x0,10064 <__subtf3+0x700>
   11054:	03012e23          	sw	x16,60(x2)
   11058:	02012c23          	sw	x0,56(x2)
   1105c:	02012a23          	sw	x0,52(x2)
   11060:	02012823          	sw	x0,48(x2)
   11064:	03010793          	addi	x15,x2,48
   11068:	03c10713          	addi	x14,x2,60
   1106c:	00008637          	lui	x12,0x8
   11070:	00361593          	slli	x11,x12,0x3
   11074:	ffc72603          	lw	x12,-4(x14)
   11078:	ffc70713          	addi	x14,x14,-4
   1107c:	01d65693          	srli	x13,x12,0x1d
   11080:	00b6e6b3          	or	x13,x13,x11
   11084:	00d72223          	sw	x13,4(x14)
   11088:	fee794e3          	bne	x15,x14,11070 <__subtf3+0x170c>
   1108c:	889ff06f          	jal	x0,10914 <__subtf3+0xfb0>
   11090:	0056d2b3          	srl	x5,x13,x5
   11094:	00100713          	addi	x14,x0,1
   11098:	ca5fe06f          	jal	x0,fd3c <__subtf3+0x3d8>
   1109c:	ffff0613          	addi	x12,x30,-1
   110a0:	001f3f13          	sltiu	x30,x30,1
   110a4:	01e76733          	or	x14,x14,x30
   110a8:	c09ff06f          	jal	x0,10cb0 <__subtf3+0x134c>
   110ac:	03010793          	addi	x15,x2,48
   110b0:	003e5613          	srli	x12,x28,0x3
   110b4:	fe1fe06f          	jal	x0,10094 <__subtf3+0x730>
   110b8:	02000e13          	addi	x28,x0,32
   110bc:	411e0e33          	sub	x28,x28,x17
   110c0:	00200593          	addi	x11,x0,2
   110c4:	c44ff06f          	jal	x0,10508 <__subtf3+0xba4>
   110c8:	00b6d5b3          	srl	x11,x13,x11
   110cc:	00100893          	addi	x17,x0,1
   110d0:	e71fe06f          	jal	x0,ff40 <__subtf3+0x5dc>
   110d4:	02412603          	lw	x12,36(x2)
   110d8:	02812f83          	lw	x31,40(x2)
   110dc:	02c12e03          	lw	x28,44(x2)
   110e0:	b95fe06f          	jal	x0,fc74 <__subtf3+0x310>
   110e4:	02412603          	lw	x12,36(x2)
   110e8:	02812f83          	lw	x31,40(x2)
   110ec:	02c12e03          	lw	x28,44(x2)
   110f0:	d91fe06f          	jal	x0,fe80 <__subtf3+0x51c>
   110f4:	00060893          	addi	x17,x12,0 # 8000 <__gdtoa+0xa74>
   110f8:	00078613          	addi	x12,x15,0
   110fc:	bf8ff06f          	jal	x0,104f4 <__subtf3+0xb90>
   11100:	04c12983          	lw	x19,76(x2)
   11104:	a21fe06f          	jal	x0,fb24 <__subtf3+0x1c0>

00011108 <__unordtf2>:
   11108:	00c52803          	lw	x16,12(x10)
   1110c:	00c5a303          	lw	x6,12(x11)
   11110:	000087b7          	lui	x15,0x8
   11114:	fff78793          	addi	x15,x15,-1 # 7fff <__gdtoa+0xa73>
   11118:	01085713          	srli	x14,x16,0x10
   1111c:	01035693          	srli	x13,x6,0x10
   11120:	00f77733          	and	x14,x14,x15
   11124:	00052603          	lw	x12,0(x10)
   11128:	00452e03          	lw	x28,4(x10)
   1112c:	0005a883          	lw	x17,0(x11)
   11130:	0045ae83          	lw	x29,4(x11)
   11134:	00852503          	lw	x10,8(x10)
   11138:	0085a583          	lw	x11,8(x11)
   1113c:	ff010113          	addi	x2,x2,-16
   11140:	00f6f6b3          	and	x13,x13,x15
   11144:	02f70a63          	beq	x14,x15,11178 <__unordtf2+0x70>
   11148:	000087b7          	lui	x15,0x8
   1114c:	fff78793          	addi	x15,x15,-1 # 7fff <__gdtoa+0xa73>
   11150:	00000513          	addi	x10,x0,0
   11154:	00f69e63          	bne	x13,x15,11170 <__unordtf2+0x68>
   11158:	01d8e533          	or	x10,x17,x29
   1115c:	01031313          	slli	x6,x6,0x10
   11160:	00b56533          	or	x10,x10,x11
   11164:	01035313          	srli	x6,x6,0x10
   11168:	00656533          	or	x10,x10,x6
   1116c:	00a03533          	sltu	x10,x0,x10
   11170:	01010113          	addi	x2,x2,16
   11174:	00008067          	jalr	x0,0(x1)
   11178:	01c66633          	or	x12,x12,x28
   1117c:	01081813          	slli	x16,x16,0x10
   11180:	00a66633          	or	x12,x12,x10
   11184:	01085813          	srli	x16,x16,0x10
   11188:	01066633          	or	x12,x12,x16
   1118c:	00100513          	addi	x10,x0,1
   11190:	fa060ce3          	beq	x12,x0,11148 <__unordtf2+0x40>
   11194:	01010113          	addi	x2,x2,16
   11198:	00008067          	jalr	x0,0(x1)

0001119c <__fixtfsi>:
   1119c:	00c52783          	lw	x15,12(x10)
   111a0:	00052583          	lw	x11,0(x10)
   111a4:	00852603          	lw	x12,8(x10)
   111a8:	00452503          	lw	x10,4(x10)
   111ac:	fe010113          	addi	x2,x2,-32
   111b0:	00179713          	slli	x14,x15,0x1
   111b4:	000046b7          	lui	x13,0x4
   111b8:	00a12223          	sw	x10,4(x2)
   111bc:	00b12023          	sw	x11,0(x2)
   111c0:	00c12423          	sw	x12,8(x2)
   111c4:	00f12623          	sw	x15,12(x2)
   111c8:	00b12823          	sw	x11,16(x2)
   111cc:	00c12c23          	sw	x12,24(x2)
   111d0:	01175713          	srli	x14,x14,0x11
   111d4:	ffe68693          	addi	x13,x13,-2 # 3ffe <_vfprintf_r+0x13ba>
   111d8:	00000513          	addi	x10,x0,0
   111dc:	02e6d063          	bge	x13,x14,111fc <__fixtfsi+0x60>
   111e0:	000046b7          	lui	x13,0x4
   111e4:	01d68693          	addi	x13,x13,29 # 401d <_vfprintf_r+0x13d9>
   111e8:	01f7d593          	srli	x11,x15,0x1f
   111ec:	00e6dc63          	bge	x13,x14,11204 <__fixtfsi+0x68>
   111f0:	80000537          	lui	x10,0x80000
   111f4:	fff50513          	addi	x10,x10,-1 # 7fffffff <__heap_end+0x7fbfffff>
   111f8:	00a58533          	add	x10,x11,x10
   111fc:	02010113          	addi	x2,x2,32
   11200:	00008067          	jalr	x0,0(x1)
   11204:	000046b7          	lui	x13,0x4
   11208:	01079793          	slli	x15,x15,0x10
   1120c:	06f68693          	addi	x13,x13,111 # 406f <_vfprintf_r+0x142b>
   11210:	40e686b3          	sub	x13,x13,x14
   11214:	0107d793          	srli	x15,x15,0x10
   11218:	00010737          	lui	x14,0x10
   1121c:	00e7e7b3          	or	x15,x15,x14
   11220:	01f6f513          	andi	x10,x13,31
   11224:	00f12e23          	sw	x15,28(x2)
   11228:	4056d693          	srai	x13,x13,0x5
   1122c:	04050c63          	beq	x10,x0,11284 <__fixtfsi+0xe8>
   11230:	00200813          	addi	x16,x0,2
   11234:	00000713          	addi	x14,x0,0
   11238:	03069063          	bne	x13,x16,11258 <__fixtfsi+0xbc>
   1123c:	02000713          	addi	x14,x0,32
   11240:	40a70733          	sub	x14,x14,x10
   11244:	00e79733          	sll	x14,x15,x14
   11248:	00a65633          	srl	x12,x12,x10
   1124c:	00c76733          	or	x14,x14,x12
   11250:	00e12823          	sw	x14,16(x2)
   11254:	00100713          	addi	x14,x0,1
   11258:	00271713          	slli	x14,x14,0x2
   1125c:	02070713          	addi	x14,x14,32 # 10020 <__subtf3+0x6bc>
   11260:	00270733          	add	x14,x14,x2
   11264:	00a7d7b3          	srl	x15,x15,x10
   11268:	fef72823          	sw	x15,-16(x14)
   1126c:	01012783          	lw	x15,16(x2)
   11270:	40f00533          	sub	x10,x0,x15
   11274:	f80594e3          	bne	x11,x0,111fc <__fixtfsi+0x60>
   11278:	00078513          	addi	x10,x15,0
   1127c:	02010113          	addi	x2,x2,32
   11280:	00008067          	jalr	x0,0(x1)
   11284:	00269693          	slli	x13,x13,0x2
   11288:	02068793          	addi	x15,x13,32
   1128c:	002786b3          	add	x13,x15,x2
   11290:	ff06a783          	lw	x15,-16(x13)
   11294:	00f12823          	sw	x15,16(x2)
   11298:	fd5ff06f          	jal	x0,1126c <__fixtfsi+0xd0>

0001129c <__floatsitf>:
   1129c:	fd010113          	addi	x2,x2,-48
   112a0:	02912223          	sw	x9,36(x2)
   112a4:	02112623          	sw	x1,44(x2)
   112a8:	02812423          	sw	x8,40(x2)
   112ac:	00050493          	addi	x9,x10,0
   112b0:	0a058863          	beq	x11,x0,11360 <__floatsitf+0xc4>
   112b4:	41f5d793          	srai	x15,x11,0x1f
   112b8:	03212023          	sw	x18,32(x2)
   112bc:	00b7c933          	xor	x18,x15,x11
   112c0:	40f90933          	sub	x18,x18,x15
   112c4:	00090513          	addi	x10,x18,0
   112c8:	01f5d413          	srli	x8,x11,0x1f
   112cc:	3b0000ef          	jal	x1,1167c <__clzsi2>
   112d0:	05150713          	addi	x14,x10,81
   112d4:	000047b7          	lui	x15,0x4
   112d8:	01e78793          	addi	x15,x15,30 # 401e <_vfprintf_r+0x13da>
   112dc:	01f77613          	andi	x12,x14,31
   112e0:	01212823          	sw	x18,16(x2)
   112e4:	00012a23          	sw	x0,20(x2)
   112e8:	00012c23          	sw	x0,24(x2)
   112ec:	00012e23          	sw	x0,28(x2)
   112f0:	40a787b3          	sub	x15,x15,x10
   112f4:	40575713          	srai	x14,x14,0x5
   112f8:	0a061e63          	bne	x12,x0,113b4 <__floatsitf+0x118>
   112fc:	00300613          	addi	x12,x0,3
   11300:	40e60633          	sub	x12,x12,x14
   11304:	00261613          	slli	x12,x12,0x2
   11308:	02060693          	addi	x13,x12,32
   1130c:	00268633          	add	x12,x13,x2
   11310:	00200693          	addi	x13,x0,2
   11314:	ff062603          	lw	x12,-16(x12)
   11318:	00d71663          	bne	x14,x13,11324 <__floatsitf+0x88>
   1131c:	01212c23          	sw	x18,24(x2)
   11320:	00100693          	addi	x13,x0,1
   11324:	00269693          	slli	x13,x13,0x2
   11328:	00012823          	sw	x0,16(x2)
   1132c:	00012a23          	sw	x0,20(x2)
   11330:	ffc68693          	addi	x13,x13,-4
   11334:	00400713          	addi	x14,x0,4
   11338:	0ae6fe63          	bgeu	x13,x14,113f4 <__floatsitf+0x158>
   1133c:	01179793          	slli	x15,x15,0x11
   11340:	01061713          	slli	x14,x12,0x10
   11344:	01012803          	lw	x16,16(x2)
   11348:	01412503          	lw	x10,20(x2)
   1134c:	01812683          	lw	x13,24(x2)
   11350:	02012903          	lw	x18,32(x2)
   11354:	01075713          	srli	x14,x14,0x10
   11358:	0117d793          	srli	x15,x15,0x11
   1135c:	01c0006f          	jal	x0,11378 <__floatsitf+0xdc>
   11360:	00000413          	addi	x8,x0,0
   11364:	00000793          	addi	x15,x0,0
   11368:	00000713          	addi	x14,x0,0
   1136c:	00000693          	addi	x13,x0,0
   11370:	00000513          	addi	x10,x0,0
   11374:	00000813          	addi	x16,x0,0
   11378:	00f41593          	slli	x11,x8,0xf
   1137c:	00b7e7b3          	or	x15,x15,x11
   11380:	00e11623          	sh	x14,12(x2)
   11384:	00f11723          	sh	x15,14(x2)
   11388:	00c12783          	lw	x15,12(x2)
   1138c:	02c12083          	lw	x1,44(x2)
   11390:	02812403          	lw	x8,40(x2)
   11394:	00a4a223          	sw	x10,4(x9)
   11398:	0104a023          	sw	x16,0(x9)
   1139c:	00d4a423          	sw	x13,8(x9)
   113a0:	00f4a623          	sw	x15,12(x9)
   113a4:	00048513          	addi	x10,x9,0
   113a8:	02412483          	lw	x9,36(x2)
   113ac:	03010113          	addi	x2,x2,48
   113b0:	00008067          	jalr	x0,0(x1)
   113b4:	00200693          	addi	x13,x0,2
   113b8:	06d70263          	beq	x14,x13,1141c <__floatsitf+0x180>
   113bc:	00200693          	addi	x13,x0,2
   113c0:	00300713          	addi	x14,x0,3
   113c4:	00271713          	slli	x14,x14,0x2
   113c8:	02070713          	addi	x14,x14,32
   113cc:	00270733          	add	x14,x14,x2
   113d0:	00c91933          	sll	x18,x18,x12
   113d4:	ff272823          	sw	x18,-16(x14)
   113d8:	00269693          	slli	x13,x13,0x2
   113dc:	00012823          	sw	x0,16(x2)
   113e0:	00012a23          	sw	x0,20(x2)
   113e4:	ffc68693          	addi	x13,x13,-4
   113e8:	00400713          	addi	x14,x0,4
   113ec:	01c12603          	lw	x12,28(x2)
   113f0:	f4e6e6e3          	bltu	x13,x14,1133c <__floatsitf+0xa0>
   113f4:	00012c23          	sw	x0,24(x2)
   113f8:	01179793          	slli	x15,x15,0x11
   113fc:	01061713          	slli	x14,x12,0x10
   11400:	01012803          	lw	x16,16(x2)
   11404:	01412503          	lw	x10,20(x2)
   11408:	01812683          	lw	x13,24(x2)
   1140c:	02012903          	lw	x18,32(x2)
   11410:	01075713          	srli	x14,x14,0x10
   11414:	0117d793          	srli	x15,x15,0x11
   11418:	f61ff06f          	jal	x0,11378 <__floatsitf+0xdc>
   1141c:	02000693          	addi	x13,x0,32
   11420:	40c686b3          	sub	x13,x13,x12
   11424:	00d956b3          	srl	x13,x18,x13
   11428:	00d12e23          	sw	x13,28(x2)
   1142c:	00100693          	addi	x13,x0,1
   11430:	f95ff06f          	jal	x0,113c4 <__floatsitf+0x128>

00011434 <__extenddftf2>:
   11434:	01465793          	srli	x15,x12,0x14
   11438:	00c61713          	slli	x14,x12,0xc
   1143c:	7ff7f793          	andi	x15,x15,2047
   11440:	fd010113          	addi	x2,x2,-48
   11444:	00c75713          	srli	x14,x14,0xc
   11448:	00178693          	addi	x13,x15,1
   1144c:	02812423          	sw	x8,40(x2)
   11450:	02912223          	sw	x9,36(x2)
   11454:	03212023          	sw	x18,32(x2)
   11458:	02112623          	sw	x1,44(x2)
   1145c:	00b12823          	sw	x11,16(x2)
   11460:	00e12a23          	sw	x14,20(x2)
   11464:	00012e23          	sw	x0,28(x2)
   11468:	00012c23          	sw	x0,24(x2)
   1146c:	7fe6f693          	andi	x13,x13,2046
   11470:	00058413          	addi	x8,x11,0
   11474:	00050913          	addi	x18,x10,0
   11478:	01f65493          	srli	x9,x12,0x1f
   1147c:	06068463          	beq	x13,x0,114e4 <__extenddftf2+0xb0>
   11480:	00004637          	lui	x12,0x4
   11484:	01c71693          	slli	x13,x14,0x1c
   11488:	0045d593          	srli	x11,x11,0x4
   1148c:	c0060613          	addi	x12,x12,-1024 # 3c00 <_vfprintf_r+0xfbc>
   11490:	00b6e6b3          	or	x13,x13,x11
   11494:	01c41413          	slli	x8,x8,0x1c
   11498:	00475713          	srli	x14,x14,0x4
   1149c:	00c787b3          	add	x15,x15,x12
   114a0:	00000513          	addi	x10,x0,0
   114a4:	00f49613          	slli	x12,x9,0xf
   114a8:	00c7e7b3          	or	x15,x15,x12
   114ac:	00e11623          	sh	x14,12(x2)
   114b0:	00f11723          	sh	x15,14(x2)
   114b4:	00c12783          	lw	x15,12(x2)
   114b8:	00892223          	sw	x8,4(x18)
   114bc:	02c12083          	lw	x1,44(x2)
   114c0:	02812403          	lw	x8,40(x2)
   114c4:	00a92023          	sw	x10,0(x18)
   114c8:	00d92423          	sw	x13,8(x18)
   114cc:	00f92623          	sw	x15,12(x18)
   114d0:	02412483          	lw	x9,36(x2)
   114d4:	00090513          	addi	x10,x18,0
   114d8:	02012903          	lw	x18,32(x2)
   114dc:	03010113          	addi	x2,x2,48
   114e0:	00008067          	jalr	x0,0(x1)
   114e4:	00b76533          	or	x10,x14,x11
   114e8:	0a079663          	bne	x15,x0,11594 <__extenddftf2+0x160>
   114ec:	0e050663          	beq	x10,x0,115d8 <__extenddftf2+0x1a4>
   114f0:	0e070e63          	beq	x14,x0,115ec <__extenddftf2+0x1b8>
   114f4:	00070513          	addi	x10,x14,0
   114f8:	184000ef          	jal	x1,1167c <__clzsi2>
   114fc:	03150793          	addi	x15,x10,49
   11500:	01f7f593          	andi	x11,x15,31
   11504:	4057d793          	srai	x15,x15,0x5
   11508:	10059a63          	bne	x11,x0,1161c <__extenddftf2+0x1e8>
   1150c:	40f006b3          	sub	x13,x0,x15
   11510:	00269693          	slli	x13,x13,0x2
   11514:	01010613          	addi	x12,x2,16
   11518:	00d60733          	add	x14,x12,x13
   1151c:	00010893          	addi	x17,x2,0
   11520:	40d006b3          	sub	x13,x0,x13
   11524:	00c72803          	lw	x16,12(x14)
   11528:	00d705b3          	add	x11,x14,x13
   1152c:	ffc70713          	addi	x14,x14,-4
   11530:	0105a623          	sw	x16,12(x11)
   11534:	fee898e3          	bne	x17,x14,11524 <__extenddftf2+0xf0>
   11538:	fff78713          	addi	x14,x15,-1
   1153c:	00170793          	addi	x15,x14,1
   11540:	00279793          	slli	x15,x15,0x2
   11544:	00800693          	addi	x13,x0,8
   11548:	00060713          	addi	x14,x12,0
   1154c:	00d7ea63          	bltu	x15,x13,11560 <__extenddftf2+0x12c>
   11550:	00012823          	sw	x0,16(x2)
   11554:	00062223          	sw	x0,4(x12)
   11558:	ff878793          	addi	x15,x15,-8
   1155c:	01810713          	addi	x14,x2,24
   11560:	00400693          	addi	x13,x0,4
   11564:	00d7e463          	bltu	x15,x13,1156c <__extenddftf2+0x138>
   11568:	00072023          	sw	x0,0(x14)
   1156c:	000047b7          	lui	x15,0x4
   11570:	c0c78793          	addi	x15,x15,-1012 # 3c0c <_vfprintf_r+0xfc8>
   11574:	40a787b3          	sub	x15,x15,x10
   11578:	01179793          	slli	x15,x15,0x11
   1157c:	01012503          	lw	x10,16(x2)
   11580:	01412403          	lw	x8,20(x2)
   11584:	01812683          	lw	x13,24(x2)
   11588:	01c15703          	lhu	x14,28(x2)
   1158c:	0117d793          	srli	x15,x15,0x11
   11590:	f15ff06f          	jal	x0,114a4 <__extenddftf2+0x70>
   11594:	02050663          	beq	x10,x0,115c0 <__extenddftf2+0x18c>
   11598:	000087b7          	lui	x15,0x8
   1159c:	01c71693          	slli	x13,x14,0x1c
   115a0:	0045d613          	srli	x12,x11,0x4
   115a4:	00475713          	srli	x14,x14,0x4
   115a8:	00f76733          	or	x14,x14,x15
   115ac:	00c6e6b3          	or	x13,x13,x12
   115b0:	01c59413          	slli	x8,x11,0x1c
   115b4:	fff78793          	addi	x15,x15,-1 # 7fff <__gdtoa+0xa73>
   115b8:	00000513          	addi	x10,x0,0
   115bc:	ee9ff06f          	jal	x0,114a4 <__extenddftf2+0x70>
   115c0:	000087b7          	lui	x15,0x8
   115c4:	00000693          	addi	x13,x0,0
   115c8:	00000413          	addi	x8,x0,0
   115cc:	fff78793          	addi	x15,x15,-1 # 7fff <__gdtoa+0xa73>
   115d0:	00000713          	addi	x14,x0,0
   115d4:	ed1ff06f          	jal	x0,114a4 <__extenddftf2+0x70>
   115d8:	00000693          	addi	x13,x0,0
   115dc:	00000413          	addi	x8,x0,0
   115e0:	00000793          	addi	x15,x0,0
   115e4:	00000713          	addi	x14,x0,0
   115e8:	ebdff06f          	jal	x0,114a4 <__extenddftf2+0x70>
   115ec:	090000ef          	jal	x1,1167c <__clzsi2>
   115f0:	05150793          	addi	x15,x10,81
   115f4:	01f7f593          	andi	x11,x15,31
   115f8:	02050513          	addi	x10,x10,32
   115fc:	4057d793          	srai	x15,x15,0x5
   11600:	f00586e3          	beq	x11,x0,1150c <__extenddftf2+0xd8>
   11604:	00200713          	addi	x14,x0,2
   11608:	00e78a63          	beq	x15,x14,1161c <__extenddftf2+0x1e8>
   1160c:	00200713          	addi	x14,x0,2
   11610:	00300793          	addi	x15,x0,3
   11614:	01010613          	addi	x12,x2,16
   11618:	04c0006f          	jal	x0,11664 <__extenddftf2+0x230>
   1161c:	40f008b3          	sub	x17,x0,x15
   11620:	00289893          	slli	x17,x17,0x2
   11624:	00c88713          	addi	x14,x17,12
   11628:	02000e13          	addi	x28,x0,32
   1162c:	01010613          	addi	x12,x2,16
   11630:	40be0e33          	sub	x28,x28,x11
   11634:	00e60733          	add	x14,x12,x14
   11638:	411008b3          	sub	x17,x0,x17
   1163c:	00072683          	lw	x13,0(x14)
   11640:	ffc72803          	lw	x16,-4(x14)
   11644:	01170333          	add	x6,x14,x17
   11648:	00b696b3          	sll	x13,x13,x11
   1164c:	01c85833          	srl	x16,x16,x28
   11650:	0106e6b3          	or	x13,x13,x16
   11654:	00d32023          	sw	x13,0(x6)
   11658:	ffc70713          	addi	x14,x14,-4
   1165c:	fee610e3          	bne	x12,x14,1163c <__extenddftf2+0x208>
   11660:	fff78713          	addi	x14,x15,-1
   11664:	00279793          	slli	x15,x15,0x2
   11668:	02078793          	addi	x15,x15,32
   1166c:	002787b3          	add	x15,x15,x2
   11670:	00b415b3          	sll	x11,x8,x11
   11674:	feb7a823          	sw	x11,-16(x15)
   11678:	ec5ff06f          	jal	x0,1153c <__extenddftf2+0x108>

0001167c <__clzsi2>:
   1167c:	000107b7          	lui	x15,0x10
   11680:	02f57a63          	bgeu	x10,x15,116b4 <__clzsi2+0x38>
   11684:	10053713          	sltiu	x14,x10,256
   11688:	00173713          	sltiu	x14,x14,1
   1168c:	00371713          	slli	x14,x14,0x3
   11690:	000127b7          	lui	x15,0x12
   11694:	00e55533          	srl	x10,x10,x14
   11698:	2ac78793          	addi	x15,x15,684 # 122ac <__clz_tab>
   1169c:	00a787b3          	add	x15,x15,x10
   116a0:	0007c503          	lbu	x10,0(x15)
   116a4:	02000693          	addi	x13,x0,32
   116a8:	40e686b3          	sub	x13,x13,x14
   116ac:	40a68533          	sub	x10,x13,x10
   116b0:	00008067          	jalr	x0,0(x1)
   116b4:	010007b7          	lui	x15,0x1000
   116b8:	02f57463          	bgeu	x10,x15,116e0 <__clzsi2+0x64>
   116bc:	01000713          	addi	x14,x0,16
   116c0:	000127b7          	lui	x15,0x12
   116c4:	00e55533          	srl	x10,x10,x14
   116c8:	2ac78793          	addi	x15,x15,684 # 122ac <__clz_tab>
   116cc:	00a787b3          	add	x15,x15,x10
   116d0:	0007c503          	lbu	x10,0(x15)
   116d4:	01000693          	addi	x13,x0,16
   116d8:	40a68533          	sub	x10,x13,x10
   116dc:	00008067          	jalr	x0,0(x1)
   116e0:	01800713          	addi	x14,x0,24
   116e4:	000127b7          	lui	x15,0x12
   116e8:	00e55533          	srl	x10,x10,x14
   116ec:	2ac78793          	addi	x15,x15,684 # 122ac <__clz_tab>
   116f0:	00a787b3          	add	x15,x15,x10
   116f4:	0007c503          	lbu	x10,0(x15)
   116f8:	00800693          	addi	x13,x0,8
   116fc:	40a68533          	sub	x10,x13,x10
   11700:	00008067          	jalr	x0,0(x1)
